ARM GAS  C:\Users\student\AppData\Local\Temp\ccbgZXTg.s 			page 1


   1              		.syntax unified
   2              		.cpu cortex-m3
   3              		.fpu softvfp
   4              		.eabi_attribute 20, 1
   5              		.eabi_attribute 21, 1
   6              		.eabi_attribute 23, 3
   7              		.eabi_attribute 24, 1
   8              		.eabi_attribute 25, 1
   9              		.eabi_attribute 26, 1
  10              		.eabi_attribute 30, 1
  11              		.eabi_attribute 34, 1
  12              		.eabi_attribute 18, 4
  13              		.thumb
  14              		.file	"Cm3Start.c"
  15              		.text
  16              	.Ltext0:
  17              		.cfi_sections	.debug_frame
  18              		.section	.text.IntDefaultHandler,"ax",%progbits
  19              		.align	2
  20              		.global	IntDefaultHandler
  21              		.thumb
  22              		.thumb_func
  23              		.type	IntDefaultHandler, %function
  24              	IntDefaultHandler:
  25              	.LFB0:
  26              		.file 1 ".\\Generated_Source\\PSoC5\\Cm3Start.c"
   1:.\Generated_Source\PSoC5/Cm3Start.c **** /***************************************************************************//**
   2:.\Generated_Source\PSoC5/Cm3Start.c **** * \file Cm3Start.c
   3:.\Generated_Source\PSoC5/Cm3Start.c **** * \version 5.40
   4:.\Generated_Source\PSoC5/Cm3Start.c **** *
   5:.\Generated_Source\PSoC5/Cm3Start.c **** *  \brief
   6:.\Generated_Source\PSoC5/Cm3Start.c **** *  Startup code for the ARM CM3.
   7:.\Generated_Source\PSoC5/Cm3Start.c **** *
   8:.\Generated_Source\PSoC5/Cm3Start.c **** ********************************************************************************
   9:.\Generated_Source\PSoC5/Cm3Start.c **** * \copyright
  10:.\Generated_Source\PSoC5/Cm3Start.c **** * Copyright 2008-2015, Cypress Semiconductor Corporation. All rights reserved.
  11:.\Generated_Source\PSoC5/Cm3Start.c **** * You may use this file only in accordance with the license, terms, conditions,
  12:.\Generated_Source\PSoC5/Cm3Start.c **** * disclaimers, and limitations in the end user license agreement accompanying
  13:.\Generated_Source\PSoC5/Cm3Start.c **** * the software package with which this file was provided.
  14:.\Generated_Source\PSoC5/Cm3Start.c **** *******************************************************************************/
  15:.\Generated_Source\PSoC5/Cm3Start.c **** 
  16:.\Generated_Source\PSoC5/Cm3Start.c **** #include <limits.h>
  17:.\Generated_Source\PSoC5/Cm3Start.c **** #include "cydevice_trm.h"
  18:.\Generated_Source\PSoC5/Cm3Start.c **** #include "cytypes.h"
  19:.\Generated_Source\PSoC5/Cm3Start.c **** #include "cyfitter_cfg.h"
  20:.\Generated_Source\PSoC5/Cm3Start.c **** #include "CyLib.h"
  21:.\Generated_Source\PSoC5/Cm3Start.c **** #include "CyDmac.h"
  22:.\Generated_Source\PSoC5/Cm3Start.c **** #include "cyfitter.h"
  23:.\Generated_Source\PSoC5/Cm3Start.c **** #include "cyapicallbacks.h"
  24:.\Generated_Source\PSoC5/Cm3Start.c **** 
  25:.\Generated_Source\PSoC5/Cm3Start.c **** #define CY_NUM_INTERRUPTS           (32u)
  26:.\Generated_Source\PSoC5/Cm3Start.c **** #define CY_NUM_VECTORS              (CYINT_IRQ_BASE + CY_NUM_INTERRUPTS)
  27:.\Generated_Source\PSoC5/Cm3Start.c **** #define CY_NUM_ROM_VECTORS          (4u)
  28:.\Generated_Source\PSoC5/Cm3Start.c **** #define CY_NVIC_APINT_PTR           ((reg32 *) CYREG_NVIC_APPLN_INTR)
  29:.\Generated_Source\PSoC5/Cm3Start.c **** #define CY_NVIC_CFG_CTRL_PTR        ((reg32 *) CYREG_NVIC_CFG_CONTROL)
  30:.\Generated_Source\PSoC5/Cm3Start.c **** #define CY_NVIC_APINT_PRIGROUP_3_5  (0x00000400u)  /* Priority group 3.5 split */
  31:.\Generated_Source\PSoC5/Cm3Start.c **** #define CY_NVIC_APINT_VECTKEY       (0x05FA0000u)  /* This key is required in order to write the NV
ARM GAS  C:\Users\student\AppData\Local\Temp\ccbgZXTg.s 			page 2


  32:.\Generated_Source\PSoC5/Cm3Start.c **** #define CY_NVIC_CFG_STACKALIGN      (0x00000200u)  /* This specifies that the exception stack must 
  33:.\Generated_Source\PSoC5/Cm3Start.c **** 
  34:.\Generated_Source\PSoC5/Cm3Start.c **** #if defined(__ARMCC_VERSION)
  35:.\Generated_Source\PSoC5/Cm3Start.c ****     #define INITIAL_STACK_POINTER ((cyisraddress)(uint32)&Image$$ARM_LIB_STACK$$ZI$$Limit)
  36:.\Generated_Source\PSoC5/Cm3Start.c **** #elif defined (__GNUC__)
  37:.\Generated_Source\PSoC5/Cm3Start.c ****     #define INITIAL_STACK_POINTER (&__cy_stack)
  38:.\Generated_Source\PSoC5/Cm3Start.c **** #elif defined (__ICCARM__)
  39:.\Generated_Source\PSoC5/Cm3Start.c ****     #pragma language=extended
  40:.\Generated_Source\PSoC5/Cm3Start.c ****     #pragma segment="CSTACK"
  41:.\Generated_Source\PSoC5/Cm3Start.c ****     #define INITIAL_STACK_POINTER  { .__ptr = __sfe( "CSTACK" ) }
  42:.\Generated_Source\PSoC5/Cm3Start.c **** 
  43:.\Generated_Source\PSoC5/Cm3Start.c ****     extern void __iar_program_start( void );
  44:.\Generated_Source\PSoC5/Cm3Start.c ****     extern void __iar_data_init3 (void);
  45:.\Generated_Source\PSoC5/Cm3Start.c **** #endif  /* (__ARMCC_VERSION) */
  46:.\Generated_Source\PSoC5/Cm3Start.c **** 
  47:.\Generated_Source\PSoC5/Cm3Start.c **** #if defined(__GNUC__)
  48:.\Generated_Source\PSoC5/Cm3Start.c ****     #include <errno.h>
  49:.\Generated_Source\PSoC5/Cm3Start.c ****     extern int  errno;
  50:.\Generated_Source\PSoC5/Cm3Start.c ****     extern int  end;
  51:.\Generated_Source\PSoC5/Cm3Start.c **** #endif  /* defined(__GNUC__) */
  52:.\Generated_Source\PSoC5/Cm3Start.c **** 
  53:.\Generated_Source\PSoC5/Cm3Start.c **** /* Extern functions */
  54:.\Generated_Source\PSoC5/Cm3Start.c **** extern void CyBtldr_CheckLaunch(void);
  55:.\Generated_Source\PSoC5/Cm3Start.c **** 
  56:.\Generated_Source\PSoC5/Cm3Start.c **** /* Function prototypes */
  57:.\Generated_Source\PSoC5/Cm3Start.c **** void initialize_psoc(void);
  58:.\Generated_Source\PSoC5/Cm3Start.c **** CY_ISR(IntDefaultHandler);
  59:.\Generated_Source\PSoC5/Cm3Start.c **** void Reset(void);
  60:.\Generated_Source\PSoC5/Cm3Start.c **** 
  61:.\Generated_Source\PSoC5/Cm3Start.c **** /* Global variables */
  62:.\Generated_Source\PSoC5/Cm3Start.c **** #if !defined (__ICCARM__)
  63:.\Generated_Source\PSoC5/Cm3Start.c ****     CY_NOINIT static uint32 cySysNoInitDataValid;
  64:.\Generated_Source\PSoC5/Cm3Start.c **** #endif  /* !defined (__ICCARM__) */
  65:.\Generated_Source\PSoC5/Cm3Start.c **** 
  66:.\Generated_Source\PSoC5/Cm3Start.c **** 
  67:.\Generated_Source\PSoC5/Cm3Start.c **** /*******************************************************************************
  68:.\Generated_Source\PSoC5/Cm3Start.c **** * Default Ram Interrupt Vector table storage area. Must be 256-byte aligned.
  69:.\Generated_Source\PSoC5/Cm3Start.c **** *******************************************************************************/
  70:.\Generated_Source\PSoC5/Cm3Start.c **** #if defined (__ICCARM__)
  71:.\Generated_Source\PSoC5/Cm3Start.c ****     #pragma location=".ramvectors"
  72:.\Generated_Source\PSoC5/Cm3Start.c ****     #pragma data_alignment=256
  73:.\Generated_Source\PSoC5/Cm3Start.c **** #else
  74:.\Generated_Source\PSoC5/Cm3Start.c ****     CY_SECTION(".ramvectors")
  75:.\Generated_Source\PSoC5/Cm3Start.c ****     CY_ALIGN(256)
  76:.\Generated_Source\PSoC5/Cm3Start.c **** #endif  /* defined (__ICCARM__) */
  77:.\Generated_Source\PSoC5/Cm3Start.c **** cyisraddress CyRamVectors[CY_NUM_VECTORS];
  78:.\Generated_Source\PSoC5/Cm3Start.c **** 
  79:.\Generated_Source\PSoC5/Cm3Start.c **** 
  80:.\Generated_Source\PSoC5/Cm3Start.c **** /*******************************************************************************
  81:.\Generated_Source\PSoC5/Cm3Start.c **** * Function Name: IntDefaultHandler
  82:.\Generated_Source\PSoC5/Cm3Start.c **** ****************************************************************************//**
  83:.\Generated_Source\PSoC5/Cm3Start.c **** *
  84:.\Generated_Source\PSoC5/Cm3Start.c **** *  This function is called for all interrupts, other than a reset that gets
  85:.\Generated_Source\PSoC5/Cm3Start.c **** *  called before the system is setup.
  86:.\Generated_Source\PSoC5/Cm3Start.c **** *
  87:.\Generated_Source\PSoC5/Cm3Start.c **** * Theory:
  88:.\Generated_Source\PSoC5/Cm3Start.c **** *  Any value other than zero is acceptable.
ARM GAS  C:\Users\student\AppData\Local\Temp\ccbgZXTg.s 			page 3


  89:.\Generated_Source\PSoC5/Cm3Start.c **** *
  90:.\Generated_Source\PSoC5/Cm3Start.c **** *******************************************************************************/
  91:.\Generated_Source\PSoC5/Cm3Start.c **** CY_ISR(IntDefaultHandler)
  92:.\Generated_Source\PSoC5/Cm3Start.c **** {
  27              		.loc 1 92 0
  28              		.cfi_startproc
  29              		@ Volatile: function does not return.
  30              		@ args = 0, pretend = 0, frame = 0
  31              		@ frame_needed = 0, uses_anonymous_args = 0
  32              		@ link register save eliminated.
  33              	.L2:
  93:.\Generated_Source\PSoC5/Cm3Start.c ****     #ifdef CY_BOOT_INT_DEFAULT_HANDLER_EXCEPTION_ENTRY_CALLBACK
  94:.\Generated_Source\PSoC5/Cm3Start.c ****         CyBoot_IntDefaultHandler_Exception_EntryCallback();
  95:.\Generated_Source\PSoC5/Cm3Start.c ****     #endif /* CY_BOOT_INT_DEFAULT_HANDLER_EXCEPTION_ENTRY_CALLBACK */
  96:.\Generated_Source\PSoC5/Cm3Start.c **** 
  97:.\Generated_Source\PSoC5/Cm3Start.c ****     while(1)
  98:.\Generated_Source\PSoC5/Cm3Start.c ****     {
  99:.\Generated_Source\PSoC5/Cm3Start.c ****         /***********************************************************************
 100:.\Generated_Source\PSoC5/Cm3Start.c ****         * We must not get here. If we do, a serious problem occurs, so go
 101:.\Generated_Source\PSoC5/Cm3Start.c ****         * into an infinite loop.
 102:.\Generated_Source\PSoC5/Cm3Start.c ****         ***********************************************************************/
 103:.\Generated_Source\PSoC5/Cm3Start.c ****     }
  34              		.loc 1 103 0 discriminator 1
  35 0000 FEE7     		b	.L2
  36              		.cfi_endproc
  37              	.LFE0:
  38              		.size	IntDefaultHandler, .-IntDefaultHandler
  39 0002 00BF     		.section	.text._exit,"ax",%progbits
  40              		.align	2
  41              		.weak	_exit
  42              		.thumb
  43              		.thumb_func
  44              		.type	_exit, %function
  45              	_exit:
  46              	.LFB1:
 104:.\Generated_Source\PSoC5/Cm3Start.c **** }
 105:.\Generated_Source\PSoC5/Cm3Start.c **** 
 106:.\Generated_Source\PSoC5/Cm3Start.c **** 
 107:.\Generated_Source\PSoC5/Cm3Start.c **** #if defined(__ARMCC_VERSION)
 108:.\Generated_Source\PSoC5/Cm3Start.c **** 
 109:.\Generated_Source\PSoC5/Cm3Start.c **** /* Local function for device reset. */
 110:.\Generated_Source\PSoC5/Cm3Start.c **** extern void Reset(void);
 111:.\Generated_Source\PSoC5/Cm3Start.c **** 
 112:.\Generated_Source\PSoC5/Cm3Start.c **** /* Application entry point. */
 113:.\Generated_Source\PSoC5/Cm3Start.c **** extern void $Super$$main(void);
 114:.\Generated_Source\PSoC5/Cm3Start.c **** 
 115:.\Generated_Source\PSoC5/Cm3Start.c **** /* Linker-generated Stack Base addresses, Two Region and One Region */
 116:.\Generated_Source\PSoC5/Cm3Start.c **** extern uint32 Image$$ARM_LIB_STACK$$ZI$$Limit;
 117:.\Generated_Source\PSoC5/Cm3Start.c **** 
 118:.\Generated_Source\PSoC5/Cm3Start.c **** /* RealView C Library initialization. */
 119:.\Generated_Source\PSoC5/Cm3Start.c **** extern int __main(void);
 120:.\Generated_Source\PSoC5/Cm3Start.c **** 
 121:.\Generated_Source\PSoC5/Cm3Start.c **** 
 122:.\Generated_Source\PSoC5/Cm3Start.c **** /*******************************************************************************
 123:.\Generated_Source\PSoC5/Cm3Start.c **** * Function Name: Reset
 124:.\Generated_Source\PSoC5/Cm3Start.c **** ****************************************************************************//**
 125:.\Generated_Source\PSoC5/Cm3Start.c **** *
ARM GAS  C:\Users\student\AppData\Local\Temp\ccbgZXTg.s 			page 4


 126:.\Generated_Source\PSoC5/Cm3Start.c **** *  This function handles the reset interrupt for the RVDS/MDK toolchains.
 127:.\Generated_Source\PSoC5/Cm3Start.c **** *  This is the first bit of code that is executed at startup.
 128:.\Generated_Source\PSoC5/Cm3Start.c **** *
 129:.\Generated_Source\PSoC5/Cm3Start.c **** *******************************************************************************/
 130:.\Generated_Source\PSoC5/Cm3Start.c **** void Reset(void)
 131:.\Generated_Source\PSoC5/Cm3Start.c **** {
 132:.\Generated_Source\PSoC5/Cm3Start.c ****     #if(CYDEV_PROJ_TYPE != CYDEV_PROJ_TYPE_LOADABLE && CYDEV_PROJ_TYPE != CYDEV_PROJ_TYPE_LOADABLEA
 133:.\Generated_Source\PSoC5/Cm3Start.c **** 
 134:.\Generated_Source\PSoC5/Cm3Start.c ****         /* For PSoC 5LP, debugging is enabled by default */
 135:.\Generated_Source\PSoC5/Cm3Start.c ****         #if(CYDEV_DEBUGGING_ENABLE == 0)
 136:.\Generated_Source\PSoC5/Cm3Start.c ****             *(reg32 *)(CYDEV_DEBUG_ENABLE_REGISTER) |= CYDEV_DEBUG_ENABLE_MASK;
 137:.\Generated_Source\PSoC5/Cm3Start.c ****         #endif /* (CYDEV_DEBUGGING_ENABLE) */
 138:.\Generated_Source\PSoC5/Cm3Start.c **** 
 139:.\Generated_Source\PSoC5/Cm3Start.c ****         /* Reset Status Register has Read-to-clear SW access mode.
 140:.\Generated_Source\PSoC5/Cm3Start.c ****         * Preserve current RESET_SR0 state to make it available for next reading.
 141:.\Generated_Source\PSoC5/Cm3Start.c ****         */
 142:.\Generated_Source\PSoC5/Cm3Start.c ****         *(reg32 *)(CYREG_PHUB_CFGMEM23_CFG1) = *(reg32 *)(CYREG_RESET_SR0);
 143:.\Generated_Source\PSoC5/Cm3Start.c **** 
 144:.\Generated_Source\PSoC5/Cm3Start.c ****     #endif  /* (CYDEV_PROJ_TYPE != CYDEV_PROJ_TYPE_LOADABLE && CYDEV_PROJ_TYPE != CYDEV_PROJ_TYPE_L
 145:.\Generated_Source\PSoC5/Cm3Start.c **** 
 146:.\Generated_Source\PSoC5/Cm3Start.c ****     #if ((CYDEV_BOOTLOADER_ENABLE) && (CYDEV_PROJ_TYPE != CYDEV_PROJ_TYPE_LOADABLEANDBOOTLOADER))
 147:.\Generated_Source\PSoC5/Cm3Start.c ****         CyBtldr_CheckLaunch();
 148:.\Generated_Source\PSoC5/Cm3Start.c ****     #endif /* ((CYDEV_BOOTLOADER_ENABLE) && (CYDEV_PROJ_TYPE != CYDEV_PROJ_TYPE_LOADABLEANDBOOTLOAD
 149:.\Generated_Source\PSoC5/Cm3Start.c **** 
 150:.\Generated_Source\PSoC5/Cm3Start.c ****     __main();
 151:.\Generated_Source\PSoC5/Cm3Start.c **** }
 152:.\Generated_Source\PSoC5/Cm3Start.c **** 
 153:.\Generated_Source\PSoC5/Cm3Start.c **** 
 154:.\Generated_Source\PSoC5/Cm3Start.c **** /*******************************************************************************
 155:.\Generated_Source\PSoC5/Cm3Start.c **** * Function Name: $Sub$$main
 156:.\Generated_Source\PSoC5/Cm3Start.c **** ****************************************************************************//**
 157:.\Generated_Source\PSoC5/Cm3Start.c **** *
 158:.\Generated_Source\PSoC5/Cm3Start.c **** *  This function is called immediately before the users main
 159:.\Generated_Source\PSoC5/Cm3Start.c **** *
 160:.\Generated_Source\PSoC5/Cm3Start.c **** *******************************************************************************/
 161:.\Generated_Source\PSoC5/Cm3Start.c **** void $Sub$$main(void)
 162:.\Generated_Source\PSoC5/Cm3Start.c **** {
 163:.\Generated_Source\PSoC5/Cm3Start.c ****     initialize_psoc();
 164:.\Generated_Source\PSoC5/Cm3Start.c **** 
 165:.\Generated_Source\PSoC5/Cm3Start.c ****     /* Call original main */
 166:.\Generated_Source\PSoC5/Cm3Start.c ****     $Super$$main();
 167:.\Generated_Source\PSoC5/Cm3Start.c **** 
 168:.\Generated_Source\PSoC5/Cm3Start.c ****     while (1)
 169:.\Generated_Source\PSoC5/Cm3Start.c ****     {
 170:.\Generated_Source\PSoC5/Cm3Start.c ****         /* If main returns, it is undefined what we should do. */
 171:.\Generated_Source\PSoC5/Cm3Start.c ****     }
 172:.\Generated_Source\PSoC5/Cm3Start.c **** }
 173:.\Generated_Source\PSoC5/Cm3Start.c **** 
 174:.\Generated_Source\PSoC5/Cm3Start.c **** #elif defined(__GNUC__)
 175:.\Generated_Source\PSoC5/Cm3Start.c **** 
 176:.\Generated_Source\PSoC5/Cm3Start.c **** void Start_c(void);
 177:.\Generated_Source\PSoC5/Cm3Start.c **** 
 178:.\Generated_Source\PSoC5/Cm3Start.c **** /* Stack Base address */
 179:.\Generated_Source\PSoC5/Cm3Start.c **** extern void __cy_stack(void);
 180:.\Generated_Source\PSoC5/Cm3Start.c **** 
 181:.\Generated_Source\PSoC5/Cm3Start.c **** /* Application entry point. */
 182:.\Generated_Source\PSoC5/Cm3Start.c **** extern int main(void);
ARM GAS  C:\Users\student\AppData\Local\Temp\ccbgZXTg.s 			page 5


 183:.\Generated_Source\PSoC5/Cm3Start.c **** 
 184:.\Generated_Source\PSoC5/Cm3Start.c **** /* Static objects constructors initializer */
 185:.\Generated_Source\PSoC5/Cm3Start.c **** extern void __libc_init_array(void);
 186:.\Generated_Source\PSoC5/Cm3Start.c **** 
 187:.\Generated_Source\PSoC5/Cm3Start.c **** typedef unsigned char __cy_byte_align8 __attribute ((aligned (8)));
 188:.\Generated_Source\PSoC5/Cm3Start.c **** 
 189:.\Generated_Source\PSoC5/Cm3Start.c **** struct __cy_region
 190:.\Generated_Source\PSoC5/Cm3Start.c **** {
 191:.\Generated_Source\PSoC5/Cm3Start.c ****     __cy_byte_align8 *init; /* Initial contents of this region.  */
 192:.\Generated_Source\PSoC5/Cm3Start.c ****     __cy_byte_align8 *data; /* Start address of region.  */
 193:.\Generated_Source\PSoC5/Cm3Start.c ****     size_t init_size;       /* Size of initial data.  */
 194:.\Generated_Source\PSoC5/Cm3Start.c ****     size_t zero_size;       /* Additional size to be zeroed.  */
 195:.\Generated_Source\PSoC5/Cm3Start.c **** };
 196:.\Generated_Source\PSoC5/Cm3Start.c **** 
 197:.\Generated_Source\PSoC5/Cm3Start.c **** extern const struct __cy_region __cy_regions[];
 198:.\Generated_Source\PSoC5/Cm3Start.c **** extern const char __cy_region_num __attribute__((weak));
 199:.\Generated_Source\PSoC5/Cm3Start.c **** #define __cy_region_num ((size_t)&__cy_region_num)
 200:.\Generated_Source\PSoC5/Cm3Start.c **** 
 201:.\Generated_Source\PSoC5/Cm3Start.c **** 
 202:.\Generated_Source\PSoC5/Cm3Start.c **** /*******************************************************************************
 203:.\Generated_Source\PSoC5/Cm3Start.c **** * System Calls of the Red Hat newlib C Library
 204:.\Generated_Source\PSoC5/Cm3Start.c **** *******************************************************************************/
 205:.\Generated_Source\PSoC5/Cm3Start.c **** 
 206:.\Generated_Source\PSoC5/Cm3Start.c **** 
 207:.\Generated_Source\PSoC5/Cm3Start.c **** /*******************************************************************************
 208:.\Generated_Source\PSoC5/Cm3Start.c **** * Function Name: _exit
 209:.\Generated_Source\PSoC5/Cm3Start.c **** ****************************************************************************//**
 210:.\Generated_Source\PSoC5/Cm3Start.c **** *
 211:.\Generated_Source\PSoC5/Cm3Start.c **** *  Exit a program without cleaning up files. If your system doesn't provide
 212:.\Generated_Source\PSoC5/Cm3Start.c **** *  this, it is best to avoid linking with subroutines that require it (exit,
 213:.\Generated_Source\PSoC5/Cm3Start.c **** *  system).
 214:.\Generated_Source\PSoC5/Cm3Start.c **** *
 215:.\Generated_Source\PSoC5/Cm3Start.c **** *  \param status: Status caused program exit.
 216:.\Generated_Source\PSoC5/Cm3Start.c **** *
 217:.\Generated_Source\PSoC5/Cm3Start.c **** *******************************************************************************/
 218:.\Generated_Source\PSoC5/Cm3Start.c **** __attribute__((weak))
 219:.\Generated_Source\PSoC5/Cm3Start.c **** void _exit(int status)
 220:.\Generated_Source\PSoC5/Cm3Start.c **** {
  47              		.loc 1 220 0
  48              		.cfi_startproc
  49              		@ Volatile: function does not return.
  50              		@ args = 0, pretend = 0, frame = 0
  51              		@ frame_needed = 0, uses_anonymous_args = 0
  52              	.LVL0:
  53 0000 08B5     		push	{r3, lr}
  54              		.cfi_def_cfa_offset 8
  55              		.cfi_offset 3, -8
  56              		.cfi_offset 14, -4
 221:.\Generated_Source\PSoC5/Cm3Start.c ****     CyHalt((uint8) status);
  57              		.loc 1 221 0
  58 0002 C0B2     		uxtb	r0, r0
  59              	.LVL1:
  60 0004 FFF7FEFF 		bl	CyHalt
  61              	.LVL2:
  62              	.L4:
 222:.\Generated_Source\PSoC5/Cm3Start.c ****     while(1)
 223:.\Generated_Source\PSoC5/Cm3Start.c ****     {
ARM GAS  C:\Users\student\AppData\Local\Temp\ccbgZXTg.s 			page 6


 224:.\Generated_Source\PSoC5/Cm3Start.c **** 
 225:.\Generated_Source\PSoC5/Cm3Start.c ****     }
  63              		.loc 1 225 0 discriminator 1
  64 0008 FEE7     		b	.L4
  65              		.cfi_endproc
  66              	.LFE1:
  67              		.size	_exit, .-_exit
  68 000a 00BF     		.section	.text._sbrk,"ax",%progbits
  69              		.align	2
  70              		.weak	_sbrk
  71              		.thumb
  72              		.thumb_func
  73              		.type	_sbrk, %function
  74              	_sbrk:
  75              	.LFB2:
 226:.\Generated_Source\PSoC5/Cm3Start.c **** }
 227:.\Generated_Source\PSoC5/Cm3Start.c **** 
 228:.\Generated_Source\PSoC5/Cm3Start.c **** 
 229:.\Generated_Source\PSoC5/Cm3Start.c **** /*******************************************************************************
 230:.\Generated_Source\PSoC5/Cm3Start.c **** * Function Name: _sbrk
 231:.\Generated_Source\PSoC5/Cm3Start.c **** ****************************************************************************//**
 232:.\Generated_Source\PSoC5/Cm3Start.c **** *
 233:.\Generated_Source\PSoC5/Cm3Start.c **** *  Increase program data space. As malloc and related functions depend on this,
 234:.\Generated_Source\PSoC5/Cm3Start.c **** *  it is useful to have a working implementation. The following suffices for a
 235:.\Generated_Source\PSoC5/Cm3Start.c **** *  standalone system; it exploits the symbol end automatically defined by the
 236:.\Generated_Source\PSoC5/Cm3Start.c **** *  GNU linker.
 237:.\Generated_Source\PSoC5/Cm3Start.c **** *
 238:.\Generated_Source\PSoC5/Cm3Start.c **** *  \param nbytes: The number of bytes requested (if the parameter value is positive)
 239:.\Generated_Source\PSoC5/Cm3Start.c **** *  from the heap or returned back to the heap (if the parameter value is
 240:.\Generated_Source\PSoC5/Cm3Start.c **** *  negative).
 241:.\Generated_Source\PSoC5/Cm3Start.c **** *
 242:.\Generated_Source\PSoC5/Cm3Start.c **** *******************************************************************************/
 243:.\Generated_Source\PSoC5/Cm3Start.c **** __attribute__((weak))
 244:.\Generated_Source\PSoC5/Cm3Start.c **** void * _sbrk (int nbytes)
 245:.\Generated_Source\PSoC5/Cm3Start.c **** {
  76              		.loc 1 245 0
  77              		.cfi_startproc
  78              		@ args = 0, pretend = 0, frame = 0
  79              		@ frame_needed = 0, uses_anonymous_args = 0
  80              	.LVL3:
  81 0000 08B5     		push	{r3, lr}
  82              		.cfi_def_cfa_offset 8
  83              		.cfi_offset 3, -8
  84              		.cfi_offset 14, -4
 246:.\Generated_Source\PSoC5/Cm3Start.c ****     extern int  end;            /* Symbol defined by linker map. Start of free memory (as symbol). 
 247:.\Generated_Source\PSoC5/Cm3Start.c ****     void *      returnValue;
 248:.\Generated_Source\PSoC5/Cm3Start.c **** 
 249:.\Generated_Source\PSoC5/Cm3Start.c ****     /* The statically held previous end of the heap, with its initialization. */
 250:.\Generated_Source\PSoC5/Cm3Start.c ****     static void *heapPointer = (void *) &end;                 /* Previous end */
 251:.\Generated_Source\PSoC5/Cm3Start.c **** 
 252:.\Generated_Source\PSoC5/Cm3Start.c ****     if (((heapPointer + nbytes) - (void *) &end) <= CYDEV_HEAP_SIZE)
  85              		.loc 1 252 0
  86 0002 094B     		ldr	r3, .L10
  87 0004 1A68     		ldr	r2, [r3]
  88 0006 1044     		add	r0, r0, r2
  89              	.LVL4:
  90 0008 084B     		ldr	r3, .L10+4
ARM GAS  C:\Users\student\AppData\Local\Temp\ccbgZXTg.s 			page 7


  91 000a C31A     		subs	r3, r0, r3
  92 000c 802B     		cmp	r3, #128
  93 000e 02DC     		bgt	.L7
  94              	.LVL5:
 253:.\Generated_Source\PSoC5/Cm3Start.c ****     {
 254:.\Generated_Source\PSoC5/Cm3Start.c ****         returnValue  = heapPointer;
 255:.\Generated_Source\PSoC5/Cm3Start.c ****         heapPointer += nbytes;
  95              		.loc 1 255 0
  96 0010 054B     		ldr	r3, .L10
  97 0012 1860     		str	r0, [r3]
  98 0014 05E0     		b	.L8
  99              	.LVL6:
 100              	.L7:
 256:.\Generated_Source\PSoC5/Cm3Start.c ****     }
 257:.\Generated_Source\PSoC5/Cm3Start.c ****     else
 258:.\Generated_Source\PSoC5/Cm3Start.c ****     {
 259:.\Generated_Source\PSoC5/Cm3Start.c ****         errno = ENOMEM;
 101              		.loc 1 259 0
 102 0016 FFF7FEFF 		bl	__errno
 103              	.LVL7:
 104 001a 0C23     		movs	r3, #12
 105 001c 0360     		str	r3, [r0]
 106              	.LVL8:
 260:.\Generated_Source\PSoC5/Cm3Start.c ****         returnValue = (void *) -1;
 107              		.loc 1 260 0
 108 001e 4FF0FF32 		mov	r2, #-1
 109              	.LVL9:
 110              	.L8:
 261:.\Generated_Source\PSoC5/Cm3Start.c ****     }
 262:.\Generated_Source\PSoC5/Cm3Start.c **** 
 263:.\Generated_Source\PSoC5/Cm3Start.c ****     return (returnValue);
 264:.\Generated_Source\PSoC5/Cm3Start.c **** }
 111              		.loc 1 264 0
 112 0022 1046     		mov	r0, r2
 113 0024 08BD     		pop	{r3, pc}
 114              	.L11:
 115 0026 00BF     		.align	2
 116              	.L10:
 117 0028 00000000 		.word	.LANCHOR0
 118 002c 00000000 		.word	end
 119              		.cfi_endproc
 120              	.LFE2:
 121              		.size	_sbrk, .-_sbrk
 122              		.section	.text.Start_c,"ax",%progbits
 123              		.align	2
 124              		.global	Start_c
 125              		.thumb
 126              		.thumb_func
 127              		.type	Start_c, %function
 128              	Start_c:
 129              	.LFB4:
 265:.\Generated_Source\PSoC5/Cm3Start.c **** 
 266:.\Generated_Source\PSoC5/Cm3Start.c **** 
 267:.\Generated_Source\PSoC5/Cm3Start.c **** /*******************************************************************************
 268:.\Generated_Source\PSoC5/Cm3Start.c **** * Function Name: Reset
 269:.\Generated_Source\PSoC5/Cm3Start.c **** ****************************************************************************//**
 270:.\Generated_Source\PSoC5/Cm3Start.c **** *
ARM GAS  C:\Users\student\AppData\Local\Temp\ccbgZXTg.s 			page 8


 271:.\Generated_Source\PSoC5/Cm3Start.c **** *  This function handles the reset interrupt for the GCC toolchain. This is the
 272:.\Generated_Source\PSoC5/Cm3Start.c **** *  first bit of code that is executed at startup.
 273:.\Generated_Source\PSoC5/Cm3Start.c **** *
 274:.\Generated_Source\PSoC5/Cm3Start.c **** *******************************************************************************/
 275:.\Generated_Source\PSoC5/Cm3Start.c **** void Reset(void)
 276:.\Generated_Source\PSoC5/Cm3Start.c **** {
 277:.\Generated_Source\PSoC5/Cm3Start.c ****     #if(CYDEV_PROJ_TYPE != CYDEV_PROJ_TYPE_LOADABLE && CYDEV_PROJ_TYPE != CYDEV_PROJ_TYPE_LOADABLEA
 278:.\Generated_Source\PSoC5/Cm3Start.c **** 
 279:.\Generated_Source\PSoC5/Cm3Start.c ****         /* For PSoC 5LP, debugging is enabled by default */
 280:.\Generated_Source\PSoC5/Cm3Start.c ****         #if(CYDEV_DEBUGGING_ENABLE == 0)
 281:.\Generated_Source\PSoC5/Cm3Start.c ****             *(reg32 *)(CYDEV_DEBUG_ENABLE_REGISTER) |= CYDEV_DEBUG_ENABLE_MASK;
 282:.\Generated_Source\PSoC5/Cm3Start.c ****         #endif /* (CYDEV_DEBUGGING_ENABLE) */
 283:.\Generated_Source\PSoC5/Cm3Start.c **** 
 284:.\Generated_Source\PSoC5/Cm3Start.c ****         /* Reset Status Register has Read-to-clear SW access mode.
 285:.\Generated_Source\PSoC5/Cm3Start.c ****         * Preserve current RESET_SR0 state to make it available for next reading.
 286:.\Generated_Source\PSoC5/Cm3Start.c ****         */
 287:.\Generated_Source\PSoC5/Cm3Start.c ****         *(reg32 *)(CYREG_PHUB_CFGMEM23_CFG1) = *(reg32 *)(CYREG_RESET_SR0);
 288:.\Generated_Source\PSoC5/Cm3Start.c **** 
 289:.\Generated_Source\PSoC5/Cm3Start.c ****     #endif  /* (CYDEV_PROJ_TYPE != CYDEV_PROJ_TYPE_LOADABLE && CYDEV_PROJ_TYPE != CYDEV_PROJ_TYPE_L
 290:.\Generated_Source\PSoC5/Cm3Start.c **** 
 291:.\Generated_Source\PSoC5/Cm3Start.c ****     #if ((CYDEV_BOOTLOADER_ENABLE) && (CYDEV_PROJ_TYPE != CYDEV_PROJ_TYPE_LOADABLEANDBOOTLOADER))
 292:.\Generated_Source\PSoC5/Cm3Start.c ****         CyBtldr_CheckLaunch();
 293:.\Generated_Source\PSoC5/Cm3Start.c ****     #endif /* ((CYDEV_BOOTLOADER_ENABLE) && (CYDEV_PROJ_TYPE != CYDEV_PROJ_TYPE_LOADABLEANDBOOTLOAD
 294:.\Generated_Source\PSoC5/Cm3Start.c **** 
 295:.\Generated_Source\PSoC5/Cm3Start.c ****     Start_c();
 296:.\Generated_Source\PSoC5/Cm3Start.c **** }
 297:.\Generated_Source\PSoC5/Cm3Start.c **** 
 298:.\Generated_Source\PSoC5/Cm3Start.c **** 
 299:.\Generated_Source\PSoC5/Cm3Start.c **** /*******************************************************************************
 300:.\Generated_Source\PSoC5/Cm3Start.c **** * Function Name: Start_c
 301:.\Generated_Source\PSoC5/Cm3Start.c **** ****************************************************************************//**
 302:.\Generated_Source\PSoC5/Cm3Start.c **** *
 303:.\Generated_Source\PSoC5/Cm3Start.c **** *  This function handles initializing the .data and .bss sections in
 304:.\Generated_Source\PSoC5/Cm3Start.c **** *  preparation for running the standard C code.  Once initialization is complete
 305:.\Generated_Source\PSoC5/Cm3Start.c **** *  it will call main(). This function will never return.
 306:.\Generated_Source\PSoC5/Cm3Start.c **** *
 307:.\Generated_Source\PSoC5/Cm3Start.c **** *******************************************************************************/
 308:.\Generated_Source\PSoC5/Cm3Start.c **** void Start_c(void)  __attribute__ ((noreturn));
 309:.\Generated_Source\PSoC5/Cm3Start.c **** void Start_c(void)
 310:.\Generated_Source\PSoC5/Cm3Start.c **** {
 130              		.loc 1 310 0
 131              		.cfi_startproc
 132              		@ Volatile: function does not return.
 133              		@ args = 0, pretend = 0, frame = 0
 134              		@ frame_needed = 0, uses_anonymous_args = 0
 135 0000 08B5     		push	{r3, lr}
 136              		.cfi_def_cfa_offset 8
 137              		.cfi_offset 3, -8
 138              		.cfi_offset 14, -4
 139              	.LVL10:
 311:.\Generated_Source\PSoC5/Cm3Start.c ****     unsigned regions = __cy_region_num;
 312:.\Generated_Source\PSoC5/Cm3Start.c ****     const struct __cy_region *rptr = __cy_regions;
 313:.\Generated_Source\PSoC5/Cm3Start.c **** 
 314:.\Generated_Source\PSoC5/Cm3Start.c ****     /* Initialize memory */
 315:.\Generated_Source\PSoC5/Cm3Start.c ****     for (regions = __cy_region_num; regions != 0u; regions--)
 140              		.loc 1 315 0
 141 0002 104E     		ldr	r6, .L21
ARM GAS  C:\Users\student\AppData\Local\Temp\ccbgZXTg.s 			page 9


 312:.\Generated_Source\PSoC5/Cm3Start.c **** 
 142              		.loc 1 312 0
 143 0004 104D     		ldr	r5, .L21+4
 144              		.loc 1 315 0
 145 0006 16E0     		b	.L13
 146              	.LVL11:
 147              	.L18:
 148              	.LBB2:
 316:.\Generated_Source\PSoC5/Cm3Start.c ****     {
 317:.\Generated_Source\PSoC5/Cm3Start.c ****         uint32 *src = (uint32 *)rptr->init;
 149              		.loc 1 317 0
 150 0008 2968     		ldr	r1, [r5]
 151              	.LVL12:
 318:.\Generated_Source\PSoC5/Cm3Start.c ****         uint32 *dst = (uint32 *)rptr->data;
 152              		.loc 1 318 0
 153 000a 6B68     		ldr	r3, [r5, #4]
 154              	.LVL13:
 319:.\Generated_Source\PSoC5/Cm3Start.c ****         unsigned limit = rptr->init_size;
 155              		.loc 1 319 0
 156 000c AC68     		ldr	r4, [r5, #8]
 157              	.LVL14:
 320:.\Generated_Source\PSoC5/Cm3Start.c ****         unsigned count;
 321:.\Generated_Source\PSoC5/Cm3Start.c **** 
 322:.\Generated_Source\PSoC5/Cm3Start.c ****         for (count = 0u; count != limit; count += sizeof (uint32))
 158              		.loc 1 322 0
 159 000e 0022     		movs	r2, #0
 160 0010 04E0     		b	.L14
 161              	.LVL15:
 162              	.L15:
 323:.\Generated_Source\PSoC5/Cm3Start.c ****         {
 324:.\Generated_Source\PSoC5/Cm3Start.c ****             *dst = *src;
 163              		.loc 1 324 0 discriminator 3
 164 0012 51F8040B 		ldr	r0, [r1], #4
 165              	.LVL16:
 166 0016 43F8040B 		str	r0, [r3], #4
 167              	.LVL17:
 322:.\Generated_Source\PSoC5/Cm3Start.c ****         {
 168              		.loc 1 322 0 discriminator 3
 169 001a 0432     		adds	r2, r2, #4
 170              	.LVL18:
 171              	.L14:
 322:.\Generated_Source\PSoC5/Cm3Start.c ****         {
 172              		.loc 1 322 0 is_stmt 0 discriminator 1
 173 001c A242     		cmp	r2, r4
 174 001e F8D1     		bne	.L15
 325:.\Generated_Source\PSoC5/Cm3Start.c ****             dst++;
 326:.\Generated_Source\PSoC5/Cm3Start.c ****             src++;
 327:.\Generated_Source\PSoC5/Cm3Start.c ****         }
 328:.\Generated_Source\PSoC5/Cm3Start.c ****         limit = rptr->zero_size;
 175              		.loc 1 328 0 is_stmt 1
 176 0020 E868     		ldr	r0, [r5, #12]
 177              	.LVL19:
 329:.\Generated_Source\PSoC5/Cm3Start.c ****         for (count = 0u; count != limit; count += sizeof (uint32))
 178              		.loc 1 329 0
 179 0022 0022     		movs	r2, #0
 180 0024 03E0     		b	.L16
 181              	.LVL20:
ARM GAS  C:\Users\student\AppData\Local\Temp\ccbgZXTg.s 			page 10


 182              	.L17:
 330:.\Generated_Source\PSoC5/Cm3Start.c ****         {
 331:.\Generated_Source\PSoC5/Cm3Start.c ****             *dst = 0u;
 183              		.loc 1 331 0 discriminator 3
 184 0026 0021     		movs	r1, #0
 185 0028 43F8041B 		str	r1, [r3], #4
 186              	.LVL21:
 329:.\Generated_Source\PSoC5/Cm3Start.c ****         for (count = 0u; count != limit; count += sizeof (uint32))
 187              		.loc 1 329 0 discriminator 3
 188 002c 0432     		adds	r2, r2, #4
 189              	.LVL22:
 190              	.L16:
 329:.\Generated_Source\PSoC5/Cm3Start.c ****         for (count = 0u; count != limit; count += sizeof (uint32))
 191              		.loc 1 329 0 is_stmt 0 discriminator 1
 192 002e 8242     		cmp	r2, r0
 193 0030 F9D1     		bne	.L17
 332:.\Generated_Source\PSoC5/Cm3Start.c ****             dst++;
 333:.\Generated_Source\PSoC5/Cm3Start.c ****         }
 334:.\Generated_Source\PSoC5/Cm3Start.c **** 
 335:.\Generated_Source\PSoC5/Cm3Start.c ****         rptr++;
 194              		.loc 1 335 0 is_stmt 1 discriminator 2
 195 0032 1035     		adds	r5, r5, #16
 196              	.LVL23:
 197              	.LBE2:
 315:.\Generated_Source\PSoC5/Cm3Start.c ****     {
 198              		.loc 1 315 0 discriminator 2
 199 0034 013E     		subs	r6, r6, #1
 200              	.LVL24:
 201              	.L13:
 315:.\Generated_Source\PSoC5/Cm3Start.c ****     {
 202              		.loc 1 315 0 is_stmt 0 discriminator 1
 203 0036 002E     		cmp	r6, #0
 204 0038 E6D1     		bne	.L18
 336:.\Generated_Source\PSoC5/Cm3Start.c ****     }
 337:.\Generated_Source\PSoC5/Cm3Start.c **** 
 338:.\Generated_Source\PSoC5/Cm3Start.c ****     /* Invoke static objects constructors */
 339:.\Generated_Source\PSoC5/Cm3Start.c ****     __libc_init_array();
 205              		.loc 1 339 0 is_stmt 1
 206 003a FFF7FEFF 		bl	__libc_init_array
 207              	.LVL25:
 340:.\Generated_Source\PSoC5/Cm3Start.c ****     (void) main();
 208              		.loc 1 340 0
 209 003e FFF7FEFF 		bl	main
 210              	.LVL26:
 211              	.L19:
 341:.\Generated_Source\PSoC5/Cm3Start.c **** 
 342:.\Generated_Source\PSoC5/Cm3Start.c ****     while (1)
 343:.\Generated_Source\PSoC5/Cm3Start.c ****     {
 344:.\Generated_Source\PSoC5/Cm3Start.c ****         /* If main returns, make sure we don't return. */
 345:.\Generated_Source\PSoC5/Cm3Start.c ****     }
 212              		.loc 1 345 0 discriminator 1
 213 0042 FEE7     		b	.L19
 214              	.L22:
 215              		.align	2
 216              	.L21:
 217 0044 00000000 		.word	__cy_region_num
 218 0048 00000000 		.word	__cy_regions
ARM GAS  C:\Users\student\AppData\Local\Temp\ccbgZXTg.s 			page 11


 219              		.cfi_endproc
 220              	.LFE4:
 221              		.size	Start_c, .-Start_c
 222              		.section	.text.Reset,"ax",%progbits
 223              		.align	2
 224              		.global	Reset
 225              		.thumb
 226              		.thumb_func
 227              		.type	Reset, %function
 228              	Reset:
 229              	.LFB3:
 276:.\Generated_Source\PSoC5/Cm3Start.c ****     #if(CYDEV_PROJ_TYPE != CYDEV_PROJ_TYPE_LOADABLE && CYDEV_PROJ_TYPE != CYDEV_PROJ_TYPE_LOADABLEA
 230              		.loc 1 276 0
 231              		.cfi_startproc
 232              		@ Volatile: function does not return.
 233              		@ args = 0, pretend = 0, frame = 0
 234              		@ frame_needed = 0, uses_anonymous_args = 0
 235 0000 08B5     		push	{r3, lr}
 236              		.cfi_def_cfa_offset 8
 237              		.cfi_offset 3, -8
 238              		.cfi_offset 14, -4
 287:.\Generated_Source\PSoC5/Cm3Start.c **** 
 239              		.loc 1 287 0
 240 0002 044B     		ldr	r3, .L25
 241 0004 1A68     		ldr	r2, [r3]
 242 0006 03F53F53 		add	r3, r3, #12224
 243 000a 0233     		adds	r3, r3, #2
 244 000c 1A60     		str	r2, [r3]
 295:.\Generated_Source\PSoC5/Cm3Start.c **** }
 245              		.loc 1 295 0
 246 000e FFF7FEFF 		bl	Start_c
 247              	.LVL27:
 248              	.L26:
 249 0012 00BF     		.align	2
 250              	.L25:
 251 0014 FA460040 		.word	1073759994
 252              		.cfi_endproc
 253              	.LFE3:
 254              		.size	Reset, .-Reset
 255              		.section	.text.initialize_psoc,"ax",%progbits
 256              		.align	2
 257              		.global	initialize_psoc
 258              		.thumb
 259              		.thumb_func
 260              		.type	initialize_psoc, %function
 261              	initialize_psoc:
 262              	.LFB5:
 346:.\Generated_Source\PSoC5/Cm3Start.c **** }
 347:.\Generated_Source\PSoC5/Cm3Start.c **** 
 348:.\Generated_Source\PSoC5/Cm3Start.c **** 
 349:.\Generated_Source\PSoC5/Cm3Start.c **** #elif defined (__ICCARM__)
 350:.\Generated_Source\PSoC5/Cm3Start.c **** 
 351:.\Generated_Source\PSoC5/Cm3Start.c **** /*******************************************************************************
 352:.\Generated_Source\PSoC5/Cm3Start.c **** * Function Name: __low_level_init
 353:.\Generated_Source\PSoC5/Cm3Start.c **** ****************************************************************************//**
 354:.\Generated_Source\PSoC5/Cm3Start.c **** *
 355:.\Generated_Source\PSoC5/Cm3Start.c **** *  This function performs early initializations for the IAR Embedded
ARM GAS  C:\Users\student\AppData\Local\Temp\ccbgZXTg.s 			page 12


 356:.\Generated_Source\PSoC5/Cm3Start.c **** *  Workbench IDE. It is executed in the context of a reset interrupt handler
 357:.\Generated_Source\PSoC5/Cm3Start.c **** *  before the data sections are initialized.
 358:.\Generated_Source\PSoC5/Cm3Start.c **** *
 359:.\Generated_Source\PSoC5/Cm3Start.c **** * \return
 360:.\Generated_Source\PSoC5/Cm3Start.c **** *  The value that determines whether or not data sections should be initialized
 361:.\Generated_Source\PSoC5/Cm3Start.c **** *  by the system startup code:
 362:.\Generated_Source\PSoC5/Cm3Start.c **** *    0 - skip data sections initialization;
 363:.\Generated_Source\PSoC5/Cm3Start.c **** *    1 - initialize data sections;
 364:.\Generated_Source\PSoC5/Cm3Start.c **** *
 365:.\Generated_Source\PSoC5/Cm3Start.c **** *******************************************************************************/
 366:.\Generated_Source\PSoC5/Cm3Start.c **** int __low_level_init(void)
 367:.\Generated_Source\PSoC5/Cm3Start.c **** {
 368:.\Generated_Source\PSoC5/Cm3Start.c ****     #if (CYDEV_PROJ_TYPE != CYDEV_PROJ_TYPE_LOADABLE && CYDEV_PROJ_TYPE != CYDEV_PROJ_TYPE_LOADABLE
 369:.\Generated_Source\PSoC5/Cm3Start.c **** 
 370:.\Generated_Source\PSoC5/Cm3Start.c ****         /* For PSoC 5LP, debugging is enabled by default */
 371:.\Generated_Source\PSoC5/Cm3Start.c ****         #if(CYDEV_DEBUGGING_ENABLE == 0)
 372:.\Generated_Source\PSoC5/Cm3Start.c ****             *(reg32 *)(CYDEV_DEBUG_ENABLE_REGISTER) |= CYDEV_DEBUG_ENABLE_MASK;
 373:.\Generated_Source\PSoC5/Cm3Start.c ****         #endif /* (CYDEV_DEBUGGING_ENABLE) */
 374:.\Generated_Source\PSoC5/Cm3Start.c **** 
 375:.\Generated_Source\PSoC5/Cm3Start.c ****         /* Reset Status Register has Read-to-clear SW access mode.
 376:.\Generated_Source\PSoC5/Cm3Start.c ****         * Preserve current RESET_SR0 state to make it available for next reading.
 377:.\Generated_Source\PSoC5/Cm3Start.c ****         */
 378:.\Generated_Source\PSoC5/Cm3Start.c ****         *(reg32 *)(CYREG_PHUB_CFGMEM23_CFG1) = *(reg32 *)(CYREG_RESET_SR0);
 379:.\Generated_Source\PSoC5/Cm3Start.c **** 
 380:.\Generated_Source\PSoC5/Cm3Start.c ****     #endif  /* (CYDEV_PROJ_TYPE != CYDEV_PROJ_TYPE_LOADABLE && CYDEV_PROJ_TYPE != CYDEV_PROJ_TYPE_L
 381:.\Generated_Source\PSoC5/Cm3Start.c **** 
 382:.\Generated_Source\PSoC5/Cm3Start.c ****     #if ((CYDEV_BOOTLOADER_ENABLE) && (CYDEV_PROJ_TYPE != CYDEV_PROJ_TYPE_LOADABLEANDBOOTLOADER))
 383:.\Generated_Source\PSoC5/Cm3Start.c ****         CyBtldr_CheckLaunch();
 384:.\Generated_Source\PSoC5/Cm3Start.c ****     #endif /* ((CYDEV_BOOTLOADER_ENABLE) && (CYDEV_PROJ_TYPE != CYDEV_PROJ_TYPE_LOADABLEANDBOOTLOAD
 385:.\Generated_Source\PSoC5/Cm3Start.c **** 
 386:.\Generated_Source\PSoC5/Cm3Start.c ****     /* Initialize data sections */
 387:.\Generated_Source\PSoC5/Cm3Start.c ****     __iar_data_init3();
 388:.\Generated_Source\PSoC5/Cm3Start.c **** 
 389:.\Generated_Source\PSoC5/Cm3Start.c ****     initialize_psoc();
 390:.\Generated_Source\PSoC5/Cm3Start.c **** 
 391:.\Generated_Source\PSoC5/Cm3Start.c ****     return 0;
 392:.\Generated_Source\PSoC5/Cm3Start.c **** }
 393:.\Generated_Source\PSoC5/Cm3Start.c **** 
 394:.\Generated_Source\PSoC5/Cm3Start.c **** #endif /* __GNUC__ */
 395:.\Generated_Source\PSoC5/Cm3Start.c **** 
 396:.\Generated_Source\PSoC5/Cm3Start.c **** 
 397:.\Generated_Source\PSoC5/Cm3Start.c **** /*******************************************************************************
 398:.\Generated_Source\PSoC5/Cm3Start.c **** *
 399:.\Generated_Source\PSoC5/Cm3Start.c **** * Default Rom Interrupt Vector table.
 400:.\Generated_Source\PSoC5/Cm3Start.c **** *
 401:.\Generated_Source\PSoC5/Cm3Start.c **** *******************************************************************************/
 402:.\Generated_Source\PSoC5/Cm3Start.c **** #if defined(__ARMCC_VERSION)
 403:.\Generated_Source\PSoC5/Cm3Start.c ****     /* Suppress diagnostic message 1296-D: extended constant initialiser used */
 404:.\Generated_Source\PSoC5/Cm3Start.c ****     #pragma diag_suppress 1296
 405:.\Generated_Source\PSoC5/Cm3Start.c **** #endif  /* defined(__ARMCC_VERSION) */
 406:.\Generated_Source\PSoC5/Cm3Start.c **** 
 407:.\Generated_Source\PSoC5/Cm3Start.c **** #if defined (__ICCARM__)
 408:.\Generated_Source\PSoC5/Cm3Start.c ****     #pragma location=".romvectors"
 409:.\Generated_Source\PSoC5/Cm3Start.c ****     const intvec_elem __vector_table[CY_NUM_ROM_VECTORS] =
 410:.\Generated_Source\PSoC5/Cm3Start.c **** #else
 411:.\Generated_Source\PSoC5/Cm3Start.c ****     CY_SECTION(".romvectors")
 412:.\Generated_Source\PSoC5/Cm3Start.c ****     const cyisraddress RomVectors[CY_NUM_ROM_VECTORS] =
ARM GAS  C:\Users\student\AppData\Local\Temp\ccbgZXTg.s 			page 13


 413:.\Generated_Source\PSoC5/Cm3Start.c **** #endif  /* defined (__ICCARM__) */
 414:.\Generated_Source\PSoC5/Cm3Start.c **** {
 415:.\Generated_Source\PSoC5/Cm3Start.c ****     INITIAL_STACK_POINTER,   /* Initial stack pointer  0 */
 416:.\Generated_Source\PSoC5/Cm3Start.c ****     #if defined (__ICCARM__) /* Reset handler          1 */
 417:.\Generated_Source\PSoC5/Cm3Start.c ****         __iar_program_start,
 418:.\Generated_Source\PSoC5/Cm3Start.c ****     #else
 419:.\Generated_Source\PSoC5/Cm3Start.c ****         (cyisraddress)&Reset,
 420:.\Generated_Source\PSoC5/Cm3Start.c ****     #endif  /* defined (__ICCARM__) */
 421:.\Generated_Source\PSoC5/Cm3Start.c ****     &IntDefaultHandler,      /* NMI handler            2 */
 422:.\Generated_Source\PSoC5/Cm3Start.c ****     &IntDefaultHandler,      /* Hard fault handler     3 */
 423:.\Generated_Source\PSoC5/Cm3Start.c **** };
 424:.\Generated_Source\PSoC5/Cm3Start.c **** 
 425:.\Generated_Source\PSoC5/Cm3Start.c **** #if defined(__ARMCC_VERSION)
 426:.\Generated_Source\PSoC5/Cm3Start.c ****     #pragma diag_default 1296
 427:.\Generated_Source\PSoC5/Cm3Start.c **** #endif  /* defined(__ARMCC_VERSION) */
 428:.\Generated_Source\PSoC5/Cm3Start.c **** 
 429:.\Generated_Source\PSoC5/Cm3Start.c **** 
 430:.\Generated_Source\PSoC5/Cm3Start.c **** /*******************************************************************************
 431:.\Generated_Source\PSoC5/Cm3Start.c **** * Function Name: initialize_psoc
 432:.\Generated_Source\PSoC5/Cm3Start.c **** ****************************************************************************//**
 433:.\Generated_Source\PSoC5/Cm3Start.c **** *
 434:.\Generated_Source\PSoC5/Cm3Start.c **** *  This function used to initialize the PSoC chip before calling main.
 435:.\Generated_Source\PSoC5/Cm3Start.c **** *
 436:.\Generated_Source\PSoC5/Cm3Start.c **** *******************************************************************************/
 437:.\Generated_Source\PSoC5/Cm3Start.c **** #if (defined(__GNUC__) && !defined(__ARMCC_VERSION))
 438:.\Generated_Source\PSoC5/Cm3Start.c **** __attribute__ ((constructor(101)))
 439:.\Generated_Source\PSoC5/Cm3Start.c **** #endif
 440:.\Generated_Source\PSoC5/Cm3Start.c **** void initialize_psoc(void)
 441:.\Generated_Source\PSoC5/Cm3Start.c **** {
 263              		.loc 1 441 0
 264              		.cfi_startproc
 265              		@ args = 0, pretend = 0, frame = 0
 266              		@ frame_needed = 0, uses_anonymous_args = 0
 267 0000 08B5     		push	{r3, lr}
 268              		.cfi_def_cfa_offset 8
 269              		.cfi_offset 3, -8
 270              		.cfi_offset 14, -4
 442:.\Generated_Source\PSoC5/Cm3Start.c ****     uint32 i;
 443:.\Generated_Source\PSoC5/Cm3Start.c **** 
 444:.\Generated_Source\PSoC5/Cm3Start.c ****     /* Set Priority group 5. */
 445:.\Generated_Source\PSoC5/Cm3Start.c **** 
 446:.\Generated_Source\PSoC5/Cm3Start.c ****     /* Writes to NVIC_APINT register require the VECTKEY in the upper half */
 447:.\Generated_Source\PSoC5/Cm3Start.c ****     *CY_NVIC_APINT_PTR = CY_NVIC_APINT_VECTKEY | CY_NVIC_APINT_PRIGROUP_3_5;
 271              		.loc 1 447 0
 272 0002 134A     		ldr	r2, .L33
 273 0004 134B     		ldr	r3, .L33+4
 274 0006 1A60     		str	r2, [r3]
 448:.\Generated_Source\PSoC5/Cm3Start.c ****     *CY_NVIC_CFG_CTRL_PTR |= CY_NVIC_CFG_STACKALIGN;
 275              		.loc 1 448 0
 276 0008 134A     		ldr	r2, .L33+8
 277 000a 1368     		ldr	r3, [r2]
 278 000c 43F40073 		orr	r3, r3, #512
 279 0010 1360     		str	r3, [r2]
 280              	.LVL28:
 449:.\Generated_Source\PSoC5/Cm3Start.c **** 
 450:.\Generated_Source\PSoC5/Cm3Start.c ****     /* Set Ram interrupt vectors to default functions. */
 451:.\Generated_Source\PSoC5/Cm3Start.c ****     for (i = 0u; i < CY_NUM_VECTORS; i++)
ARM GAS  C:\Users\student\AppData\Local\Temp\ccbgZXTg.s 			page 14


 281              		.loc 1 451 0
 282 0012 0023     		movs	r3, #0
 283 0014 0AE0     		b	.L28
 284              	.LVL29:
 285              	.L30:
 452:.\Generated_Source\PSoC5/Cm3Start.c ****     {
 453:.\Generated_Source\PSoC5/Cm3Start.c ****         #if defined (__ICCARM__)
 454:.\Generated_Source\PSoC5/Cm3Start.c ****             CyRamVectors[i] = (i < CY_NUM_ROM_VECTORS) ? __vector_table[i].__fun : &IntDefaultHandl
 455:.\Generated_Source\PSoC5/Cm3Start.c ****         #else
 456:.\Generated_Source\PSoC5/Cm3Start.c ****             CyRamVectors[i] = (i < CY_NUM_ROM_VECTORS) ? RomVectors[i] : &IntDefaultHandler;
 286              		.loc 1 456 0
 287 0016 032B     		cmp	r3, #3
 288 0018 03D8     		bhi	.L31
 289              		.loc 1 456 0 is_stmt 0 discriminator 1
 290 001a 104A     		ldr	r2, .L33+12
 291 001c 52F82310 		ldr	r1, [r2, r3, lsl #2]
 292 0020 00E0     		b	.L29
 293              	.L31:
 294              		.loc 1 456 0
 295 0022 0F49     		ldr	r1, .L33+16
 296              	.L29:
 297              		.loc 1 456 0 discriminator 4
 298 0024 0F4A     		ldr	r2, .L33+20
 299 0026 42F82310 		str	r1, [r2, r3, lsl #2]
 451:.\Generated_Source\PSoC5/Cm3Start.c ****     {
 300              		.loc 1 451 0 is_stmt 1 discriminator 4
 301 002a 0133     		adds	r3, r3, #1
 302              	.LVL30:
 303              	.L28:
 451:.\Generated_Source\PSoC5/Cm3Start.c ****     {
 304              		.loc 1 451 0 is_stmt 0 discriminator 2
 305 002c 2F2B     		cmp	r3, #47
 306 002e F2D9     		bls	.L30
 457:.\Generated_Source\PSoC5/Cm3Start.c ****         #endif  /* defined (__ICCARM__) */
 458:.\Generated_Source\PSoC5/Cm3Start.c ****     }
 459:.\Generated_Source\PSoC5/Cm3Start.c **** 
 460:.\Generated_Source\PSoC5/Cm3Start.c ****     /* Was stored in CFGMEM to avoid being cleared while SRAM gets cleared */
 461:.\Generated_Source\PSoC5/Cm3Start.c ****     CyResetStatus = CY_GET_REG8(CYREG_PHUB_CFGMEM23_CFG1);
 307              		.loc 1 461 0 is_stmt 1
 308 0030 0D4B     		ldr	r3, .L33+24
 309              	.LVL31:
 310 0032 1A78     		ldrb	r2, [r3]	@ zero_extendqisi2
 311 0034 0D4B     		ldr	r3, .L33+28
 312 0036 1A70     		strb	r2, [r3]
 462:.\Generated_Source\PSoC5/Cm3Start.c **** 
 463:.\Generated_Source\PSoC5/Cm3Start.c ****     /* Point NVIC at RAM vector table. */
 464:.\Generated_Source\PSoC5/Cm3Start.c ****     *CYINT_VECT_TABLE = CyRamVectors;
 313              		.loc 1 464 0
 314 0038 0A4A     		ldr	r2, .L33+20
 315 003a 0D4B     		ldr	r3, .L33+32
 316 003c 1A60     		str	r2, [r3]
 465:.\Generated_Source\PSoC5/Cm3Start.c **** 
 466:.\Generated_Source\PSoC5/Cm3Start.c ****     /* Initialize the configuration registers. */
 467:.\Generated_Source\PSoC5/Cm3Start.c ****     cyfitter_cfg();
 317              		.loc 1 467 0
 318 003e FFF7FEFF 		bl	cyfitter_cfg
 319              	.LVL32:
ARM GAS  C:\Users\student\AppData\Local\Temp\ccbgZXTg.s 			page 15


 468:.\Generated_Source\PSoC5/Cm3Start.c **** 
 469:.\Generated_Source\PSoC5/Cm3Start.c ****     #if(0u != DMA_CHANNELS_USED__MASK0)
 470:.\Generated_Source\PSoC5/Cm3Start.c **** 
 471:.\Generated_Source\PSoC5/Cm3Start.c ****         /* Setup DMA - only necessary if design contains DMA component. */
 472:.\Generated_Source\PSoC5/Cm3Start.c ****         CyDmacConfigure();
 320              		.loc 1 472 0
 321 0042 FFF7FEFF 		bl	CyDmacConfigure
 322              	.LVL33:
 473:.\Generated_Source\PSoC5/Cm3Start.c **** 
 474:.\Generated_Source\PSoC5/Cm3Start.c ****     #endif  /* (0u != DMA_CHANNELS_USED__MASK0) */
 475:.\Generated_Source\PSoC5/Cm3Start.c **** 
 476:.\Generated_Source\PSoC5/Cm3Start.c ****     #if !defined (__ICCARM__)
 477:.\Generated_Source\PSoC5/Cm3Start.c ****         /* Actually, no need to clean this variable, just to make compiler happy. */
 478:.\Generated_Source\PSoC5/Cm3Start.c ****         cySysNoInitDataValid = 0u;
 323              		.loc 1 478 0
 324 0046 0022     		movs	r2, #0
 325 0048 0A4B     		ldr	r3, .L33+36
 326 004a 1A60     		str	r2, [r3]
 327 004c 08BD     		pop	{r3, pc}
 328              	.L34:
 329 004e 00BF     		.align	2
 330              	.L33:
 331 0050 0004FA05 		.word	100271104
 332 0054 0CED00E0 		.word	-536810228
 333 0058 14ED00E0 		.word	-536810220
 334 005c 00000000 		.word	.LANCHOR1
 335 0060 00000000 		.word	IntDefaultHandler
 336 0064 00000000 		.word	.LANCHOR2
 337 0068 BC760040 		.word	1073772220
 338 006c 00000000 		.word	CyResetStatus
 339 0070 08ED00E0 		.word	-536810232
 340 0074 00000000 		.word	.LANCHOR3
 341              		.cfi_endproc
 342              	.LFE5:
 343              		.size	initialize_psoc, .-initialize_psoc
 344              		.section	.init_array,"aw",%init_array
 345              		.align	2
 346 0000 00000000 		.word	initialize_psoc(target1)
 347              		.global	RomVectors
 348              		.global	CyRamVectors
 349              		.section	.romvectors,"a",%progbits
 350              		.align	2
 351              		.set	.LANCHOR1,. + 0
 352              		.type	RomVectors, %object
 353              		.size	RomVectors, 16
 354              	RomVectors:
 355 0000 00000000 		.word	__cy_stack
 356 0004 00000000 		.word	Reset
 357 0008 00000000 		.word	IntDefaultHandler
 358 000c 00000000 		.word	IntDefaultHandler
 359              		.data
 360              		.align	2
 361              		.set	.LANCHOR0,. + 0
 362              		.type	heapPointer.4944, %object
 363              		.size	heapPointer.4944, 4
 364              	heapPointer.4944:
 365 0000 00000000 		.word	end
ARM GAS  C:\Users\student\AppData\Local\Temp\ccbgZXTg.s 			page 16


 366              		.section	.noinit,"aw",%progbits
 367              		.align	2
 368              		.set	.LANCHOR3,. + 0
 369              		.type	cySysNoInitDataValid, %object
 370              		.size	cySysNoInitDataValid, 4
 371              	cySysNoInitDataValid:
 372 0000 00000000 		.space	4
 373              		.section	.ramvectors,"aw",%progbits
 374              		.align	8
 375              		.set	.LANCHOR2,. + 0
 376              		.type	CyRamVectors, %object
 377              		.size	CyRamVectors, 192
 378              	CyRamVectors:
 379 0000 00000000 		.space	192
 379      00000000 
 379      00000000 
 379      00000000 
 379      00000000 
 380              		.weak	__cy_region_num
 381 00c0 00000000 		.text
 381      00000000 
 381      00000000 
 381      00000000 
 381      00000000 
 382              	.Letext0:
 383              		.file 2 ".\\Generated_Source\\PSoC5\\cytypes.h"
 384              		.file 3 "c:\\program files (x86)\\cypress\\psoc creator\\3.3\\psoc creator\\import\\gnu\\arm\\4.9.
 385              		.file 4 ".\\Generated_Source\\PSoC5\\CyLib.h"
 386              		.file 5 "c:\\program files (x86)\\cypress\\psoc creator\\3.3\\psoc creator\\import\\gnu\\arm\\4.9.
 387              		.file 6 ".\\Generated_Source\\PSoC5\\cyfitter_cfg.h"
 388              		.file 7 ".\\Generated_Source\\PSoC5\\CyDmac.h"