ARM GAS  C:\Users\student\AppData\Local\Temp\ccLlhEpp.s 			page 1


   1              		.syntax unified
   2              		.cpu cortex-m3
   3              		.fpu softvfp
   4              		.eabi_attribute 20, 1
   5              		.eabi_attribute 21, 1
   6              		.eabi_attribute 23, 3
   7              		.eabi_attribute 24, 1
   8              		.eabi_attribute 25, 1
   9              		.eabi_attribute 26, 1
  10              		.eabi_attribute 30, 1
  11              		.eabi_attribute 34, 1
  12              		.eabi_attribute 18, 4
  13              		.thumb
  14              		.file	"Connect4Board.c"
  15              		.text
  16              	.Ltext0:
  17              		.cfi_sections	.debug_frame
  18              		.section	.text.Connect4Board_DrawGrid,"ax",%progbits
  19              		.align	2
  20              		.global	Connect4Board_DrawGrid
  21              		.thumb
  22              		.thumb_func
  23              		.type	Connect4Board_DrawGrid, %function
  24              	Connect4Board_DrawGrid:
  25              	.LFB63:
  26              		.file 1 ".\\Connect4Board.c"
   1:.\Connect4Board.c **** /* ========================================
   2:.\Connect4Board.c ****  *
   3:.\Connect4Board.c ****  * Copyright YOUR COMPANY, THE YEAR
   4:.\Connect4Board.c ****  * All Rights Reserved
   5:.\Connect4Board.c ****  * UNPUBLISHED, LICENSED SOFTWARE.
   6:.\Connect4Board.c ****  *
   7:.\Connect4Board.c ****  * CONFIDENTIAL AND PROPRIETARY INFORMATION
   8:.\Connect4Board.c ****  * WHICH IS THE PROPERTY OF your company.
   9:.\Connect4Board.c ****  *
  10:.\Connect4Board.c ****  * ========================================
  11:.\Connect4Board.c **** */
  12:.\Connect4Board.c **** 
  13:.\Connect4Board.c **** /* [] END OF FILE */
  14:.\Connect4Board.c **** 
  15:.\Connect4Board.c **** #include "GUI.h"
  16:.\Connect4Board.c **** #include "XPT2046.h"
  17:.\Connect4Board.c **** #include <stdlib.h>
  18:.\Connect4Board.c **** #include "defs.h"
  19:.\Connect4Board.c **** 
  20:.\Connect4Board.c **** #define WALL_THICKNESS 2
  21:.\Connect4Board.c **** 
  22:.\Connect4Board.c **** int column_width;
  23:.\Connect4Board.c **** int row_height;
  24:.\Connect4Board.c **** int num_columns;
  25:.\Connect4Board.c **** int num_rows;
  26:.\Connect4Board.c **** 
  27:.\Connect4Board.c **** int placed_heights[] = {0,0,0,0,0,0,0};
  28:.\Connect4Board.c **** 
  29:.\Connect4Board.c **** uint16 WIDTH;
  30:.\Connect4Board.c **** uint16 HEIGHT;
  31:.\Connect4Board.c **** 
ARM GAS  C:\Users\student\AppData\Local\Temp\ccLlhEpp.s 			page 2


  32:.\Connect4Board.c **** int prev_selected = 7;               
  33:.\Connect4Board.c **** 
  34:.\Connect4Board.c **** #define GUI_HIGHLIGHT GUI_MAKE_COLOR(0xFCF7DE)
  35:.\Connect4Board.c **** 
  36:.\Connect4Board.c **** void Connect4Board_DrawGrid(uint16 columns, uint16 rows) {
  27              		.loc 1 36 0
  28              		.cfi_startproc
  29              		@ args = 0, pretend = 0, frame = 0
  30              		@ frame_needed = 0, uses_anonymous_args = 0
  31              	.LVL0:
  32 0000 70B5     		push	{r4, r5, r6, lr}
  33              		.cfi_def_cfa_offset 16
  34              		.cfi_offset 4, -16
  35              		.cfi_offset 5, -12
  36              		.cfi_offset 6, -8
  37              		.cfi_offset 14, -4
  38 0002 0446     		mov	r4, r0
  39 0004 0D46     		mov	r5, r1
  37:.\Connect4Board.c ****     // Draw the Connect 4 Board
  38:.\Connect4Board.c ****     GUI_SetColor(GUI_BLUE);
  40              		.loc 1 38 0
  41 0006 4FF47F00 		mov	r0, #16711680
  42              	.LVL1:
  43 000a FFF7FEFF 		bl	GUI_SetColor
  44              	.LVL2:
  39:.\Connect4Board.c ****     
  40:.\Connect4Board.c ****     column_width = (WIDTH - WALL_THICKNESS * (columns - 1)) / columns;
  45              		.loc 1 40 0
  46 000e 2646     		mov	r6, r4
  47 0010 C4F10100 		rsb	r0, r4, #1
  48 0014 1C4B     		ldr	r3, .L7
  49 0016 1B88     		ldrh	r3, [r3]
  50 0018 03EB4000 		add	r0, r3, r0, lsl #1
  51 001c 90FBF4F0 		sdiv	r0, r0, r4
  52 0020 1A4B     		ldr	r3, .L7+4
  53 0022 1860     		str	r0, [r3]
  41:.\Connect4Board.c ****     row_height = (HEIGHT - WALL_THICKNESS * (rows - 1)) / rows;
  54              		.loc 1 41 0
  55 0024 2C46     		mov	r4, r5
  56 0026 C5F10101 		rsb	r1, r5, #1
  57 002a 194B     		ldr	r3, .L7+8
  58 002c 1B88     		ldrh	r3, [r3]
  59 002e 03EB4101 		add	r1, r3, r1, lsl #1
  60 0032 91FBF5F1 		sdiv	r1, r1, r5
  61 0036 174B     		ldr	r3, .L7+12
  62 0038 1960     		str	r1, [r3]
  63              	.LVL3:
  64              	.LBB2:
  42:.\Connect4Board.c ****     
  43:.\Connect4Board.c ****     for (int i = 0; i < columns - 1; i++) {
  65              		.loc 1 43 0
  66 003a 0023     		movs	r3, #0
  67 003c 0DE0     		b	.L2
  68              	.LVL4:
  69              	.L3:
  70              	.LBB3:
  44:.\Connect4Board.c ****         int wall_pos_x = column_width * (i+1) + WALL_THICKNESS * i;
ARM GAS  C:\Users\student\AppData\Local\Temp\ccLlhEpp.s 			page 3


  71              		.loc 1 44 0 discriminator 3
  72 003e 5D1C     		adds	r5, r3, #1
  73 0040 124A     		ldr	r2, .L7+4
  74 0042 1268     		ldr	r2, [r2]
  75 0044 5B00     		lsls	r3, r3, #1
  76              	.LVL5:
  77 0046 02FB0532 		mla	r2, r2, r5, r3
  78              	.LVL6:
  45:.\Connect4Board.c ****         GUI_FillRect(wall_pos_x, 0, wall_pos_x + WALL_THICKNESS, HEIGHT);
  79              		.loc 1 45 0 discriminator 3
  80 004a 1046     		mov	r0, r2
  81 004c 0021     		movs	r1, #0
  82 004e 0232     		adds	r2, r2, #2
  83              	.LVL7:
  84 0050 0F4B     		ldr	r3, .L7+8
  85 0052 1B88     		ldrh	r3, [r3]
  86 0054 FFF7FEFF 		bl	GUI_FillRect
  87              	.LVL8:
  88              	.LBE3:
  43:.\Connect4Board.c ****         int wall_pos_x = column_width * (i+1) + WALL_THICKNESS * i;
  89              		.loc 1 43 0 discriminator 3
  90 0058 2B46     		mov	r3, r5
  91              	.LVL9:
  92              	.L2:
  43:.\Connect4Board.c ****         int wall_pos_x = column_width * (i+1) + WALL_THICKNESS * i;
  93              		.loc 1 43 0 is_stmt 0 discriminator 1
  94 005a 721E     		subs	r2, r6, #1
  95 005c 9A42     		cmp	r2, r3
  96 005e EEDC     		bgt	.L3
  97 0060 0022     		movs	r2, #0
  98 0062 0DE0     		b	.L4
  99              	.LVL10:
 100              	.L5:
 101              	.LBE2:
 102              	.LBB4:
 103              	.LBB5:
  46:.\Connect4Board.c ****     }
  47:.\Connect4Board.c ****     
  48:.\Connect4Board.c ****     for (int j = 0; j < rows - 1; j++){
  49:.\Connect4Board.c ****         int wall_pos_y = row_height * (j+1) + WALL_THICKNESS * j;
 104              		.loc 1 49 0 is_stmt 1 discriminator 3
 105 0064 551C     		adds	r5, r2, #1
 106 0066 0B4B     		ldr	r3, .L7+12
 107 0068 1B68     		ldr	r3, [r3]
 108 006a 5200     		lsls	r2, r2, #1
 109              	.LVL11:
 110 006c 03FB0523 		mla	r3, r3, r5, r2
 111              	.LVL12:
  50:.\Connect4Board.c ****         GUI_FillRect(0, wall_pos_y, WIDTH, wall_pos_y + WALL_THICKNESS);
 112              		.loc 1 50 0 discriminator 3
 113 0070 0020     		movs	r0, #0
 114 0072 1946     		mov	r1, r3
 115 0074 044A     		ldr	r2, .L7
 116 0076 1288     		ldrh	r2, [r2]
 117 0078 0233     		adds	r3, r3, #2
 118              	.LVL13:
 119 007a FFF7FEFF 		bl	GUI_FillRect
ARM GAS  C:\Users\student\AppData\Local\Temp\ccLlhEpp.s 			page 4


 120              	.LVL14:
 121              	.LBE5:
  48:.\Connect4Board.c ****         int wall_pos_y = row_height * (j+1) + WALL_THICKNESS * j;
 122              		.loc 1 48 0 discriminator 3
 123 007e 2A46     		mov	r2, r5
 124              	.LVL15:
 125              	.L4:
  48:.\Connect4Board.c ****         int wall_pos_y = row_height * (j+1) + WALL_THICKNESS * j;
 126              		.loc 1 48 0 is_stmt 0 discriminator 1
 127 0080 631E     		subs	r3, r4, #1
 128 0082 9342     		cmp	r3, r2
 129 0084 EEDC     		bgt	.L5
 130              	.LBE4:
  51:.\Connect4Board.c ****     }
  52:.\Connect4Board.c **** }
 131              		.loc 1 52 0 is_stmt 1
 132 0086 70BD     		pop	{r4, r5, r6, pc}
 133              	.L8:
 134              		.align	2
 135              	.L7:
 136 0088 00000000 		.word	WIDTH
 137 008c 00000000 		.word	column_width
 138 0090 00000000 		.word	HEIGHT
 139 0094 00000000 		.word	row_height
 140              		.cfi_endproc
 141              	.LFE63:
 142              		.size	Connect4Board_DrawGrid, .-Connect4Board_DrawGrid
 143              		.section	.text.Connect4Board_Init,"ax",%progbits
 144              		.align	2
 145              		.global	Connect4Board_Init
 146              		.thumb
 147              		.thumb_func
 148              		.type	Connect4Board_Init, %function
 149              	Connect4Board_Init:
 150              	.LFB64:
  53:.\Connect4Board.c **** 
  54:.\Connect4Board.c **** void Connect4Board_Init(uint16 columns, uint16 rows) {
 151              		.loc 1 54 0
 152              		.cfi_startproc
 153              		@ args = 0, pretend = 0, frame = 0
 154              		@ frame_needed = 0, uses_anonymous_args = 0
 155              	.LVL16:
 156 0000 38B5     		push	{r3, r4, r5, lr}
 157              		.cfi_def_cfa_offset 16
 158              		.cfi_offset 3, -16
 159              		.cfi_offset 4, -12
 160              		.cfi_offset 5, -8
 161              		.cfi_offset 14, -4
 162 0002 0446     		mov	r4, r0
 163 0004 0D46     		mov	r5, r1
  55:.\Connect4Board.c ****     WIDTH = YSIZE_PHYS;
 164              		.loc 1 55 0
 165 0006 4FF4A072 		mov	r2, #320
 166 000a 0E4B     		ldr	r3, .L13
 167 000c 1A80     		strh	r2, [r3]	@ movhi
  56:.\Connect4Board.c ****     HEIGHT = XSIZE_PHYS;
 168              		.loc 1 56 0
ARM GAS  C:\Users\student\AppData\Local\Temp\ccLlhEpp.s 			page 5


 169 000e F022     		movs	r2, #240
 170 0010 0D4B     		ldr	r3, .L13+4
 171 0012 1A80     		strh	r2, [r3]	@ movhi
  57:.\Connect4Board.c ****     
  58:.\Connect4Board.c ****     num_columns = columns;
 172              		.loc 1 58 0
 173 0014 0D4B     		ldr	r3, .L13+8
 174 0016 1C60     		str	r4, [r3]
  59:.\Connect4Board.c ****     num_rows = rows;
 175              		.loc 1 59 0
 176 0018 0D4B     		ldr	r3, .L13+12
 177 001a 1960     		str	r1, [r3]
 178              	.LVL17:
 179              	.LBB6:
  60:.\Connect4Board.c ****     
  61:.\Connect4Board.c ****     for (int i = 0; i < columns; i++) {
 180              		.loc 1 61 0
 181 001c 0023     		movs	r3, #0
 182 001e 04E0     		b	.L10
 183              	.LVL18:
 184              	.L11:
  62:.\Connect4Board.c ****         placed_heights[i] = 0;
 185              		.loc 1 62 0 discriminator 3
 186 0020 0021     		movs	r1, #0
 187 0022 0C4A     		ldr	r2, .L13+16
 188 0024 42F82310 		str	r1, [r2, r3, lsl #2]
  61:.\Connect4Board.c ****         placed_heights[i] = 0;
 189              		.loc 1 61 0 discriminator 3
 190 0028 0133     		adds	r3, r3, #1
 191              	.LVL19:
 192              	.L10:
  61:.\Connect4Board.c ****         placed_heights[i] = 0;
 193              		.loc 1 61 0 is_stmt 0 discriminator 1
 194 002a 8342     		cmp	r3, r0
 195 002c F8DB     		blt	.L11
 196              	.LBE6:
  63:.\Connect4Board.c ****     }
  64:.\Connect4Board.c ****     
  65:.\Connect4Board.c ****     // Clear the screen before we draw   
  66:.\Connect4Board.c ****     GUI_SetBkColor(GUI_WHITE);
 197              		.loc 1 66 0 is_stmt 1
 198 002e 6FF07F40 		mvn	r0, #-16777216
 199              	.LVL20:
 200 0032 FFF7FEFF 		bl	GUI_SetBkColor
 201              	.LVL21:
  67:.\Connect4Board.c ****     GUI_Clear();
 202              		.loc 1 67 0
 203 0036 FFF7FEFF 		bl	GUI_Clear
 204              	.LVL22:
  68:.\Connect4Board.c ****     
  69:.\Connect4Board.c ****     Connect4Board_DrawGrid(columns, rows);
 205              		.loc 1 69 0
 206 003a 2046     		mov	r0, r4
 207 003c 2946     		mov	r1, r5
 208 003e FFF7FEFF 		bl	Connect4Board_DrawGrid
 209              	.LVL23:
 210 0042 38BD     		pop	{r3, r4, r5, pc}
ARM GAS  C:\Users\student\AppData\Local\Temp\ccLlhEpp.s 			page 6


 211              	.L14:
 212              		.align	2
 213              	.L13:
 214 0044 00000000 		.word	WIDTH
 215 0048 00000000 		.word	HEIGHT
 216 004c 00000000 		.word	num_columns
 217 0050 00000000 		.word	num_rows
 218 0054 00000000 		.word	.LANCHOR0
 219              		.cfi_endproc
 220              	.LFE64:
 221              		.size	Connect4Board_Init, .-Connect4Board_Init
 222              		.section	.text.Connect4Board_GetColumnPosX,"ax",%progbits
 223              		.align	2
 224              		.global	Connect4Board_GetColumnPosX
 225              		.thumb
 226              		.thumb_func
 227              		.type	Connect4Board_GetColumnPosX, %function
 228              	Connect4Board_GetColumnPosX:
 229              	.LFB65:
  70:.\Connect4Board.c **** }
  71:.\Connect4Board.c **** 
  72:.\Connect4Board.c **** int Connect4Board_GetColumnPosX(int column) {
 230              		.loc 1 72 0
 231              		.cfi_startproc
 232              		@ args = 0, pretend = 0, frame = 0
 233              		@ frame_needed = 0, uses_anonymous_args = 0
 234              		@ link register save eliminated.
 235              	.LVL24:
  73:.\Connect4Board.c ****     return column_width * (column) + WALL_THICKNESS * column;
 236              		.loc 1 73 0
 237 0000 024B     		ldr	r3, .L16
 238 0002 1B68     		ldr	r3, [r3]
 239 0004 0233     		adds	r3, r3, #2
  74:.\Connect4Board.c **** }
 240              		.loc 1 74 0
 241 0006 00FB03F0 		mul	r0, r0, r3
 242              	.LVL25:
 243 000a 7047     		bx	lr
 244              	.L17:
 245              		.align	2
 246              	.L16:
 247 000c 00000000 		.word	column_width
 248              		.cfi_endproc
 249              	.LFE65:
 250              		.size	Connect4Board_GetColumnPosX, .-Connect4Board_GetColumnPosX
 251              		.section	.text.Connect4Board_GetRowPosY,"ax",%progbits
 252              		.align	2
 253              		.global	Connect4Board_GetRowPosY
 254              		.thumb
 255              		.thumb_func
 256              		.type	Connect4Board_GetRowPosY, %function
 257              	Connect4Board_GetRowPosY:
 258              	.LFB66:
  75:.\Connect4Board.c **** 
  76:.\Connect4Board.c **** int Connect4Board_GetRowPosY(int row) {
 259              		.loc 1 76 0
 260              		.cfi_startproc
ARM GAS  C:\Users\student\AppData\Local\Temp\ccLlhEpp.s 			page 7


 261              		@ args = 0, pretend = 0, frame = 0
 262              		@ frame_needed = 0, uses_anonymous_args = 0
 263              		@ link register save eliminated.
 264              	.LVL26:
  77:.\Connect4Board.c ****     return row_height * (row) + WALL_THICKNESS * row;
 265              		.loc 1 77 0
 266 0000 024B     		ldr	r3, .L19
 267 0002 1B68     		ldr	r3, [r3]
 268 0004 0233     		adds	r3, r3, #2
  78:.\Connect4Board.c **** }
 269              		.loc 1 78 0
 270 0006 00FB03F0 		mul	r0, r0, r3
 271              	.LVL27:
 272 000a 7047     		bx	lr
 273              	.L20:
 274              		.align	2
 275              	.L19:
 276 000c 00000000 		.word	row_height
 277              		.cfi_endproc
 278              	.LFE66:
 279              		.size	Connect4Board_GetRowPosY, .-Connect4Board_GetRowPosY
 280              		.section	.text.Connect4Board_ClearHighlight,"ax",%progbits
 281              		.align	2
 282              		.global	Connect4Board_ClearHighlight
 283              		.thumb
 284              		.thumb_func
 285              		.type	Connect4Board_ClearHighlight, %function
 286              	Connect4Board_ClearHighlight:
 287              	.LFB67:
  79:.\Connect4Board.c **** 
  80:.\Connect4Board.c **** void Connect4Board_ClearHighlight() {
 288              		.loc 1 80 0
 289              		.cfi_startproc
 290              		@ args = 0, pretend = 0, frame = 0
 291              		@ frame_needed = 0, uses_anonymous_args = 0
 292 0000 2DE9F041 		push	{r4, r5, r6, r7, r8, lr}
 293              		.cfi_def_cfa_offset 24
 294              		.cfi_offset 4, -24
 295              		.cfi_offset 5, -20
 296              		.cfi_offset 6, -16
 297              		.cfi_offset 7, -12
 298              		.cfi_offset 8, -8
 299              		.cfi_offset 14, -4
  81:.\Connect4Board.c ****     int prev_column_pos_x = Connect4Board_GetColumnPosX(prev_selected);
 300              		.loc 1 81 0
 301 0004 154B     		ldr	r3, .L23
 302 0006 1C68     		ldr	r4, [r3]
 303 0008 2046     		mov	r0, r4
 304 000a FFF7FEFF 		bl	Connect4Board_GetColumnPosX
 305              	.LVL28:
  82:.\Connect4Board.c ****     int prev_offset_x = (prev_column_pos_x == 0) ? 0 : 1;
 306              		.loc 1 82 0
 307 000e 0646     		mov	r6, r0
 308 0010 071C     		adds	r7, r0, #0
 309 0012 18BF     		it	ne
 310 0014 0127     		movne	r7, #1
 311              	.LVL29:
ARM GAS  C:\Users\student\AppData\Local\Temp\ccLlhEpp.s 			page 8


  83:.\Connect4Board.c ****     
  84:.\Connect4Board.c ****     int row_index = 5 - (placed_heights[prev_selected]);
 312              		.loc 1 84 0
 313 0016 124B     		ldr	r3, .L23+4
 314 0018 53F82440 		ldr	r4, [r3, r4, lsl #2]
 315 001c C4F10505 		rsb	r5, r4, #5
 316              	.LVL30:
  85:.\Connect4Board.c ****     
  86:.\Connect4Board.c ****     int pos_y = Connect4Board_GetRowPosY(row_index);
 317              		.loc 1 86 0
 318 0020 2846     		mov	r0, r5
 319              	.LVL31:
 320 0022 FFF7FEFF 		bl	Connect4Board_GetRowPosY
 321              	.LVL32:
 322 0026 8046     		mov	r8, r0
 323              	.LVL33:
  87:.\Connect4Board.c ****     int offset_y = (row_index == num_rows - 1) ? 0 : 1;
 324              		.loc 1 87 0
 325 0028 0E4B     		ldr	r3, .L23+8
 326 002a 1C68     		ldr	r4, [r3]
 327 002c 013C     		subs	r4, r4, #1
 328 002e 641B     		subs	r4, r4, r5
 329 0030 18BF     		it	ne
 330 0032 0124     		movne	r4, #1
 331              	.LVL34:
  88:.\Connect4Board.c ****     
  89:.\Connect4Board.c ****     // Clear the previous highlight
  90:.\Connect4Board.c ****     GUI_SetColor(GUI_WHITE);
 332              		.loc 1 90 0
 333 0034 6FF07F40 		mvn	r0, #-16777216
 334              	.LVL35:
 335 0038 FFF7FEFF 		bl	GUI_SetColor
 336              	.LVL36:
  91:.\Connect4Board.c ****     GUI_FillRect(prev_column_pos_x + prev_offset_x, pos_y + 1, prev_column_pos_x + column_width - 1
 337              		.loc 1 91 0
 338 003c 0A4B     		ldr	r3, .L23+12
 339 003e 1A68     		ldr	r2, [r3]
 340 0040 3244     		add	r2, r2, r6
 341 0042 0A4B     		ldr	r3, .L23+16
 342 0044 1B68     		ldr	r3, [r3]
 343 0046 4344     		add	r3, r3, r8
 344 0048 F019     		adds	r0, r6, r7
 345 004a 08F10101 		add	r1, r8, #1
 346 004e 013A     		subs	r2, r2, #1
 347 0050 1B1B     		subs	r3, r3, r4
 348 0052 FFF7FEFF 		bl	GUI_FillRect
 349              	.LVL37:
 350 0056 BDE8F081 		pop	{r4, r5, r6, r7, r8, pc}
 351              	.LVL38:
 352              	.L24:
 353 005a 00BF     		.align	2
 354              	.L23:
 355 005c 00000000 		.word	.LANCHOR1
 356 0060 00000000 		.word	.LANCHOR0
 357 0064 00000000 		.word	num_rows
 358 0068 00000000 		.word	column_width
 359 006c 00000000 		.word	row_height
ARM GAS  C:\Users\student\AppData\Local\Temp\ccLlhEpp.s 			page 9


 360              		.cfi_endproc
 361              	.LFE67:
 362              		.size	Connect4Board_ClearHighlight, .-Connect4Board_ClearHighlight
 363              		.section	.text.Connect4Board_HighlightColumn,"ax",%progbits
 364              		.align	2
 365              		.global	Connect4Board_HighlightColumn
 366              		.thumb
 367              		.thumb_func
 368              		.type	Connect4Board_HighlightColumn, %function
 369              	Connect4Board_HighlightColumn:
 370              	.LFB68:
  92:.\Connect4Board.c **** }
  93:.\Connect4Board.c **** 
  94:.\Connect4Board.c **** void Connect4Board_HighlightColumn(uint16 column) {
 371              		.loc 1 94 0
 372              		.cfi_startproc
 373              		@ args = 0, pretend = 0, frame = 0
 374              		@ frame_needed = 0, uses_anonymous_args = 0
 375              	.LVL39:
 376 0000 2DE9F843 		push	{r3, r4, r5, r6, r7, r8, r9, lr}
 377              		.cfi_def_cfa_offset 32
 378              		.cfi_offset 3, -32
 379              		.cfi_offset 4, -28
 380              		.cfi_offset 5, -24
 381              		.cfi_offset 6, -20
 382              		.cfi_offset 7, -16
 383              		.cfi_offset 8, -12
 384              		.cfi_offset 9, -8
 385              		.cfi_offset 14, -4
 386 0004 0646     		mov	r6, r0
  95:.\Connect4Board.c ****     
  96:.\Connect4Board.c ****     Connect4Board_ClearHighlight();
 387              		.loc 1 96 0
 388 0006 FFF7FEFF 		bl	Connect4Board_ClearHighlight
 389              	.LVL40:
  97:.\Connect4Board.c ****     
  98:.\Connect4Board.c ****     int column_pos_x = Connect4Board_GetColumnPosX(column);
 390              		.loc 1 98 0
 391 000a 3046     		mov	r0, r6
 392 000c FFF7FEFF 		bl	Connect4Board_GetColumnPosX
 393              	.LVL41:
  99:.\Connect4Board.c ****     
 100:.\Connect4Board.c ****     // To ensure highlights don't collide with walls we need offsets
 101:.\Connect4Board.c ****     int offset_x = (column_pos_x == 0) ? 0 : 1;
 394              		.loc 1 101 0
 395 0010 0746     		mov	r7, r0
 396 0012 10F10008 		adds	r8, r0, #0
 397 0016 18BF     		it	ne
 398 0018 4FF00108 		movne	r8, #1
 399              	.LVL42:
 102:.\Connect4Board.c ****     
 103:.\Connect4Board.c ****     int row_index = 5 - placed_heights[column];
 400              		.loc 1 103 0
 401 001c 114B     		ldr	r3, .L27
 402 001e 53F82640 		ldr	r4, [r3, r6, lsl #2]
 403 0022 C4F10505 		rsb	r5, r4, #5
 404              	.LVL43:
ARM GAS  C:\Users\student\AppData\Local\Temp\ccLlhEpp.s 			page 10


 104:.\Connect4Board.c ****     int pos_y = Connect4Board_GetRowPosY(row_index);
 405              		.loc 1 104 0
 406 0026 2846     		mov	r0, r5
 407              	.LVL44:
 408 0028 FFF7FEFF 		bl	Connect4Board_GetRowPosY
 409              	.LVL45:
 410 002c 8146     		mov	r9, r0
 411              	.LVL46:
 105:.\Connect4Board.c ****     int offset_y = (row_index == num_rows - 1) ? 0 : 1;
 412              		.loc 1 105 0
 413 002e 0E4B     		ldr	r3, .L27+4
 414 0030 1C68     		ldr	r4, [r3]
 415 0032 013C     		subs	r4, r4, #1
 416 0034 641B     		subs	r4, r4, r5
 417 0036 18BF     		it	ne
 418 0038 0124     		movne	r4, #1
 419              	.LVL47:
 106:.\Connect4Board.c **** 
 107:.\Connect4Board.c ****     // Draw the new highlight
 108:.\Connect4Board.c ****     GUI_SetColor(GUI_HIGHLIGHT);
 420              		.loc 1 108 0
 421 003a 0C48     		ldr	r0, .L27+8
 422              	.LVL48:
 423 003c FFF7FEFF 		bl	GUI_SetColor
 424              	.LVL49:
 109:.\Connect4Board.c ****     GUI_FillRect(column_pos_x + offset_x, pos_y + 1, column_pos_x + column_width - 1, pos_y + row_h
 425              		.loc 1 109 0
 426 0040 0B4B     		ldr	r3, .L27+12
 427 0042 1A68     		ldr	r2, [r3]
 428 0044 3A44     		add	r2, r2, r7
 429 0046 0B4B     		ldr	r3, .L27+16
 430 0048 1B68     		ldr	r3, [r3]
 431 004a 4B44     		add	r3, r3, r9
 432 004c 07EB0800 		add	r0, r7, r8
 433 0050 09F10101 		add	r1, r9, #1
 434 0054 013A     		subs	r2, r2, #1
 435 0056 1B1B     		subs	r3, r3, r4
 436 0058 FFF7FEFF 		bl	GUI_FillRect
 437              	.LVL50:
 110:.\Connect4Board.c ****    
 111:.\Connect4Board.c ****     prev_selected = column;
 438              		.loc 1 111 0
 439 005c 064B     		ldr	r3, .L27+20
 440 005e 1E60     		str	r6, [r3]
 441 0060 BDE8F883 		pop	{r3, r4, r5, r6, r7, r8, r9, pc}
 442              	.LVL51:
 443              	.L28:
 444              		.align	2
 445              	.L27:
 446 0064 00000000 		.word	.LANCHOR0
 447 0068 00000000 		.word	num_rows
 448 006c DEF7FC00 		.word	16578526
 449 0070 00000000 		.word	column_width
 450 0074 00000000 		.word	row_height
 451 0078 00000000 		.word	.LANCHOR1
 452              		.cfi_endproc
 453              	.LFE68:
ARM GAS  C:\Users\student\AppData\Local\Temp\ccLlhEpp.s 			page 11


 454              		.size	Connect4Board_HighlightColumn, .-Connect4Board_HighlightColumn
 455              		.section	.text.Connect4Board_Place,"ax",%progbits
 456              		.align	2
 457              		.global	Connect4Board_Place
 458              		.thumb
 459              		.thumb_func
 460              		.type	Connect4Board_Place, %function
 461              	Connect4Board_Place:
 462              	.LFB69:
 112:.\Connect4Board.c **** }
 113:.\Connect4Board.c **** 
 114:.\Connect4Board.c **** void Connect4Board_Place(uint16 column, uint16 player) {
 463              		.loc 1 114 0
 464              		.cfi_startproc
 465              		@ args = 0, pretend = 0, frame = 0
 466              		@ frame_needed = 0, uses_anonymous_args = 0
 467              	.LVL52:
 468 0000 2DE9F843 		push	{r3, r4, r5, r6, r7, r8, r9, lr}
 469              		.cfi_def_cfa_offset 32
 470              		.cfi_offset 3, -32
 471              		.cfi_offset 4, -28
 472              		.cfi_offset 5, -24
 473              		.cfi_offset 6, -20
 474              		.cfi_offset 7, -16
 475              		.cfi_offset 8, -12
 476              		.cfi_offset 9, -8
 477              		.cfi_offset 14, -4
 478 0004 0546     		mov	r5, r0
 479 0006 8846     		mov	r8, r1
 115:.\Connect4Board.c ****     int center_pos_x = Connect4Board_GetColumnPosX(column) + column_width / 2;
 480              		.loc 1 115 0
 481 0008 FFF7FEFF 		bl	Connect4Board_GetColumnPosX
 482              	.LVL53:
 483 000c 174B     		ldr	r3, .L35
 484 000e 1E68     		ldr	r6, [r3]
 485 0010 06EBD674 		add	r4, r6, r6, lsr #31
 486 0014 6410     		asrs	r4, r4, #1
 487 0016 0719     		adds	r7, r0, r4
 488              	.LVL54:
 116:.\Connect4Board.c ****     int center_pos_y = Connect4Board_GetRowPosY(5 - placed_heights[column]) + row_height / 2;
 489              		.loc 1 116 0
 490 0018 154B     		ldr	r3, .L35+4
 491 001a 53F82500 		ldr	r0, [r3, r5, lsl #2]
 492 001e C0F10500 		rsb	r0, r0, #5
 493 0022 FFF7FEFF 		bl	Connect4Board_GetRowPosY
 494              	.LVL55:
 495 0026 134B     		ldr	r3, .L35+8
 496 0028 1A68     		ldr	r2, [r3]
 497 002a 02EBD273 		add	r3, r2, r2, lsr #31
 498 002e 5B10     		asrs	r3, r3, #1
 499 0030 00EB0309 		add	r9, r0, r3
 500              	.LVL56:
 117:.\Connect4Board.c ****     
 118:.\Connect4Board.c ****     uint16 radius = column_width > row_height ? row_height / 2 : column_width / 2;
 501              		.loc 1 118 0
 502 0034 9642     		cmp	r6, r2
 503 0036 01DD     		ble	.L30
ARM GAS  C:\Users\student\AppData\Local\Temp\ccLlhEpp.s 			page 12


 504              		.loc 1 118 0 is_stmt 0 discriminator 1
 505 0038 9CB2     		uxth	r4, r3
 506 003a 00E0     		b	.L31
 507              	.L30:
 508              		.loc 1 118 0 discriminator 2
 509 003c A4B2     		uxth	r4, r4
 510              	.L31:
 511              	.LVL57:
 119:.\Connect4Board.c ****     
 120:.\Connect4Board.c ****     GUI_SetColor(player ? GUI_RED : GUI_YELLOW);
 512              		.loc 1 120 0 is_stmt 1 discriminator 4
 513 003e B8F1000F 		cmp	r8, #0
 514 0042 01D0     		beq	.L33
 515              		.loc 1 120 0 is_stmt 0
 516 0044 FF20     		movs	r0, #255
 517 0046 01E0     		b	.L32
 518              	.L33:
 519 0048 4FF6FF70 		movw	r0, #65535
 520              	.L32:
 521              		.loc 1 120 0 discriminator 4
 522 004c FFF7FEFF 		bl	GUI_SetColor
 523              	.LVL58:
 121:.\Connect4Board.c ****     
 122:.\Connect4Board.c ****     GUI_FillCircle(center_pos_x, center_pos_y, radius);
 524              		.loc 1 122 0 is_stmt 1 discriminator 4
 525 0050 3846     		mov	r0, r7
 526 0052 4946     		mov	r1, r9
 527 0054 2246     		mov	r2, r4
 528 0056 FFF7FEFF 		bl	GUI_FillCircle
 529              	.LVL59:
 123:.\Connect4Board.c ****     
 124:.\Connect4Board.c ****     placed_heights[column]++;
 530              		.loc 1 124 0 discriminator 4
 531 005a 054A     		ldr	r2, .L35+4
 532 005c 52F82530 		ldr	r3, [r2, r5, lsl #2]
 533 0060 0133     		adds	r3, r3, #1
 534 0062 42F82530 		str	r3, [r2, r5, lsl #2]
 535 0066 BDE8F883 		pop	{r3, r4, r5, r6, r7, r8, r9, pc}
 536              	.LVL60:
 537              	.L36:
 538 006a 00BF     		.align	2
 539              	.L35:
 540 006c 00000000 		.word	column_width
 541 0070 00000000 		.word	.LANCHOR0
 542 0074 00000000 		.word	row_height
 543              		.cfi_endproc
 544              	.LFE69:
 545              		.size	Connect4Board_Place, .-Connect4Board_Place
 546              		.global	prev_selected
 547              		.comm	HEIGHT,2,2
 548              		.comm	WIDTH,2,2
 549              		.global	placed_heights
 550              		.comm	num_rows,4,4
 551              		.comm	num_columns,4,4
 552              		.comm	row_height,4,4
 553              		.comm	column_width,4,4
 554              		.comm	PosY,2,2
ARM GAS  C:\Users\student\AppData\Local\Temp\ccLlhEpp.s 			page 13


 555              		.comm	PosX,2,2
 556              		.data
 557              		.align	2
 558              		.set	.LANCHOR1,. + 0
 559              		.type	prev_selected, %object
 560              		.size	prev_selected, 4
 561              	prev_selected:
 562 0000 07000000 		.word	7
 563              		.bss
 564              		.align	2
 565              		.set	.LANCHOR0,. + 0
 566              		.type	placed_heights, %object
 567              		.size	placed_heights, 28
 568              	placed_heights:
 569 0000 00000000 		.space	28
 569      00000000 
 569      00000000 
 569      00000000 
 569      00000000 
 570              		.text
 571              	.Letext0:
 572              		.file 2 "..\\emWinGraphics_v5_46\\Code\\Include\\PSoC4_5/LCD.h"
 573              		.file 3 "..\\emWinGraphics_v5_46\\Code\\Include\\PSoC4_5/GUI_Type.h"
 574              		.file 4 "c:\\program files (x86)\\cypress\\psoc creator\\3.3\\psoc creator\\import\\gnu\\arm\\4.9.
 575              		.file 5 "c:\\program files (x86)\\cypress\\psoc creator\\3.3\\psoc creator\\import\\gnu\\arm\\4.9.
 576              		.file 6 "Generated_Source\\PSoC5/cytypes.h"
 577              		.file 7 "Generated_Source\\PSoC5/core_cm3.h"
 578              		.file 8 ".\\XPT2046.h"
 579              		.file 9 "..\\emWinGraphics_v5_46\\Code\\Include\\PSoC4_5/GUI.h"