ARM GAS  C:\Users\student\AppData\Local\Temp\ccPi7RaA.s 			page 1


   1              		.syntax unified
   2              		.cpu cortex-m3
   3              		.fpu softvfp
   4              		.eabi_attribute 20, 1
   5              		.eabi_attribute 21, 1
   6              		.eabi_attribute 23, 3
   7              		.eabi_attribute 24, 1
   8              		.eabi_attribute 25, 1
   9              		.eabi_attribute 26, 1
  10              		.eabi_attribute 30, 1
  11              		.eabi_attribute 34, 1
  12              		.eabi_attribute 18, 4
  13              		.thumb
  14              		.file	"cyfitter_cfg.c"
  15              		.text
  16              	.Ltext0:
  17              		.cfi_sections	.debug_frame
  18              		.section	.text.CyClockStartupError,"ax",%progbits
  19              		.align	2
  20              		.thumb
  21              		.thumb_func
  22              		.type	CyClockStartupError, %function
  23              	CyClockStartupError:
  24              	.LFB3:
  25              		.file 1 ".\\Generated_Source\\PSoC5\\cyfitter_cfg.c"
   1:.\Generated_Source\PSoC5/cyfitter_cfg.c **** /*******************************************************************************
   2:.\Generated_Source\PSoC5/cyfitter_cfg.c **** * File Name: cyfitter_cfg.c
   3:.\Generated_Source\PSoC5/cyfitter_cfg.c **** * 
   4:.\Generated_Source\PSoC5/cyfitter_cfg.c **** * PSoC Creator  3.3 CP3
   5:.\Generated_Source\PSoC5/cyfitter_cfg.c **** *
   6:.\Generated_Source\PSoC5/cyfitter_cfg.c **** * Description:
   7:.\Generated_Source\PSoC5/cyfitter_cfg.c **** * This file contains device initialization code.
   8:.\Generated_Source\PSoC5/cyfitter_cfg.c **** * Except for the user defined sections in CyClockStartupError(), this file should not be modified.
   9:.\Generated_Source\PSoC5/cyfitter_cfg.c **** * This file is automatically generated by PSoC Creator.
  10:.\Generated_Source\PSoC5/cyfitter_cfg.c **** *
  11:.\Generated_Source\PSoC5/cyfitter_cfg.c **** ********************************************************************************
  12:.\Generated_Source\PSoC5/cyfitter_cfg.c **** * Copyright (c) 2007-2016 Cypress Semiconductor.  All rights reserved.
  13:.\Generated_Source\PSoC5/cyfitter_cfg.c **** * You may use this file only in accordance with the license, terms, conditions, 
  14:.\Generated_Source\PSoC5/cyfitter_cfg.c **** * disclaimers, and limitations in the end user license agreement accompanying 
  15:.\Generated_Source\PSoC5/cyfitter_cfg.c **** * the software package with which this file was provided.
  16:.\Generated_Source\PSoC5/cyfitter_cfg.c **** ********************************************************************************/
  17:.\Generated_Source\PSoC5/cyfitter_cfg.c **** 
  18:.\Generated_Source\PSoC5/cyfitter_cfg.c **** #include <string.h>
  19:.\Generated_Source\PSoC5/cyfitter_cfg.c **** #include "cytypes.h"
  20:.\Generated_Source\PSoC5/cyfitter_cfg.c **** #include "cydevice_trm.h"
  21:.\Generated_Source\PSoC5/cyfitter_cfg.c **** #include "cyfitter.h"
  22:.\Generated_Source\PSoC5/cyfitter_cfg.c **** #include "CyLib.h"
  23:.\Generated_Source\PSoC5/cyfitter_cfg.c **** #include "cyfitter_cfg.h"
  24:.\Generated_Source\PSoC5/cyfitter_cfg.c **** 
  25:.\Generated_Source\PSoC5/cyfitter_cfg.c **** #define CY_NEED_CYCLOCKSTARTUPERROR 1
  26:.\Generated_Source\PSoC5/cyfitter_cfg.c **** 
  27:.\Generated_Source\PSoC5/cyfitter_cfg.c **** 
  28:.\Generated_Source\PSoC5/cyfitter_cfg.c **** #if defined(__GNUC__) || defined(__ARMCC_VERSION)
  29:.\Generated_Source\PSoC5/cyfitter_cfg.c ****     #define CYPACKED 
  30:.\Generated_Source\PSoC5/cyfitter_cfg.c ****     #define CYPACKED_ATTR __attribute__ ((packed))
  31:.\Generated_Source\PSoC5/cyfitter_cfg.c ****     #define CYALIGNED __attribute__ ((aligned))
  32:.\Generated_Source\PSoC5/cyfitter_cfg.c ****     #define CY_CFG_UNUSED __attribute__ ((unused))
ARM GAS  C:\Users\student\AppData\Local\Temp\ccPi7RaA.s 			page 2


  33:.\Generated_Source\PSoC5/cyfitter_cfg.c ****     #ifndef CY_CFG_SECTION
  34:.\Generated_Source\PSoC5/cyfitter_cfg.c ****         #define CY_CFG_SECTION __attribute__ ((section(".psocinit")))
  35:.\Generated_Source\PSoC5/cyfitter_cfg.c ****     #endif
  36:.\Generated_Source\PSoC5/cyfitter_cfg.c ****     
  37:.\Generated_Source\PSoC5/cyfitter_cfg.c ****     #if defined(__ARMCC_VERSION)
  38:.\Generated_Source\PSoC5/cyfitter_cfg.c ****         #define CY_CFG_MEMORY_BARRIER() __memory_changed()
  39:.\Generated_Source\PSoC5/cyfitter_cfg.c ****     #else
  40:.\Generated_Source\PSoC5/cyfitter_cfg.c ****         #define CY_CFG_MEMORY_BARRIER() __sync_synchronize()
  41:.\Generated_Source\PSoC5/cyfitter_cfg.c ****     #endif
  42:.\Generated_Source\PSoC5/cyfitter_cfg.c ****     
  43:.\Generated_Source\PSoC5/cyfitter_cfg.c **** #elif defined(__ICCARM__)
  44:.\Generated_Source\PSoC5/cyfitter_cfg.c ****     #include <intrinsics.h>
  45:.\Generated_Source\PSoC5/cyfitter_cfg.c **** 
  46:.\Generated_Source\PSoC5/cyfitter_cfg.c ****     #define CYPACKED __packed
  47:.\Generated_Source\PSoC5/cyfitter_cfg.c ****     #define CYPACKED_ATTR 
  48:.\Generated_Source\PSoC5/cyfitter_cfg.c ****     #define CYALIGNED _Pragma("data_alignment=4")
  49:.\Generated_Source\PSoC5/cyfitter_cfg.c ****     #define CY_CFG_UNUSED _Pragma("diag_suppress=Pe177")
  50:.\Generated_Source\PSoC5/cyfitter_cfg.c ****     #define CY_CFG_SECTION _Pragma("location=\".psocinit\"")
  51:.\Generated_Source\PSoC5/cyfitter_cfg.c ****     
  52:.\Generated_Source\PSoC5/cyfitter_cfg.c ****     #define CY_CFG_MEMORY_BARRIER() __DMB()
  53:.\Generated_Source\PSoC5/cyfitter_cfg.c ****     
  54:.\Generated_Source\PSoC5/cyfitter_cfg.c **** #else
  55:.\Generated_Source\PSoC5/cyfitter_cfg.c ****     #error Unsupported toolchain
  56:.\Generated_Source\PSoC5/cyfitter_cfg.c **** #endif
  57:.\Generated_Source\PSoC5/cyfitter_cfg.c **** 
  58:.\Generated_Source\PSoC5/cyfitter_cfg.c **** 
  59:.\Generated_Source\PSoC5/cyfitter_cfg.c **** CY_CFG_UNUSED
  60:.\Generated_Source\PSoC5/cyfitter_cfg.c **** static void CYMEMZERO(void *s, size_t n);
  61:.\Generated_Source\PSoC5/cyfitter_cfg.c **** CY_CFG_UNUSED
  62:.\Generated_Source\PSoC5/cyfitter_cfg.c **** static void CYMEMZERO(void *s, size_t n)
  63:.\Generated_Source\PSoC5/cyfitter_cfg.c **** {
  64:.\Generated_Source\PSoC5/cyfitter_cfg.c **** 	(void)memset(s, 0, n);
  65:.\Generated_Source\PSoC5/cyfitter_cfg.c **** }
  66:.\Generated_Source\PSoC5/cyfitter_cfg.c **** CY_CFG_UNUSED
  67:.\Generated_Source\PSoC5/cyfitter_cfg.c **** static void CYCONFIGCPY(void *dest, const void *src, size_t n);
  68:.\Generated_Source\PSoC5/cyfitter_cfg.c **** CY_CFG_UNUSED
  69:.\Generated_Source\PSoC5/cyfitter_cfg.c **** static void CYCONFIGCPY(void *dest, const void *src, size_t n)
  70:.\Generated_Source\PSoC5/cyfitter_cfg.c **** {
  71:.\Generated_Source\PSoC5/cyfitter_cfg.c **** 	(void)memcpy(dest, src, n);
  72:.\Generated_Source\PSoC5/cyfitter_cfg.c **** }
  73:.\Generated_Source\PSoC5/cyfitter_cfg.c **** CY_CFG_UNUSED
  74:.\Generated_Source\PSoC5/cyfitter_cfg.c **** static void CYCONFIGCPYCODE(void *dest, const void *src, size_t n);
  75:.\Generated_Source\PSoC5/cyfitter_cfg.c **** CY_CFG_UNUSED
  76:.\Generated_Source\PSoC5/cyfitter_cfg.c **** static void CYCONFIGCPYCODE(void *dest, const void *src, size_t n)
  77:.\Generated_Source\PSoC5/cyfitter_cfg.c **** {
  78:.\Generated_Source\PSoC5/cyfitter_cfg.c **** 	(void)memcpy(dest, src, n);
  79:.\Generated_Source\PSoC5/cyfitter_cfg.c **** }
  80:.\Generated_Source\PSoC5/cyfitter_cfg.c **** 
  81:.\Generated_Source\PSoC5/cyfitter_cfg.c **** 
  82:.\Generated_Source\PSoC5/cyfitter_cfg.c **** 
  83:.\Generated_Source\PSoC5/cyfitter_cfg.c **** /* Clock startup error codes                                                   */
  84:.\Generated_Source\PSoC5/cyfitter_cfg.c **** #define CYCLOCKSTART_NO_ERROR    0u
  85:.\Generated_Source\PSoC5/cyfitter_cfg.c **** #define CYCLOCKSTART_XTAL_ERROR  1u
  86:.\Generated_Source\PSoC5/cyfitter_cfg.c **** #define CYCLOCKSTART_32KHZ_ERROR 2u
  87:.\Generated_Source\PSoC5/cyfitter_cfg.c **** #define CYCLOCKSTART_PLL_ERROR   3u
  88:.\Generated_Source\PSoC5/cyfitter_cfg.c **** 
  89:.\Generated_Source\PSoC5/cyfitter_cfg.c **** #ifdef CY_NEED_CYCLOCKSTARTUPERROR
ARM GAS  C:\Users\student\AppData\Local\Temp\ccPi7RaA.s 			page 3


  90:.\Generated_Source\PSoC5/cyfitter_cfg.c **** /*******************************************************************************
  91:.\Generated_Source\PSoC5/cyfitter_cfg.c **** * Function Name: CyClockStartupError
  92:.\Generated_Source\PSoC5/cyfitter_cfg.c **** ********************************************************************************
  93:.\Generated_Source\PSoC5/cyfitter_cfg.c **** * Summary:
  94:.\Generated_Source\PSoC5/cyfitter_cfg.c **** *  If an error is encountered during clock configuration (crystal startup error,
  95:.\Generated_Source\PSoC5/cyfitter_cfg.c **** *  PLL lock error, etc.), the system will end up here.  Unless reimplemented by
  96:.\Generated_Source\PSoC5/cyfitter_cfg.c **** *  the customer, this function will stop in an infinite loop.
  97:.\Generated_Source\PSoC5/cyfitter_cfg.c **** *
  98:.\Generated_Source\PSoC5/cyfitter_cfg.c **** * Parameters:
  99:.\Generated_Source\PSoC5/cyfitter_cfg.c **** *   void
 100:.\Generated_Source\PSoC5/cyfitter_cfg.c **** *
 101:.\Generated_Source\PSoC5/cyfitter_cfg.c **** * Return:
 102:.\Generated_Source\PSoC5/cyfitter_cfg.c **** *   void
 103:.\Generated_Source\PSoC5/cyfitter_cfg.c **** *
 104:.\Generated_Source\PSoC5/cyfitter_cfg.c **** *******************************************************************************/
 105:.\Generated_Source\PSoC5/cyfitter_cfg.c **** CY_CFG_UNUSED
 106:.\Generated_Source\PSoC5/cyfitter_cfg.c **** static void CyClockStartupError(uint8 errorCode);
 107:.\Generated_Source\PSoC5/cyfitter_cfg.c **** CY_CFG_UNUSED
 108:.\Generated_Source\PSoC5/cyfitter_cfg.c **** static void CyClockStartupError(uint8 errorCode)
 109:.\Generated_Source\PSoC5/cyfitter_cfg.c **** {
  26              		.loc 1 109 0
  27              		.cfi_startproc
  28              		@ Volatile: function does not return.
  29              		@ args = 0, pretend = 0, frame = 0
  30              		@ frame_needed = 0, uses_anonymous_args = 0
  31              		@ link register save eliminated.
  32              	.LVL0:
  33              	.L2:
 110:.\Generated_Source\PSoC5/cyfitter_cfg.c ****     /* To remove the compiler warning if errorCode not used.                */
 111:.\Generated_Source\PSoC5/cyfitter_cfg.c ****     errorCode = errorCode;
 112:.\Generated_Source\PSoC5/cyfitter_cfg.c **** 
 113:.\Generated_Source\PSoC5/cyfitter_cfg.c ****     /* `#START CyClockStartupError` */
 114:.\Generated_Source\PSoC5/cyfitter_cfg.c **** 
 115:.\Generated_Source\PSoC5/cyfitter_cfg.c ****     /* If we have a clock startup error (bad MHz crystal, PLL lock, etc.),  */
 116:.\Generated_Source\PSoC5/cyfitter_cfg.c ****     /* we will end up here to allow the customer to implement something to  */
 117:.\Generated_Source\PSoC5/cyfitter_cfg.c ****     /* deal with the clock condition.                                       */
 118:.\Generated_Source\PSoC5/cyfitter_cfg.c **** 
 119:.\Generated_Source\PSoC5/cyfitter_cfg.c ****     /* `#END` */
 120:.\Generated_Source\PSoC5/cyfitter_cfg.c **** 
 121:.\Generated_Source\PSoC5/cyfitter_cfg.c ****     /* If nothing else, stop here since the clocks have not started         */
 122:.\Generated_Source\PSoC5/cyfitter_cfg.c ****     /* correctly.                                                           */
 123:.\Generated_Source\PSoC5/cyfitter_cfg.c ****     while(1) {}
  34              		.loc 1 123 0 discriminator 1
  35 0000 FEE7     		b	.L2
  36              		.cfi_endproc
  37              	.LFE3:
  38              		.size	CyClockStartupError, .-CyClockStartupError
  39 0002 00BF     		.section	.text.cfg_write_bytes32,"ax",%progbits
  40              		.align	2
  41              		.thumb
  42              		.thumb_func
  43              		.type	cfg_write_bytes32, %function
  44              	cfg_write_bytes32:
  45              	.LFB4:
 124:.\Generated_Source\PSoC5/cyfitter_cfg.c **** }
 125:.\Generated_Source\PSoC5/cyfitter_cfg.c **** #endif
 126:.\Generated_Source\PSoC5/cyfitter_cfg.c **** 
ARM GAS  C:\Users\student\AppData\Local\Temp\ccPi7RaA.s 			page 4


 127:.\Generated_Source\PSoC5/cyfitter_cfg.c **** #define CY_CFG_BASE_ADDR_COUNT 34u
 128:.\Generated_Source\PSoC5/cyfitter_cfg.c **** CYPACKED typedef struct
 129:.\Generated_Source\PSoC5/cyfitter_cfg.c **** {
 130:.\Generated_Source\PSoC5/cyfitter_cfg.c **** 	uint8 offset;
 131:.\Generated_Source\PSoC5/cyfitter_cfg.c **** 	uint8 value;
 132:.\Generated_Source\PSoC5/cyfitter_cfg.c **** } CYPACKED_ATTR cy_cfg_addrvalue_t;
 133:.\Generated_Source\PSoC5/cyfitter_cfg.c **** 
 134:.\Generated_Source\PSoC5/cyfitter_cfg.c **** #define cy_cfg_addr_table ((const uint32 CYFAR *)0x48000000u)
 135:.\Generated_Source\PSoC5/cyfitter_cfg.c **** #define cy_cfg_data_table ((const cy_cfg_addrvalue_t CYFAR *)0x48000088u)
 136:.\Generated_Source\PSoC5/cyfitter_cfg.c **** 
 137:.\Generated_Source\PSoC5/cyfitter_cfg.c **** /* PICU_4 Address: CYDEV_PICU_INTTYPE_PICU4_BASE Size (bytes): 8 */
 138:.\Generated_Source\PSoC5/cyfitter_cfg.c **** #define BS_PICU_4_VAL ((const uint8 CYFAR *)0x480006F4u)
 139:.\Generated_Source\PSoC5/cyfitter_cfg.c **** 
 140:.\Generated_Source\PSoC5/cyfitter_cfg.c **** /* UDB_0_3_1_CONFIG Address: CYDEV_UCFG_B0_P5_U1_BASE Size (bytes): 128 */
 141:.\Generated_Source\PSoC5/cyfitter_cfg.c **** #define BS_UDB_0_3_1_CONFIG_VAL ((const uint8 CYFAR *)0x480006FCu)
 142:.\Generated_Source\PSoC5/cyfitter_cfg.c **** 
 143:.\Generated_Source\PSoC5/cyfitter_cfg.c **** /* UDB_0_0_1_CONFIG Address: CYDEV_UCFG_B1_P5_U1_BASE Size (bytes): 128 */
 144:.\Generated_Source\PSoC5/cyfitter_cfg.c **** #define BS_UDB_0_0_1_CONFIG_VAL ((const uint8 CYFAR *)0x4800077Cu)
 145:.\Generated_Source\PSoC5/cyfitter_cfg.c **** 
 146:.\Generated_Source\PSoC5/cyfitter_cfg.c **** /* IOPINS0_8 Address: CYREG_PRT15_DR Size (bytes): 10 */
 147:.\Generated_Source\PSoC5/cyfitter_cfg.c **** #define BS_IOPINS0_8_VAL ((const uint8 CYFAR *)0x480007FCu)
 148:.\Generated_Source\PSoC5/cyfitter_cfg.c **** 
 149:.\Generated_Source\PSoC5/cyfitter_cfg.c **** /* IOPINS0_1 Address: CYREG_PRT1_DM0 Size (bytes): 8 */
 150:.\Generated_Source\PSoC5/cyfitter_cfg.c **** #define BS_IOPINS0_1_VAL ((const uint8 CYFAR *)0x48000808u)
 151:.\Generated_Source\PSoC5/cyfitter_cfg.c **** 
 152:.\Generated_Source\PSoC5/cyfitter_cfg.c **** /* IOPINS0_2 Address: CYREG_PRT2_DM0 Size (bytes): 8 */
 153:.\Generated_Source\PSoC5/cyfitter_cfg.c **** #define BS_IOPINS0_2_VAL ((const uint8 CYFAR *)0x48000810u)
 154:.\Generated_Source\PSoC5/cyfitter_cfg.c **** 
 155:.\Generated_Source\PSoC5/cyfitter_cfg.c **** /* IOPINS0_3 Address: CYREG_PRT3_DM0 Size (bytes): 8 */
 156:.\Generated_Source\PSoC5/cyfitter_cfg.c **** #define BS_IOPINS0_3_VAL ((const uint8 CYFAR *)0x48000818u)
 157:.\Generated_Source\PSoC5/cyfitter_cfg.c **** 
 158:.\Generated_Source\PSoC5/cyfitter_cfg.c **** /* IOPINS0_4 Address: CYREG_PRT4_DM0 Size (bytes): 8 */
 159:.\Generated_Source\PSoC5/cyfitter_cfg.c **** #define BS_IOPINS0_4_VAL ((const uint8 CYFAR *)0x48000820u)
 160:.\Generated_Source\PSoC5/cyfitter_cfg.c **** 
 161:.\Generated_Source\PSoC5/cyfitter_cfg.c **** /* IOPINS0_5 Address: CYREG_PRT5_DM0 Size (bytes): 8 */
 162:.\Generated_Source\PSoC5/cyfitter_cfg.c **** #define BS_IOPINS0_5_VAL ((const uint8 CYFAR *)0x48000828u)
 163:.\Generated_Source\PSoC5/cyfitter_cfg.c **** 
 164:.\Generated_Source\PSoC5/cyfitter_cfg.c **** 
 165:.\Generated_Source\PSoC5/cyfitter_cfg.c **** /*******************************************************************************
 166:.\Generated_Source\PSoC5/cyfitter_cfg.c **** * Function Name: cfg_write_bytes32
 167:.\Generated_Source\PSoC5/cyfitter_cfg.c **** ********************************************************************************
 168:.\Generated_Source\PSoC5/cyfitter_cfg.c **** * Summary:
 169:.\Generated_Source\PSoC5/cyfitter_cfg.c **** *  This function is used for setting up the chip configuration areas that
 170:.\Generated_Source\PSoC5/cyfitter_cfg.c **** *  contain relatively sparse data.
 171:.\Generated_Source\PSoC5/cyfitter_cfg.c **** *
 172:.\Generated_Source\PSoC5/cyfitter_cfg.c **** * Parameters:
 173:.\Generated_Source\PSoC5/cyfitter_cfg.c **** *   void
 174:.\Generated_Source\PSoC5/cyfitter_cfg.c **** *
 175:.\Generated_Source\PSoC5/cyfitter_cfg.c **** * Return:
 176:.\Generated_Source\PSoC5/cyfitter_cfg.c **** *   void
 177:.\Generated_Source\PSoC5/cyfitter_cfg.c **** *
 178:.\Generated_Source\PSoC5/cyfitter_cfg.c **** *******************************************************************************/
 179:.\Generated_Source\PSoC5/cyfitter_cfg.c **** static void cfg_write_bytes32(const uint32 addr_table[], const cy_cfg_addrvalue_t data_table[]);
 180:.\Generated_Source\PSoC5/cyfitter_cfg.c **** static void cfg_write_bytes32(const uint32 addr_table[], const cy_cfg_addrvalue_t data_table[])
 181:.\Generated_Source\PSoC5/cyfitter_cfg.c **** {
  46              		.loc 1 181 0
  47              		.cfi_startproc
ARM GAS  C:\Users\student\AppData\Local\Temp\ccPi7RaA.s 			page 5


  48              		@ args = 0, pretend = 0, frame = 0
  49              		@ frame_needed = 0, uses_anonymous_args = 0
  50              		@ link register save eliminated.
  51              	.LVL1:
  52 0000 F0B4     		push	{r4, r5, r6, r7}
  53              		.cfi_def_cfa_offset 16
  54              		.cfi_offset 4, -16
  55              		.cfi_offset 5, -12
  56              		.cfi_offset 6, -8
  57              		.cfi_offset 7, -4
  58              	.LVL2:
 182:.\Generated_Source\PSoC5/cyfitter_cfg.c **** 	/* For 32-bit little-endian architectures */
 183:.\Generated_Source\PSoC5/cyfitter_cfg.c **** 	uint32 i, j = 0u;
  59              		.loc 1 183 0
  60 0002 0022     		movs	r2, #0
 184:.\Generated_Source\PSoC5/cyfitter_cfg.c **** 	for (i = 0u; i < CY_CFG_BASE_ADDR_COUNT; i++)
  61              		.loc 1 184 0
  62 0004 1746     		mov	r7, r2
  63 0006 11E0     		b	.L4
  64              	.LVL3:
  65              	.L7:
  66              	.LBB2:
 185:.\Generated_Source\PSoC5/cyfitter_cfg.c **** 	{
 186:.\Generated_Source\PSoC5/cyfitter_cfg.c **** 		uint32 baseAddr = addr_table[i];
  67              		.loc 1 186 0
  68 0008 50F82760 		ldr	r6, [r0, r7, lsl #2]
  69              	.LVL4:
 187:.\Generated_Source\PSoC5/cyfitter_cfg.c **** 		uint8 count = (uint8)baseAddr;
  70              		.loc 1 187 0
  71 000c F3B2     		uxtb	r3, r6
  72              	.LVL5:
 188:.\Generated_Source\PSoC5/cyfitter_cfg.c **** 		baseAddr &= 0xFFFFFF00u;
  73              		.loc 1 188 0
  74 000e 26F0FF06 		bic	r6, r6, #255
  75              	.LVL6:
 189:.\Generated_Source\PSoC5/cyfitter_cfg.c **** 		while (count != 0u)
  76              		.loc 1 189 0
  77 0012 08E0     		b	.L5
  78              	.L6:
 190:.\Generated_Source\PSoC5/cyfitter_cfg.c **** 		{
 191:.\Generated_Source\PSoC5/cyfitter_cfg.c **** 			CY_SET_XTND_REG8((void CYFAR *)(baseAddr + data_table[j].offset), data_table[j].value);
  79              		.loc 1 191 0
  80 0014 01EB4205 		add	r5, r1, r2, lsl #1
  81 0018 11F81240 		ldrb	r4, [r1, r2, lsl #1]	@ zero_extendqisi2
  82 001c 6D78     		ldrb	r5, [r5, #1]	@ zero_extendqisi2
  83 001e A555     		strb	r5, [r4, r6]
 192:.\Generated_Source\PSoC5/cyfitter_cfg.c **** 			j++;
  84              		.loc 1 192 0
  85 0020 0132     		adds	r2, r2, #1
  86              	.LVL7:
 193:.\Generated_Source\PSoC5/cyfitter_cfg.c **** 			count--;
  87              		.loc 1 193 0
  88 0022 013B     		subs	r3, r3, #1
  89              	.LVL8:
  90 0024 DBB2     		uxtb	r3, r3
  91              	.LVL9:
  92              	.L5:
ARM GAS  C:\Users\student\AppData\Local\Temp\ccPi7RaA.s 			page 6


 189:.\Generated_Source\PSoC5/cyfitter_cfg.c **** 		{
  93              		.loc 1 189 0
  94 0026 002B     		cmp	r3, #0
  95 0028 F4D1     		bne	.L6
  96              	.LBE2:
 184:.\Generated_Source\PSoC5/cyfitter_cfg.c **** 	{
  97              		.loc 1 184 0 discriminator 2
  98 002a 0137     		adds	r7, r7, #1
  99              	.LVL10:
 100              	.L4:
 184:.\Generated_Source\PSoC5/cyfitter_cfg.c **** 	{
 101              		.loc 1 184 0 is_stmt 0 discriminator 1
 102 002c 212F     		cmp	r7, #33
 103 002e EBD9     		bls	.L7
 194:.\Generated_Source\PSoC5/cyfitter_cfg.c **** 		}
 195:.\Generated_Source\PSoC5/cyfitter_cfg.c **** 	}
 196:.\Generated_Source\PSoC5/cyfitter_cfg.c **** }
 104              		.loc 1 196 0 is_stmt 1
 105 0030 F0BC     		pop	{r4, r5, r6, r7}
 106              		.cfi_restore 7
 107              		.cfi_restore 6
 108              		.cfi_restore 5
 109              		.cfi_restore 4
 110              		.cfi_def_cfa_offset 0
 111              	.LVL11:
 112 0032 7047     		bx	lr
 113              		.cfi_endproc
 114              	.LFE4:
 115              		.size	cfg_write_bytes32, .-cfg_write_bytes32
 116              		.section	.text.AnalogSetDefault,"ax",%progbits
 117              		.align	2
 118              		.thumb
 119              		.thumb_func
 120              		.type	AnalogSetDefault, %function
 121              	AnalogSetDefault:
 122              	.LFB6:
 197:.\Generated_Source\PSoC5/cyfitter_cfg.c **** 
 198:.\Generated_Source\PSoC5/cyfitter_cfg.c **** /*******************************************************************************
 199:.\Generated_Source\PSoC5/cyfitter_cfg.c **** * Function Name: ClockSetup
 200:.\Generated_Source\PSoC5/cyfitter_cfg.c **** ********************************************************************************
 201:.\Generated_Source\PSoC5/cyfitter_cfg.c **** *
 202:.\Generated_Source\PSoC5/cyfitter_cfg.c **** * Summary:
 203:.\Generated_Source\PSoC5/cyfitter_cfg.c **** *  Performs the initialization of all of the clocks in the device based on the
 204:.\Generated_Source\PSoC5/cyfitter_cfg.c **** *  settings in the Clock tab of the DWR.  This includes enabling the requested
 205:.\Generated_Source\PSoC5/cyfitter_cfg.c **** *  clocks and setting the necessary dividers to produce the desired frequency. 
 206:.\Generated_Source\PSoC5/cyfitter_cfg.c **** *
 207:.\Generated_Source\PSoC5/cyfitter_cfg.c **** * Parameters:
 208:.\Generated_Source\PSoC5/cyfitter_cfg.c **** *  void
 209:.\Generated_Source\PSoC5/cyfitter_cfg.c **** *
 210:.\Generated_Source\PSoC5/cyfitter_cfg.c **** * Return:
 211:.\Generated_Source\PSoC5/cyfitter_cfg.c **** *  void
 212:.\Generated_Source\PSoC5/cyfitter_cfg.c **** *
 213:.\Generated_Source\PSoC5/cyfitter_cfg.c **** *******************************************************************************/
 214:.\Generated_Source\PSoC5/cyfitter_cfg.c **** static void ClockSetup(void);
 215:.\Generated_Source\PSoC5/cyfitter_cfg.c **** static void ClockSetup(void)
 216:.\Generated_Source\PSoC5/cyfitter_cfg.c **** {
 217:.\Generated_Source\PSoC5/cyfitter_cfg.c **** 	uint32 timeout;
ARM GAS  C:\Users\student\AppData\Local\Temp\ccPi7RaA.s 			page 7


 218:.\Generated_Source\PSoC5/cyfitter_cfg.c **** 	uint8 pllLock;
 219:.\Generated_Source\PSoC5/cyfitter_cfg.c **** 
 220:.\Generated_Source\PSoC5/cyfitter_cfg.c **** 
 221:.\Generated_Source\PSoC5/cyfitter_cfg.c **** 	/* Configure Digital Clocks based on settings from Clock DWR */
 222:.\Generated_Source\PSoC5/cyfitter_cfg.c **** 	CY_SET_XTND_REG16((void CYFAR *)(CYREG_CLKDIST_DCFG0_CFG0), 0x0000u);
 223:.\Generated_Source\PSoC5/cyfitter_cfg.c **** 	CY_SET_XTND_REG8((void CYFAR *)(CYREG_CLKDIST_DCFG0_CFG0 + 0x2u), 0x58u);
 224:.\Generated_Source\PSoC5/cyfitter_cfg.c **** 	CY_SET_XTND_REG16((void CYFAR *)(CYREG_CLKDIST_DCFG1_CFG0), 0x0001u);
 225:.\Generated_Source\PSoC5/cyfitter_cfg.c **** 	CY_SET_XTND_REG8((void CYFAR *)(CYREG_CLKDIST_DCFG1_CFG0 + 0x2u), 0x18u);
 226:.\Generated_Source\PSoC5/cyfitter_cfg.c **** 	CY_SET_XTND_REG16((void CYFAR *)(CYREG_CLKDIST_DCFG2_CFG0), 0x0017u);
 227:.\Generated_Source\PSoC5/cyfitter_cfg.c **** 	CY_SET_XTND_REG8((void CYFAR *)(CYREG_CLKDIST_DCFG2_CFG0 + 0x2u), 0x18u);
 228:.\Generated_Source\PSoC5/cyfitter_cfg.c **** 	CY_SET_XTND_REG16((void CYFAR *)(CYREG_CLKDIST_DCFG3_CFG0), 0x0017u);
 229:.\Generated_Source\PSoC5/cyfitter_cfg.c **** 	CY_SET_XTND_REG8((void CYFAR *)(CYREG_CLKDIST_DCFG3_CFG0 + 0x2u), 0x18u);
 230:.\Generated_Source\PSoC5/cyfitter_cfg.c **** 	CY_SET_XTND_REG16((void CYFAR *)(CYREG_CLKDIST_DCFG4_CFG0), 0x021Fu);
 231:.\Generated_Source\PSoC5/cyfitter_cfg.c **** 	CY_SET_XTND_REG8((void CYFAR *)(CYREG_CLKDIST_DCFG4_CFG0 + 0x2u), 0x18u);
 232:.\Generated_Source\PSoC5/cyfitter_cfg.c **** 
 233:.\Generated_Source\PSoC5/cyfitter_cfg.c **** 	/* Configure ILO based on settings from Clock DWR */
 234:.\Generated_Source\PSoC5/cyfitter_cfg.c **** 	CY_SET_XTND_REG8((void CYFAR *)(CYREG_SLOWCLK_ILO_CR0), 0x06u);
 235:.\Generated_Source\PSoC5/cyfitter_cfg.c **** 
 236:.\Generated_Source\PSoC5/cyfitter_cfg.c **** 	/* Configure IMO based on settings from Clock DWR */
 237:.\Generated_Source\PSoC5/cyfitter_cfg.c **** 	CY_SET_XTND_REG8((void CYFAR *)(CYREG_FASTCLK_IMO_CR), 0x52u);
 238:.\Generated_Source\PSoC5/cyfitter_cfg.c **** 	CY_SET_XTND_REG8((void CYFAR *)(CYREG_IMO_TR1), (CY_GET_XTND_REG8((void CYFAR *)CYREG_FLSHID_CUST_
 239:.\Generated_Source\PSoC5/cyfitter_cfg.c **** 
 240:.\Generated_Source\PSoC5/cyfitter_cfg.c **** 	/* Configure PLL based on settings from Clock DWR */
 241:.\Generated_Source\PSoC5/cyfitter_cfg.c **** 	CY_SET_XTND_REG16((void CYFAR *)(CYREG_FASTCLK_PLL_P), 0x0708u);
 242:.\Generated_Source\PSoC5/cyfitter_cfg.c **** 	CY_SET_XTND_REG16((void CYFAR *)(CYREG_FASTCLK_PLL_CFG0), 0x1251u);
 243:.\Generated_Source\PSoC5/cyfitter_cfg.c **** 	/* Wait up to 250us for the PLL to lock */
 244:.\Generated_Source\PSoC5/cyfitter_cfg.c **** 	pllLock = 0u;
 245:.\Generated_Source\PSoC5/cyfitter_cfg.c **** 	for (timeout = 250u / 10u; (timeout > 0u) && (pllLock != 0x03u); timeout--)
 246:.\Generated_Source\PSoC5/cyfitter_cfg.c **** 	{ 
 247:.\Generated_Source\PSoC5/cyfitter_cfg.c **** 		pllLock = 0x03u & ((uint8)((uint8)pllLock << 1) | ((CY_GET_XTND_REG8((void CYFAR *)CYREG_FASTCLK_
 248:.\Generated_Source\PSoC5/cyfitter_cfg.c **** 		CyDelayCycles(10u * 48u); /* Delay 10us based on 48MHz clock */
 249:.\Generated_Source\PSoC5/cyfitter_cfg.c **** 	}
 250:.\Generated_Source\PSoC5/cyfitter_cfg.c **** 	/* If we ran out of time the PLL didn't lock so go to the error function */
 251:.\Generated_Source\PSoC5/cyfitter_cfg.c **** 	if (timeout == 0u)
 252:.\Generated_Source\PSoC5/cyfitter_cfg.c **** 	{
 253:.\Generated_Source\PSoC5/cyfitter_cfg.c **** 		CyClockStartupError(CYCLOCKSTART_PLL_ERROR);
 254:.\Generated_Source\PSoC5/cyfitter_cfg.c **** 	}
 255:.\Generated_Source\PSoC5/cyfitter_cfg.c **** 
 256:.\Generated_Source\PSoC5/cyfitter_cfg.c **** 	/* Configure Bus/Master Clock based on settings from Clock DWR */
 257:.\Generated_Source\PSoC5/cyfitter_cfg.c **** 	CY_SET_XTND_REG16((void CYFAR *)(CYREG_CLKDIST_MSTR0), 0x0100u);
 258:.\Generated_Source\PSoC5/cyfitter_cfg.c **** 	CY_SET_XTND_REG8((void CYFAR *)(CYREG_CLKDIST_MSTR0), 0x07u);
 259:.\Generated_Source\PSoC5/cyfitter_cfg.c **** 	CY_SET_XTND_REG8((void CYFAR *)(CYREG_CLKDIST_BCFG0), 0x00u);
 260:.\Generated_Source\PSoC5/cyfitter_cfg.c **** 	CY_SET_XTND_REG8((void CYFAR *)(CYREG_CLKDIST_BCFG2), 0x48u);
 261:.\Generated_Source\PSoC5/cyfitter_cfg.c **** 	CY_SET_XTND_REG8((void CYFAR *)(CYREG_CLKDIST_MSTR0), 0x00u);
 262:.\Generated_Source\PSoC5/cyfitter_cfg.c **** 
 263:.\Generated_Source\PSoC5/cyfitter_cfg.c **** 	/* Configure USB Clock based on settings from Clock DWR */
 264:.\Generated_Source\PSoC5/cyfitter_cfg.c **** 	CY_SET_XTND_REG8((void CYFAR *)(CYREG_CLKDIST_UCFG), 0x00u);
 265:.\Generated_Source\PSoC5/cyfitter_cfg.c **** 	CY_SET_XTND_REG8((void CYFAR *)(CYREG_CLKDIST_LD), 0x02u);
 266:.\Generated_Source\PSoC5/cyfitter_cfg.c **** 
 267:.\Generated_Source\PSoC5/cyfitter_cfg.c **** 	CY_SET_XTND_REG8((void CYFAR *)(CYREG_PM_ACT_CFG2), ((CY_GET_XTND_REG8((void CYFAR *)CYREG_PM_ACT_
 268:.\Generated_Source\PSoC5/cyfitter_cfg.c **** }
 269:.\Generated_Source\PSoC5/cyfitter_cfg.c **** 
 270:.\Generated_Source\PSoC5/cyfitter_cfg.c **** 
 271:.\Generated_Source\PSoC5/cyfitter_cfg.c **** /* Analog API Functions */
 272:.\Generated_Source\PSoC5/cyfitter_cfg.c **** 
 273:.\Generated_Source\PSoC5/cyfitter_cfg.c **** 
 274:.\Generated_Source\PSoC5/cyfitter_cfg.c **** /*******************************************************************************
ARM GAS  C:\Users\student\AppData\Local\Temp\ccPi7RaA.s 			page 8


 275:.\Generated_Source\PSoC5/cyfitter_cfg.c **** * Function Name: AnalogSetDefault
 276:.\Generated_Source\PSoC5/cyfitter_cfg.c **** ********************************************************************************
 277:.\Generated_Source\PSoC5/cyfitter_cfg.c **** *
 278:.\Generated_Source\PSoC5/cyfitter_cfg.c **** * Summary:
 279:.\Generated_Source\PSoC5/cyfitter_cfg.c **** *  Sets up the analog portions of the chip to default values based on chip
 280:.\Generated_Source\PSoC5/cyfitter_cfg.c **** *  configuration options from the project.
 281:.\Generated_Source\PSoC5/cyfitter_cfg.c **** *
 282:.\Generated_Source\PSoC5/cyfitter_cfg.c **** * Parameters:
 283:.\Generated_Source\PSoC5/cyfitter_cfg.c **** *  void
 284:.\Generated_Source\PSoC5/cyfitter_cfg.c **** *
 285:.\Generated_Source\PSoC5/cyfitter_cfg.c **** * Return:
 286:.\Generated_Source\PSoC5/cyfitter_cfg.c **** *  void
 287:.\Generated_Source\PSoC5/cyfitter_cfg.c **** *
 288:.\Generated_Source\PSoC5/cyfitter_cfg.c **** *******************************************************************************/
 289:.\Generated_Source\PSoC5/cyfitter_cfg.c **** static void AnalogSetDefault(void);
 290:.\Generated_Source\PSoC5/cyfitter_cfg.c **** static void AnalogSetDefault(void)
 291:.\Generated_Source\PSoC5/cyfitter_cfg.c **** {
 123              		.loc 1 291 0
 124              		.cfi_startproc
 125              		@ args = 0, pretend = 0, frame = 0
 126              		@ frame_needed = 0, uses_anonymous_args = 0
 127              		@ link register save eliminated.
 292:.\Generated_Source\PSoC5/cyfitter_cfg.c **** 	uint8 bg_xover_inl_trim = CY_GET_XTND_REG8((void CYFAR *)(CYREG_FLSHID_MFG_CFG_BG_XOVER_INL_TRIM +
 128              		.loc 1 292 0
 129 0000 0A4B     		ldr	r3, .L10
 130 0002 1B78     		ldrb	r3, [r3]	@ zero_extendqisi2
 131 0004 DBB2     		uxtb	r3, r3
 132              	.LVL12:
 293:.\Generated_Source\PSoC5/cyfitter_cfg.c **** 	CY_SET_XTND_REG8((void CYFAR *)(CYREG_BG_DFT0), (bg_xover_inl_trim & 0x07u));
 133              		.loc 1 293 0
 134 0006 03F00701 		and	r1, r3, #7
 135 000a 094A     		ldr	r2, .L10+4
 136 000c 1170     		strb	r1, [r2]
 294:.\Generated_Source\PSoC5/cyfitter_cfg.c **** 	CY_SET_XTND_REG8((void CYFAR *)(CYREG_BG_DFT1), ((bg_xover_inl_trim >> 4) & 0x0Fu));
 137              		.loc 1 294 0
 138 000e 1B09     		lsrs	r3, r3, #4
 139              	.LVL13:
 140 0010 0132     		adds	r2, r2, #1
 141 0012 1370     		strb	r3, [r2]
 295:.\Generated_Source\PSoC5/cyfitter_cfg.c **** 	CY_SET_XTND_REG8((void CYFAR *)CYREG_PRT1_AMUX, 0x80u);
 142              		.loc 1 295 0
 143 0014 8022     		movs	r2, #128
 144 0016 074B     		ldr	r3, .L10+8
 145 0018 1A70     		strb	r2, [r3]
 296:.\Generated_Source\PSoC5/cyfitter_cfg.c **** 	CY_SET_XTND_REG8((void CYFAR *)CYREG_DAC1_SW3, 0x01u);
 146              		.loc 1 296 0
 147 001a 0122     		movs	r2, #1
 148 001c 03F66F13 		addw	r3, r3, #2415
 149 0020 1A70     		strb	r2, [r3]
 297:.\Generated_Source\PSoC5/cyfitter_cfg.c **** 	CY_SET_XTND_REG8((void CYFAR *)CYREG_PUMP_CR0, 0x44u);
 150              		.loc 1 297 0
 151 0022 4422     		movs	r2, #68
 152 0024 A3F21523 		subw	r3, r3, #533
 153 0028 1A70     		strb	r2, [r3]
 154 002a 7047     		bx	lr
 155              	.L11:
 156              		.align	2
ARM GAS  C:\Users\student\AppData\Local\Temp\ccPi7RaA.s 			page 9


 157              	.L10:
 158 002c CF010049 		.word	1224737231
 159 0030 6E580040 		.word	1073764462
 160 0034 1C510040 		.word	1073762588
 161              		.cfi_endproc
 162              	.LFE6:
 163              		.size	AnalogSetDefault, .-AnalogSetDefault
 164              		.section	.text.CYMEMZERO,"ax",%progbits
 165              		.align	2
 166              		.thumb
 167              		.thumb_func
 168              		.type	CYMEMZERO, %function
 169              	CYMEMZERO:
 170              	.LFB0:
  63:.\Generated_Source\PSoC5/cyfitter_cfg.c **** 	(void)memset(s, 0, n);
 171              		.loc 1 63 0
 172              		.cfi_startproc
 173              		@ args = 0, pretend = 0, frame = 0
 174              		@ frame_needed = 0, uses_anonymous_args = 0
 175              	.LVL14:
 176 0000 08B5     		push	{r3, lr}
 177              		.cfi_def_cfa_offset 8
 178              		.cfi_offset 3, -8
 179              		.cfi_offset 14, -4
 180 0002 0A46     		mov	r2, r1
  64:.\Generated_Source\PSoC5/cyfitter_cfg.c **** }
 181              		.loc 1 64 0
 182 0004 0021     		movs	r1, #0
 183              	.LVL15:
 184 0006 FFF7FEFF 		bl	memset
 185              	.LVL16:
 186 000a 08BD     		pop	{r3, pc}
 187              		.cfi_endproc
 188              	.LFE0:
 189              		.size	CYMEMZERO, .-CYMEMZERO
 190              		.section	.text.ClockSetup,"ax",%progbits
 191              		.align	2
 192              		.thumb
 193              		.thumb_func
 194              		.type	ClockSetup, %function
 195              	ClockSetup:
 196              	.LFB5:
 216:.\Generated_Source\PSoC5/cyfitter_cfg.c **** 	uint32 timeout;
 197              		.loc 1 216 0
 198              		.cfi_startproc
 199              		@ args = 0, pretend = 0, frame = 0
 200              		@ frame_needed = 0, uses_anonymous_args = 0
 201 0000 38B5     		push	{r3, r4, r5, lr}
 202              		.cfi_def_cfa_offset 16
 203              		.cfi_offset 3, -16
 204              		.cfi_offset 4, -12
 205              		.cfi_offset 5, -8
 206              		.cfi_offset 14, -4
 222:.\Generated_Source\PSoC5/cyfitter_cfg.c **** 	CY_SET_XTND_REG8((void CYFAR *)(CYREG_CLKDIST_DCFG0_CFG0 + 0x2u), 0x58u);
 207              		.loc 1 222 0
 208 0002 0024     		movs	r4, #0
 209 0004 2D4B     		ldr	r3, .L20
ARM GAS  C:\Users\student\AppData\Local\Temp\ccPi7RaA.s 			page 10


 210 0006 1C80     		strh	r4, [r3]	@ movhi
 223:.\Generated_Source\PSoC5/cyfitter_cfg.c **** 	CY_SET_XTND_REG16((void CYFAR *)(CYREG_CLKDIST_DCFG1_CFG0), 0x0001u);
 211              		.loc 1 223 0
 212 0008 5822     		movs	r2, #88
 213 000a 0233     		adds	r3, r3, #2
 214 000c 1A70     		strb	r2, [r3]
 224:.\Generated_Source\PSoC5/cyfitter_cfg.c **** 	CY_SET_XTND_REG8((void CYFAR *)(CYREG_CLKDIST_DCFG1_CFG0 + 0x2u), 0x18u);
 215              		.loc 1 224 0
 216 000e 0122     		movs	r2, #1
 217 0010 0233     		adds	r3, r3, #2
 218 0012 1A80     		strh	r2, [r3]	@ movhi
 225:.\Generated_Source\PSoC5/cyfitter_cfg.c **** 	CY_SET_XTND_REG16((void CYFAR *)(CYREG_CLKDIST_DCFG2_CFG0), 0x0017u);
 219              		.loc 1 225 0
 220 0014 1823     		movs	r3, #24
 221 0016 2A4A     		ldr	r2, .L20+4
 222 0018 1370     		strb	r3, [r2]
 226:.\Generated_Source\PSoC5/cyfitter_cfg.c **** 	CY_SET_XTND_REG8((void CYFAR *)(CYREG_CLKDIST_DCFG2_CFG0 + 0x2u), 0x18u);
 223              		.loc 1 226 0
 224 001a 1722     		movs	r2, #23
 225 001c 2949     		ldr	r1, .L20+8
 226 001e 0A80     		strh	r2, [r1]	@ movhi
 227:.\Generated_Source\PSoC5/cyfitter_cfg.c **** 	CY_SET_XTND_REG16((void CYFAR *)(CYREG_CLKDIST_DCFG3_CFG0), 0x0017u);
 227              		.loc 1 227 0
 228 0020 0231     		adds	r1, r1, #2
 229 0022 0B70     		strb	r3, [r1]
 228:.\Generated_Source\PSoC5/cyfitter_cfg.c **** 	CY_SET_XTND_REG8((void CYFAR *)(CYREG_CLKDIST_DCFG3_CFG0 + 0x2u), 0x18u);
 230              		.loc 1 228 0
 231 0024 0231     		adds	r1, r1, #2
 232 0026 0A80     		strh	r2, [r1]	@ movhi
 229:.\Generated_Source\PSoC5/cyfitter_cfg.c **** 	CY_SET_XTND_REG16((void CYFAR *)(CYREG_CLKDIST_DCFG4_CFG0), 0x021Fu);
 233              		.loc 1 229 0
 234 0028 274A     		ldr	r2, .L20+12
 235 002a 1370     		strb	r3, [r2]
 230:.\Generated_Source\PSoC5/cyfitter_cfg.c **** 	CY_SET_XTND_REG8((void CYFAR *)(CYREG_CLKDIST_DCFG4_CFG0 + 0x2u), 0x18u);
 236              		.loc 1 230 0
 237 002c 40F21F21 		movw	r1, #543
 238 0030 0232     		adds	r2, r2, #2
 239 0032 1180     		strh	r1, [r2]	@ movhi
 231:.\Generated_Source\PSoC5/cyfitter_cfg.c **** 
 240              		.loc 1 231 0
 241 0034 0232     		adds	r2, r2, #2
 242 0036 1370     		strb	r3, [r2]
 234:.\Generated_Source\PSoC5/cyfitter_cfg.c **** 
 243              		.loc 1 234 0
 244 0038 0622     		movs	r2, #6
 245 003a 244B     		ldr	r3, .L20+16
 246 003c 1A70     		strb	r2, [r3]
 237:.\Generated_Source\PSoC5/cyfitter_cfg.c **** 	CY_SET_XTND_REG8((void CYFAR *)(CYREG_IMO_TR1), (CY_GET_XTND_REG8((void CYFAR *)CYREG_FLSHID_CUST_
 247              		.loc 1 237 0
 248 003e 5222     		movs	r2, #82
 249 0040 A3F58073 		sub	r3, r3, #256
 250 0044 1A70     		strb	r2, [r3]
 238:.\Generated_Source\PSoC5/cyfitter_cfg.c **** 
 251              		.loc 1 238 0
 252 0046 224B     		ldr	r3, .L20+20
 253 0048 1B78     		ldrb	r3, [r3]	@ zero_extendqisi2
 254 004a DBB2     		uxtb	r3, r3
ARM GAS  C:\Users\student\AppData\Local\Temp\ccPi7RaA.s 			page 11


 255 004c 214A     		ldr	r2, .L20+24
 256 004e 1370     		strb	r3, [r2]
 241:.\Generated_Source\PSoC5/cyfitter_cfg.c **** 	CY_SET_XTND_REG16((void CYFAR *)(CYREG_FASTCLK_PLL_CFG0), 0x1251u);
 257              		.loc 1 241 0
 258 0050 4FF4E162 		mov	r2, #1800
 259 0054 204B     		ldr	r3, .L20+28
 260 0056 1A80     		strh	r2, [r3]	@ movhi
 242:.\Generated_Source\PSoC5/cyfitter_cfg.c **** 	/* Wait up to 250us for the PLL to lock */
 261              		.loc 1 242 0
 262 0058 41F25122 		movw	r2, #4689
 263 005c 023B     		subs	r3, r3, #2
 264 005e 1A80     		strh	r2, [r3]	@ movhi
 265              	.LVL17:
 245:.\Generated_Source\PSoC5/cyfitter_cfg.c **** 	{ 
 266              		.loc 1 245 0
 267 0060 1925     		movs	r5, #25
 268 0062 0CE0     		b	.L15
 269              	.LVL18:
 270              	.L17:
 247:.\Generated_Source\PSoC5/cyfitter_cfg.c **** 		CyDelayCycles(10u * 48u); /* Delay 10us based on 48MHz clock */
 271              		.loc 1 247 0 discriminator 4
 272 0064 1D4B     		ldr	r3, .L20+32
 273 0066 1B78     		ldrb	r3, [r3]	@ zero_extendqisi2
 274 0068 03F00103 		and	r3, r3, #1
 275 006c 43EA4404 		orr	r4, r3, r4, lsl #1
 276              	.LVL19:
 277 0070 04F00304 		and	r4, r4, #3
 278              	.LVL20:
 248:.\Generated_Source\PSoC5/cyfitter_cfg.c **** 	}
 279              		.loc 1 248 0 discriminator 4
 280 0074 4FF4F070 		mov	r0, #480
 281 0078 FFF7FEFF 		bl	CyDelayCycles
 282              	.LVL21:
 245:.\Generated_Source\PSoC5/cyfitter_cfg.c **** 	{ 
 283              		.loc 1 245 0 discriminator 4
 284 007c 013D     		subs	r5, r5, #1
 285              	.LVL22:
 286              	.L15:
 245:.\Generated_Source\PSoC5/cyfitter_cfg.c **** 	{ 
 287              		.loc 1 245 0 is_stmt 0 discriminator 1
 288 007e 0DB1     		cbz	r5, .L16
 245:.\Generated_Source\PSoC5/cyfitter_cfg.c **** 	{ 
 289              		.loc 1 245 0 discriminator 3
 290 0080 032C     		cmp	r4, #3
 291 0082 EFD1     		bne	.L17
 292              	.L16:
 251:.\Generated_Source\PSoC5/cyfitter_cfg.c **** 	{
 293              		.loc 1 251 0 is_stmt 1
 294 0084 15B9     		cbnz	r5, .L18
 253:.\Generated_Source\PSoC5/cyfitter_cfg.c **** 	}
 295              		.loc 1 253 0
 296 0086 0320     		movs	r0, #3
 297 0088 FFF7FEFF 		bl	CyClockStartupError
 298              	.LVL23:
 299              	.L18:
 257:.\Generated_Source\PSoC5/cyfitter_cfg.c **** 	CY_SET_XTND_REG8((void CYFAR *)(CYREG_CLKDIST_MSTR0), 0x07u);
 300              		.loc 1 257 0
ARM GAS  C:\Users\student\AppData\Local\Temp\ccPi7RaA.s 			page 12


 301 008c 144A     		ldr	r2, .L20+36
 302 008e 4FF48073 		mov	r3, #256
 303 0092 1380     		strh	r3, [r2]	@ movhi
 258:.\Generated_Source\PSoC5/cyfitter_cfg.c **** 	CY_SET_XTND_REG8((void CYFAR *)(CYREG_CLKDIST_BCFG0), 0x00u);
 304              		.loc 1 258 0
 305 0094 0723     		movs	r3, #7
 306 0096 1370     		strb	r3, [r2]
 259:.\Generated_Source\PSoC5/cyfitter_cfg.c **** 	CY_SET_XTND_REG8((void CYFAR *)(CYREG_CLKDIST_BCFG2), 0x48u);
 307              		.loc 1 259 0
 308 0098 0023     		movs	r3, #0
 309 009a 1249     		ldr	r1, .L20+40
 310 009c 0B70     		strb	r3, [r1]
 260:.\Generated_Source\PSoC5/cyfitter_cfg.c **** 	CY_SET_XTND_REG8((void CYFAR *)(CYREG_CLKDIST_MSTR0), 0x00u);
 311              		.loc 1 260 0
 312 009e 4820     		movs	r0, #72
 313 00a0 0231     		adds	r1, r1, #2
 314 00a2 0870     		strb	r0, [r1]
 261:.\Generated_Source\PSoC5/cyfitter_cfg.c **** 
 315              		.loc 1 261 0
 316 00a4 1370     		strb	r3, [r2]
 264:.\Generated_Source\PSoC5/cyfitter_cfg.c **** 	CY_SET_XTND_REG8((void CYFAR *)(CYREG_CLKDIST_LD), 0x02u);
 317              		.loc 1 264 0
 318 00a6 0532     		adds	r2, r2, #5
 319 00a8 1370     		strb	r3, [r2]
 265:.\Generated_Source\PSoC5/cyfitter_cfg.c **** 
 320              		.loc 1 265 0
 321 00aa 0222     		movs	r2, #2
 322 00ac 0E4B     		ldr	r3, .L20+44
 323 00ae 1A70     		strb	r2, [r3]
 267:.\Generated_Source\PSoC5/cyfitter_cfg.c **** }
 324              		.loc 1 267 0
 325 00b0 0E4A     		ldr	r2, .L20+48
 326 00b2 1378     		ldrb	r3, [r2]	@ zero_extendqisi2
 327 00b4 43F01F03 		orr	r3, r3, #31
 328 00b8 1370     		strb	r3, [r2]
 329 00ba 38BD     		pop	{r3, r4, r5, pc}
 330              	.LVL24:
 331              	.L21:
 332              		.align	2
 333              	.L20:
 334 00bc 80400040 		.word	1073758336
 335 00c0 86400040 		.word	1073758342
 336 00c4 88400040 		.word	1073758344
 337 00c8 8E400040 		.word	1073758350
 338 00cc 00430040 		.word	1073758976
 339 00d0 0F010049 		.word	1224737039
 340 00d4 A1460040 		.word	1073759905
 341 00d8 22420040 		.word	1073758754
 342 00dc 25420040 		.word	1073758757
 343 00e0 04400040 		.word	1073758212
 344 00e4 06400040 		.word	1073758214
 345 00e8 01400040 		.word	1073758209
 346 00ec A2430040 		.word	1073759138
 347              		.cfi_endproc
 348              	.LFE5:
 349              		.size	ClockSetup, .-ClockSetup
 350              		.section	.text.CYCONFIGCPY,"ax",%progbits
ARM GAS  C:\Users\student\AppData\Local\Temp\ccPi7RaA.s 			page 13


 351              		.align	2
 352              		.thumb
 353              		.thumb_func
 354              		.type	CYCONFIGCPY, %function
 355              	CYCONFIGCPY:
 356              	.LFB1:
  70:.\Generated_Source\PSoC5/cyfitter_cfg.c **** 	(void)memcpy(dest, src, n);
 357              		.loc 1 70 0
 358              		.cfi_startproc
 359              		@ args = 0, pretend = 0, frame = 0
 360              		@ frame_needed = 0, uses_anonymous_args = 0
 361              	.LVL25:
 362 0000 08B5     		push	{r3, lr}
 363              		.cfi_def_cfa_offset 8
 364              		.cfi_offset 3, -8
 365              		.cfi_offset 14, -4
  71:.\Generated_Source\PSoC5/cyfitter_cfg.c **** }
 366              		.loc 1 71 0
 367 0002 FFF7FEFF 		bl	memcpy
 368              	.LVL26:
 369 0006 08BD     		pop	{r3, pc}
 370              		.cfi_endproc
 371              	.LFE1:
 372              		.size	CYCONFIGCPY, .-CYCONFIGCPY
 373              		.section	.text.SetAnalogRoutingPumps,"ax",%progbits
 374              		.align	2
 375              		.global	SetAnalogRoutingPumps
 376              		.thumb
 377              		.thumb_func
 378              		.type	SetAnalogRoutingPumps, %function
 379              	SetAnalogRoutingPumps:
 380              	.LFB7:
 298:.\Generated_Source\PSoC5/cyfitter_cfg.c **** }
 299:.\Generated_Source\PSoC5/cyfitter_cfg.c **** 
 300:.\Generated_Source\PSoC5/cyfitter_cfg.c **** 
 301:.\Generated_Source\PSoC5/cyfitter_cfg.c **** /*******************************************************************************
 302:.\Generated_Source\PSoC5/cyfitter_cfg.c **** * Function Name: SetAnalogRoutingPumps
 303:.\Generated_Source\PSoC5/cyfitter_cfg.c **** ********************************************************************************
 304:.\Generated_Source\PSoC5/cyfitter_cfg.c **** *
 305:.\Generated_Source\PSoC5/cyfitter_cfg.c **** * Summary:
 306:.\Generated_Source\PSoC5/cyfitter_cfg.c **** * Enables or disables the analog pumps feeding analog routing switches.
 307:.\Generated_Source\PSoC5/cyfitter_cfg.c **** * Intended to be called at startup, based on the Vdda system configuration;
 308:.\Generated_Source\PSoC5/cyfitter_cfg.c **** * may be called during operation when the user informs us that the Vdda voltage
 309:.\Generated_Source\PSoC5/cyfitter_cfg.c **** * crossed the pump threshold.
 310:.\Generated_Source\PSoC5/cyfitter_cfg.c **** *
 311:.\Generated_Source\PSoC5/cyfitter_cfg.c **** * Parameters:
 312:.\Generated_Source\PSoC5/cyfitter_cfg.c **** *  enabled - 1 to enable the pumps, 0 to disable the pumps
 313:.\Generated_Source\PSoC5/cyfitter_cfg.c **** *
 314:.\Generated_Source\PSoC5/cyfitter_cfg.c **** * Return:
 315:.\Generated_Source\PSoC5/cyfitter_cfg.c **** *  void
 316:.\Generated_Source\PSoC5/cyfitter_cfg.c **** *
 317:.\Generated_Source\PSoC5/cyfitter_cfg.c **** *******************************************************************************/
 318:.\Generated_Source\PSoC5/cyfitter_cfg.c **** void SetAnalogRoutingPumps(uint8 enabled)
 319:.\Generated_Source\PSoC5/cyfitter_cfg.c **** {
 381              		.loc 1 319 0
 382              		.cfi_startproc
 383              		@ args = 0, pretend = 0, frame = 0
ARM GAS  C:\Users\student\AppData\Local\Temp\ccPi7RaA.s 			page 14


 384              		@ frame_needed = 0, uses_anonymous_args = 0
 385              		@ link register save eliminated.
 386              	.LVL27:
 320:.\Generated_Source\PSoC5/cyfitter_cfg.c **** 	uint8 regValue = CY_GET_XTND_REG8((void CYFAR *)CYREG_PUMP_CR0);
 387              		.loc 1 320 0
 388 0000 024A     		ldr	r2, .L25
 389 0002 1378     		ldrb	r3, [r2]	@ zero_extendqisi2
 390 0004 DBB2     		uxtb	r3, r3
 391              	.LVL28:
 321:.\Generated_Source\PSoC5/cyfitter_cfg.c **** 	if (enabled != 0u)
 322:.\Generated_Source\PSoC5/cyfitter_cfg.c **** 	{
 323:.\Generated_Source\PSoC5/cyfitter_cfg.c **** 		regValue |= 0x00u;
 324:.\Generated_Source\PSoC5/cyfitter_cfg.c **** 	}
 325:.\Generated_Source\PSoC5/cyfitter_cfg.c **** 	else
 326:.\Generated_Source\PSoC5/cyfitter_cfg.c **** 	{
 327:.\Generated_Source\PSoC5/cyfitter_cfg.c **** 		regValue &= (uint8)~0x00u;
 328:.\Generated_Source\PSoC5/cyfitter_cfg.c **** 	}
 329:.\Generated_Source\PSoC5/cyfitter_cfg.c **** 	CY_SET_XTND_REG8((void CYFAR *)CYREG_PUMP_CR0, regValue);
 392              		.loc 1 329 0
 393 0006 1370     		strb	r3, [r2]
 394 0008 7047     		bx	lr
 395              	.L26:
 396 000a 00BF     		.align	2
 397              	.L25:
 398 000c 76580040 		.word	1073764470
 399              		.cfi_endproc
 400              	.LFE7:
 401              		.size	SetAnalogRoutingPumps, .-SetAnalogRoutingPumps
 402              		.section	.text.cyfitter_cfg,"ax",%progbits
 403              		.align	2
 404              		.global	cyfitter_cfg
 405              		.thumb
 406              		.thumb_func
 407              		.type	cyfitter_cfg, %function
 408              	cyfitter_cfg:
 409              	.LFB8:
 330:.\Generated_Source\PSoC5/cyfitter_cfg.c **** }
 331:.\Generated_Source\PSoC5/cyfitter_cfg.c **** 
 332:.\Generated_Source\PSoC5/cyfitter_cfg.c **** #define CY_AMUX_UNUSED CYREG_BOOST_SR
 333:.\Generated_Source\PSoC5/cyfitter_cfg.c **** 
 334:.\Generated_Source\PSoC5/cyfitter_cfg.c **** 
 335:.\Generated_Source\PSoC5/cyfitter_cfg.c **** /*******************************************************************************
 336:.\Generated_Source\PSoC5/cyfitter_cfg.c **** * Function Name: cyfitter_cfg
 337:.\Generated_Source\PSoC5/cyfitter_cfg.c **** ********************************************************************************
 338:.\Generated_Source\PSoC5/cyfitter_cfg.c **** * Summary:
 339:.\Generated_Source\PSoC5/cyfitter_cfg.c **** *  This function is called by the start-up code for the selected device. It
 340:.\Generated_Source\PSoC5/cyfitter_cfg.c **** *  performs all of the necessary device configuration based on the design
 341:.\Generated_Source\PSoC5/cyfitter_cfg.c **** *  settings.  This includes settings from the Design Wide Resources (DWR) such
 342:.\Generated_Source\PSoC5/cyfitter_cfg.c **** *  as Clocks and Pins as well as any component configuration that is necessary.
 343:.\Generated_Source\PSoC5/cyfitter_cfg.c **** *
 344:.\Generated_Source\PSoC5/cyfitter_cfg.c **** * Parameters:  
 345:.\Generated_Source\PSoC5/cyfitter_cfg.c **** *   void
 346:.\Generated_Source\PSoC5/cyfitter_cfg.c **** *
 347:.\Generated_Source\PSoC5/cyfitter_cfg.c **** * Return:
 348:.\Generated_Source\PSoC5/cyfitter_cfg.c **** *   void
 349:.\Generated_Source\PSoC5/cyfitter_cfg.c **** *
 350:.\Generated_Source\PSoC5/cyfitter_cfg.c **** *******************************************************************************/
ARM GAS  C:\Users\student\AppData\Local\Temp\ccPi7RaA.s 			page 15


 351:.\Generated_Source\PSoC5/cyfitter_cfg.c **** 
 352:.\Generated_Source\PSoC5/cyfitter_cfg.c **** void cyfitter_cfg(void)
 353:.\Generated_Source\PSoC5/cyfitter_cfg.c **** {
 410              		.loc 1 353 0
 411              		.cfi_startproc
 412              		@ args = 0, pretend = 0, frame = 0
 413              		@ frame_needed = 0, uses_anonymous_args = 0
 414 0000 38B5     		push	{r3, r4, r5, lr}
 415              		.cfi_def_cfa_offset 16
 416              		.cfi_offset 3, -16
 417              		.cfi_offset 4, -12
 418              		.cfi_offset 5, -8
 419              		.cfi_offset 14, -4
 354:.\Generated_Source\PSoC5/cyfitter_cfg.c **** #ifdef CYGlobalIntDisable
 355:.\Generated_Source\PSoC5/cyfitter_cfg.c **** 	/* Disable interrupts by default. Let user enable if/when they want. */
 356:.\Generated_Source\PSoC5/cyfitter_cfg.c **** 	CYGlobalIntDisable
 420              		.loc 1 356 0
 421              	@ 356 ".\Generated_Source\PSoC5\cyfitter_cfg.c" 1
 422 0002 72B6     		CPSID   i
 423              	@ 0 "" 2
 357:.\Generated_Source\PSoC5/cyfitter_cfg.c **** #endif
 358:.\Generated_Source\PSoC5/cyfitter_cfg.c **** 
 359:.\Generated_Source\PSoC5/cyfitter_cfg.c **** 	/* Enable/Disable Debug functionality based on settings from System DWR */
 360:.\Generated_Source\PSoC5/cyfitter_cfg.c **** 	CY_SET_XTND_REG8((void CYFAR *)CYREG_MLOGIC_DEBUG, (CY_GET_XTND_REG8((void CYFAR *)CYREG_MLOGIC_DE
 424              		.loc 1 360 0
 425              		.thumb
 426 0004 3F4A     		ldr	r2, .L33
 427 0006 1378     		ldrb	r3, [r2]	@ zero_extendqisi2
 428 0008 43F00403 		orr	r3, r3, #4
 429 000c 1370     		strb	r3, [r2]
 430              	.LVL29:
 431              	.LBB3:
 361:.\Generated_Source\PSoC5/cyfitter_cfg.c **** 
 362:.\Generated_Source\PSoC5/cyfitter_cfg.c **** 	{
 363:.\Generated_Source\PSoC5/cyfitter_cfg.c **** 
 364:.\Generated_Source\PSoC5/cyfitter_cfg.c **** 		CYPACKED typedef struct {
 365:.\Generated_Source\PSoC5/cyfitter_cfg.c **** 			void CYFAR *address;
 366:.\Generated_Source\PSoC5/cyfitter_cfg.c **** 			uint16 size;
 367:.\Generated_Source\PSoC5/cyfitter_cfg.c **** 		} CYPACKED_ATTR cfg_memset_t;
 368:.\Generated_Source\PSoC5/cyfitter_cfg.c **** 
 369:.\Generated_Source\PSoC5/cyfitter_cfg.c **** 
 370:.\Generated_Source\PSoC5/cyfitter_cfg.c **** 		CYPACKED typedef struct {
 371:.\Generated_Source\PSoC5/cyfitter_cfg.c **** 			void CYFAR *dest;
 372:.\Generated_Source\PSoC5/cyfitter_cfg.c **** 			const void CYFAR *src;
 373:.\Generated_Source\PSoC5/cyfitter_cfg.c **** 			uint16 size;
 374:.\Generated_Source\PSoC5/cyfitter_cfg.c **** 		} CYPACKED_ATTR cfg_memcpy_t;
 375:.\Generated_Source\PSoC5/cyfitter_cfg.c **** 
 376:.\Generated_Source\PSoC5/cyfitter_cfg.c **** 		static const cfg_memset_t CYCODE cfg_memset_list [] = {
 377:.\Generated_Source\PSoC5/cyfitter_cfg.c **** 			/* address, size */
 378:.\Generated_Source\PSoC5/cyfitter_cfg.c **** 			{(void CYFAR *)(CYREG_PRT0_DR), 16u},
 379:.\Generated_Source\PSoC5/cyfitter_cfg.c **** 			{(void CYFAR *)(CYREG_PRT6_DR), 16u},
 380:.\Generated_Source\PSoC5/cyfitter_cfg.c **** 			{(void CYFAR *)(CYREG_PRT12_DR), 16u},
 381:.\Generated_Source\PSoC5/cyfitter_cfg.c **** 			{(void CYFAR *)(CYDEV_UCFG_B0_P0_U0_BASE), 2688u},
 382:.\Generated_Source\PSoC5/cyfitter_cfg.c **** 			{(void CYFAR *)(CYDEV_UCFG_B0_P5_ROUTE_BASE), 1280u},
 383:.\Generated_Source\PSoC5/cyfitter_cfg.c **** 			{(void CYFAR *)(CYDEV_UCFG_B1_P2_U0_BASE), 1664u},
 384:.\Generated_Source\PSoC5/cyfitter_cfg.c **** 			{(void CYFAR *)(CYDEV_UCFG_B1_P5_ROUTE_BASE), 256u},
 385:.\Generated_Source\PSoC5/cyfitter_cfg.c **** 			{(void CYFAR *)(CYDEV_UCFG_DSI0_BASE), 2560u},
ARM GAS  C:\Users\student\AppData\Local\Temp\ccPi7RaA.s 			page 16


 386:.\Generated_Source\PSoC5/cyfitter_cfg.c **** 			{(void CYFAR *)(CYDEV_UCFG_DSI12_BASE), 512u},
 387:.\Generated_Source\PSoC5/cyfitter_cfg.c **** 			{(void CYFAR *)(CYREG_BCTL0_MDCLK_EN), 32u},
 388:.\Generated_Source\PSoC5/cyfitter_cfg.c **** 		};
 389:.\Generated_Source\PSoC5/cyfitter_cfg.c **** 
 390:.\Generated_Source\PSoC5/cyfitter_cfg.c **** 		static const cfg_memcpy_t CYCODE cfg_memcpy_list [] = {
 391:.\Generated_Source\PSoC5/cyfitter_cfg.c **** 			/* dest, src, size */
 392:.\Generated_Source\PSoC5/cyfitter_cfg.c **** 			{(void CYFAR *)(CYDEV_PICU_INTTYPE_PICU4_BASE), BS_PICU_4_VAL, 8u},
 393:.\Generated_Source\PSoC5/cyfitter_cfg.c **** 			{(void CYFAR *)(CYDEV_UCFG_B0_P5_U1_BASE), BS_UDB_0_3_1_CONFIG_VAL, 128u},
 394:.\Generated_Source\PSoC5/cyfitter_cfg.c **** 			{(void CYFAR *)(CYDEV_UCFG_B1_P5_U1_BASE), BS_UDB_0_0_1_CONFIG_VAL, 128u},
 395:.\Generated_Source\PSoC5/cyfitter_cfg.c **** 		};
 396:.\Generated_Source\PSoC5/cyfitter_cfg.c **** 
 397:.\Generated_Source\PSoC5/cyfitter_cfg.c **** 		uint8 CYDATA i;
 398:.\Generated_Source\PSoC5/cyfitter_cfg.c **** 
 399:.\Generated_Source\PSoC5/cyfitter_cfg.c **** 		/* Zero out critical memory blocks before beginning configuration */
 400:.\Generated_Source\PSoC5/cyfitter_cfg.c **** 		for (i = 0u; i < (sizeof(cfg_memset_list)/sizeof(cfg_memset_list[0])); i++)
 432              		.loc 1 400 0
 433 000e 0024     		movs	r4, #0
 434 0010 0CE0     		b	.L28
 435              	.LVL30:
 436              	.L29:
 437              	.LBB4:
 401:.\Generated_Source\PSoC5/cyfitter_cfg.c **** 		{
 402:.\Generated_Source\PSoC5/cyfitter_cfg.c **** 			const cfg_memset_t CYCODE * CYDATA ms = &cfg_memset_list[i];
 403:.\Generated_Source\PSoC5/cyfitter_cfg.c **** 			CYMEMZERO(ms->address, (size_t)(uint32)(ms->size));
 438              		.loc 1 403 0 discriminator 3
 439 0012 3D49     		ldr	r1, .L33+4
 440 0014 6300     		lsls	r3, r4, #1
 441 0016 1A19     		adds	r2, r3, r4
 442 0018 5200     		lsls	r2, r2, #1
 443 001a 0A44     		add	r2, r2, r1
 444 001c 2344     		add	r3, r3, r4
 445 001e 5B00     		lsls	r3, r3, #1
 446 0020 C858     		ldr	r0, [r1, r3]	@ unaligned
 447 0022 9188     		ldrh	r1, [r2, #4]
 448 0024 FFF7FEFF 		bl	CYMEMZERO
 449              	.LVL31:
 450              	.LBE4:
 400:.\Generated_Source\PSoC5/cyfitter_cfg.c **** 		{
 451              		.loc 1 400 0 discriminator 3
 452 0028 0134     		adds	r4, r4, #1
 453              	.LVL32:
 454 002a E4B2     		uxtb	r4, r4
 455              	.LVL33:
 456              	.L28:
 400:.\Generated_Source\PSoC5/cyfitter_cfg.c **** 		{
 457              		.loc 1 400 0 is_stmt 0 discriminator 1
 458 002c 092C     		cmp	r4, #9
 459 002e F0D9     		bls	.L29
 460 0030 0024     		movs	r4, #0
 461              	.LVL34:
 462 0032 10E0     		b	.L30
 463              	.LVL35:
 464              	.L31:
 465              	.LBB5:
 404:.\Generated_Source\PSoC5/cyfitter_cfg.c **** 		}
 405:.\Generated_Source\PSoC5/cyfitter_cfg.c **** 
 406:.\Generated_Source\PSoC5/cyfitter_cfg.c **** 		/* Copy device configuration data into registers */
ARM GAS  C:\Users\student\AppData\Local\Temp\ccPi7RaA.s 			page 17


 407:.\Generated_Source\PSoC5/cyfitter_cfg.c **** 		for (i = 0u; i < (sizeof(cfg_memcpy_list)/sizeof(cfg_memcpy_list[0])); i++)
 408:.\Generated_Source\PSoC5/cyfitter_cfg.c **** 		{
 409:.\Generated_Source\PSoC5/cyfitter_cfg.c **** 			const cfg_memcpy_t CYCODE * CYDATA mc = &cfg_memcpy_list[i];
 410:.\Generated_Source\PSoC5/cyfitter_cfg.c **** 			void * CYDATA destPtr = mc->dest;
 466              		.loc 1 410 0 is_stmt 1 discriminator 3
 467 0034 3449     		ldr	r1, .L33+4
 468 0036 A300     		lsls	r3, r4, #2
 469 0038 1A19     		adds	r2, r3, r4
 470 003a 5200     		lsls	r2, r2, #1
 471 003c 0A44     		add	r2, r2, r1
 472 003e 52F83C0F 		ldr	r0, [r2, #60]!	@ unaligned
 473              	.LVL36:
 411:.\Generated_Source\PSoC5/cyfitter_cfg.c **** 			const void * CYDATA srcPtr = mc->src;
 412:.\Generated_Source\PSoC5/cyfitter_cfg.c **** 			uint16 CYDATA numBytes = mc->size;
 474              		.loc 1 412 0 discriminator 3
 475 0042 2344     		add	r3, r3, r4
 476 0044 5B00     		lsls	r3, r3, #1
 477 0046 0B44     		add	r3, r3, r1
 478              	.LVL37:
 413:.\Generated_Source\PSoC5/cyfitter_cfg.c **** 			CYCONFIGCPY(destPtr, srcPtr, numBytes);
 479              		.loc 1 413 0 discriminator 3
 480 0048 5168     		ldr	r1, [r2, #4]	@ unaligned
 481              	.LVL38:
 482 004a B3F84420 		ldrh	r2, [r3, #68]
 483 004e FFF7FEFF 		bl	CYCONFIGCPY
 484              	.LVL39:
 485              	.LBE5:
 407:.\Generated_Source\PSoC5/cyfitter_cfg.c **** 		{
 486              		.loc 1 407 0 discriminator 3
 487 0052 0134     		adds	r4, r4, #1
 488              	.LVL40:
 489 0054 E4B2     		uxtb	r4, r4
 490              	.LVL41:
 491              	.L30:
 407:.\Generated_Source\PSoC5/cyfitter_cfg.c **** 		{
 492              		.loc 1 407 0 is_stmt 0 discriminator 1
 493 0056 022C     		cmp	r4, #2
 494 0058 ECD9     		bls	.L31
 414:.\Generated_Source\PSoC5/cyfitter_cfg.c **** 		}
 415:.\Generated_Source\PSoC5/cyfitter_cfg.c **** 
 416:.\Generated_Source\PSoC5/cyfitter_cfg.c **** 		cfg_write_bytes32(cy_cfg_addr_table, cy_cfg_data_table);
 495              		.loc 1 416 0 is_stmt 1
 496 005a 4FF09040 		mov	r0, #1207959552
 497 005e 2B49     		ldr	r1, .L33+8
 498 0060 FFF7FEFF 		bl	cfg_write_bytes32
 499              	.LVL42:
 417:.\Generated_Source\PSoC5/cyfitter_cfg.c **** 
 418:.\Generated_Source\PSoC5/cyfitter_cfg.c **** 		/* Perform normal device configuration. Order is not critical for these items. */
 419:.\Generated_Source\PSoC5/cyfitter_cfg.c **** 		CYMEMZERO((void CYFAR *)(CYREG_PHUB_CFGMEM0_CFG0), 4u);
 500              		.loc 1 419 0
 501 0064 2A48     		ldr	r0, .L33+12
 502 0066 0421     		movs	r1, #4
 503 0068 FFF7FEFF 		bl	CYMEMZERO
 504              	.LVL43:
 420:.\Generated_Source\PSoC5/cyfitter_cfg.c **** 		CYMEMZERO((void CYFAR *)(CYREG_PHUB_CFGMEM1_CFG0), 4u);
 505              		.loc 1 420 0
 506 006c 2948     		ldr	r0, .L33+16
ARM GAS  C:\Users\student\AppData\Local\Temp\ccPi7RaA.s 			page 18


 507 006e 0421     		movs	r1, #4
 508 0070 FFF7FEFF 		bl	CYMEMZERO
 509              	.LVL44:
 421:.\Generated_Source\PSoC5/cyfitter_cfg.c **** 
 422:.\Generated_Source\PSoC5/cyfitter_cfg.c **** 		/* Enable digital routing */
 423:.\Generated_Source\PSoC5/cyfitter_cfg.c **** 		CY_SET_XTND_REG8((void CYFAR *)CYREG_BCTL0_BANK_CTL, CY_GET_XTND_REG8((void CYFAR *)CYREG_BCTL0_B
 510              		.loc 1 423 0
 511 0074 284A     		ldr	r2, .L33+20
 512 0076 1378     		ldrb	r3, [r2]	@ zero_extendqisi2
 513 0078 43F00203 		orr	r3, r3, #2
 514 007c 1370     		strb	r3, [r2]
 424:.\Generated_Source\PSoC5/cyfitter_cfg.c **** 		CY_SET_XTND_REG8((void CYFAR *)CYREG_BCTL1_BANK_CTL, CY_GET_XTND_REG8((void CYFAR *)CYREG_BCTL1_B
 515              		.loc 1 424 0
 516 007e 1032     		adds	r2, r2, #16
 517 0080 1378     		ldrb	r3, [r2]	@ zero_extendqisi2
 518 0082 43F00203 		orr	r3, r3, #2
 519 0086 1370     		strb	r3, [r2]
 425:.\Generated_Source\PSoC5/cyfitter_cfg.c **** 
 426:.\Generated_Source\PSoC5/cyfitter_cfg.c **** 		/* Enable UDB array */
 427:.\Generated_Source\PSoC5/cyfitter_cfg.c **** 		CY_SET_XTND_REG8((void CYFAR *)CYREG_PM_ACT_CFG0, CY_GET_XTND_REG8((void CYFAR *)CYREG_PM_ACT_CFG
 520              		.loc 1 427 0
 521 0088 244C     		ldr	r4, .L33+24
 522              	.LVL45:
 523 008a 2378     		ldrb	r3, [r4]	@ zero_extendqisi2
 524 008c 43F04003 		orr	r3, r3, #64
 525 0090 2370     		strb	r3, [r4]
 428:.\Generated_Source\PSoC5/cyfitter_cfg.c **** 		CY_SET_XTND_REG8((void CYFAR *)CYREG_PM_AVAIL_CR2, CY_GET_XTND_REG8((void CYFAR *)CYREG_PM_AVAIL_
 526              		.loc 1 428 0
 527 0092 A2F58632 		sub	r2, r2, #68608
 528 0096 513A     		subs	r2, r2, #81
 529 0098 1378     		ldrb	r3, [r2]	@ zero_extendqisi2
 530 009a 43F01003 		orr	r3, r3, #16
 531 009e 1370     		strb	r3, [r2]
 532              	.LBE3:
 429:.\Generated_Source\PSoC5/cyfitter_cfg.c **** 	}
 430:.\Generated_Source\PSoC5/cyfitter_cfg.c **** 
 431:.\Generated_Source\PSoC5/cyfitter_cfg.c **** 
 432:.\Generated_Source\PSoC5/cyfitter_cfg.c **** 	/* Perform second pass device configuration. These items must be configured in specific order afte
 433:.\Generated_Source\PSoC5/cyfitter_cfg.c **** 	CYCONFIGCPY((void CYFAR *)(CYREG_PRT15_DR), (const void CYFAR *)(BS_IOPINS0_8_VAL), 10u);
 533              		.loc 1 433 0
 534 00a0 1F48     		ldr	r0, .L33+28
 535 00a2 2049     		ldr	r1, .L33+32
 536 00a4 0A22     		movs	r2, #10
 537 00a6 FFF7FEFF 		bl	CYCONFIGCPY
 538              	.LVL46:
 434:.\Generated_Source\PSoC5/cyfitter_cfg.c **** 	CYCONFIGCPY((void CYFAR *)(CYREG_PRT1_DM0), (const void CYFAR *)(BS_IOPINS0_1_VAL), 8u);
 539              		.loc 1 434 0
 540 00aa 1F48     		ldr	r0, .L33+36
 541 00ac 1F49     		ldr	r1, .L33+40
 542 00ae 0822     		movs	r2, #8
 543 00b0 FFF7FEFF 		bl	CYCONFIGCPY
 544              	.LVL47:
 435:.\Generated_Source\PSoC5/cyfitter_cfg.c **** 	CYCONFIGCPY((void CYFAR *)(CYREG_PRT2_DM0), (const void CYFAR *)(BS_IOPINS0_2_VAL), 8u);
 545              		.loc 1 435 0
 546 00b4 1E48     		ldr	r0, .L33+44
 547 00b6 1F49     		ldr	r1, .L33+48
 548 00b8 0822     		movs	r2, #8
ARM GAS  C:\Users\student\AppData\Local\Temp\ccPi7RaA.s 			page 19


 549 00ba FFF7FEFF 		bl	CYCONFIGCPY
 550              	.LVL48:
 436:.\Generated_Source\PSoC5/cyfitter_cfg.c **** 	CYCONFIGCPY((void CYFAR *)(CYREG_PRT3_DM0), (const void CYFAR *)(BS_IOPINS0_3_VAL), 8u);
 551              		.loc 1 436 0
 552 00be 1E48     		ldr	r0, .L33+52
 553 00c0 1E49     		ldr	r1, .L33+56
 554 00c2 0822     		movs	r2, #8
 555 00c4 FFF7FEFF 		bl	CYCONFIGCPY
 556              	.LVL49:
 437:.\Generated_Source\PSoC5/cyfitter_cfg.c **** 	CYCONFIGCPY((void CYFAR *)(CYREG_PRT4_DM0), (const void CYFAR *)(BS_IOPINS0_4_VAL), 8u);
 557              		.loc 1 437 0
 558 00c8 1D48     		ldr	r0, .L33+60
 559 00ca 1E49     		ldr	r1, .L33+64
 560 00cc 0822     		movs	r2, #8
 561 00ce FFF7FEFF 		bl	CYCONFIGCPY
 562              	.LVL50:
 438:.\Generated_Source\PSoC5/cyfitter_cfg.c **** 	CYCONFIGCPY((void CYFAR *)(CYREG_PRT5_DM0), (const void CYFAR *)(BS_IOPINS0_5_VAL), 8u);
 563              		.loc 1 438 0
 564 00d2 1D48     		ldr	r0, .L33+68
 565 00d4 1D49     		ldr	r1, .L33+72
 566 00d6 0822     		movs	r2, #8
 567 00d8 FFF7FEFF 		bl	CYCONFIGCPY
 568              	.LVL51:
 439:.\Generated_Source\PSoC5/cyfitter_cfg.c **** 	/* Switch Boost to the precision bandgap reference from its internal reference */
 440:.\Generated_Source\PSoC5/cyfitter_cfg.c **** 	CY_SET_REG8((void CYXDATA *)CYREG_BOOST_CR2, (CY_GET_REG8((void CYXDATA *)CYREG_BOOST_CR2) | 0x08u
 569              		.loc 1 440 0
 570 00dc 1C4A     		ldr	r2, .L33+76
 571 00de 1378     		ldrb	r3, [r2]	@ zero_extendqisi2
 572 00e0 43F00803 		orr	r3, r3, #8
 573 00e4 1370     		strb	r3, [r2]
 441:.\Generated_Source\PSoC5/cyfitter_cfg.c **** 
 442:.\Generated_Source\PSoC5/cyfitter_cfg.c **** 	/* Set Flash Cycles based on max possible frequency in case a glitch occurs during ClockSetup(). *
 443:.\Generated_Source\PSoC5/cyfitter_cfg.c **** 	CY_SET_XTND_REG8((void CYFAR *)(CYREG_CACHE_CC_CTL), (((CYDEV_INSTRUCT_CACHE_ENABLED) != 0) ? 0x01
 574              		.loc 1 443 0
 575 00e6 1B4D     		ldr	r5, .L33+80
 576 00e8 0123     		movs	r3, #1
 577 00ea 2B70     		strb	r3, [r5]
 444:.\Generated_Source\PSoC5/cyfitter_cfg.c **** 	/* Setup clocks based on selections from Clock DWR */
 445:.\Generated_Source\PSoC5/cyfitter_cfg.c **** 	ClockSetup();
 578              		.loc 1 445 0
 579 00ec FFF7FEFF 		bl	ClockSetup
 580              	.LVL52:
 446:.\Generated_Source\PSoC5/cyfitter_cfg.c **** 	/* Set Flash Cycles based on newly configured 24.00MHz Bus Clock. */
 447:.\Generated_Source\PSoC5/cyfitter_cfg.c **** 	CY_SET_XTND_REG8((void CYFAR *)(CYREG_CACHE_CC_CTL), (((CYDEV_INSTRUCT_CACHE_ENABLED) != 0) ? 0x81
 581              		.loc 1 447 0
 582 00f0 8123     		movs	r3, #129
 583 00f2 2B70     		strb	r3, [r5]
 448:.\Generated_Source\PSoC5/cyfitter_cfg.c **** 
 449:.\Generated_Source\PSoC5/cyfitter_cfg.c **** 	/* Perform basic analog initialization to defaults */
 450:.\Generated_Source\PSoC5/cyfitter_cfg.c **** 	AnalogSetDefault();
 584              		.loc 1 450 0
 585 00f4 FFF7FEFF 		bl	AnalogSetDefault
 586              	.LVL53:
 451:.\Generated_Source\PSoC5/cyfitter_cfg.c **** 
 452:.\Generated_Source\PSoC5/cyfitter_cfg.c **** 	/* Configure alternate active mode */
 453:.\Generated_Source\PSoC5/cyfitter_cfg.c **** 	CYCONFIGCPY((void CYFAR *)CYDEV_PM_STBY_BASE, (const void CYFAR *)CYDEV_PM_ACT_BASE, 14u);
 587              		.loc 1 453 0
ARM GAS  C:\Users\student\AppData\Local\Temp\ccPi7RaA.s 			page 20


 588 00f8 1748     		ldr	r0, .L33+84
 589 00fa 2146     		mov	r1, r4
 590 00fc 0E22     		movs	r2, #14
 591 00fe FFF7FEFF 		bl	CYCONFIGCPY
 592              	.LVL54:
 593 0102 38BD     		pop	{r3, r4, r5, pc}
 594              	.L34:
 595              		.align	2
 596              	.L33:
 597 0104 E8460040 		.word	1073759976
 598 0108 00000000 		.word	.LANCHOR0
 599 010c 88000048 		.word	1207959688
 600 0110 00760040 		.word	1073772032
 601 0114 08760040 		.word	1073772040
 602 0118 03500140 		.word	1073827843
 603 011c A0430040 		.word	1073759136
 604 0120 F0510040 		.word	1073762800
 605 0124 FC070048 		.word	1207961596
 606 0128 12510040 		.word	1073762578
 607 012c 08080048 		.word	1207961608
 608 0130 22510040 		.word	1073762594
 609 0134 10080048 		.word	1207961616
 610 0138 32510040 		.word	1073762610
 611 013c 18080048 		.word	1207961624
 612 0140 42510040 		.word	1073762626
 613 0144 20080048 		.word	1207961632
 614 0148 52510040 		.word	1073762642
 615 014c 28080048 		.word	1207961640
 616 0150 22430040 		.word	1073759010
 617 0154 00480040 		.word	1073760256
 618 0158 B0430040 		.word	1073759152
 619              		.cfi_endproc
 620              	.LFE8:
 621              		.size	cyfitter_cfg, .-cyfitter_cfg
 622              		.section	.rodata
 623              		.align	2
 624              		.set	.LANCHOR0,. + 0
 625              		.type	cfg_memset_list.4889, %object
 626              		.size	cfg_memset_list.4889, 60
 627              	cfg_memset_list.4889:
 628 0000 00510040 		.word	1073762560
 629 0004 1000     		.short	16
 630 0006 60510040 		.4byte	1073762656
 631 000a 1000     		.short	16
 632 000c C0510040 		.word	1073762752
 633 0010 1000     		.short	16
 634 0012 00000140 		.4byte	1073807360
 635 0016 800A     		.short	2688
 636 0018 000B0140 		.word	1073810176
 637 001c 0005     		.short	1280
 638 001e 00140140 		.4byte	1073812480
 639 0022 8006     		.short	1664
 640 0024 001B0140 		.word	1073814272
 641 0028 0001     		.short	256
 642 002a 00400140 		.4byte	1073823744
 643 002e 000A     		.short	2560
 644 0030 004C0140 		.word	1073826816
ARM GAS  C:\Users\student\AppData\Local\Temp\ccPi7RaA.s 			page 21


 645 0034 0002     		.short	512
 646 0036 00500140 		.4byte	1073827840
 647 003a 2000     		.short	32
 648              		.type	cfg_memcpy_list.4890, %object
 649              		.size	cfg_memcpy_list.4890, 30
 650              	cfg_memcpy_list.4890:
 651 003c 20450040 		.word	1073759520
 652 0040 F4060048 		.word	1207961332
 653 0044 0800     		.short	8
 654 0046 800A0140 		.4byte	1073810048
 655 004a FC060048 		.4byte	1207961340
 656 004e 8000     		.short	128
 657 0050 801A0140 		.word	1073814144
 658 0054 7C070048 		.word	1207961468
 659 0058 8000     		.short	128
 660 005a 0000     		.text
 661              	.Letext0:
 662              		.file 2 "c:\\program files (x86)\\cypress\\psoc creator\\3.3\\psoc creator\\import\\gnu\\arm\\4.9.
 663              		.file 3 ".\\Generated_Source\\PSoC5\\cytypes.h"
 664              		.file 4 ".\\Generated_Source\\PSoC5\\CyLib.h"