ARM GAS  C:\Users\student\AppData\Local\Temp\ccmWIiPR.s 			page 1


   1              		.syntax unified
   2              		.cpu cortex-m3
   3              		.fpu softvfp
   4              		.eabi_attribute 20, 1
   5              		.eabi_attribute 21, 1
   6              		.eabi_attribute 23, 3
   7              		.eabi_attribute 24, 1
   8              		.eabi_attribute 25, 1
   9              		.eabi_attribute 26, 1
  10              		.eabi_attribute 30, 1
  11              		.eabi_attribute 34, 1
  12              		.eabi_attribute 18, 4
  13              		.thumb
  14              		.file	"CyLib.c"
  15              		.text
  16              	.Ltext0:
  17              		.cfi_sections	.debug_frame
  18              		.section	.text.CyUSB_PowerOnCheck,"ax",%progbits
  19              		.align	2
  20              		.thumb
  21              		.thumb_func
  22              		.type	CyUSB_PowerOnCheck, %function
  23              	CyUSB_PowerOnCheck:
  24              	.LFB6:
  25              		.file 1 ".\\Generated_Source\\PSoC5\\CyLib.c"
   1:.\Generated_Source\PSoC5/CyLib.c **** /***************************************************************************//**
   2:.\Generated_Source\PSoC5/CyLib.c **** * \file CyLib.c
   3:.\Generated_Source\PSoC5/CyLib.c **** * \version 5.40
   4:.\Generated_Source\PSoC5/CyLib.c **** *
   5:.\Generated_Source\PSoC5/CyLib.c **** * \brief Provides a system API for the clocking, interrupts and watchdog timer.
   6:.\Generated_Source\PSoC5/CyLib.c **** *
   7:.\Generated_Source\PSoC5/CyLib.c **** * \note Documentation of the API's in this file is located in the System
   8:.\Generated_Source\PSoC5/CyLib.c **** * Reference Guide provided with PSoC Creator.
   9:.\Generated_Source\PSoC5/CyLib.c **** *
  10:.\Generated_Source\PSoC5/CyLib.c **** ********************************************************************************
  11:.\Generated_Source\PSoC5/CyLib.c **** * \copyright
  12:.\Generated_Source\PSoC5/CyLib.c **** * Copyright 2008-2016, Cypress Semiconductor Corporation.  All rights reserved.
  13:.\Generated_Source\PSoC5/CyLib.c **** * You may use this file only in accordance with the license, terms, conditions,
  14:.\Generated_Source\PSoC5/CyLib.c **** * disclaimers, and limitations in the end user license agreement accompanying
  15:.\Generated_Source\PSoC5/CyLib.c **** * the software package with which this file was provided.
  16:.\Generated_Source\PSoC5/CyLib.c **** *******************************************************************************/
  17:.\Generated_Source\PSoC5/CyLib.c **** 
  18:.\Generated_Source\PSoC5/CyLib.c **** #include "CyLib.h"
  19:.\Generated_Source\PSoC5/CyLib.c **** 
  20:.\Generated_Source\PSoC5/CyLib.c **** 
  21:.\Generated_Source\PSoC5/CyLib.c **** /*******************************************************************************
  22:.\Generated_Source\PSoC5/CyLib.c **** * The CyResetStatus variable is used to obtain value of RESET_SR0 register after
  23:.\Generated_Source\PSoC5/CyLib.c **** * a device reset. It is set from initialize_psoc() at the early initialization
  24:.\Generated_Source\PSoC5/CyLib.c **** * stage. In case of IAR EW IDE, initialize_psoc() is executed before the data
  25:.\Generated_Source\PSoC5/CyLib.c **** * sections are initialized. To avoid zeroing, CyResetStatus should be placed
  26:.\Generated_Source\PSoC5/CyLib.c **** * to the .noinit section.
  27:.\Generated_Source\PSoC5/CyLib.c **** *******************************************************************************/
  28:.\Generated_Source\PSoC5/CyLib.c **** CY_NOINIT uint8 CYXDATA CyResetStatus;
  29:.\Generated_Source\PSoC5/CyLib.c **** 
  30:.\Generated_Source\PSoC5/CyLib.c **** 
  31:.\Generated_Source\PSoC5/CyLib.c **** /* Variable Vdda */
  32:.\Generated_Source\PSoC5/CyLib.c **** #if(CYDEV_VARIABLE_VDDA == 1)
ARM GAS  C:\Users\student\AppData\Local\Temp\ccmWIiPR.s 			page 2


  33:.\Generated_Source\PSoC5/CyLib.c **** 
  34:.\Generated_Source\PSoC5/CyLib.c ****     uint8 CyScPumpEnabled = (uint8)(CYDEV_VDDA_MV < 2700);
  35:.\Generated_Source\PSoC5/CyLib.c **** 
  36:.\Generated_Source\PSoC5/CyLib.c **** #endif  /* (CYDEV_VARIABLE_VDDA == 1) */
  37:.\Generated_Source\PSoC5/CyLib.c **** 
  38:.\Generated_Source\PSoC5/CyLib.c **** 
  39:.\Generated_Source\PSoC5/CyLib.c **** /* Do not use these definitions directly in your application */
  40:.\Generated_Source\PSoC5/CyLib.c **** uint32 cydelay_freq_hz  = BCLK__BUS_CLK__HZ;
  41:.\Generated_Source\PSoC5/CyLib.c **** uint32 cydelay_freq_khz = (BCLK__BUS_CLK__HZ + 999u) / 1000u;
  42:.\Generated_Source\PSoC5/CyLib.c **** uint8  cydelay_freq_mhz = (uint8)((BCLK__BUS_CLK__HZ + 999999u) / 1000000u);
  43:.\Generated_Source\PSoC5/CyLib.c **** uint32 cydelay_32k_ms   = 32768u * ((BCLK__BUS_CLK__HZ + 999u) / 1000u);
  44:.\Generated_Source\PSoC5/CyLib.c **** 
  45:.\Generated_Source\PSoC5/CyLib.c **** 
  46:.\Generated_Source\PSoC5/CyLib.c **** /* Function Prototypes */
  47:.\Generated_Source\PSoC5/CyLib.c **** static uint8 CyUSB_PowerOnCheck(void)  ;
  48:.\Generated_Source\PSoC5/CyLib.c **** static void CyIMO_SetTrimValue(uint8 freq) ;
  49:.\Generated_Source\PSoC5/CyLib.c **** static void CyBusClk_Internal_SetDivider(uint16 divider);
  50:.\Generated_Source\PSoC5/CyLib.c **** 
  51:.\Generated_Source\PSoC5/CyLib.c **** #if(CY_PSOC5)
  52:.\Generated_Source\PSoC5/CyLib.c ****     static cySysTickCallback CySysTickCallbacks[CY_SYS_SYST_NUM_OF_CALLBACKS];
  53:.\Generated_Source\PSoC5/CyLib.c ****     static void CySysTickServiceCallbacks(void);
  54:.\Generated_Source\PSoC5/CyLib.c ****     uint32 CySysTickInitVar = 0u;
  55:.\Generated_Source\PSoC5/CyLib.c **** #endif  /* (CY_PSOC5) */
  56:.\Generated_Source\PSoC5/CyLib.c **** 
  57:.\Generated_Source\PSoC5/CyLib.c **** 
  58:.\Generated_Source\PSoC5/CyLib.c **** #if(CY_PSOC3)
  59:.\Generated_Source\PSoC5/CyLib.c ****     CY_ISR_PROTO(IntDefaultHandler);
  60:.\Generated_Source\PSoC5/CyLib.c **** #endif /* (CY_PSOC3) */
  61:.\Generated_Source\PSoC5/CyLib.c **** 
  62:.\Generated_Source\PSoC5/CyLib.c **** 
  63:.\Generated_Source\PSoC5/CyLib.c **** /*******************************************************************************
  64:.\Generated_Source\PSoC5/CyLib.c **** * Function Name: CyPLL_OUT_Start
  65:.\Generated_Source\PSoC5/CyLib.c **** ****************************************************************************//**
  66:.\Generated_Source\PSoC5/CyLib.c **** *
  67:.\Generated_Source\PSoC5/CyLib.c **** *   Enables the PLL.  Optionally waits for it to become stable.
  68:.\Generated_Source\PSoC5/CyLib.c **** *   Waits at least 250 us or until it is detected that the PLL is stable.
  69:.\Generated_Source\PSoC5/CyLib.c **** *
  70:.\Generated_Source\PSoC5/CyLib.c **** *   \param wait:
  71:.\Generated_Source\PSoC5/CyLib.c **** *    \param 0: Return immediately after configuration
  72:.\Generated_Source\PSoC5/CyLib.c **** *    \param 1: Wait for PLL lock or timeout.
  73:.\Generated_Source\PSoC5/CyLib.c **** *
  74:.\Generated_Source\PSoC5/CyLib.c **** * \return
  75:.\Generated_Source\PSoC5/CyLib.c **** *   Status
  76:.\Generated_Source\PSoC5/CyLib.c **** *    CYRET_SUCCESS - Completed successfully
  77:.\Generated_Source\PSoC5/CyLib.c **** *    CYRET_TIMEOUT - Timeout occurred without detecting a stable clock.
  78:.\Generated_Source\PSoC5/CyLib.c **** *     If the input source of the clock is jittery, then the lock indication
  79:.\Generated_Source\PSoC5/CyLib.c **** *     may not occur.  However, after the timeout has expired the generated PLL
  80:.\Generated_Source\PSoC5/CyLib.c **** *     clock can still be used.
  81:.\Generated_Source\PSoC5/CyLib.c **** *
  82:.\Generated_Source\PSoC5/CyLib.c **** * \sideeffect
  83:.\Generated_Source\PSoC5/CyLib.c **** *  If wait is enabled: This function uses the Fast Time Wheel to time the wait.
  84:.\Generated_Source\PSoC5/CyLib.c **** *  Any other use of the Fast Time Wheel will be stopped during the period of
  85:.\Generated_Source\PSoC5/CyLib.c **** *  this function and then restored. This function also uses the 100 KHz ILO.
  86:.\Generated_Source\PSoC5/CyLib.c **** *  If not enabled, this function will enable the 100 KHz ILO for the period of
  87:.\Generated_Source\PSoC5/CyLib.c **** *  this function.
  88:.\Generated_Source\PSoC5/CyLib.c **** *
  89:.\Generated_Source\PSoC5/CyLib.c **** *  No changes to the setup of the ILO, Fast Time Wheel, Central Time Wheel or
ARM GAS  C:\Users\student\AppData\Local\Temp\ccmWIiPR.s 			page 3


  90:.\Generated_Source\PSoC5/CyLib.c **** *  Once Per Second interrupt may be made by interrupt routines during the period
  91:.\Generated_Source\PSoC5/CyLib.c **** *  of this function execution. The current operation of the ILO, Central Time
  92:.\Generated_Source\PSoC5/CyLib.c **** *  Wheel and Once Per Second interrupt are maintained during the operation of
  93:.\Generated_Source\PSoC5/CyLib.c **** *  this function provided the reading of the Power Manager Interrupt Status
  94:.\Generated_Source\PSoC5/CyLib.c **** *  Register is only done using the CyPmReadStatus() function.
  95:.\Generated_Source\PSoC5/CyLib.c **** *
  96:.\Generated_Source\PSoC5/CyLib.c **** *******************************************************************************/
  97:.\Generated_Source\PSoC5/CyLib.c **** cystatus CyPLL_OUT_Start(uint8 wait) 
  98:.\Generated_Source\PSoC5/CyLib.c **** {
  99:.\Generated_Source\PSoC5/CyLib.c ****     cystatus status = CYRET_SUCCESS;
 100:.\Generated_Source\PSoC5/CyLib.c **** 
 101:.\Generated_Source\PSoC5/CyLib.c ****     uint8 iloEnableState;
 102:.\Generated_Source\PSoC5/CyLib.c ****     uint8 pmTwCfg0State;
 103:.\Generated_Source\PSoC5/CyLib.c ****     uint8 pmTwCfg2State;
 104:.\Generated_Source\PSoC5/CyLib.c **** 
 105:.\Generated_Source\PSoC5/CyLib.c **** 
 106:.\Generated_Source\PSoC5/CyLib.c ****     /* Enables PLL circuit  */
 107:.\Generated_Source\PSoC5/CyLib.c ****     CY_CLK_PLL_CFG0_REG |= CY_CLK_PLL_ENABLE;
 108:.\Generated_Source\PSoC5/CyLib.c **** 
 109:.\Generated_Source\PSoC5/CyLib.c ****     if(wait != 0u)
 110:.\Generated_Source\PSoC5/CyLib.c ****     {
 111:.\Generated_Source\PSoC5/CyLib.c ****         /* Save 100 KHz ILO, FTW interval, enable and interrupt enable */
 112:.\Generated_Source\PSoC5/CyLib.c ****         iloEnableState = CY_LIB_SLOWCLK_ILO_CR0_REG & CY_LIB_SLOWCLK_ILO_CR0_EN_100KHZ;
 113:.\Generated_Source\PSoC5/CyLib.c ****         pmTwCfg0State = CY_LIB_PM_TW_CFG0_REG;
 114:.\Generated_Source\PSoC5/CyLib.c ****         pmTwCfg2State = CY_LIB_PM_TW_CFG2_REG;
 115:.\Generated_Source\PSoC5/CyLib.c **** 
 116:.\Generated_Source\PSoC5/CyLib.c ****         CyPmFtwSetInterval(CY_CLK_PLL_FTW_INTERVAL);
 117:.\Generated_Source\PSoC5/CyLib.c **** 
 118:.\Generated_Source\PSoC5/CyLib.c ****         status = CYRET_TIMEOUT;
 119:.\Generated_Source\PSoC5/CyLib.c **** 
 120:.\Generated_Source\PSoC5/CyLib.c ****         while(0u == (CY_PM_FTW_INT & CyPmReadStatus(CY_PM_FTW_INT)))
 121:.\Generated_Source\PSoC5/CyLib.c ****         {
 122:.\Generated_Source\PSoC5/CyLib.c ****             /* Wait for interrupt status */
 123:.\Generated_Source\PSoC5/CyLib.c ****             if(0u != (CY_CLK_PLL_SR_REG & CY_CLK_PLL_LOCK_STATUS))
 124:.\Generated_Source\PSoC5/CyLib.c ****             {
 125:.\Generated_Source\PSoC5/CyLib.c ****                 if(0u != (CY_CLK_PLL_SR_REG & CY_CLK_PLL_LOCK_STATUS))
 126:.\Generated_Source\PSoC5/CyLib.c ****                 {
 127:.\Generated_Source\PSoC5/CyLib.c ****                     status = CYRET_SUCCESS;
 128:.\Generated_Source\PSoC5/CyLib.c ****                     break;
 129:.\Generated_Source\PSoC5/CyLib.c ****                 }
 130:.\Generated_Source\PSoC5/CyLib.c ****             }
 131:.\Generated_Source\PSoC5/CyLib.c ****         }
 132:.\Generated_Source\PSoC5/CyLib.c **** 
 133:.\Generated_Source\PSoC5/CyLib.c ****         /* Restore 100 KHz ILO, FTW interval, enable and interrupt enable */
 134:.\Generated_Source\PSoC5/CyLib.c ****         if(0u == iloEnableState)
 135:.\Generated_Source\PSoC5/CyLib.c ****         {
 136:.\Generated_Source\PSoC5/CyLib.c ****             CyILO_Stop100K();
 137:.\Generated_Source\PSoC5/CyLib.c ****         }
 138:.\Generated_Source\PSoC5/CyLib.c **** 
 139:.\Generated_Source\PSoC5/CyLib.c ****         CY_LIB_PM_TW_CFG0_REG = pmTwCfg0State;
 140:.\Generated_Source\PSoC5/CyLib.c ****         CY_LIB_PM_TW_CFG2_REG = pmTwCfg2State;
 141:.\Generated_Source\PSoC5/CyLib.c ****     }
 142:.\Generated_Source\PSoC5/CyLib.c **** 
 143:.\Generated_Source\PSoC5/CyLib.c ****     return(status);
 144:.\Generated_Source\PSoC5/CyLib.c **** }
 145:.\Generated_Source\PSoC5/CyLib.c **** 
 146:.\Generated_Source\PSoC5/CyLib.c **** 
ARM GAS  C:\Users\student\AppData\Local\Temp\ccmWIiPR.s 			page 4


 147:.\Generated_Source\PSoC5/CyLib.c **** /*******************************************************************************
 148:.\Generated_Source\PSoC5/CyLib.c **** * Function Name: CyPLL_OUT_Stop
 149:.\Generated_Source\PSoC5/CyLib.c **** ****************************************************************************//**
 150:.\Generated_Source\PSoC5/CyLib.c **** *
 151:.\Generated_Source\PSoC5/CyLib.c **** *  Disables the PLL.
 152:.\Generated_Source\PSoC5/CyLib.c **** *
 153:.\Generated_Source\PSoC5/CyLib.c **** *******************************************************************************/
 154:.\Generated_Source\PSoC5/CyLib.c **** void CyPLL_OUT_Stop(void) 
 155:.\Generated_Source\PSoC5/CyLib.c **** {
 156:.\Generated_Source\PSoC5/CyLib.c ****     CY_CLK_PLL_CFG0_REG &= ((uint8)(~CY_CLK_PLL_ENABLE));
 157:.\Generated_Source\PSoC5/CyLib.c **** }
 158:.\Generated_Source\PSoC5/CyLib.c **** 
 159:.\Generated_Source\PSoC5/CyLib.c **** 
 160:.\Generated_Source\PSoC5/CyLib.c **** /*******************************************************************************
 161:.\Generated_Source\PSoC5/CyLib.c **** * Function Name: CyPLL_OUT_SetPQ
 162:.\Generated_Source\PSoC5/CyLib.c **** ****************************************************************************//**
 163:.\Generated_Source\PSoC5/CyLib.c **** *
 164:.\Generated_Source\PSoC5/CyLib.c **** *  Sets the P and Q dividers and the charge pump current.
 165:.\Generated_Source\PSoC5/CyLib.c **** *  The Frequency Out will be P/Q * Frequency In.
 166:.\Generated_Source\PSoC5/CyLib.c **** *  The PLL must be disabled before calling this function.
 167:.\Generated_Source\PSoC5/CyLib.c **** *
 168:.\Generated_Source\PSoC5/CyLib.c **** *  \param uint8 pDiv:
 169:.\Generated_Source\PSoC5/CyLib.c **** *   Valid range [8 - 255].
 170:.\Generated_Source\PSoC5/CyLib.c **** *
 171:.\Generated_Source\PSoC5/CyLib.c **** *  \param uint8 qDiv:
 172:.\Generated_Source\PSoC5/CyLib.c **** *   Valid range [1 - 16]. Input Frequency / Q must be in range of 1 to 3 MHz.
 173:.\Generated_Source\PSoC5/CyLib.c **** 
 174:.\Generated_Source\PSoC5/CyLib.c **** *  \param uint8 current:
 175:.\Generated_Source\PSoC5/CyLib.c **** *   Valid range [1 - 7]. Charge pump current in uA. Refer to the device TRM and
 176:.\Generated_Source\PSoC5/CyLib.c **** *   datasheet for more information.
 177:.\Generated_Source\PSoC5/CyLib.c **** *
 178:.\Generated_Source\PSoC5/CyLib.c **** * \sideeffect
 179:.\Generated_Source\PSoC5/CyLib.c **** *  If this function execution results in the CPU clock frequency increasing,
 180:.\Generated_Source\PSoC5/CyLib.c **** *  then the number of clock cycles the cache will wait before it samples data
 181:.\Generated_Source\PSoC5/CyLib.c **** *  coming back from the Flash must be adjusted by calling
 182:.\Generated_Source\PSoC5/CyLib.c **** *  CyFlash_SetWaitCycles() with an appropriate parameter. It can be optionally
 183:.\Generated_Source\PSoC5/CyLib.c **** *  called if the CPU clock frequency is lowered in order to improve the CPU
 184:.\Generated_Source\PSoC5/CyLib.c **** *  performance. See CyFlash_SetWaitCycles() description for more information.
 185:.\Generated_Source\PSoC5/CyLib.c **** *
 186:.\Generated_Source\PSoC5/CyLib.c **** *******************************************************************************/
 187:.\Generated_Source\PSoC5/CyLib.c **** void CyPLL_OUT_SetPQ(uint8 pDiv, uint8 qDiv, uint8 current) 
 188:.\Generated_Source\PSoC5/CyLib.c **** {
 189:.\Generated_Source\PSoC5/CyLib.c ****     /* Halt CPU in debug mode if PLL is enabled */
 190:.\Generated_Source\PSoC5/CyLib.c ****     CYASSERT(0u == (CY_CLK_PLL_CFG0_REG & CY_CLK_PLL_ENABLE));
 191:.\Generated_Source\PSoC5/CyLib.c **** 
 192:.\Generated_Source\PSoC5/CyLib.c ****     if((pDiv    >= CY_CLK_PLL_MIN_P_VALUE  ) &&
 193:.\Generated_Source\PSoC5/CyLib.c ****        (qDiv    <= CY_CLK_PLL_MAX_Q_VALUE  ) && (qDiv    >= CY_CLK_PLL_MIN_Q_VALUE  ) &&
 194:.\Generated_Source\PSoC5/CyLib.c ****        (current >= CY_CLK_PLL_MIN_CUR_VALUE) && (current <= CY_CLK_PLL_MAX_CUR_VALUE))
 195:.\Generated_Source\PSoC5/CyLib.c ****     {
 196:.\Generated_Source\PSoC5/CyLib.c ****         /* Set new values */
 197:.\Generated_Source\PSoC5/CyLib.c ****         CY_CLK_PLL_P_REG = pDiv;
 198:.\Generated_Source\PSoC5/CyLib.c ****         CY_CLK_PLL_Q_REG = ((uint8)(qDiv - 1u));
 199:.\Generated_Source\PSoC5/CyLib.c ****         CY_CLK_PLL_CFG1_REG = (CY_CLK_PLL_CFG1_REG & CY_CLK_PLL_CURRENT_MASK) |
 200:.\Generated_Source\PSoC5/CyLib.c ****                                 ((uint8)(((uint8)(current - 1u)) << CY_CLK_PLL_CURRENT_POSITION));
 201:.\Generated_Source\PSoC5/CyLib.c ****     }
 202:.\Generated_Source\PSoC5/CyLib.c ****     else
 203:.\Generated_Source\PSoC5/CyLib.c ****     {
ARM GAS  C:\Users\student\AppData\Local\Temp\ccmWIiPR.s 			page 5


 204:.\Generated_Source\PSoC5/CyLib.c ****         /***********************************************************************
 205:.\Generated_Source\PSoC5/CyLib.c ****         * Halt CPU in debug mode if:
 206:.\Generated_Source\PSoC5/CyLib.c ****         * - P divider is less than required
 207:.\Generated_Source\PSoC5/CyLib.c ****         * - Q divider is out of range
 208:.\Generated_Source\PSoC5/CyLib.c ****         * - pump current is out of range
 209:.\Generated_Source\PSoC5/CyLib.c ****         ***********************************************************************/
 210:.\Generated_Source\PSoC5/CyLib.c ****         CYASSERT(0u != 0u);
 211:.\Generated_Source\PSoC5/CyLib.c ****     }
 212:.\Generated_Source\PSoC5/CyLib.c **** 
 213:.\Generated_Source\PSoC5/CyLib.c **** }
 214:.\Generated_Source\PSoC5/CyLib.c **** 
 215:.\Generated_Source\PSoC5/CyLib.c **** 
 216:.\Generated_Source\PSoC5/CyLib.c **** /*******************************************************************************
 217:.\Generated_Source\PSoC5/CyLib.c **** * Function Name: CyPLL_OUT_SetSource
 218:.\Generated_Source\PSoC5/CyLib.c **** ****************************************************************************//**
 219:.\Generated_Source\PSoC5/CyLib.c **** *
 220:.\Generated_Source\PSoC5/CyLib.c **** *  Sets the input clock source to the PLL. The PLL must be disabled before
 221:.\Generated_Source\PSoC5/CyLib.c **** *  calling this function.
 222:.\Generated_Source\PSoC5/CyLib.c **** *
 223:.\Generated_Source\PSoC5/CyLib.c **** *   \param source: One of the three available PLL clock sources
 224:.\Generated_Source\PSoC5/CyLib.c **** *    \param CY_PLL_SOURCE_IMO  :   IMO
 225:.\Generated_Source\PSoC5/CyLib.c **** *    \param CY_PLL_SOURCE_XTAL :   MHz Crystal
 226:.\Generated_Source\PSoC5/CyLib.c **** *    \param CY_PLL_SOURCE_DSI  :   DSI
 227:.\Generated_Source\PSoC5/CyLib.c **** *
 228:.\Generated_Source\PSoC5/CyLib.c **** * \sideeffect
 229:.\Generated_Source\PSoC5/CyLib.c **** *  If this function execution results in the CPU clock frequency increasing,
 230:.\Generated_Source\PSoC5/CyLib.c **** *  then the number of clock cycles the cache will wait before it samples data
 231:.\Generated_Source\PSoC5/CyLib.c **** *  coming back from the3 Flash must be adjusted by calling
 232:.\Generated_Source\PSoC5/CyLib.c **** *  CyFlash_SetWaitCycles() with an appropriate parameter. It can be optionally
 233:.\Generated_Source\PSoC5/CyLib.c **** *  called if the CPU clock frequency is lowered in order to improve the CPU
 234:.\Generated_Source\PSoC5/CyLib.c **** *  performance. See CyFlash_SetWaitCycles() description for more information.
 235:.\Generated_Source\PSoC5/CyLib.c **** *
 236:.\Generated_Source\PSoC5/CyLib.c **** *******************************************************************************/
 237:.\Generated_Source\PSoC5/CyLib.c **** void CyPLL_OUT_SetSource(uint8 source) 
 238:.\Generated_Source\PSoC5/CyLib.c **** {
 239:.\Generated_Source\PSoC5/CyLib.c ****     /* Halt CPU in debug mode if PLL is enabled */
 240:.\Generated_Source\PSoC5/CyLib.c ****     CYASSERT(0u == (CY_CLK_PLL_CFG0_REG & CY_CLK_PLL_ENABLE));
 241:.\Generated_Source\PSoC5/CyLib.c **** 
 242:.\Generated_Source\PSoC5/CyLib.c ****     switch(source)
 243:.\Generated_Source\PSoC5/CyLib.c ****     {
 244:.\Generated_Source\PSoC5/CyLib.c ****         case CY_PLL_SOURCE_IMO:
 245:.\Generated_Source\PSoC5/CyLib.c ****         case CY_PLL_SOURCE_XTAL:
 246:.\Generated_Source\PSoC5/CyLib.c ****         case CY_PLL_SOURCE_DSI:
 247:.\Generated_Source\PSoC5/CyLib.c ****             CY_LIB_CLKDIST_CR_REG = ((CY_LIB_CLKDIST_CR_REG & CY_LIB_CLKDIST_CR_PLL_SCR_MASK) | sou
 248:.\Generated_Source\PSoC5/CyLib.c ****         break;
 249:.\Generated_Source\PSoC5/CyLib.c **** 
 250:.\Generated_Source\PSoC5/CyLib.c ****         default:
 251:.\Generated_Source\PSoC5/CyLib.c ****             CYASSERT(0u != 0u);
 252:.\Generated_Source\PSoC5/CyLib.c ****         break;
 253:.\Generated_Source\PSoC5/CyLib.c ****     }
 254:.\Generated_Source\PSoC5/CyLib.c **** }
 255:.\Generated_Source\PSoC5/CyLib.c **** 
 256:.\Generated_Source\PSoC5/CyLib.c **** 
 257:.\Generated_Source\PSoC5/CyLib.c **** /*******************************************************************************
 258:.\Generated_Source\PSoC5/CyLib.c **** * Function Name: CyIMO_Start
 259:.\Generated_Source\PSoC5/CyLib.c **** ****************************************************************************//**
 260:.\Generated_Source\PSoC5/CyLib.c **** *
ARM GAS  C:\Users\student\AppData\Local\Temp\ccmWIiPR.s 			page 6


 261:.\Generated_Source\PSoC5/CyLib.c **** *  Enables the IMO. Optionally waits at least 6 us for it to settle.
 262:.\Generated_Source\PSoC5/CyLib.c **** *
 263:.\Generated_Source\PSoC5/CyLib.c **** *  \param uint8 wait:
 264:.\Generated_Source\PSoC5/CyLib.c **** *   \param 0: Return immediately after configuration
 265:.\Generated_Source\PSoC5/CyLib.c **** *   \param 1: Wait for at least 6 us for the IMO to settle.
 266:.\Generated_Source\PSoC5/CyLib.c **** *
 267:.\Generated_Source\PSoC5/CyLib.c **** * \sideeffect
 268:.\Generated_Source\PSoC5/CyLib.c **** *  If wait is enabled: This function uses the Fast Time Wheel to time the wait.
 269:.\Generated_Source\PSoC5/CyLib.c **** *  Any other use of the Fast Time Wheel will be stopped during the period of
 270:.\Generated_Source\PSoC5/CyLib.c **** *  this function and then restored. This function also uses the 100 KHz ILO.
 271:.\Generated_Source\PSoC5/CyLib.c **** *  If not enabled, this function will enable the 100 KHz ILO for the period of
 272:.\Generated_Source\PSoC5/CyLib.c **** *  this function.
 273:.\Generated_Source\PSoC5/CyLib.c **** *
 274:.\Generated_Source\PSoC5/CyLib.c **** *  No changes to the setup of the ILO, Fast Time Wheel, Central Time Wheel or
 275:.\Generated_Source\PSoC5/CyLib.c **** *  Once Per Second interrupt may be made by interrupt routines during the period
 276:.\Generated_Source\PSoC5/CyLib.c **** *  of this function execution. The current operation of the ILO, Central Time
 277:.\Generated_Source\PSoC5/CyLib.c **** *  Wheel and Once Per Second interrupt are maintained during the operation of
 278:.\Generated_Source\PSoC5/CyLib.c **** *  this function provided the reading of the Power Manager Interrupt Status
 279:.\Generated_Source\PSoC5/CyLib.c **** *  Register is only done using the CyPmReadStatus() function.
 280:.\Generated_Source\PSoC5/CyLib.c **** *
 281:.\Generated_Source\PSoC5/CyLib.c **** *******************************************************************************/
 282:.\Generated_Source\PSoC5/CyLib.c **** void CyIMO_Start(uint8 wait) 
 283:.\Generated_Source\PSoC5/CyLib.c **** {
 284:.\Generated_Source\PSoC5/CyLib.c ****     uint8 pmFtwCfg2Reg;
 285:.\Generated_Source\PSoC5/CyLib.c ****     uint8 pmFtwCfg0Reg;
 286:.\Generated_Source\PSoC5/CyLib.c ****     uint8 ilo100KhzEnable;
 287:.\Generated_Source\PSoC5/CyLib.c **** 
 288:.\Generated_Source\PSoC5/CyLib.c **** 
 289:.\Generated_Source\PSoC5/CyLib.c ****     CY_LIB_PM_ACT_CFG0_REG  |= CY_LIB_PM_ACT_CFG0_IMO_EN;
 290:.\Generated_Source\PSoC5/CyLib.c ****     CY_LIB_PM_STBY_CFG0_REG |= CY_LIB_PM_STBY_CFG0_IMO_EN;
 291:.\Generated_Source\PSoC5/CyLib.c **** 
 292:.\Generated_Source\PSoC5/CyLib.c ****     if(0u != wait)
 293:.\Generated_Source\PSoC5/CyLib.c ****     {
 294:.\Generated_Source\PSoC5/CyLib.c ****         /* Need to turn on 100KHz ILO if it happens to not already be running.*/
 295:.\Generated_Source\PSoC5/CyLib.c ****         ilo100KhzEnable = CY_LIB_SLOWCLK_ILO_CR0_REG & CY_LIB_SLOWCLK_ILO_CR0_EN_100KHZ;
 296:.\Generated_Source\PSoC5/CyLib.c ****         pmFtwCfg0Reg = CY_LIB_PM_TW_CFG0_REG;
 297:.\Generated_Source\PSoC5/CyLib.c ****         pmFtwCfg2Reg = CY_LIB_PM_TW_CFG2_REG;
 298:.\Generated_Source\PSoC5/CyLib.c **** 
 299:.\Generated_Source\PSoC5/CyLib.c ****         CyPmFtwSetInterval(CY_LIB_CLK_IMO_FTW_TIMEOUT);
 300:.\Generated_Source\PSoC5/CyLib.c **** 
 301:.\Generated_Source\PSoC5/CyLib.c ****         while (0u == (CY_PM_FTW_INT & CyPmReadStatus(CY_PM_FTW_INT)))
 302:.\Generated_Source\PSoC5/CyLib.c ****         {
 303:.\Generated_Source\PSoC5/CyLib.c ****             /* Wait for interrupt status */
 304:.\Generated_Source\PSoC5/CyLib.c ****         }
 305:.\Generated_Source\PSoC5/CyLib.c **** 
 306:.\Generated_Source\PSoC5/CyLib.c ****         if(0u == ilo100KhzEnable)
 307:.\Generated_Source\PSoC5/CyLib.c ****         {
 308:.\Generated_Source\PSoC5/CyLib.c ****             CyILO_Stop100K();
 309:.\Generated_Source\PSoC5/CyLib.c ****         }
 310:.\Generated_Source\PSoC5/CyLib.c **** 
 311:.\Generated_Source\PSoC5/CyLib.c ****         CY_LIB_PM_TW_CFG0_REG = pmFtwCfg0Reg;
 312:.\Generated_Source\PSoC5/CyLib.c ****         CY_LIB_PM_TW_CFG2_REG = pmFtwCfg2Reg;
 313:.\Generated_Source\PSoC5/CyLib.c ****     }
 314:.\Generated_Source\PSoC5/CyLib.c **** }
 315:.\Generated_Source\PSoC5/CyLib.c **** 
 316:.\Generated_Source\PSoC5/CyLib.c **** 
 317:.\Generated_Source\PSoC5/CyLib.c **** /*******************************************************************************
ARM GAS  C:\Users\student\AppData\Local\Temp\ccmWIiPR.s 			page 7


 318:.\Generated_Source\PSoC5/CyLib.c **** * Function Name: CyIMO_Stop
 319:.\Generated_Source\PSoC5/CyLib.c **** ****************************************************************************//**
 320:.\Generated_Source\PSoC5/CyLib.c **** *
 321:.\Generated_Source\PSoC5/CyLib.c **** *   Disables the IMO.
 322:.\Generated_Source\PSoC5/CyLib.c **** *
 323:.\Generated_Source\PSoC5/CyLib.c **** *******************************************************************************/
 324:.\Generated_Source\PSoC5/CyLib.c **** void CyIMO_Stop(void) 
 325:.\Generated_Source\PSoC5/CyLib.c **** {
 326:.\Generated_Source\PSoC5/CyLib.c ****     CY_LIB_PM_ACT_CFG0_REG  &= ((uint8) (~CY_LIB_PM_ACT_CFG0_IMO_EN));
 327:.\Generated_Source\PSoC5/CyLib.c ****     CY_LIB_PM_STBY_CFG0_REG &= ((uint8) (~CY_LIB_PM_STBY_CFG0_IMO_EN));
 328:.\Generated_Source\PSoC5/CyLib.c **** }
 329:.\Generated_Source\PSoC5/CyLib.c **** 
 330:.\Generated_Source\PSoC5/CyLib.c **** 
 331:.\Generated_Source\PSoC5/CyLib.c **** /*******************************************************************************
 332:.\Generated_Source\PSoC5/CyLib.c **** * Function Name: CyUSB_PowerOnCheck
 333:.\Generated_Source\PSoC5/CyLib.c **** ****************************************************************************//**
 334:.\Generated_Source\PSoC5/CyLib.c **** *
 335:.\Generated_Source\PSoC5/CyLib.c **** *  Returns the USB power status value. A private function to cy_boot.
 336:.\Generated_Source\PSoC5/CyLib.c **** *
 337:.\Generated_Source\PSoC5/CyLib.c **** * \return
 338:.\Generated_Source\PSoC5/CyLib.c **** *   uint8: one if the USB is enabled, 0 if not enabled.
 339:.\Generated_Source\PSoC5/CyLib.c **** *
 340:.\Generated_Source\PSoC5/CyLib.c **** *******************************************************************************/
 341:.\Generated_Source\PSoC5/CyLib.c **** static uint8 CyUSB_PowerOnCheck(void)  
 342:.\Generated_Source\PSoC5/CyLib.c **** {
  26              		.loc 1 342 0
  27              		.cfi_startproc
  28              		@ args = 0, pretend = 0, frame = 0
  29              		@ frame_needed = 0, uses_anonymous_args = 0
  30              		@ link register save eliminated.
  31              	.LVL0:
 343:.\Generated_Source\PSoC5/CyLib.c ****     uint8 poweredOn = 0u;
 344:.\Generated_Source\PSoC5/CyLib.c **** 
 345:.\Generated_Source\PSoC5/CyLib.c ****     /* Check whether device is in Active or AltActive and if USB is powered on */
 346:.\Generated_Source\PSoC5/CyLib.c ****     if((((CY_PM_MODE_CSR_REG & CY_PM_MODE_CSR_MASK) == CY_PM_MODE_CSR_ACTIVE ) &&
  32              		.loc 1 346 0
  33 0000 0E4B     		ldr	r3, .L7
  34 0002 1B78     		ldrb	r3, [r3]	@ zero_extendqisi2
  35 0004 13F0070F 		tst	r3, #7
  36 0008 04D1     		bne	.L2
 347:.\Generated_Source\PSoC5/CyLib.c ****        (0u != (CY_LIB_PM_ACT_CFG5_REG & CY_ACT_USB_ENABLED     )))  ||
  37              		.loc 1 347 0 discriminator 1
  38 000a 0D4B     		ldr	r3, .L7+4
  39 000c 1B78     		ldrb	r3, [r3]	@ zero_extendqisi2
 346:.\Generated_Source\PSoC5/CyLib.c ****        (0u != (CY_LIB_PM_ACT_CFG5_REG & CY_ACT_USB_ENABLED     )))  ||
  40              		.loc 1 346 0 discriminator 1
  41 000e 13F0010F 		tst	r3, #1
  42 0012 0CD1     		bne	.L4
  43              	.L2:
 348:.\Generated_Source\PSoC5/CyLib.c ****        (((CY_PM_MODE_CSR_REG & CY_PM_MODE_CSR_MASK) == CY_PM_MODE_CSR_ALT_ACT) &&
  44              		.loc 1 348 0
  45 0014 094B     		ldr	r3, .L7
  46 0016 1B78     		ldrb	r3, [r3]	@ zero_extendqisi2
  47 0018 03F00703 		and	r3, r3, #7
 347:.\Generated_Source\PSoC5/CyLib.c ****        (0u != (CY_LIB_PM_ACT_CFG5_REG & CY_ACT_USB_ENABLED     )))  ||
  48              		.loc 1 347 0
  49 001c 012B     		cmp	r3, #1
ARM GAS  C:\Users\student\AppData\Local\Temp\ccmWIiPR.s 			page 8


  50 001e 08D1     		bne	.L5
 349:.\Generated_Source\PSoC5/CyLib.c ****        (0u != (CY_LIB_PM_STBY_CFG5_REG & CY_ALT_ACT_USB_ENABLED))))
  51              		.loc 1 349 0
  52 0020 084B     		ldr	r3, .L7+8
  53 0022 1B78     		ldrb	r3, [r3]	@ zero_extendqisi2
 348:.\Generated_Source\PSoC5/CyLib.c ****        (((CY_PM_MODE_CSR_REG & CY_PM_MODE_CSR_MASK) == CY_PM_MODE_CSR_ALT_ACT) &&
  54              		.loc 1 348 0
  55 0024 13F0010F 		tst	r3, #1
  56 0028 05D1     		bne	.L6
 343:.\Generated_Source\PSoC5/CyLib.c **** 
  57              		.loc 1 343 0
  58 002a 0020     		movs	r0, #0
  59 002c 7047     		bx	lr
  60              	.L4:
 350:.\Generated_Source\PSoC5/CyLib.c ****     {
 351:.\Generated_Source\PSoC5/CyLib.c ****         poweredOn = 1u;
  61              		.loc 1 351 0
  62 002e 0120     		movs	r0, #1
  63 0030 7047     		bx	lr
  64              	.L5:
 343:.\Generated_Source\PSoC5/CyLib.c **** 
  65              		.loc 1 343 0
  66 0032 0020     		movs	r0, #0
  67 0034 7047     		bx	lr
  68              	.L6:
  69              		.loc 1 351 0
  70 0036 0120     		movs	r0, #1
  71              	.LVL1:
 352:.\Generated_Source\PSoC5/CyLib.c ****     }
 353:.\Generated_Source\PSoC5/CyLib.c **** 
 354:.\Generated_Source\PSoC5/CyLib.c ****     return (poweredOn);
 355:.\Generated_Source\PSoC5/CyLib.c **** }
  72              		.loc 1 355 0
  73 0038 7047     		bx	lr
  74              	.L8:
  75 003a 00BF     		.align	2
  76              	.L7:
  77 003c 93430040 		.word	1073759123
  78 0040 A5430040 		.word	1073759141
  79 0044 B5430040 		.word	1073759157
  80              		.cfi_endproc
  81              	.LFE6:
  82              		.size	CyUSB_PowerOnCheck, .-CyUSB_PowerOnCheck
  83              		.section	.text.CyBusClk_Internal_SetDivider,"ax",%progbits
  84              		.align	2
  85              		.thumb
  86              		.thumb_func
  87              		.type	CyBusClk_Internal_SetDivider, %function
  88              	CyBusClk_Internal_SetDivider:
  89              	.LFB14:
 356:.\Generated_Source\PSoC5/CyLib.c **** 
 357:.\Generated_Source\PSoC5/CyLib.c **** 
 358:.\Generated_Source\PSoC5/CyLib.c **** /*******************************************************************************
 359:.\Generated_Source\PSoC5/CyLib.c **** * Function Name: CyIMO_SetTrimValue
 360:.\Generated_Source\PSoC5/CyLib.c **** ****************************************************************************//**
 361:.\Generated_Source\PSoC5/CyLib.c **** *
 362:.\Generated_Source\PSoC5/CyLib.c **** *  Sets the IMO factory trim values.
ARM GAS  C:\Users\student\AppData\Local\Temp\ccmWIiPR.s 			page 9


 363:.\Generated_Source\PSoC5/CyLib.c **** *
 364:.\Generated_Source\PSoC5/CyLib.c **** *  uint8 freq - frequency for which trims must be set
 365:.\Generated_Source\PSoC5/CyLib.c **** *
 366:.\Generated_Source\PSoC5/CyLib.c **** *******************************************************************************/
 367:.\Generated_Source\PSoC5/CyLib.c **** static void CyIMO_SetTrimValue(uint8 freq) 
 368:.\Generated_Source\PSoC5/CyLib.c **** {
 369:.\Generated_Source\PSoC5/CyLib.c ****     uint8 usbPowerOn = CyUSB_PowerOnCheck();
 370:.\Generated_Source\PSoC5/CyLib.c **** 
 371:.\Generated_Source\PSoC5/CyLib.c ****     /* If USB is powered */
 372:.\Generated_Source\PSoC5/CyLib.c ****     if(usbPowerOn == 1u)
 373:.\Generated_Source\PSoC5/CyLib.c ****     {
 374:.\Generated_Source\PSoC5/CyLib.c ****         /* Unlock USB write */
 375:.\Generated_Source\PSoC5/CyLib.c ****         CY_LIB_USB_CR1_REG &= ((uint8)(~CY_LIB_USB_CLK_EN));
 376:.\Generated_Source\PSoC5/CyLib.c ****     }
 377:.\Generated_Source\PSoC5/CyLib.c ****     switch(freq)
 378:.\Generated_Source\PSoC5/CyLib.c ****     {
 379:.\Generated_Source\PSoC5/CyLib.c ****     case CY_IMO_FREQ_3MHZ:
 380:.\Generated_Source\PSoC5/CyLib.c ****         CY_LIB_IMO_TR1_REG = CY_GET_XTND_REG8(CY_LIB_TRIM_IMO_3MHZ_PTR);
 381:.\Generated_Source\PSoC5/CyLib.c ****         break;
 382:.\Generated_Source\PSoC5/CyLib.c **** 
 383:.\Generated_Source\PSoC5/CyLib.c ****     case CY_IMO_FREQ_6MHZ:
 384:.\Generated_Source\PSoC5/CyLib.c ****         CY_LIB_IMO_TR1_REG = CY_GET_XTND_REG8(CY_LIB_TRIM_IMO_6MHZ_PTR);
 385:.\Generated_Source\PSoC5/CyLib.c ****         break;
 386:.\Generated_Source\PSoC5/CyLib.c **** 
 387:.\Generated_Source\PSoC5/CyLib.c ****     case CY_IMO_FREQ_12MHZ:
 388:.\Generated_Source\PSoC5/CyLib.c ****         CY_LIB_IMO_TR1_REG = CY_GET_XTND_REG8(CY_LIB_TRIM_IMO_12MHZ_PTR);
 389:.\Generated_Source\PSoC5/CyLib.c ****         break;
 390:.\Generated_Source\PSoC5/CyLib.c **** 
 391:.\Generated_Source\PSoC5/CyLib.c ****     case CY_IMO_FREQ_24MHZ:
 392:.\Generated_Source\PSoC5/CyLib.c ****         CY_LIB_IMO_TR1_REG = CY_GET_XTND_REG8(CY_LIB_TRIM_IMO_24MHZ_PTR);
 393:.\Generated_Source\PSoC5/CyLib.c ****         break;
 394:.\Generated_Source\PSoC5/CyLib.c **** 
 395:.\Generated_Source\PSoC5/CyLib.c ****     case CY_IMO_FREQ_48MHZ:
 396:.\Generated_Source\PSoC5/CyLib.c ****         CY_LIB_IMO_TR1_REG = CY_GET_XTND_REG8(CY_LIB_TRIM_IMO_TR1_PTR);
 397:.\Generated_Source\PSoC5/CyLib.c ****         break;
 398:.\Generated_Source\PSoC5/CyLib.c **** 
 399:.\Generated_Source\PSoC5/CyLib.c ****     case CY_IMO_FREQ_62MHZ:
 400:.\Generated_Source\PSoC5/CyLib.c ****         CY_LIB_IMO_TR1_REG = CY_GET_XTND_REG8(CY_LIB_TRIM_IMO_67MHZ_PTR);
 401:.\Generated_Source\PSoC5/CyLib.c ****         break;
 402:.\Generated_Source\PSoC5/CyLib.c **** 
 403:.\Generated_Source\PSoC5/CyLib.c **** #if(CY_PSOC5)
 404:.\Generated_Source\PSoC5/CyLib.c ****     case CY_IMO_FREQ_74MHZ:
 405:.\Generated_Source\PSoC5/CyLib.c ****         CY_LIB_IMO_TR1_REG = CY_GET_XTND_REG8(CY_LIB_TRIM_IMO_80MHZ_PTR);
 406:.\Generated_Source\PSoC5/CyLib.c ****         break;
 407:.\Generated_Source\PSoC5/CyLib.c **** #endif  /* (CY_PSOC5) */
 408:.\Generated_Source\PSoC5/CyLib.c **** 
 409:.\Generated_Source\PSoC5/CyLib.c ****     case CY_IMO_FREQ_USB:
 410:.\Generated_Source\PSoC5/CyLib.c ****         CY_LIB_IMO_TR1_REG = CY_GET_XTND_REG8(CY_LIB_TRIM_IMO_USB_PTR);
 411:.\Generated_Source\PSoC5/CyLib.c **** 
 412:.\Generated_Source\PSoC5/CyLib.c ****         /* If USB is powered */
 413:.\Generated_Source\PSoC5/CyLib.c ****         if(usbPowerOn == 1u)
 414:.\Generated_Source\PSoC5/CyLib.c ****         {
 415:.\Generated_Source\PSoC5/CyLib.c ****             /* Lock USB Oscillator */
 416:.\Generated_Source\PSoC5/CyLib.c ****             CY_LIB_USB_CR1_REG |= CY_LIB_USB_CLK_EN;
 417:.\Generated_Source\PSoC5/CyLib.c ****         }
 418:.\Generated_Source\PSoC5/CyLib.c ****         break;
 419:.\Generated_Source\PSoC5/CyLib.c **** 
ARM GAS  C:\Users\student\AppData\Local\Temp\ccmWIiPR.s 			page 10


 420:.\Generated_Source\PSoC5/CyLib.c ****     default:
 421:.\Generated_Source\PSoC5/CyLib.c ****             CYASSERT(0u != 0u);
 422:.\Generated_Source\PSoC5/CyLib.c ****         break;
 423:.\Generated_Source\PSoC5/CyLib.c ****     }
 424:.\Generated_Source\PSoC5/CyLib.c **** 
 425:.\Generated_Source\PSoC5/CyLib.c **** }
 426:.\Generated_Source\PSoC5/CyLib.c **** 
 427:.\Generated_Source\PSoC5/CyLib.c **** 
 428:.\Generated_Source\PSoC5/CyLib.c **** /*******************************************************************************
 429:.\Generated_Source\PSoC5/CyLib.c **** * Function Name: CyIMO_SetFreq
 430:.\Generated_Source\PSoC5/CyLib.c **** ****************************************************************************//**
 431:.\Generated_Source\PSoC5/CyLib.c **** *
 432:.\Generated_Source\PSoC5/CyLib.c **** *  Sets the frequency of the IMO. Changes may be made while the IMO is running.
 433:.\Generated_Source\PSoC5/CyLib.c **** *
 434:.\Generated_Source\PSoC5/CyLib.c **** *  \param freq: Frequency of IMO operation
 435:.\Generated_Source\PSoC5/CyLib.c **** *       CY_IMO_FREQ_3MHZ  to set  3   MHz
 436:.\Generated_Source\PSoC5/CyLib.c **** *       CY_IMO_FREQ_6MHZ  to set  6   MHz
 437:.\Generated_Source\PSoC5/CyLib.c **** *       CY_IMO_FREQ_12MHZ to set 12   MHz
 438:.\Generated_Source\PSoC5/CyLib.c **** *       CY_IMO_FREQ_24MHZ to set 24   MHz
 439:.\Generated_Source\PSoC5/CyLib.c **** *       CY_IMO_FREQ_48MHZ to set 48   MHz
 440:.\Generated_Source\PSoC5/CyLib.c **** *       CY_IMO_FREQ_62MHZ to set 62.6 MHz
 441:.\Generated_Source\PSoC5/CyLib.c **** *       CY_IMO_FREQ_74MHZ to set 74.7 MHz (not applicable for PSoC 3)
 442:.\Generated_Source\PSoC5/CyLib.c **** *       CY_IMO_FREQ_USB   to set 24   MHz (Trimmed for USB operation)
 443:.\Generated_Source\PSoC5/CyLib.c **** *
 444:.\Generated_Source\PSoC5/CyLib.c **** * \sideeffect
 445:.\Generated_Source\PSoC5/CyLib.c **** *  If this function execution results in the CPU clock frequency increasing,
 446:.\Generated_Source\PSoC5/CyLib.c **** *  then the number of clock cycles the cache will wait before it samples data
 447:.\Generated_Source\PSoC5/CyLib.c **** *  coming back from the Flash must be adjusted by calling
 448:.\Generated_Source\PSoC5/CyLib.c **** *  CyFlash_SetWaitCycles() with an appropriate parameter. It can be optionally
 449:.\Generated_Source\PSoC5/CyLib.c **** *  called if the CPU clock frequency is lowered in order to improve the CPU
 450:.\Generated_Source\PSoC5/CyLib.c **** *  performance. See CyFlash_SetWaitCycles() description for more information.
 451:.\Generated_Source\PSoC5/CyLib.c **** *
 452:.\Generated_Source\PSoC5/CyLib.c **** *  When the USB setting is chosen, the USB clock locking circuit is enabled.
 453:.\Generated_Source\PSoC5/CyLib.c **** *  Otherwise this circuit is disabled. The USB block must be powered before
 454:.\Generated_Source\PSoC5/CyLib.c **** *  selecting the USB setting.
 455:.\Generated_Source\PSoC5/CyLib.c **** *
 456:.\Generated_Source\PSoC5/CyLib.c **** *******************************************************************************/
 457:.\Generated_Source\PSoC5/CyLib.c **** void CyIMO_SetFreq(uint8 freq) 
 458:.\Generated_Source\PSoC5/CyLib.c **** {
 459:.\Generated_Source\PSoC5/CyLib.c ****     uint8 currentFreq;
 460:.\Generated_Source\PSoC5/CyLib.c ****     uint8 nextFreq;
 461:.\Generated_Source\PSoC5/CyLib.c **** 
 462:.\Generated_Source\PSoC5/CyLib.c ****     /***************************************************************************
 463:.\Generated_Source\PSoC5/CyLib.c ****     * If the IMO frequency is changed,the Trim values must also be set
 464:.\Generated_Source\PSoC5/CyLib.c ****     * accordingly.This requires reading the current frequency. If the new
 465:.\Generated_Source\PSoC5/CyLib.c ****     * frequency is faster, then set a new trim and then change the frequency,
 466:.\Generated_Source\PSoC5/CyLib.c ****     * otherwise change the frequency and then set new trim values.
 467:.\Generated_Source\PSoC5/CyLib.c ****     ***************************************************************************/
 468:.\Generated_Source\PSoC5/CyLib.c **** 
 469:.\Generated_Source\PSoC5/CyLib.c ****     currentFreq = CY_LIB_FASTCLK_IMO_CR_REG & ((uint8)(~CY_LIB_FASTCLK_IMO_CR_RANGE_MASK));
 470:.\Generated_Source\PSoC5/CyLib.c **** 
 471:.\Generated_Source\PSoC5/CyLib.c ****     /* Check if requested frequency is USB. */
 472:.\Generated_Source\PSoC5/CyLib.c ****     nextFreq = (freq == CY_IMO_FREQ_USB) ? CY_IMO_FREQ_24MHZ : freq;
 473:.\Generated_Source\PSoC5/CyLib.c **** 
 474:.\Generated_Source\PSoC5/CyLib.c ****     switch (currentFreq)
 475:.\Generated_Source\PSoC5/CyLib.c ****     {
 476:.\Generated_Source\PSoC5/CyLib.c ****     case 0u:
ARM GAS  C:\Users\student\AppData\Local\Temp\ccmWIiPR.s 			page 11


 477:.\Generated_Source\PSoC5/CyLib.c ****         currentFreq = CY_IMO_FREQ_12MHZ;
 478:.\Generated_Source\PSoC5/CyLib.c ****         break;
 479:.\Generated_Source\PSoC5/CyLib.c **** 
 480:.\Generated_Source\PSoC5/CyLib.c ****     case 1u:
 481:.\Generated_Source\PSoC5/CyLib.c ****         currentFreq = CY_IMO_FREQ_6MHZ;
 482:.\Generated_Source\PSoC5/CyLib.c ****         break;
 483:.\Generated_Source\PSoC5/CyLib.c **** 
 484:.\Generated_Source\PSoC5/CyLib.c ****     case 2u:
 485:.\Generated_Source\PSoC5/CyLib.c ****         currentFreq = CY_IMO_FREQ_24MHZ;
 486:.\Generated_Source\PSoC5/CyLib.c ****         break;
 487:.\Generated_Source\PSoC5/CyLib.c **** 
 488:.\Generated_Source\PSoC5/CyLib.c ****     case 3u:
 489:.\Generated_Source\PSoC5/CyLib.c ****         currentFreq = CY_IMO_FREQ_3MHZ;
 490:.\Generated_Source\PSoC5/CyLib.c ****         break;
 491:.\Generated_Source\PSoC5/CyLib.c **** 
 492:.\Generated_Source\PSoC5/CyLib.c ****     case 4u:
 493:.\Generated_Source\PSoC5/CyLib.c ****         currentFreq = CY_IMO_FREQ_48MHZ;
 494:.\Generated_Source\PSoC5/CyLib.c ****         break;
 495:.\Generated_Source\PSoC5/CyLib.c **** 
 496:.\Generated_Source\PSoC5/CyLib.c ****     case 5u:
 497:.\Generated_Source\PSoC5/CyLib.c ****         currentFreq = CY_IMO_FREQ_62MHZ;
 498:.\Generated_Source\PSoC5/CyLib.c ****         break;
 499:.\Generated_Source\PSoC5/CyLib.c **** 
 500:.\Generated_Source\PSoC5/CyLib.c **** #if(CY_PSOC5)
 501:.\Generated_Source\PSoC5/CyLib.c ****     case 6u:
 502:.\Generated_Source\PSoC5/CyLib.c ****         currentFreq = CY_IMO_FREQ_74MHZ;
 503:.\Generated_Source\PSoC5/CyLib.c ****         break;
 504:.\Generated_Source\PSoC5/CyLib.c **** #endif  /* (CY_PSOC5) */
 505:.\Generated_Source\PSoC5/CyLib.c **** 
 506:.\Generated_Source\PSoC5/CyLib.c ****     default:
 507:.\Generated_Source\PSoC5/CyLib.c ****         CYASSERT(0u != 0u);
 508:.\Generated_Source\PSoC5/CyLib.c ****         break;
 509:.\Generated_Source\PSoC5/CyLib.c ****     }
 510:.\Generated_Source\PSoC5/CyLib.c **** 
 511:.\Generated_Source\PSoC5/CyLib.c ****     if (nextFreq >= currentFreq)
 512:.\Generated_Source\PSoC5/CyLib.c ****     {
 513:.\Generated_Source\PSoC5/CyLib.c ****         /* Set new trim first */
 514:.\Generated_Source\PSoC5/CyLib.c ****         CyIMO_SetTrimValue(freq);
 515:.\Generated_Source\PSoC5/CyLib.c ****     }
 516:.\Generated_Source\PSoC5/CyLib.c **** 
 517:.\Generated_Source\PSoC5/CyLib.c ****     /* Set usbclk_on bit when using CY_IMO_FREQ_USB, if not clear it */
 518:.\Generated_Source\PSoC5/CyLib.c ****     switch(freq)
 519:.\Generated_Source\PSoC5/CyLib.c ****     {
 520:.\Generated_Source\PSoC5/CyLib.c ****     case CY_IMO_FREQ_3MHZ:
 521:.\Generated_Source\PSoC5/CyLib.c ****         CY_LIB_FASTCLK_IMO_CR_REG = ((CY_LIB_FASTCLK_IMO_CR_REG & CY_LIB_FASTCLK_IMO_CR_RANGE_MASK)
 522:.\Generated_Source\PSoC5/CyLib.c ****             CY_LIB_IMO_3MHZ_VALUE) & ((uint8)(~CY_LIB_IMO_USBCLK_ON_SET));
 523:.\Generated_Source\PSoC5/CyLib.c ****         break;
 524:.\Generated_Source\PSoC5/CyLib.c **** 
 525:.\Generated_Source\PSoC5/CyLib.c ****     case CY_IMO_FREQ_6MHZ:
 526:.\Generated_Source\PSoC5/CyLib.c ****         CY_LIB_FASTCLK_IMO_CR_REG = ((CY_LIB_FASTCLK_IMO_CR_REG & CY_LIB_FASTCLK_IMO_CR_RANGE_MASK)
 527:.\Generated_Source\PSoC5/CyLib.c ****             CY_LIB_IMO_6MHZ_VALUE) & ((uint8)(~CY_LIB_IMO_USBCLK_ON_SET));
 528:.\Generated_Source\PSoC5/CyLib.c ****         break;
 529:.\Generated_Source\PSoC5/CyLib.c **** 
 530:.\Generated_Source\PSoC5/CyLib.c ****     case CY_IMO_FREQ_12MHZ:
 531:.\Generated_Source\PSoC5/CyLib.c ****         CY_LIB_FASTCLK_IMO_CR_REG = ((CY_LIB_FASTCLK_IMO_CR_REG & CY_LIB_FASTCLK_IMO_CR_RANGE_MASK)
 532:.\Generated_Source\PSoC5/CyLib.c ****             CY_LIB_IMO_12MHZ_VALUE) & ((uint8)(~CY_LIB_IMO_USBCLK_ON_SET));
 533:.\Generated_Source\PSoC5/CyLib.c ****         break;
ARM GAS  C:\Users\student\AppData\Local\Temp\ccmWIiPR.s 			page 12


 534:.\Generated_Source\PSoC5/CyLib.c **** 
 535:.\Generated_Source\PSoC5/CyLib.c ****     case CY_IMO_FREQ_24MHZ:
 536:.\Generated_Source\PSoC5/CyLib.c ****         CY_LIB_FASTCLK_IMO_CR_REG = ((CY_LIB_FASTCLK_IMO_CR_REG & CY_LIB_FASTCLK_IMO_CR_RANGE_MASK)
 537:.\Generated_Source\PSoC5/CyLib.c ****             CY_LIB_IMO_24MHZ_VALUE) & ((uint8)(~CY_LIB_IMO_USBCLK_ON_SET));
 538:.\Generated_Source\PSoC5/CyLib.c ****         break;
 539:.\Generated_Source\PSoC5/CyLib.c **** 
 540:.\Generated_Source\PSoC5/CyLib.c ****     case CY_IMO_FREQ_48MHZ:
 541:.\Generated_Source\PSoC5/CyLib.c ****         CY_LIB_FASTCLK_IMO_CR_REG = ((CY_LIB_FASTCLK_IMO_CR_REG & CY_LIB_FASTCLK_IMO_CR_RANGE_MASK)
 542:.\Generated_Source\PSoC5/CyLib.c ****             CY_LIB_IMO_48MHZ_VALUE) & ((uint8)(~CY_LIB_IMO_USBCLK_ON_SET));
 543:.\Generated_Source\PSoC5/CyLib.c ****         break;
 544:.\Generated_Source\PSoC5/CyLib.c **** 
 545:.\Generated_Source\PSoC5/CyLib.c ****     case CY_IMO_FREQ_62MHZ:
 546:.\Generated_Source\PSoC5/CyLib.c ****         CY_LIB_FASTCLK_IMO_CR_REG = ((CY_LIB_FASTCLK_IMO_CR_REG & CY_LIB_FASTCLK_IMO_CR_RANGE_MASK)
 547:.\Generated_Source\PSoC5/CyLib.c ****             CY_LIB_IMO_62MHZ_VALUE) & ((uint8)(~CY_LIB_IMO_USBCLK_ON_SET));
 548:.\Generated_Source\PSoC5/CyLib.c ****         break;
 549:.\Generated_Source\PSoC5/CyLib.c **** 
 550:.\Generated_Source\PSoC5/CyLib.c **** #if(CY_PSOC5)
 551:.\Generated_Source\PSoC5/CyLib.c ****     case CY_IMO_FREQ_74MHZ:
 552:.\Generated_Source\PSoC5/CyLib.c ****         CY_LIB_FASTCLK_IMO_CR_REG = ((CY_LIB_FASTCLK_IMO_CR_REG & CY_LIB_FASTCLK_IMO_CR_RANGE_MASK)
 553:.\Generated_Source\PSoC5/CyLib.c ****             CY_LIB_IMO_74MHZ_VALUE) & ((uint8)(~CY_LIB_IMO_USBCLK_ON_SET));
 554:.\Generated_Source\PSoC5/CyLib.c ****         break;
 555:.\Generated_Source\PSoC5/CyLib.c **** #endif  /* (CY_PSOC5) */
 556:.\Generated_Source\PSoC5/CyLib.c **** 
 557:.\Generated_Source\PSoC5/CyLib.c ****     case CY_IMO_FREQ_USB:
 558:.\Generated_Source\PSoC5/CyLib.c ****         CY_LIB_FASTCLK_IMO_CR_REG = ((CY_LIB_FASTCLK_IMO_CR_REG & CY_LIB_FASTCLK_IMO_CR_RANGE_MASK)
 559:.\Generated_Source\PSoC5/CyLib.c ****             CY_LIB_IMO_24MHZ_VALUE) | CY_LIB_IMO_USBCLK_ON_SET;
 560:.\Generated_Source\PSoC5/CyLib.c ****         break;
 561:.\Generated_Source\PSoC5/CyLib.c **** 
 562:.\Generated_Source\PSoC5/CyLib.c ****     default:
 563:.\Generated_Source\PSoC5/CyLib.c ****         CYASSERT(0u != 0u);
 564:.\Generated_Source\PSoC5/CyLib.c ****         break;
 565:.\Generated_Source\PSoC5/CyLib.c ****     }
 566:.\Generated_Source\PSoC5/CyLib.c **** 
 567:.\Generated_Source\PSoC5/CyLib.c ****     /* Tu rn onIMO Doubler, if switching to CY_IMO_FREQ_USB */
 568:.\Generated_Source\PSoC5/CyLib.c ****     if (freq == CY_IMO_FREQ_USB)
 569:.\Generated_Source\PSoC5/CyLib.c ****     {
 570:.\Generated_Source\PSoC5/CyLib.c ****         CyIMO_EnableDoubler();
 571:.\Generated_Source\PSoC5/CyLib.c ****     }
 572:.\Generated_Source\PSoC5/CyLib.c ****     else
 573:.\Generated_Source\PSoC5/CyLib.c ****     {
 574:.\Generated_Source\PSoC5/CyLib.c ****         CyIMO_DisableDoubler();
 575:.\Generated_Source\PSoC5/CyLib.c ****     }
 576:.\Generated_Source\PSoC5/CyLib.c **** 
 577:.\Generated_Source\PSoC5/CyLib.c ****     if (nextFreq < currentFreq)
 578:.\Generated_Source\PSoC5/CyLib.c ****     {
 579:.\Generated_Source\PSoC5/CyLib.c ****         /* Set the trim after setting frequency */
 580:.\Generated_Source\PSoC5/CyLib.c ****         CyIMO_SetTrimValue(freq);
 581:.\Generated_Source\PSoC5/CyLib.c ****     }
 582:.\Generated_Source\PSoC5/CyLib.c **** }
 583:.\Generated_Source\PSoC5/CyLib.c **** 
 584:.\Generated_Source\PSoC5/CyLib.c **** 
 585:.\Generated_Source\PSoC5/CyLib.c **** /*******************************************************************************
 586:.\Generated_Source\PSoC5/CyLib.c **** * Function Name: CyIMO_SetSource
 587:.\Generated_Source\PSoC5/CyLib.c **** ****************************************************************************//**
 588:.\Generated_Source\PSoC5/CyLib.c **** *
 589:.\Generated_Source\PSoC5/CyLib.c **** *  Sets the source of the clock output from the IMO block.
 590:.\Generated_Source\PSoC5/CyLib.c **** *
ARM GAS  C:\Users\student\AppData\Local\Temp\ccmWIiPR.s 			page 13


 591:.\Generated_Source\PSoC5/CyLib.c **** *  The output from the IMO is by default the IMO itself. Optionally the MHz
 592:.\Generated_Source\PSoC5/CyLib.c **** *  Crystal or DSI input can be the source of the IMO output instead.
 593:.\Generated_Source\PSoC5/CyLib.c **** *
 594:.\Generated_Source\PSoC5/CyLib.c **** *   \param source: CY_IMO_SOURCE_DSI to set the DSI as source.
 595:.\Generated_Source\PSoC5/CyLib.c **** *           CY_IMO_SOURCE_XTAL to set the MHz as source.
 596:.\Generated_Source\PSoC5/CyLib.c **** *           CY_IMO_SOURCE_IMO to set the IMO itself.
 597:.\Generated_Source\PSoC5/CyLib.c **** *
 598:.\Generated_Source\PSoC5/CyLib.c **** * \sideeffect
 599:.\Generated_Source\PSoC5/CyLib.c **** *  If this function execution resulted in the CPU clock frequency increasing,
 600:.\Generated_Source\PSoC5/CyLib.c **** *  then the number of clock cycles the cache will wait before it samples data
 601:.\Generated_Source\PSoC5/CyLib.c **** *  coming back from the Flash must be adjusted by calling
 602:.\Generated_Source\PSoC5/CyLib.c **** *  CyFlash_SetWaitCycles() with an appropriate parameter. It can be optionally
 603:.\Generated_Source\PSoC5/CyLib.c **** *  called if the CPU clock frequency is lowered in order to improve the CPU
 604:.\Generated_Source\PSoC5/CyLib.c **** *  performance. See CyFlash_SetWaitCycles() description for more information.
 605:.\Generated_Source\PSoC5/CyLib.c **** *
 606:.\Generated_Source\PSoC5/CyLib.c **** *******************************************************************************/
 607:.\Generated_Source\PSoC5/CyLib.c **** void CyIMO_SetSource(uint8 source) 
 608:.\Generated_Source\PSoC5/CyLib.c **** {
 609:.\Generated_Source\PSoC5/CyLib.c ****     switch(source)
 610:.\Generated_Source\PSoC5/CyLib.c ****     {
 611:.\Generated_Source\PSoC5/CyLib.c ****     case CY_IMO_SOURCE_DSI:
 612:.\Generated_Source\PSoC5/CyLib.c ****         CY_LIB_CLKDIST_CR_REG     &= ((uint8)(~CY_LIB_CLKDIST_CR_IMO2X));
 613:.\Generated_Source\PSoC5/CyLib.c ****         CY_LIB_FASTCLK_IMO_CR_REG |= CY_LIB_FASTCLK_IMO_IMO;
 614:.\Generated_Source\PSoC5/CyLib.c ****         break;
 615:.\Generated_Source\PSoC5/CyLib.c **** 
 616:.\Generated_Source\PSoC5/CyLib.c ****     case CY_IMO_SOURCE_XTAL:
 617:.\Generated_Source\PSoC5/CyLib.c ****         CY_LIB_CLKDIST_CR_REG     |= CY_LIB_CLKDIST_CR_IMO2X;
 618:.\Generated_Source\PSoC5/CyLib.c ****         CY_LIB_FASTCLK_IMO_CR_REG |= CY_LIB_FASTCLK_IMO_IMO;
 619:.\Generated_Source\PSoC5/CyLib.c ****         break;
 620:.\Generated_Source\PSoC5/CyLib.c **** 
 621:.\Generated_Source\PSoC5/CyLib.c ****     case CY_IMO_SOURCE_IMO:
 622:.\Generated_Source\PSoC5/CyLib.c ****         CY_LIB_FASTCLK_IMO_CR_REG &= ((uint8)(~CY_LIB_FASTCLK_IMO_IMO));
 623:.\Generated_Source\PSoC5/CyLib.c ****         break;
 624:.\Generated_Source\PSoC5/CyLib.c **** 
 625:.\Generated_Source\PSoC5/CyLib.c ****     default:
 626:.\Generated_Source\PSoC5/CyLib.c ****         /* Incorrect source value */
 627:.\Generated_Source\PSoC5/CyLib.c ****         CYASSERT(0u != 0u);
 628:.\Generated_Source\PSoC5/CyLib.c ****         break;
 629:.\Generated_Source\PSoC5/CyLib.c ****     }
 630:.\Generated_Source\PSoC5/CyLib.c **** }
 631:.\Generated_Source\PSoC5/CyLib.c **** 
 632:.\Generated_Source\PSoC5/CyLib.c **** 
 633:.\Generated_Source\PSoC5/CyLib.c **** /*******************************************************************************
 634:.\Generated_Source\PSoC5/CyLib.c **** * Function Name: CyIMO_EnableDoubler
 635:.\Generated_Source\PSoC5/CyLib.c **** ****************************************************************************//**
 636:.\Generated_Source\PSoC5/CyLib.c **** *
 637:.\Generated_Source\PSoC5/CyLib.c **** *  Enables the IMO doubler.  The 2x frequency clock is used to convert a 24 MHz
 638:.\Generated_Source\PSoC5/CyLib.c **** *  input to a 48 MHz output for use by the USB block.
 639:.\Generated_Source\PSoC5/CyLib.c **** *
 640:.\Generated_Source\PSoC5/CyLib.c **** *******************************************************************************/
 641:.\Generated_Source\PSoC5/CyLib.c **** void CyIMO_EnableDoubler(void) 
 642:.\Generated_Source\PSoC5/CyLib.c **** {
 643:.\Generated_Source\PSoC5/CyLib.c ****     /* Set FASTCLK_IMO_CR_PTR regigster's 4th bit */
 644:.\Generated_Source\PSoC5/CyLib.c ****     CY_LIB_FASTCLK_IMO_CR_REG |= CY_LIB_FASTCLK_IMO_DOUBLER;
 645:.\Generated_Source\PSoC5/CyLib.c **** }
 646:.\Generated_Source\PSoC5/CyLib.c **** 
 647:.\Generated_Source\PSoC5/CyLib.c **** 
ARM GAS  C:\Users\student\AppData\Local\Temp\ccmWIiPR.s 			page 14


 648:.\Generated_Source\PSoC5/CyLib.c **** /*******************************************************************************
 649:.\Generated_Source\PSoC5/CyLib.c **** * Function Name: CyIMO_DisableDoubler
 650:.\Generated_Source\PSoC5/CyLib.c **** ****************************************************************************//**
 651:.\Generated_Source\PSoC5/CyLib.c **** *
 652:.\Generated_Source\PSoC5/CyLib.c **** *   Disables the IMO doubler.
 653:.\Generated_Source\PSoC5/CyLib.c **** *
 654:.\Generated_Source\PSoC5/CyLib.c **** *******************************************************************************/
 655:.\Generated_Source\PSoC5/CyLib.c **** void CyIMO_DisableDoubler(void) 
 656:.\Generated_Source\PSoC5/CyLib.c **** {
 657:.\Generated_Source\PSoC5/CyLib.c ****     CY_LIB_FASTCLK_IMO_CR_REG &= ((uint8)(~CY_LIB_FASTCLK_IMO_DOUBLER));
 658:.\Generated_Source\PSoC5/CyLib.c **** }
 659:.\Generated_Source\PSoC5/CyLib.c **** 
 660:.\Generated_Source\PSoC5/CyLib.c **** 
 661:.\Generated_Source\PSoC5/CyLib.c **** /*******************************************************************************
 662:.\Generated_Source\PSoC5/CyLib.c **** * Function Name: CyMasterClk_SetSource
 663:.\Generated_Source\PSoC5/CyLib.c **** ****************************************************************************//**
 664:.\Generated_Source\PSoC5/CyLib.c **** *
 665:.\Generated_Source\PSoC5/CyLib.c **** *  Sets the source of the master clock.
 666:.\Generated_Source\PSoC5/CyLib.c **** *
 667:.\Generated_Source\PSoC5/CyLib.c **** *   \param source: One of the four available Master clock sources.
 668:.\Generated_Source\PSoC5/CyLib.c **** *     CY_MASTER_SOURCE_IMO
 669:.\Generated_Source\PSoC5/CyLib.c **** *     CY_MASTER_SOURCE_PLL
 670:.\Generated_Source\PSoC5/CyLib.c **** *     CY_MASTER_SOURCE_XTAL
 671:.\Generated_Source\PSoC5/CyLib.c **** *     CY_MASTER_SOURCE_DSI
 672:.\Generated_Source\PSoC5/CyLib.c **** *
 673:.\Generated_Source\PSoC5/CyLib.c **** * \sideeffect
 674:.\Generated_Source\PSoC5/CyLib.c **** *  The current source and the new source must both be running and stable before
 675:.\Generated_Source\PSoC5/CyLib.c **** *  calling this function.
 676:.\Generated_Source\PSoC5/CyLib.c **** *
 677:.\Generated_Source\PSoC5/CyLib.c **** *  If this function execution resulted in the CPU clock frequency increasing,
 678:.\Generated_Source\PSoC5/CyLib.c **** *  then the number of clock cycles the cache will wait before it samples data
 679:.\Generated_Source\PSoC5/CyLib.c **** *  coming back from the Flash must be adjusted by calling
 680:.\Generated_Source\PSoC5/CyLib.c **** *  CyFlash_SetWaitCycles() with an appropriate parameter. It can be optionally
 681:.\Generated_Source\PSoC5/CyLib.c **** *  called if the CPU clock frequency is lowered in order to improve the CPU
 682:.\Generated_Source\PSoC5/CyLib.c **** *  performance. See CyFlash_SetWaitCycles() description for more information.
 683:.\Generated_Source\PSoC5/CyLib.c **** *
 684:.\Generated_Source\PSoC5/CyLib.c **** *******************************************************************************/
 685:.\Generated_Source\PSoC5/CyLib.c **** void CyMasterClk_SetSource(uint8 source) 
 686:.\Generated_Source\PSoC5/CyLib.c **** {
 687:.\Generated_Source\PSoC5/CyLib.c ****     CY_LIB_CLKDIST_MSTR1_REG = (CY_LIB_CLKDIST_MSTR1_REG & MASTER_CLK_SRC_CLEAR) |
 688:.\Generated_Source\PSoC5/CyLib.c ****                                 (source & ((uint8)(~MASTER_CLK_SRC_CLEAR)));
 689:.\Generated_Source\PSoC5/CyLib.c **** }
 690:.\Generated_Source\PSoC5/CyLib.c **** 
 691:.\Generated_Source\PSoC5/CyLib.c **** 
 692:.\Generated_Source\PSoC5/CyLib.c **** /*******************************************************************************
 693:.\Generated_Source\PSoC5/CyLib.c **** * Function Name: CyMasterClk_SetDivider
 694:.\Generated_Source\PSoC5/CyLib.c **** ****************************************************************************//**
 695:.\Generated_Source\PSoC5/CyLib.c **** *
 696:.\Generated_Source\PSoC5/CyLib.c **** *  Sets the divider value used to generate Master Clock.
 697:.\Generated_Source\PSoC5/CyLib.c **** *
 698:.\Generated_Source\PSoC5/CyLib.c **** *  \param uint8 divider:
 699:.\Generated_Source\PSoC5/CyLib.c **** *   The valid range is [0-255]. The clock will be divided by this value + 1.
 700:.\Generated_Source\PSoC5/CyLib.c **** *   For example to divide this parameter by two should be set to 1.
 701:.\Generated_Source\PSoC5/CyLib.c **** *
 702:.\Generated_Source\PSoC5/CyLib.c **** * \sideeffect
 703:.\Generated_Source\PSoC5/CyLib.c **** *  If this function execution resulted in the CPU clock frequency increasing,
 704:.\Generated_Source\PSoC5/CyLib.c **** *  then the number of clock cycles the cache will wait before it samples data
ARM GAS  C:\Users\student\AppData\Local\Temp\ccmWIiPR.s 			page 15


 705:.\Generated_Source\PSoC5/CyLib.c **** *  coming back from the Flash must be adjusted by calling
 706:.\Generated_Source\PSoC5/CyLib.c **** *  CyFlash_SetWaitCycles() with an appropriate parameter. It can be optionally
 707:.\Generated_Source\PSoC5/CyLib.c **** *  called if the CPU clock frequency is lowered in order to improve the CPU
 708:.\Generated_Source\PSoC5/CyLib.c **** *  performance. See CyFlash_SetWaitCycles() description for more information.
 709:.\Generated_Source\PSoC5/CyLib.c **** *
 710:.\Generated_Source\PSoC5/CyLib.c **** *  When changing the Master or Bus clock divider value from div-by-n to div-by-1
 711:.\Generated_Source\PSoC5/CyLib.c **** *  the first clock cycle output after the div-by-1 can be up to 4 ns shorter
 712:.\Generated_Source\PSoC5/CyLib.c **** *  than the final/expected div-by-1 period.
 713:.\Generated_Source\PSoC5/CyLib.c **** *
 714:.\Generated_Source\PSoC5/CyLib.c **** *******************************************************************************/
 715:.\Generated_Source\PSoC5/CyLib.c **** void CyMasterClk_SetDivider(uint8 divider) 
 716:.\Generated_Source\PSoC5/CyLib.c **** {
 717:.\Generated_Source\PSoC5/CyLib.c ****     CY_LIB_CLKDIST_MSTR0_REG = divider;
 718:.\Generated_Source\PSoC5/CyLib.c **** }
 719:.\Generated_Source\PSoC5/CyLib.c **** 
 720:.\Generated_Source\PSoC5/CyLib.c **** 
 721:.\Generated_Source\PSoC5/CyLib.c **** /*******************************************************************************
 722:.\Generated_Source\PSoC5/CyLib.c **** * Function Name: CyBusClk_Internal_SetDivider
 723:.\Generated_Source\PSoC5/CyLib.c **** ****************************************************************************//**
 724:.\Generated_Source\PSoC5/CyLib.c **** *
 725:.\Generated_Source\PSoC5/CyLib.c **** *  The function used by CyBusClk_SetDivider(). For internal use only.
 726:.\Generated_Source\PSoC5/CyLib.c **** *
 727:.\Generated_Source\PSoC5/CyLib.c **** *   \param divider: Valid range [0-65535].
 728:.\Generated_Source\PSoC5/CyLib.c **** *   The clock will be divided by this value + 1.
 729:.\Generated_Source\PSoC5/CyLib.c **** *   For example, to divide this parameter by two should be set to 1.
 730:.\Generated_Source\PSoC5/CyLib.c **** *
 731:.\Generated_Source\PSoC5/CyLib.c **** *******************************************************************************/
 732:.\Generated_Source\PSoC5/CyLib.c **** static void CyBusClk_Internal_SetDivider(uint16 divider)
 733:.\Generated_Source\PSoC5/CyLib.c **** {
  90              		.loc 1 733 0
  91              		.cfi_startproc
  92              		@ args = 0, pretend = 0, frame = 0
  93              		@ frame_needed = 0, uses_anonymous_args = 0
  94              		@ link register save eliminated.
  95              	.LVL2:
 734:.\Generated_Source\PSoC5/CyLib.c ****     /* Mask bits to enable shadow loads  */
 735:.\Generated_Source\PSoC5/CyLib.c ****     CY_LIB_CLKDIST_AMASK_REG &= CY_LIB_CLKDIST_AMASK_MASK;
  96              		.loc 1 735 0
  97 0000 0C4A     		ldr	r2, .L10
  98 0002 1378     		ldrb	r3, [r2]	@ zero_extendqisi2
  99 0004 03F0F003 		and	r3, r3, #240
 100 0008 1370     		strb	r3, [r2]
 736:.\Generated_Source\PSoC5/CyLib.c ****     CY_LIB_CLKDIST_DMASK_REG  = CY_LIB_CLKDIST_DMASK_MASK;
 101              		.loc 1 736 0
 102 000a 0022     		movs	r2, #0
 103 000c 0A4B     		ldr	r3, .L10+4
 104 000e 1A70     		strb	r2, [r3]
 737:.\Generated_Source\PSoC5/CyLib.c **** 
 738:.\Generated_Source\PSoC5/CyLib.c ****     /* Enable mask bits to enable shadow loads */
 739:.\Generated_Source\PSoC5/CyLib.c ****     CY_LIB_CLKDIST_BCFG2_REG |= CY_LIB_CLKDIST_BCFG2_MASK;
 105              		.loc 1 739 0
 106 0010 0A4A     		ldr	r2, .L10+8
 107 0012 1378     		ldrb	r3, [r2]	@ zero_extendqisi2
 108 0014 43F08003 		orr	r3, r3, #128
 109 0018 1370     		strb	r3, [r2]
 740:.\Generated_Source\PSoC5/CyLib.c **** 
 741:.\Generated_Source\PSoC5/CyLib.c ****     /* Update Shadow Divider Value Register with new divider */
ARM GAS  C:\Users\student\AppData\Local\Temp\ccmWIiPR.s 			page 16


 742:.\Generated_Source\PSoC5/CyLib.c ****     CY_LIB_CLKDIST_WRK_LSB_REG = LO8(divider);
 110              		.loc 1 742 0
 111 001a C2B2     		uxtb	r2, r0
 112 001c 084B     		ldr	r3, .L10+12
 113 001e 1A70     		strb	r2, [r3]
 743:.\Generated_Source\PSoC5/CyLib.c ****     CY_LIB_CLKDIST_WRK_MSB_REG = HI8(divider);
 114              		.loc 1 743 0
 115 0020 000A     		lsrs	r0, r0, #8
 116              	.LVL3:
 117 0022 0133     		adds	r3, r3, #1
 118 0024 1870     		strb	r0, [r3]
 744:.\Generated_Source\PSoC5/CyLib.c **** 
 745:.\Generated_Source\PSoC5/CyLib.c **** 
 746:.\Generated_Source\PSoC5/CyLib.c ****     /***************************************************************************
 747:.\Generated_Source\PSoC5/CyLib.c ****     * Copy shadow value defined in Shadow Divider Value Register
 748:.\Generated_Source\PSoC5/CyLib.c ****     * (CY_LIB_CLKDIST_WRK_LSB_REG and CY_LIB_CLKDIST_WRK_MSB_REG) to all
 749:.\Generated_Source\PSoC5/CyLib.c ****     * dividers selected in Analog and Digital Clock Mask Registers
 750:.\Generated_Source\PSoC5/CyLib.c ****     * (CY_LIB_CLKDIST_AMASK_REG and CY_LIB_CLKDIST_DMASK_REG).
 751:.\Generated_Source\PSoC5/CyLib.c ****     ***************************************************************************/
 752:.\Generated_Source\PSoC5/CyLib.c ****     CY_LIB_CLKDIST_LD_REG |= CY_LIB_CLKDIST_LD_LOAD;
 119              		.loc 1 752 0
 120 0026 074A     		ldr	r2, .L10+16
 121 0028 1378     		ldrb	r3, [r2]	@ zero_extendqisi2
 122 002a 43F00103 		orr	r3, r3, #1
 123 002e 1370     		strb	r3, [r2]
 124 0030 7047     		bx	lr
 125              	.L11:
 126 0032 00BF     		.align	2
 127              	.L10:
 128 0034 14400040 		.word	1073758228
 129 0038 10400040 		.word	1073758224
 130 003c 08400040 		.word	1073758216
 131 0040 02400040 		.word	1073758210
 132 0044 01400040 		.word	1073758209
 133              		.cfi_endproc
 134              	.LFE14:
 135              		.size	CyBusClk_Internal_SetDivider, .-CyBusClk_Internal_SetDivider
 136              		.section	.text.CyPLL_OUT_Stop,"ax",%progbits
 137              		.align	2
 138              		.global	CyPLL_OUT_Stop
 139              		.thumb
 140              		.thumb_func
 141              		.type	CyPLL_OUT_Stop, %function
 142              	CyPLL_OUT_Stop:
 143              	.LFB1:
 155:.\Generated_Source\PSoC5/CyLib.c ****     CY_CLK_PLL_CFG0_REG &= ((uint8)(~CY_CLK_PLL_ENABLE));
 144              		.loc 1 155 0
 145              		.cfi_startproc
 146              		@ args = 0, pretend = 0, frame = 0
 147              		@ frame_needed = 0, uses_anonymous_args = 0
 148              		@ link register save eliminated.
 156:.\Generated_Source\PSoC5/CyLib.c **** }
 149              		.loc 1 156 0
 150 0000 024A     		ldr	r2, .L13
 151 0002 1378     		ldrb	r3, [r2]	@ zero_extendqisi2
 152 0004 03F0FE03 		and	r3, r3, #254
 153 0008 1370     		strb	r3, [r2]
ARM GAS  C:\Users\student\AppData\Local\Temp\ccmWIiPR.s 			page 17


 154 000a 7047     		bx	lr
 155              	.L14:
 156              		.align	2
 157              	.L13:
 158 000c 20420040 		.word	1073758752
 159              		.cfi_endproc
 160              	.LFE1:
 161              		.size	CyPLL_OUT_Stop, .-CyPLL_OUT_Stop
 162              		.section	.text.CyIMO_Stop,"ax",%progbits
 163              		.align	2
 164              		.global	CyIMO_Stop
 165              		.thumb
 166              		.thumb_func
 167              		.type	CyIMO_Stop, %function
 168              	CyIMO_Stop:
 169              	.LFB5:
 325:.\Generated_Source\PSoC5/CyLib.c ****     CY_LIB_PM_ACT_CFG0_REG  &= ((uint8) (~CY_LIB_PM_ACT_CFG0_IMO_EN));
 170              		.loc 1 325 0
 171              		.cfi_startproc
 172              		@ args = 0, pretend = 0, frame = 0
 173              		@ frame_needed = 0, uses_anonymous_args = 0
 174              		@ link register save eliminated.
 326:.\Generated_Source\PSoC5/CyLib.c ****     CY_LIB_PM_STBY_CFG0_REG &= ((uint8) (~CY_LIB_PM_STBY_CFG0_IMO_EN));
 175              		.loc 1 326 0
 176 0000 054A     		ldr	r2, .L16
 177 0002 1378     		ldrb	r3, [r2]	@ zero_extendqisi2
 178 0004 03F0EF03 		and	r3, r3, #239
 179 0008 1370     		strb	r3, [r2]
 327:.\Generated_Source\PSoC5/CyLib.c **** }
 180              		.loc 1 327 0
 181 000a 1032     		adds	r2, r2, #16
 182 000c 1378     		ldrb	r3, [r2]	@ zero_extendqisi2
 183 000e 03F0EF03 		and	r3, r3, #239
 184 0012 1370     		strb	r3, [r2]
 185 0014 7047     		bx	lr
 186              	.L17:
 187 0016 00BF     		.align	2
 188              	.L16:
 189 0018 A0430040 		.word	1073759136
 190              		.cfi_endproc
 191              	.LFE5:
 192              		.size	CyIMO_Stop, .-CyIMO_Stop
 193              		.section	.text.CyIMO_EnableDoubler,"ax",%progbits
 194              		.align	2
 195              		.global	CyIMO_EnableDoubler
 196              		.thumb
 197              		.thumb_func
 198              		.type	CyIMO_EnableDoubler, %function
 199              	CyIMO_EnableDoubler:
 200              	.LFB10:
 642:.\Generated_Source\PSoC5/CyLib.c ****     /* Set FASTCLK_IMO_CR_PTR regigster's 4th bit */
 201              		.loc 1 642 0
 202              		.cfi_startproc
 203              		@ args = 0, pretend = 0, frame = 0
 204              		@ frame_needed = 0, uses_anonymous_args = 0
 205              		@ link register save eliminated.
 644:.\Generated_Source\PSoC5/CyLib.c **** }
ARM GAS  C:\Users\student\AppData\Local\Temp\ccmWIiPR.s 			page 18


 206              		.loc 1 644 0
 207 0000 024A     		ldr	r2, .L19
 208 0002 1378     		ldrb	r3, [r2]	@ zero_extendqisi2
 209 0004 43F01003 		orr	r3, r3, #16
 210 0008 1370     		strb	r3, [r2]
 211 000a 7047     		bx	lr
 212              	.L20:
 213              		.align	2
 214              	.L19:
 215 000c 00420040 		.word	1073758720
 216              		.cfi_endproc
 217              	.LFE10:
 218              		.size	CyIMO_EnableDoubler, .-CyIMO_EnableDoubler
 219              		.section	.text.CyIMO_DisableDoubler,"ax",%progbits
 220              		.align	2
 221              		.global	CyIMO_DisableDoubler
 222              		.thumb
 223              		.thumb_func
 224              		.type	CyIMO_DisableDoubler, %function
 225              	CyIMO_DisableDoubler:
 226              	.LFB11:
 656:.\Generated_Source\PSoC5/CyLib.c ****     CY_LIB_FASTCLK_IMO_CR_REG &= ((uint8)(~CY_LIB_FASTCLK_IMO_DOUBLER));
 227              		.loc 1 656 0
 228              		.cfi_startproc
 229              		@ args = 0, pretend = 0, frame = 0
 230              		@ frame_needed = 0, uses_anonymous_args = 0
 231              		@ link register save eliminated.
 657:.\Generated_Source\PSoC5/CyLib.c **** }
 232              		.loc 1 657 0
 233 0000 024A     		ldr	r2, .L22
 234 0002 1378     		ldrb	r3, [r2]	@ zero_extendqisi2
 235 0004 03F0EF03 		and	r3, r3, #239
 236 0008 1370     		strb	r3, [r2]
 237 000a 7047     		bx	lr
 238              	.L23:
 239              		.align	2
 240              	.L22:
 241 000c 00420040 		.word	1073758720
 242              		.cfi_endproc
 243              	.LFE11:
 244              		.size	CyIMO_DisableDoubler, .-CyIMO_DisableDoubler
 245              		.section	.text.CyMasterClk_SetSource,"ax",%progbits
 246              		.align	2
 247              		.global	CyMasterClk_SetSource
 248              		.thumb
 249              		.thumb_func
 250              		.type	CyMasterClk_SetSource, %function
 251              	CyMasterClk_SetSource:
 252              	.LFB12:
 686:.\Generated_Source\PSoC5/CyLib.c ****     CY_LIB_CLKDIST_MSTR1_REG = (CY_LIB_CLKDIST_MSTR1_REG & MASTER_CLK_SRC_CLEAR) |
 253              		.loc 1 686 0
 254              		.cfi_startproc
 255              		@ args = 0, pretend = 0, frame = 0
 256              		@ frame_needed = 0, uses_anonymous_args = 0
 257              		@ link register save eliminated.
 258              	.LVL4:
 687:.\Generated_Source\PSoC5/CyLib.c ****                                 (source & ((uint8)(~MASTER_CLK_SRC_CLEAR)));
ARM GAS  C:\Users\student\AppData\Local\Temp\ccmWIiPR.s 			page 19


 259              		.loc 1 687 0
 260 0000 044A     		ldr	r2, .L25
 261 0002 1378     		ldrb	r3, [r2]	@ zero_extendqisi2
 262 0004 03F0FC03 		and	r3, r3, #252
 263 0008 00F00300 		and	r0, r0, #3
 264              	.LVL5:
 265 000c 1843     		orrs	r0, r0, r3
 266 000e 1070     		strb	r0, [r2]
 267 0010 7047     		bx	lr
 268              	.L26:
 269 0012 00BF     		.align	2
 270              	.L25:
 271 0014 05400040 		.word	1073758213
 272              		.cfi_endproc
 273              	.LFE12:
 274              		.size	CyMasterClk_SetSource, .-CyMasterClk_SetSource
 275              		.section	.text.CyMasterClk_SetDivider,"ax",%progbits
 276              		.align	2
 277              		.global	CyMasterClk_SetDivider
 278              		.thumb
 279              		.thumb_func
 280              		.type	CyMasterClk_SetDivider, %function
 281              	CyMasterClk_SetDivider:
 282              	.LFB13:
 716:.\Generated_Source\PSoC5/CyLib.c ****     CY_LIB_CLKDIST_MSTR0_REG = divider;
 283              		.loc 1 716 0
 284              		.cfi_startproc
 285              		@ args = 0, pretend = 0, frame = 0
 286              		@ frame_needed = 0, uses_anonymous_args = 0
 287              		@ link register save eliminated.
 288              	.LVL6:
 717:.\Generated_Source\PSoC5/CyLib.c **** }
 289              		.loc 1 717 0
 290 0000 014B     		ldr	r3, .L28
 291 0002 1870     		strb	r0, [r3]
 292 0004 7047     		bx	lr
 293              	.L29:
 294 0006 00BF     		.align	2
 295              	.L28:
 296 0008 04400040 		.word	1073758212
 297              		.cfi_endproc
 298              	.LFE13:
 299              		.size	CyMasterClk_SetDivider, .-CyMasterClk_SetDivider
 300              		.section	.text.CyBusClk_SetDivider,"ax",%progbits
 301              		.align	2
 302              		.global	CyBusClk_SetDivider
 303              		.thumb
 304              		.thumb_func
 305              		.type	CyBusClk_SetDivider, %function
 306              	CyBusClk_SetDivider:
 307              	.LFB15:
 753:.\Generated_Source\PSoC5/CyLib.c **** }
 754:.\Generated_Source\PSoC5/CyLib.c **** 
 755:.\Generated_Source\PSoC5/CyLib.c **** 
 756:.\Generated_Source\PSoC5/CyLib.c **** /*******************************************************************************
 757:.\Generated_Source\PSoC5/CyLib.c **** * Function Name: CyBusClk_SetDivider
 758:.\Generated_Source\PSoC5/CyLib.c **** ****************************************************************************//**
ARM GAS  C:\Users\student\AppData\Local\Temp\ccmWIiPR.s 			page 20


 759:.\Generated_Source\PSoC5/CyLib.c **** *
 760:.\Generated_Source\PSoC5/CyLib.c **** *  Sets the divider value used to generate the Bus Clock.
 761:.\Generated_Source\PSoC5/CyLib.c **** *
 762:.\Generated_Source\PSoC5/CyLib.c **** *  \param divider: Valid range [0-65535]. The clock will be divided by this value + 1.
 763:.\Generated_Source\PSoC5/CyLib.c **** *  For example, to divide this parameter by two should be set to 1.
 764:.\Generated_Source\PSoC5/CyLib.c **** *
 765:.\Generated_Source\PSoC5/CyLib.c **** * \sideeffect
 766:.\Generated_Source\PSoC5/CyLib.c **** *  If this function execution resulted in the CPU clock frequency increasing,
 767:.\Generated_Source\PSoC5/CyLib.c **** *  then the number of clock cycles the cache will wait before it samples data
 768:.\Generated_Source\PSoC5/CyLib.c **** *  coming back from the Flash must be adjusted by calling
 769:.\Generated_Source\PSoC5/CyLib.c **** *  CyFlash_SetWaitCycles() with an appropriate parameter. It can be optionally
 770:.\Generated_Source\PSoC5/CyLib.c **** *  called if the CPU clock frequency is lowered in order to improve the CPU
 771:.\Generated_Source\PSoC5/CyLib.c **** *  performance. See CyFlash_SetWaitCycles() description for more information.
 772:.\Generated_Source\PSoC5/CyLib.c **** *
 773:.\Generated_Source\PSoC5/CyLib.c **** *******************************************************************************/
 774:.\Generated_Source\PSoC5/CyLib.c **** void CyBusClk_SetDivider(uint16 divider) 
 775:.\Generated_Source\PSoC5/CyLib.c **** {
 308              		.loc 1 775 0
 309              		.cfi_startproc
 310              		@ args = 0, pretend = 0, frame = 0
 311              		@ frame_needed = 0, uses_anonymous_args = 0
 312              	.LVL7:
 313 0000 70B5     		push	{r4, r5, r6, lr}
 314              		.cfi_def_cfa_offset 16
 315              		.cfi_offset 4, -16
 316              		.cfi_offset 5, -12
 317              		.cfi_offset 6, -8
 318              		.cfi_offset 14, -4
 319 0002 0546     		mov	r5, r0
 776:.\Generated_Source\PSoC5/CyLib.c ****     uint8  masterClkDiv;
 777:.\Generated_Source\PSoC5/CyLib.c ****     uint16 busClkDiv;
 778:.\Generated_Source\PSoC5/CyLib.c ****     uint8 interruptState;
 779:.\Generated_Source\PSoC5/CyLib.c **** 
 780:.\Generated_Source\PSoC5/CyLib.c ****     interruptState = CyEnterCriticalSection();
 320              		.loc 1 780 0
 321 0004 FFF7FEFF 		bl	CyEnterCriticalSection
 322              	.LVL8:
 323 0008 0646     		mov	r6, r0
 324              	.LVL9:
 781:.\Generated_Source\PSoC5/CyLib.c **** 
 782:.\Generated_Source\PSoC5/CyLib.c ****     /* Work around to set bus clock divider value */
 783:.\Generated_Source\PSoC5/CyLib.c ****     busClkDiv = (uint16)((uint16)CY_LIB_CLKDIST_BCFG_MSB_REG << 8u);
 325              		.loc 1 783 0
 326 000a 164B     		ldr	r3, .L38
 327 000c 1A78     		ldrb	r2, [r3]	@ zero_extendqisi2
 328              	.LVL10:
 784:.\Generated_Source\PSoC5/CyLib.c ****     busClkDiv |= CY_LIB_CLKDIST_BCFG_LSB_REG;
 329              		.loc 1 784 0
 330 000e 013B     		subs	r3, r3, #1
 331 0010 1B78     		ldrb	r3, [r3]	@ zero_extendqisi2
 332 0012 43EA0223 		orr	r3, r3, r2, lsl #8
 333              	.LVL11:
 785:.\Generated_Source\PSoC5/CyLib.c **** 
 786:.\Generated_Source\PSoC5/CyLib.c ****     if ((divider == 0u) || (busClkDiv == 0u))
 334              		.loc 1 786 0
 335 0016 05B1     		cbz	r5, .L31
 336              		.loc 1 786 0 is_stmt 0 discriminator 1
ARM GAS  C:\Users\student\AppData\Local\Temp\ccmWIiPR.s 			page 21


 337 0018 EBB9     		cbnz	r3, .L32
 338              	.L31:
 787:.\Generated_Source\PSoC5/CyLib.c ****     {
 788:.\Generated_Source\PSoC5/CyLib.c ****         /* Save away master clock divider value */
 789:.\Generated_Source\PSoC5/CyLib.c ****         masterClkDiv = CY_LIB_CLKDIST_MSTR0_REG;
 339              		.loc 1 789 0 is_stmt 1
 340 001a 134B     		ldr	r3, .L38+4
 341              	.LVL12:
 342 001c 1C78     		ldrb	r4, [r3]	@ zero_extendqisi2
 343 001e E4B2     		uxtb	r4, r4
 344              	.LVL13:
 790:.\Generated_Source\PSoC5/CyLib.c **** 
 791:.\Generated_Source\PSoC5/CyLib.c ****         if (masterClkDiv < CY_LIB_CLKDIST_MASTERCLK_DIV)
 345              		.loc 1 791 0
 346 0020 062C     		cmp	r4, #6
 347 0022 02D8     		bhi	.L33
 792:.\Generated_Source\PSoC5/CyLib.c ****         {
 793:.\Generated_Source\PSoC5/CyLib.c ****             /* Set master clock divider to 7 */
 794:.\Generated_Source\PSoC5/CyLib.c ****             CyMasterClk_SetDivider(CY_LIB_CLKDIST_MASTERCLK_DIV);
 348              		.loc 1 794 0
 349 0024 0720     		movs	r0, #7
 350 0026 FFF7FEFF 		bl	CyMasterClk_SetDivider
 351              	.LVL14:
 352              	.L33:
 795:.\Generated_Source\PSoC5/CyLib.c ****         }
 796:.\Generated_Source\PSoC5/CyLib.c **** 
 797:.\Generated_Source\PSoC5/CyLib.c ****         if (divider == 0u)
 353              		.loc 1 797 0
 354 002a 45B9     		cbnz	r5, .L34
 798:.\Generated_Source\PSoC5/CyLib.c ****         {
 799:.\Generated_Source\PSoC5/CyLib.c ****             /* Set SSS bit and divider register desired value */
 800:.\Generated_Source\PSoC5/CyLib.c ****             CY_LIB_CLKDIST_BCFG2_REG |= CY_LIB_CLKDIST_BCFG2_SSS;
 355              		.loc 1 800 0
 356 002c 0F4A     		ldr	r2, .L38+8
 357 002e 1378     		ldrb	r3, [r2]	@ zero_extendqisi2
 358 0030 43F04003 		orr	r3, r3, #64
 359 0034 1370     		strb	r3, [r2]
 801:.\Generated_Source\PSoC5/CyLib.c ****             CyBusClk_Internal_SetDivider(divider);
 360              		.loc 1 801 0
 361 0036 2846     		mov	r0, r5
 362 0038 FFF7FEFF 		bl	CyBusClk_Internal_SetDivider
 363              	.LVL15:
 364 003c 07E0     		b	.L35
 365              	.L34:
 802:.\Generated_Source\PSoC5/CyLib.c ****         }
 803:.\Generated_Source\PSoC5/CyLib.c ****         else
 804:.\Generated_Source\PSoC5/CyLib.c ****         {
 805:.\Generated_Source\PSoC5/CyLib.c ****             CyBusClk_Internal_SetDivider(divider);
 366              		.loc 1 805 0
 367 003e 2846     		mov	r0, r5
 368 0040 FFF7FEFF 		bl	CyBusClk_Internal_SetDivider
 369              	.LVL16:
 806:.\Generated_Source\PSoC5/CyLib.c ****             CY_LIB_CLKDIST_BCFG2_REG &= ((uint8)(~CY_LIB_CLKDIST_BCFG2_SSS));
 370              		.loc 1 806 0
 371 0044 094A     		ldr	r2, .L38+8
 372 0046 1378     		ldrb	r3, [r2]	@ zero_extendqisi2
 373 0048 03F0BF03 		and	r3, r3, #191
ARM GAS  C:\Users\student\AppData\Local\Temp\ccmWIiPR.s 			page 22


 374 004c 1370     		strb	r3, [r2]
 375              	.L35:
 807:.\Generated_Source\PSoC5/CyLib.c ****         }
 808:.\Generated_Source\PSoC5/CyLib.c **** 
 809:.\Generated_Source\PSoC5/CyLib.c ****         /* Restore master clock */
 810:.\Generated_Source\PSoC5/CyLib.c ****         CyMasterClk_SetDivider(masterClkDiv);
 376              		.loc 1 810 0
 377 004e 2046     		mov	r0, r4
 378 0050 FFF7FEFF 		bl	CyMasterClk_SetDivider
 379              	.LVL17:
 380 0054 02E0     		b	.L36
 381              	.LVL18:
 382              	.L32:
 811:.\Generated_Source\PSoC5/CyLib.c ****     }
 812:.\Generated_Source\PSoC5/CyLib.c ****     else
 813:.\Generated_Source\PSoC5/CyLib.c ****     {
 814:.\Generated_Source\PSoC5/CyLib.c ****         CyBusClk_Internal_SetDivider(divider);
 383              		.loc 1 814 0
 384 0056 2846     		mov	r0, r5
 385 0058 FFF7FEFF 		bl	CyBusClk_Internal_SetDivider
 386              	.LVL19:
 387              	.L36:
 815:.\Generated_Source\PSoC5/CyLib.c ****     }
 816:.\Generated_Source\PSoC5/CyLib.c **** 
 817:.\Generated_Source\PSoC5/CyLib.c ****     CyExitCriticalSection(interruptState);
 388              		.loc 1 817 0
 389 005c 3046     		mov	r0, r6
 390 005e FFF7FEFF 		bl	CyExitCriticalSection
 391              	.LVL20:
 392 0062 70BD     		pop	{r4, r5, r6, pc}
 393              	.LVL21:
 394              	.L39:
 395              		.align	2
 396              	.L38:
 397 0064 07400040 		.word	1073758215
 398 0068 04400040 		.word	1073758212
 399 006c 08400040 		.word	1073758216
 400              		.cfi_endproc
 401              	.LFE15:
 402              		.size	CyBusClk_SetDivider, .-CyBusClk_SetDivider
 403              		.section	.text.CyUsbClk_SetSource,"ax",%progbits
 404              		.align	2
 405              		.global	CyUsbClk_SetSource
 406              		.thumb
 407              		.thumb_func
 408              		.type	CyUsbClk_SetSource, %function
 409              	CyUsbClk_SetSource:
 410              	.LFB16:
 818:.\Generated_Source\PSoC5/CyLib.c **** }
 819:.\Generated_Source\PSoC5/CyLib.c **** 
 820:.\Generated_Source\PSoC5/CyLib.c **** 
 821:.\Generated_Source\PSoC5/CyLib.c **** #if(CY_PSOC3)
 822:.\Generated_Source\PSoC5/CyLib.c **** 
 823:.\Generated_Source\PSoC5/CyLib.c ****     /*******************************************************************************
 824:.\Generated_Source\PSoC5/CyLib.c ****     * Function Name: CyCpuClk_SetDivider
 825:.\Generated_Source\PSoC5/CyLib.c ****     ****************************************************************************//**
 826:.\Generated_Source\PSoC5/CyLib.c ****     *
ARM GAS  C:\Users\student\AppData\Local\Temp\ccmWIiPR.s 			page 23


 827:.\Generated_Source\PSoC5/CyLib.c ****     *  Sets the divider value used to generate the CPU Clock. Only applicable for
 828:.\Generated_Source\PSoC5/CyLib.c ****     *  PSoC 3 parts.
 829:.\Generated_Source\PSoC5/CyLib.c ****     *
 830:.\Generated_Source\PSoC5/CyLib.c ****     *  \param divider: Valid range [0-15]. The clock will be divided by this value + 1.
 831:.\Generated_Source\PSoC5/CyLib.c ****     *  For example, to divide this parameter by two should be set to 1.
 832:.\Generated_Source\PSoC5/CyLib.c ****     *
 833:.\Generated_Source\PSoC5/CyLib.c ****     * \sideeffect
 834:.\Generated_Source\PSoC5/CyLib.c ****     *  If this function execution resulted in the CPU clock frequency increasing,
 835:.\Generated_Source\PSoC5/CyLib.c ****     *  then the number of clock cycles the cache will wait before it samples data
 836:.\Generated_Source\PSoC5/CyLib.c ****     *  coming back from the Flash must be adjusted by calling
 837:.\Generated_Source\PSoC5/CyLib.c ****     *  CyFlash_SetWaitCycles() with an appropriate parameter. It can be optionally
 838:.\Generated_Source\PSoC5/CyLib.c ****     *  called if the CPU clock frequency is lowered in order to improve the CPU
 839:.\Generated_Source\PSoC5/CyLib.c ****     *  performance. See CyFlash_SetWaitCycles() description for more information.
 840:.\Generated_Source\PSoC5/CyLib.c ****     *
 841:.\Generated_Source\PSoC5/CyLib.c ****     *******************************************************************************/
 842:.\Generated_Source\PSoC5/CyLib.c ****     void CyCpuClk_SetDivider(uint8 divider) 
 843:.\Generated_Source\PSoC5/CyLib.c ****     {
 844:.\Generated_Source\PSoC5/CyLib.c ****             CY_LIB_CLKDIST_MSTR1_REG = (CY_LIB_CLKDIST_MSTR1_REG & CY_LIB_CLKDIST_MSTR1_DIV_MASK) |
 845:.\Generated_Source\PSoC5/CyLib.c ****                                 ((uint8)(divider << CY_LIB_CLKDIST_DIV_POSITION));
 846:.\Generated_Source\PSoC5/CyLib.c ****     }
 847:.\Generated_Source\PSoC5/CyLib.c **** 
 848:.\Generated_Source\PSoC5/CyLib.c **** #endif /* (CY_PSOC3) */
 849:.\Generated_Source\PSoC5/CyLib.c **** 
 850:.\Generated_Source\PSoC5/CyLib.c **** 
 851:.\Generated_Source\PSoC5/CyLib.c **** /*******************************************************************************
 852:.\Generated_Source\PSoC5/CyLib.c **** * Function Name: CyUsbClk_SetSource
 853:.\Generated_Source\PSoC5/CyLib.c **** ****************************************************************************//**
 854:.\Generated_Source\PSoC5/CyLib.c **** *
 855:.\Generated_Source\PSoC5/CyLib.c **** *  Sets the source of the USB clock.
 856:.\Generated_Source\PSoC5/CyLib.c **** *
 857:.\Generated_Source\PSoC5/CyLib.c **** *  \param source: One of the four available USB clock sources
 858:.\Generated_Source\PSoC5/CyLib.c **** *    CY_LIB_USB_CLK_IMO2X     - IMO 2x
 859:.\Generated_Source\PSoC5/CyLib.c **** *    CY_LIB_USB_CLK_IMO       - IMO
 860:.\Generated_Source\PSoC5/CyLib.c **** *    CY_LIB_USB_CLK_PLL       - PLL
 861:.\Generated_Source\PSoC5/CyLib.c **** *    CY_LIB_USB_CLK_DSI       - DSI
 862:.\Generated_Source\PSoC5/CyLib.c **** *
 863:.\Generated_Source\PSoC5/CyLib.c **** *******************************************************************************/
 864:.\Generated_Source\PSoC5/CyLib.c **** void CyUsbClk_SetSource(uint8 source) 
 865:.\Generated_Source\PSoC5/CyLib.c **** {
 411              		.loc 1 865 0
 412              		.cfi_startproc
 413              		@ args = 0, pretend = 0, frame = 0
 414              		@ frame_needed = 0, uses_anonymous_args = 0
 415              		@ link register save eliminated.
 416              	.LVL22:
 866:.\Generated_Source\PSoC5/CyLib.c ****     CY_LIB_CLKDIST_UCFG_REG = (CY_LIB_CLKDIST_UCFG_REG & ((uint8)(~CY_LIB_CLKDIST_UCFG_SRC_SEL_MASK
 417              		.loc 1 866 0
 418 0000 044A     		ldr	r2, .L41
 419 0002 1378     		ldrb	r3, [r2]	@ zero_extendqisi2
 420 0004 03F0FC03 		and	r3, r3, #252
 421 0008 00F00300 		and	r0, r0, #3
 422              	.LVL23:
 423 000c 1843     		orrs	r0, r0, r3
 424 000e 1070     		strb	r0, [r2]
 425 0010 7047     		bx	lr
 426              	.L42:
 427 0012 00BF     		.align	2
ARM GAS  C:\Users\student\AppData\Local\Temp\ccmWIiPR.s 			page 24


 428              	.L41:
 429 0014 09400040 		.word	1073758217
 430              		.cfi_endproc
 431              	.LFE16:
 432              		.size	CyUsbClk_SetSource, .-CyUsbClk_SetSource
 433              		.section	.text.CyILO_Start1K,"ax",%progbits
 434              		.align	2
 435              		.global	CyILO_Start1K
 436              		.thumb
 437              		.thumb_func
 438              		.type	CyILO_Start1K, %function
 439              	CyILO_Start1K:
 440              	.LFB17:
 867:.\Generated_Source\PSoC5/CyLib.c ****                         (CY_LIB_CLKDIST_UCFG_SRC_SEL_MASK & source);
 868:.\Generated_Source\PSoC5/CyLib.c **** }
 869:.\Generated_Source\PSoC5/CyLib.c **** 
 870:.\Generated_Source\PSoC5/CyLib.c **** 
 871:.\Generated_Source\PSoC5/CyLib.c **** /*******************************************************************************
 872:.\Generated_Source\PSoC5/CyLib.c **** * Function Name: CyILO_Start1K
 873:.\Generated_Source\PSoC5/CyLib.c **** ****************************************************************************//**
 874:.\Generated_Source\PSoC5/CyLib.c **** *
 875:.\Generated_Source\PSoC5/CyLib.c **** *  Enables the ILO 1 KHz oscillator.
 876:.\Generated_Source\PSoC5/CyLib.c **** *
 877:.\Generated_Source\PSoC5/CyLib.c **** *  Note The ILO 1 KHz oscillator is always enabled by default, regardless of the
 878:.\Generated_Source\PSoC5/CyLib.c **** *  selection in the Clock Editor. Therefore, this API is only needed if the
 879:.\Generated_Source\PSoC5/CyLib.c **** *  oscillator was turned off manually.
 880:.\Generated_Source\PSoC5/CyLib.c **** *
 881:.\Generated_Source\PSoC5/CyLib.c **** *******************************************************************************/
 882:.\Generated_Source\PSoC5/CyLib.c **** void CyILO_Start1K(void) 
 883:.\Generated_Source\PSoC5/CyLib.c **** {
 441              		.loc 1 883 0
 442              		.cfi_startproc
 443              		@ args = 0, pretend = 0, frame = 0
 444              		@ frame_needed = 0, uses_anonymous_args = 0
 445              		@ link register save eliminated.
 884:.\Generated_Source\PSoC5/CyLib.c ****     /* Set bit 1 of ILO RS */
 885:.\Generated_Source\PSoC5/CyLib.c ****     CY_LIB_SLOWCLK_ILO_CR0_REG |= CY_LIB_SLOWCLK_ILO_CR0_EN_1KHZ;
 446              		.loc 1 885 0
 447 0000 024A     		ldr	r2, .L44
 448 0002 1378     		ldrb	r3, [r2]	@ zero_extendqisi2
 449 0004 43F00203 		orr	r3, r3, #2
 450 0008 1370     		strb	r3, [r2]
 451 000a 7047     		bx	lr
 452              	.L45:
 453              		.align	2
 454              	.L44:
 455 000c 00430040 		.word	1073758976
 456              		.cfi_endproc
 457              	.LFE17:
 458              		.size	CyILO_Start1K, .-CyILO_Start1K
 459              		.section	.text.CyILO_Stop1K,"ax",%progbits
 460              		.align	2
 461              		.global	CyILO_Stop1K
 462              		.thumb
 463              		.thumb_func
 464              		.type	CyILO_Stop1K, %function
 465              	CyILO_Stop1K:
ARM GAS  C:\Users\student\AppData\Local\Temp\ccmWIiPR.s 			page 25


 466              	.LFB18:
 886:.\Generated_Source\PSoC5/CyLib.c **** }
 887:.\Generated_Source\PSoC5/CyLib.c **** 
 888:.\Generated_Source\PSoC5/CyLib.c **** 
 889:.\Generated_Source\PSoC5/CyLib.c **** /*******************************************************************************
 890:.\Generated_Source\PSoC5/CyLib.c **** * Function Name: CyILO_Stop1K
 891:.\Generated_Source\PSoC5/CyLib.c **** ****************************************************************************//**
 892:.\Generated_Source\PSoC5/CyLib.c **** *
 893:.\Generated_Source\PSoC5/CyLib.c **** *  Disables the ILO 1 KHz oscillator.
 894:.\Generated_Source\PSoC5/CyLib.c **** *
 895:.\Generated_Source\PSoC5/CyLib.c **** *  Note The ILO 1 KHz oscillator must be enabled if the Sleep or Hibernate low
 896:.\Generated_Source\PSoC5/CyLib.c **** *  power mode APIs are expected to be used. For more information, refer to the
 897:.\Generated_Source\PSoC5/CyLib.c **** *  Power Management section of this document.
 898:.\Generated_Source\PSoC5/CyLib.c **** *
 899:.\Generated_Source\PSoC5/CyLib.c **** * \sideeffect
 900:.\Generated_Source\PSoC5/CyLib.c **** *  PSoC5: Stopping the ILO 1 kHz could break the active WDT functionality.
 901:.\Generated_Source\PSoC5/CyLib.c **** *
 902:.\Generated_Source\PSoC5/CyLib.c **** *******************************************************************************/
 903:.\Generated_Source\PSoC5/CyLib.c **** void CyILO_Stop1K(void) 
 904:.\Generated_Source\PSoC5/CyLib.c **** {
 467              		.loc 1 904 0
 468              		.cfi_startproc
 469              		@ args = 0, pretend = 0, frame = 0
 470              		@ frame_needed = 0, uses_anonymous_args = 0
 471              		@ link register save eliminated.
 905:.\Generated_Source\PSoC5/CyLib.c ****     /* Clear bit 1 of ILO RS */
 906:.\Generated_Source\PSoC5/CyLib.c ****     CY_LIB_SLOWCLK_ILO_CR0_REG &= ((uint8)(~CY_LIB_SLOWCLK_ILO_CR0_EN_1KHZ));
 472              		.loc 1 906 0
 473 0000 024A     		ldr	r2, .L47
 474 0002 1378     		ldrb	r3, [r2]	@ zero_extendqisi2
 475 0004 03F0FD03 		and	r3, r3, #253
 476 0008 1370     		strb	r3, [r2]
 477 000a 7047     		bx	lr
 478              	.L48:
 479              		.align	2
 480              	.L47:
 481 000c 00430040 		.word	1073758976
 482              		.cfi_endproc
 483              	.LFE18:
 484              		.size	CyILO_Stop1K, .-CyILO_Stop1K
 485              		.section	.text.CyILO_Start100K,"ax",%progbits
 486              		.align	2
 487              		.global	CyILO_Start100K
 488              		.thumb
 489              		.thumb_func
 490              		.type	CyILO_Start100K, %function
 491              	CyILO_Start100K:
 492              	.LFB19:
 907:.\Generated_Source\PSoC5/CyLib.c **** }
 908:.\Generated_Source\PSoC5/CyLib.c **** 
 909:.\Generated_Source\PSoC5/CyLib.c **** 
 910:.\Generated_Source\PSoC5/CyLib.c **** /*******************************************************************************
 911:.\Generated_Source\PSoC5/CyLib.c **** * Function Name: CyILO_Start100K
 912:.\Generated_Source\PSoC5/CyLib.c **** ****************************************************************************//**
 913:.\Generated_Source\PSoC5/CyLib.c **** *
 914:.\Generated_Source\PSoC5/CyLib.c **** *  Enables the ILO 100 KHz oscillator.
 915:.\Generated_Source\PSoC5/CyLib.c **** *
ARM GAS  C:\Users\student\AppData\Local\Temp\ccmWIiPR.s 			page 26


 916:.\Generated_Source\PSoC5/CyLib.c **** *******************************************************************************/
 917:.\Generated_Source\PSoC5/CyLib.c **** void CyILO_Start100K(void) 
 918:.\Generated_Source\PSoC5/CyLib.c **** {
 493              		.loc 1 918 0
 494              		.cfi_startproc
 495              		@ args = 0, pretend = 0, frame = 0
 496              		@ frame_needed = 0, uses_anonymous_args = 0
 497              		@ link register save eliminated.
 919:.\Generated_Source\PSoC5/CyLib.c ****     CY_LIB_SLOWCLK_ILO_CR0_REG |= CY_LIB_SLOWCLK_ILO_CR0_EN_100KHZ;
 498              		.loc 1 919 0
 499 0000 024A     		ldr	r2, .L50
 500 0002 1378     		ldrb	r3, [r2]	@ zero_extendqisi2
 501 0004 43F00403 		orr	r3, r3, #4
 502 0008 1370     		strb	r3, [r2]
 503 000a 7047     		bx	lr
 504              	.L51:
 505              		.align	2
 506              	.L50:
 507 000c 00430040 		.word	1073758976
 508              		.cfi_endproc
 509              	.LFE19:
 510              		.size	CyILO_Start100K, .-CyILO_Start100K
 511              		.section	.text.CyILO_Stop100K,"ax",%progbits
 512              		.align	2
 513              		.global	CyILO_Stop100K
 514              		.thumb
 515              		.thumb_func
 516              		.type	CyILO_Stop100K, %function
 517              	CyILO_Stop100K:
 518              	.LFB20:
 920:.\Generated_Source\PSoC5/CyLib.c **** }
 921:.\Generated_Source\PSoC5/CyLib.c **** 
 922:.\Generated_Source\PSoC5/CyLib.c **** 
 923:.\Generated_Source\PSoC5/CyLib.c **** /*******************************************************************************
 924:.\Generated_Source\PSoC5/CyLib.c **** * Function Name: CyILO_Stop100K
 925:.\Generated_Source\PSoC5/CyLib.c **** ****************************************************************************//**
 926:.\Generated_Source\PSoC5/CyLib.c **** *
 927:.\Generated_Source\PSoC5/CyLib.c **** *  Disables the ILO 100 KHz oscillator.
 928:.\Generated_Source\PSoC5/CyLib.c **** *
 929:.\Generated_Source\PSoC5/CyLib.c **** *******************************************************************************/
 930:.\Generated_Source\PSoC5/CyLib.c **** void CyILO_Stop100K(void) 
 931:.\Generated_Source\PSoC5/CyLib.c **** {
 519              		.loc 1 931 0
 520              		.cfi_startproc
 521              		@ args = 0, pretend = 0, frame = 0
 522              		@ frame_needed = 0, uses_anonymous_args = 0
 523              		@ link register save eliminated.
 932:.\Generated_Source\PSoC5/CyLib.c ****     CY_LIB_SLOWCLK_ILO_CR0_REG &= ((uint8)(~CY_LIB_SLOWCLK_ILO_CR0_EN_100KHZ));
 524              		.loc 1 932 0
 525 0000 024A     		ldr	r2, .L53
 526 0002 1378     		ldrb	r3, [r2]	@ zero_extendqisi2
 527 0004 03F0FB03 		and	r3, r3, #251
 528 0008 1370     		strb	r3, [r2]
 529 000a 7047     		bx	lr
 530              	.L54:
 531              		.align	2
 532              	.L53:
ARM GAS  C:\Users\student\AppData\Local\Temp\ccmWIiPR.s 			page 27


 533 000c 00430040 		.word	1073758976
 534              		.cfi_endproc
 535              	.LFE20:
 536              		.size	CyILO_Stop100K, .-CyILO_Stop100K
 537              		.section	.text.CyPLL_OUT_Start,"ax",%progbits
 538              		.align	2
 539              		.global	CyPLL_OUT_Start
 540              		.thumb
 541              		.thumb_func
 542              		.type	CyPLL_OUT_Start, %function
 543              	CyPLL_OUT_Start:
 544              	.LFB0:
  98:.\Generated_Source\PSoC5/CyLib.c ****     cystatus status = CYRET_SUCCESS;
 545              		.loc 1 98 0
 546              		.cfi_startproc
 547              		@ args = 0, pretend = 0, frame = 0
 548              		@ frame_needed = 0, uses_anonymous_args = 0
 549              	.LVL24:
 550 0000 F8B5     		push	{r3, r4, r5, r6, r7, lr}
 551              		.cfi_def_cfa_offset 24
 552              		.cfi_offset 3, -24
 553              		.cfi_offset 4, -20
 554              		.cfi_offset 5, -16
 555              		.cfi_offset 6, -12
 556              		.cfi_offset 7, -8
 557              		.cfi_offset 14, -4
 558              	.LVL25:
 107:.\Generated_Source\PSoC5/CyLib.c **** 
 559              		.loc 1 107 0
 560 0002 194A     		ldr	r2, .L64
 561 0004 1378     		ldrb	r3, [r2]	@ zero_extendqisi2
 562 0006 43F00103 		orr	r3, r3, #1
 563 000a 1370     		strb	r3, [r2]
 109:.\Generated_Source\PSoC5/CyLib.c ****     {
 564              		.loc 1 109 0
 565 000c 48B3     		cbz	r0, .L61
 112:.\Generated_Source\PSoC5/CyLib.c ****         pmTwCfg0State = CY_LIB_PM_TW_CFG0_REG;
 566              		.loc 1 112 0
 567 000e 174B     		ldr	r3, .L64+4
 568 0010 1C78     		ldrb	r4, [r3]	@ zero_extendqisi2
 569 0012 04F00404 		and	r4, r4, #4
 570 0016 E4B2     		uxtb	r4, r4
 571              	.LVL26:
 113:.\Generated_Source\PSoC5/CyLib.c ****         pmTwCfg2State = CY_LIB_PM_TW_CFG2_REG;
 572              		.loc 1 113 0
 573 0018 8033     		adds	r3, r3, #128
 574 001a 1F78     		ldrb	r7, [r3]	@ zero_extendqisi2
 575 001c FFB2     		uxtb	r7, r7
 576              	.LVL27:
 114:.\Generated_Source\PSoC5/CyLib.c **** 
 577              		.loc 1 114 0
 578 001e 0233     		adds	r3, r3, #2
 579 0020 1E78     		ldrb	r6, [r3]	@ zero_extendqisi2
 580 0022 F6B2     		uxtb	r6, r6
 581              	.LVL28:
 116:.\Generated_Source\PSoC5/CyLib.c **** 
 582              		.loc 1 116 0
ARM GAS  C:\Users\student\AppData\Local\Temp\ccmWIiPR.s 			page 28


 583 0024 1820     		movs	r0, #24
 584              	.LVL29:
 585 0026 FFF7FEFF 		bl	CyPmFtwSetInterval
 586              	.LVL30:
 120:.\Generated_Source\PSoC5/CyLib.c ****         {
 587              		.loc 1 120 0
 588 002a 09E0     		b	.L57
 589              	.L59:
 123:.\Generated_Source\PSoC5/CyLib.c ****             {
 590              		.loc 1 123 0
 591 002c 104B     		ldr	r3, .L64+8
 592 002e 1B78     		ldrb	r3, [r3]	@ zero_extendqisi2
 593 0030 13F0010F 		tst	r3, #1
 594 0034 04D0     		beq	.L57
 125:.\Generated_Source\PSoC5/CyLib.c ****                 {
 595              		.loc 1 125 0
 596 0036 0E4B     		ldr	r3, .L64+8
 597 0038 1B78     		ldrb	r3, [r3]	@ zero_extendqisi2
 598 003a 13F0010F 		tst	r3, #1
 599 003e 07D1     		bne	.L62
 600              	.L57:
 120:.\Generated_Source\PSoC5/CyLib.c ****         {
 601              		.loc 1 120 0
 602 0040 0120     		movs	r0, #1
 603 0042 FFF7FEFF 		bl	CyPmReadStatus
 604              	.LVL31:
 605 0046 10F0010F 		tst	r0, #1
 606 004a EFD0     		beq	.L59
 118:.\Generated_Source\PSoC5/CyLib.c **** 
 607              		.loc 1 118 0
 608 004c 1025     		movs	r5, #16
 609 004e 00E0     		b	.L58
 610              	.L62:
 127:.\Generated_Source\PSoC5/CyLib.c ****                     break;
 611              		.loc 1 127 0
 612 0050 0025     		movs	r5, #0
 613              	.L58:
 614              	.LVL32:
 134:.\Generated_Source\PSoC5/CyLib.c ****         {
 615              		.loc 1 134 0
 616 0052 0CB9     		cbnz	r4, .L60
 136:.\Generated_Source\PSoC5/CyLib.c ****         }
 617              		.loc 1 136 0
 618 0054 FFF7FEFF 		bl	CyILO_Stop100K
 619              	.LVL33:
 620              	.L60:
 139:.\Generated_Source\PSoC5/CyLib.c ****         CY_LIB_PM_TW_CFG2_REG = pmTwCfg2State;
 621              		.loc 1 139 0
 622 0058 064B     		ldr	r3, .L64+12
 623 005a 1F70     		strb	r7, [r3]
 140:.\Generated_Source\PSoC5/CyLib.c ****     }
 624              		.loc 1 140 0
 625 005c 0233     		adds	r3, r3, #2
 626 005e 1E70     		strb	r6, [r3]
 627 0060 00E0     		b	.L56
 628              	.LVL34:
 629              	.L61:
ARM GAS  C:\Users\student\AppData\Local\Temp\ccmWIiPR.s 			page 29


  99:.\Generated_Source\PSoC5/CyLib.c **** 
 630              		.loc 1 99 0
 631 0062 0025     		movs	r5, #0
 632              	.LVL35:
 633              	.L56:
 144:.\Generated_Source\PSoC5/CyLib.c **** 
 634              		.loc 1 144 0
 635 0064 2846     		mov	r0, r5
 636 0066 F8BD     		pop	{r3, r4, r5, r6, r7, pc}
 637              	.LVL36:
 638              	.L65:
 639              		.align	2
 640              	.L64:
 641 0068 20420040 		.word	1073758752
 642 006c 00430040 		.word	1073758976
 643 0070 25420040 		.word	1073758757
 644 0074 80430040 		.word	1073759104
 645              		.cfi_endproc
 646              	.LFE0:
 647              		.size	CyPLL_OUT_Start, .-CyPLL_OUT_Start
 648              		.section	.text.CyIMO_Start,"ax",%progbits
 649              		.align	2
 650              		.global	CyIMO_Start
 651              		.thumb
 652              		.thumb_func
 653              		.type	CyIMO_Start, %function
 654              	CyIMO_Start:
 655              	.LFB4:
 283:.\Generated_Source\PSoC5/CyLib.c ****     uint8 pmFtwCfg2Reg;
 656              		.loc 1 283 0
 657              		.cfi_startproc
 658              		@ args = 0, pretend = 0, frame = 0
 659              		@ frame_needed = 0, uses_anonymous_args = 0
 660              	.LVL37:
 289:.\Generated_Source\PSoC5/CyLib.c ****     CY_LIB_PM_STBY_CFG0_REG |= CY_LIB_PM_STBY_CFG0_IMO_EN;
 661              		.loc 1 289 0
 662 0000 144A     		ldr	r2, .L72
 663 0002 1378     		ldrb	r3, [r2]	@ zero_extendqisi2
 664 0004 43F01003 		orr	r3, r3, #16
 665 0008 1370     		strb	r3, [r2]
 290:.\Generated_Source\PSoC5/CyLib.c **** 
 666              		.loc 1 290 0
 667 000a 1032     		adds	r2, r2, #16
 668 000c 1378     		ldrb	r3, [r2]	@ zero_extendqisi2
 669 000e 43F01003 		orr	r3, r3, #16
 670 0012 1370     		strb	r3, [r2]
 292:.\Generated_Source\PSoC5/CyLib.c ****     {
 671              		.loc 1 292 0
 672 0014 E0B1     		cbz	r0, .L71
 283:.\Generated_Source\PSoC5/CyLib.c ****     uint8 pmFtwCfg2Reg;
 673              		.loc 1 283 0
 674 0016 70B5     		push	{r4, r5, r6, lr}
 675              		.cfi_def_cfa_offset 16
 676              		.cfi_offset 4, -16
 677              		.cfi_offset 5, -12
 678              		.cfi_offset 6, -8
 679              		.cfi_offset 14, -4
ARM GAS  C:\Users\student\AppData\Local\Temp\ccmWIiPR.s 			page 30


 295:.\Generated_Source\PSoC5/CyLib.c ****         pmFtwCfg0Reg = CY_LIB_PM_TW_CFG0_REG;
 680              		.loc 1 295 0
 681 0018 0F4B     		ldr	r3, .L72+4
 682 001a 1C78     		ldrb	r4, [r3]	@ zero_extendqisi2
 683 001c 04F00404 		and	r4, r4, #4
 684 0020 E4B2     		uxtb	r4, r4
 685              	.LVL38:
 296:.\Generated_Source\PSoC5/CyLib.c ****         pmFtwCfg2Reg = CY_LIB_PM_TW_CFG2_REG;
 686              		.loc 1 296 0
 687 0022 8033     		adds	r3, r3, #128
 688 0024 1E78     		ldrb	r6, [r3]	@ zero_extendqisi2
 689 0026 F6B2     		uxtb	r6, r6
 690              	.LVL39:
 297:.\Generated_Source\PSoC5/CyLib.c **** 
 691              		.loc 1 297 0
 692 0028 0233     		adds	r3, r3, #2
 693 002a 1D78     		ldrb	r5, [r3]	@ zero_extendqisi2
 694 002c EDB2     		uxtb	r5, r5
 695              	.LVL40:
 299:.\Generated_Source\PSoC5/CyLib.c **** 
 696              		.loc 1 299 0
 697 002e 0020     		movs	r0, #0
 698              	.LVL41:
 699 0030 FFF7FEFF 		bl	CyPmFtwSetInterval
 700              	.LVL42:
 701              	.L68:
 301:.\Generated_Source\PSoC5/CyLib.c ****         {
 702              		.loc 1 301 0 discriminator 1
 703 0034 0120     		movs	r0, #1
 704 0036 FFF7FEFF 		bl	CyPmReadStatus
 705              	.LVL43:
 706 003a 10F0010F 		tst	r0, #1
 707 003e F9D0     		beq	.L68
 306:.\Generated_Source\PSoC5/CyLib.c ****         {
 708              		.loc 1 306 0
 709 0040 0CB9     		cbnz	r4, .L69
 308:.\Generated_Source\PSoC5/CyLib.c ****         }
 710              		.loc 1 308 0
 711 0042 FFF7FEFF 		bl	CyILO_Stop100K
 712              	.LVL44:
 713              	.L69:
 311:.\Generated_Source\PSoC5/CyLib.c ****         CY_LIB_PM_TW_CFG2_REG = pmFtwCfg2Reg;
 714              		.loc 1 311 0
 715 0046 054B     		ldr	r3, .L72+8
 716 0048 1E70     		strb	r6, [r3]
 312:.\Generated_Source\PSoC5/CyLib.c ****     }
 717              		.loc 1 312 0
 718 004a 0233     		adds	r3, r3, #2
 719 004c 1D70     		strb	r5, [r3]
 720 004e 70BD     		pop	{r4, r5, r6, pc}
 721              	.LVL45:
 722              	.L71:
 723              		.cfi_def_cfa_offset 0
 724              		.cfi_restore 4
 725              		.cfi_restore 5
 726              		.cfi_restore 6
 727              		.cfi_restore 14
ARM GAS  C:\Users\student\AppData\Local\Temp\ccmWIiPR.s 			page 31


 728 0050 7047     		bx	lr
 729              	.L73:
 730 0052 00BF     		.align	2
 731              	.L72:
 732 0054 A0430040 		.word	1073759136
 733 0058 00430040 		.word	1073758976
 734 005c 80430040 		.word	1073759104
 735              		.cfi_endproc
 736              	.LFE4:
 737              		.size	CyIMO_Start, .-CyIMO_Start
 738              		.section	.text.CyILO_Enable33K,"ax",%progbits
 739              		.align	2
 740              		.global	CyILO_Enable33K
 741              		.thumb
 742              		.thumb_func
 743              		.type	CyILO_Enable33K, %function
 744              	CyILO_Enable33K:
 745              	.LFB21:
 933:.\Generated_Source\PSoC5/CyLib.c **** }
 934:.\Generated_Source\PSoC5/CyLib.c **** 
 935:.\Generated_Source\PSoC5/CyLib.c **** 
 936:.\Generated_Source\PSoC5/CyLib.c **** /*******************************************************************************
 937:.\Generated_Source\PSoC5/CyLib.c **** * Function Name: CyILO_Enable33K
 938:.\Generated_Source\PSoC5/CyLib.c **** ****************************************************************************//**
 939:.\Generated_Source\PSoC5/CyLib.c **** *
 940:.\Generated_Source\PSoC5/CyLib.c **** *  Enables the ILO 33 KHz divider.
 941:.\Generated_Source\PSoC5/CyLib.c **** *
 942:.\Generated_Source\PSoC5/CyLib.c **** *  Note that the 33 KHz clock is generated from the 100 KHz oscillator,
 943:.\Generated_Source\PSoC5/CyLib.c **** *  so it must also be running in order to generate the 33 KHz output.
 944:.\Generated_Source\PSoC5/CyLib.c **** *
 945:.\Generated_Source\PSoC5/CyLib.c **** *******************************************************************************/
 946:.\Generated_Source\PSoC5/CyLib.c **** void CyILO_Enable33K(void) 
 947:.\Generated_Source\PSoC5/CyLib.c **** {
 746              		.loc 1 947 0
 747              		.cfi_startproc
 748              		@ args = 0, pretend = 0, frame = 0
 749              		@ frame_needed = 0, uses_anonymous_args = 0
 750              		@ link register save eliminated.
 948:.\Generated_Source\PSoC5/CyLib.c ****     /* Set bit 5 of ILO RS */
 949:.\Generated_Source\PSoC5/CyLib.c ****     CY_LIB_SLOWCLK_ILO_CR0_REG |= CY_LIB_SLOWCLK_ILO_CR0_EN_33KHZ;
 751              		.loc 1 949 0
 752 0000 024A     		ldr	r2, .L75
 753 0002 1378     		ldrb	r3, [r2]	@ zero_extendqisi2
 754 0004 43F02003 		orr	r3, r3, #32
 755 0008 1370     		strb	r3, [r2]
 756 000a 7047     		bx	lr
 757              	.L76:
 758              		.align	2
 759              	.L75:
 760 000c 00430040 		.word	1073758976
 761              		.cfi_endproc
 762              	.LFE21:
 763              		.size	CyILO_Enable33K, .-CyILO_Enable33K
 764              		.section	.text.CyILO_Disable33K,"ax",%progbits
 765              		.align	2
 766              		.global	CyILO_Disable33K
 767              		.thumb
ARM GAS  C:\Users\student\AppData\Local\Temp\ccmWIiPR.s 			page 32


 768              		.thumb_func
 769              		.type	CyILO_Disable33K, %function
 770              	CyILO_Disable33K:
 771              	.LFB22:
 950:.\Generated_Source\PSoC5/CyLib.c **** }
 951:.\Generated_Source\PSoC5/CyLib.c **** 
 952:.\Generated_Source\PSoC5/CyLib.c **** 
 953:.\Generated_Source\PSoC5/CyLib.c **** /*******************************************************************************
 954:.\Generated_Source\PSoC5/CyLib.c **** * Function Name: CyILO_Disable33K
 955:.\Generated_Source\PSoC5/CyLib.c **** ****************************************************************************//**
 956:.\Generated_Source\PSoC5/CyLib.c **** *
 957:.\Generated_Source\PSoC5/CyLib.c **** *  Disables the ILO 33 KHz divider.
 958:.\Generated_Source\PSoC5/CyLib.c **** *
 959:.\Generated_Source\PSoC5/CyLib.c **** *  Note that the 33 KHz clock is generated from the 100 KHz oscillator, but this
 960:.\Generated_Source\PSoC5/CyLib.c **** *  API does not disable the 100 KHz clock.
 961:.\Generated_Source\PSoC5/CyLib.c **** *
 962:.\Generated_Source\PSoC5/CyLib.c **** *******************************************************************************/
 963:.\Generated_Source\PSoC5/CyLib.c **** void CyILO_Disable33K(void) 
 964:.\Generated_Source\PSoC5/CyLib.c **** {
 772              		.loc 1 964 0
 773              		.cfi_startproc
 774              		@ args = 0, pretend = 0, frame = 0
 775              		@ frame_needed = 0, uses_anonymous_args = 0
 776              		@ link register save eliminated.
 965:.\Generated_Source\PSoC5/CyLib.c ****     CY_LIB_SLOWCLK_ILO_CR0_REG &= ((uint8)(~CY_LIB_SLOWCLK_ILO_CR0_EN_33KHZ));
 777              		.loc 1 965 0
 778 0000 024A     		ldr	r2, .L78
 779 0002 1378     		ldrb	r3, [r2]	@ zero_extendqisi2
 780 0004 03F0DF03 		and	r3, r3, #223
 781 0008 1370     		strb	r3, [r2]
 782 000a 7047     		bx	lr
 783              	.L79:
 784              		.align	2
 785              	.L78:
 786 000c 00430040 		.word	1073758976
 787              		.cfi_endproc
 788              	.LFE22:
 789              		.size	CyILO_Disable33K, .-CyILO_Disable33K
 790              		.section	.text.CyILO_SetSource,"ax",%progbits
 791              		.align	2
 792              		.global	CyILO_SetSource
 793              		.thumb
 794              		.thumb_func
 795              		.type	CyILO_SetSource, %function
 796              	CyILO_SetSource:
 797              	.LFB23:
 966:.\Generated_Source\PSoC5/CyLib.c **** }
 967:.\Generated_Source\PSoC5/CyLib.c **** 
 968:.\Generated_Source\PSoC5/CyLib.c **** 
 969:.\Generated_Source\PSoC5/CyLib.c **** /*******************************************************************************
 970:.\Generated_Source\PSoC5/CyLib.c **** * Function Name: CyILO_SetSource
 971:.\Generated_Source\PSoC5/CyLib.c **** ****************************************************************************//**
 972:.\Generated_Source\PSoC5/CyLib.c **** *
 973:.\Generated_Source\PSoC5/CyLib.c **** *  Sets the source of the clock output from the ILO block.
 974:.\Generated_Source\PSoC5/CyLib.c **** *
 975:.\Generated_Source\PSoC5/CyLib.c **** *  \param source: One of the three available ILO output sources
 976:.\Generated_Source\PSoC5/CyLib.c **** *       Value        Define                Source
ARM GAS  C:\Users\student\AppData\Local\Temp\ccmWIiPR.s 			page 33


 977:.\Generated_Source\PSoC5/CyLib.c **** *       0            CY_ILO_SOURCE_100K    ILO 100 KHz
 978:.\Generated_Source\PSoC5/CyLib.c **** *       1            CY_ILO_SOURCE_33K     ILO 33 KHz
 979:.\Generated_Source\PSoC5/CyLib.c **** *       2            CY_ILO_SOURCE_1K      ILO 1 KHz
 980:.\Generated_Source\PSoC5/CyLib.c **** *
 981:.\Generated_Source\PSoC5/CyLib.c **** *******************************************************************************/
 982:.\Generated_Source\PSoC5/CyLib.c **** void CyILO_SetSource(uint8 source) 
 983:.\Generated_Source\PSoC5/CyLib.c **** {
 798              		.loc 1 983 0
 799              		.cfi_startproc
 800              		@ args = 0, pretend = 0, frame = 0
 801              		@ frame_needed = 0, uses_anonymous_args = 0
 802              		@ link register save eliminated.
 803              	.LVL46:
 984:.\Generated_Source\PSoC5/CyLib.c ****     CY_LIB_CLKDIST_CR_REG = (CY_LIB_CLKDIST_CR_REG & CY_ILO_SOURCE_BITS_CLEAR) |
 804              		.loc 1 984 0
 805 0000 4FF04022 		mov	r2, #1073758208
 806 0004 1378     		ldrb	r3, [r2]	@ zero_extendqisi2
 985:.\Generated_Source\PSoC5/CyLib.c ****                     (((uint8) (source << 2u)) & ((uint8)(~CY_ILO_SOURCE_BITS_CLEAR)));
 807              		.loc 1 985 0
 808 0006 8000     		lsls	r0, r0, #2
 809              	.LVL47:
 984:.\Generated_Source\PSoC5/CyLib.c ****     CY_LIB_CLKDIST_CR_REG = (CY_LIB_CLKDIST_CR_REG & CY_ILO_SOURCE_BITS_CLEAR) |
 810              		.loc 1 984 0
 811 0008 03F0F303 		and	r3, r3, #243
 812 000c 00F00C00 		and	r0, r0, #12
 813 0010 1843     		orrs	r0, r0, r3
 814 0012 1070     		strb	r0, [r2]
 815 0014 7047     		bx	lr
 816              		.cfi_endproc
 817              	.LFE23:
 818              		.size	CyILO_SetSource, .-CyILO_SetSource
 819 0016 00BF     		.section	.text.CyILO_SetPowerMode,"ax",%progbits
 820              		.align	2
 821              		.global	CyILO_SetPowerMode
 822              		.thumb
 823              		.thumb_func
 824              		.type	CyILO_SetPowerMode, %function
 825              	CyILO_SetPowerMode:
 826              	.LFB24:
 986:.\Generated_Source\PSoC5/CyLib.c **** }
 987:.\Generated_Source\PSoC5/CyLib.c **** 
 988:.\Generated_Source\PSoC5/CyLib.c **** 
 989:.\Generated_Source\PSoC5/CyLib.c **** /*******************************************************************************
 990:.\Generated_Source\PSoC5/CyLib.c **** * Function Name: CyILO_SetPowerMode
 991:.\Generated_Source\PSoC5/CyLib.c **** ****************************************************************************//**
 992:.\Generated_Source\PSoC5/CyLib.c **** *
 993:.\Generated_Source\PSoC5/CyLib.c **** * Sets the power mode used by the ILO during power down. Allows for lower power
 994:.\Generated_Source\PSoC5/CyLib.c **** * down power usage resulting in a slower startup time.
 995:.\Generated_Source\PSoC5/CyLib.c **** *
 996:.\Generated_Source\PSoC5/CyLib.c **** * \param mode
 997:.\Generated_Source\PSoC5/CyLib.c **** * CY_ILO_FAST_START - Faster start-up, internal bias left on when powered down
 998:.\Generated_Source\PSoC5/CyLib.c **** * CY_ILO_SLOW_START - Slower start-up, internal bias off when powered down
 999:.\Generated_Source\PSoC5/CyLib.c **** *
1000:.\Generated_Source\PSoC5/CyLib.c **** * \return Prevous power mode state.
1001:.\Generated_Source\PSoC5/CyLib.c **** *
1002:.\Generated_Source\PSoC5/CyLib.c **** *******************************************************************************/
1003:.\Generated_Source\PSoC5/CyLib.c **** uint8 CyILO_SetPowerMode(uint8 mode) 
ARM GAS  C:\Users\student\AppData\Local\Temp\ccmWIiPR.s 			page 34


1004:.\Generated_Source\PSoC5/CyLib.c **** {
 827              		.loc 1 1004 0
 828              		.cfi_startproc
 829              		@ args = 0, pretend = 0, frame = 0
 830              		@ frame_needed = 0, uses_anonymous_args = 0
 831              		@ link register save eliminated.
 832              	.LVL48:
1005:.\Generated_Source\PSoC5/CyLib.c ****     uint8 state;
1006:.\Generated_Source\PSoC5/CyLib.c **** 
1007:.\Generated_Source\PSoC5/CyLib.c ****     /* Get current state. */
1008:.\Generated_Source\PSoC5/CyLib.c ****     state = CY_LIB_SLOWCLK_ILO_CR0_REG;
 833              		.loc 1 1008 0
 834 0000 074B     		ldr	r3, .L84
 835 0002 1B78     		ldrb	r3, [r3]	@ zero_extendqisi2
 836 0004 DBB2     		uxtb	r3, r3
 837              	.LVL49:
1009:.\Generated_Source\PSoC5/CyLib.c **** 
1010:.\Generated_Source\PSoC5/CyLib.c ****     /* Set the oscillator power mode. */
1011:.\Generated_Source\PSoC5/CyLib.c ****     if(mode != CY_ILO_FAST_START)
 838              		.loc 1 1011 0
 839 0006 20B1     		cbz	r0, .L82
1012:.\Generated_Source\PSoC5/CyLib.c ****     {
1013:.\Generated_Source\PSoC5/CyLib.c ****         CY_LIB_SLOWCLK_ILO_CR0_REG = (state | CY_ILO_CONTROL_PD_MODE);
 840              		.loc 1 1013 0
 841 0008 43F01002 		orr	r2, r3, #16
 842 000c 0449     		ldr	r1, .L84
 843 000e 0A70     		strb	r2, [r1]
 844 0010 03E0     		b	.L83
 845              	.L82:
1014:.\Generated_Source\PSoC5/CyLib.c ****     }
1015:.\Generated_Source\PSoC5/CyLib.c ****     else
1016:.\Generated_Source\PSoC5/CyLib.c ****     {
1017:.\Generated_Source\PSoC5/CyLib.c ****         CY_LIB_SLOWCLK_ILO_CR0_REG = (state & ((uint8)(~CY_ILO_CONTROL_PD_MODE)));
 846              		.loc 1 1017 0
 847 0012 03F0EF02 		and	r2, r3, #239
 848 0016 0249     		ldr	r1, .L84
 849 0018 0A70     		strb	r2, [r1]
 850              	.L83:
1018:.\Generated_Source\PSoC5/CyLib.c ****     }
1019:.\Generated_Source\PSoC5/CyLib.c **** 
1020:.\Generated_Source\PSoC5/CyLib.c ****     /* Return old mode. */
1021:.\Generated_Source\PSoC5/CyLib.c ****     return ((state & CY_ILO_CONTROL_PD_MODE) >> CY_ILO_CONTROL_PD_POSITION);
1022:.\Generated_Source\PSoC5/CyLib.c **** }
 851              		.loc 1 1022 0
 852 001a C3F30010 		ubfx	r0, r3, #4, #1
 853              	.LVL50:
 854 001e 7047     		bx	lr
 855              	.L85:
 856              		.align	2
 857              	.L84:
 858 0020 00430040 		.word	1073758976
 859              		.cfi_endproc
 860              	.LFE24:
 861              		.size	CyILO_SetPowerMode, .-CyILO_SetPowerMode
 862              		.section	.text.CyXTAL_32KHZ_Stop,"ax",%progbits
 863              		.align	2
 864              		.global	CyXTAL_32KHZ_Stop
ARM GAS  C:\Users\student\AppData\Local\Temp\ccmWIiPR.s 			page 35


 865              		.thumb
 866              		.thumb_func
 867              		.type	CyXTAL_32KHZ_Stop, %function
 868              	CyXTAL_32KHZ_Stop:
 869              	.LFB26:
1023:.\Generated_Source\PSoC5/CyLib.c **** 
1024:.\Generated_Source\PSoC5/CyLib.c **** 
1025:.\Generated_Source\PSoC5/CyLib.c **** /*******************************************************************************
1026:.\Generated_Source\PSoC5/CyLib.c **** * Function Name: CyXTAL_32KHZ_Start
1027:.\Generated_Source\PSoC5/CyLib.c **** ****************************************************************************//**
1028:.\Generated_Source\PSoC5/CyLib.c **** *
1029:.\Generated_Source\PSoC5/CyLib.c **** *  Enables the 32 KHz Crystal Oscillator.
1030:.\Generated_Source\PSoC5/CyLib.c **** *
1031:.\Generated_Source\PSoC5/CyLib.c **** *******************************************************************************/
1032:.\Generated_Source\PSoC5/CyLib.c **** void CyXTAL_32KHZ_Start(void) 
1033:.\Generated_Source\PSoC5/CyLib.c **** {
1034:.\Generated_Source\PSoC5/CyLib.c ****     volatile uint16 i;
1035:.\Generated_Source\PSoC5/CyLib.c **** 
1036:.\Generated_Source\PSoC5/CyLib.c ****     CY_CLK_XTAL32_TST_REG = CY_CLK_XTAL32_TST_DEFAULT;
1037:.\Generated_Source\PSoC5/CyLib.c ****     CY_CLK_XTAL32_TR_REG  = CY_CLK_XTAL32_TR_STARTUP;
1038:.\Generated_Source\PSoC5/CyLib.c ****     CY_CLK_XTAL32_CFG_REG = (CY_CLK_XTAL32_CFG_REG & ((uint8)(~CY_CLK_XTAL32_CFG_LP_MASK))) |
1039:.\Generated_Source\PSoC5/CyLib.c ****                                 CY_CLK_XTAL32_CFG_LP_DEFAULT;
1040:.\Generated_Source\PSoC5/CyLib.c **** 
1041:.\Generated_Source\PSoC5/CyLib.c ****     #if(CY_PSOC3)
1042:.\Generated_Source\PSoC5/CyLib.c ****         CY_CLK_XTAL32_CR_REG |= CY_CLK_XTAL32_CR_PDBEN;
1043:.\Generated_Source\PSoC5/CyLib.c ****     #endif  /* (CY_PSOC3) */
1044:.\Generated_Source\PSoC5/CyLib.c **** 
1045:.\Generated_Source\PSoC5/CyLib.c ****     /* Enable operation of 32K Crystal Oscillator */
1046:.\Generated_Source\PSoC5/CyLib.c ****     CY_CLK_XTAL32_CR_REG |= CY_CLK_XTAL32_CR_EN;
1047:.\Generated_Source\PSoC5/CyLib.c **** 
1048:.\Generated_Source\PSoC5/CyLib.c ****     for (i = 1000u; i > 0u; i--)
1049:.\Generated_Source\PSoC5/CyLib.c ****     {
1050:.\Generated_Source\PSoC5/CyLib.c ****         if(0u != (CyXTAL_32KHZ_ReadStatus() & CY_XTAL32K_ANA_STAT))
1051:.\Generated_Source\PSoC5/CyLib.c ****         {
1052:.\Generated_Source\PSoC5/CyLib.c ****             /* Ready - switch to high power mode */
1053:.\Generated_Source\PSoC5/CyLib.c ****             (void) CyXTAL_32KHZ_SetPowerMode(0u);
1054:.\Generated_Source\PSoC5/CyLib.c **** 
1055:.\Generated_Source\PSoC5/CyLib.c ****             break;
1056:.\Generated_Source\PSoC5/CyLib.c ****         }
1057:.\Generated_Source\PSoC5/CyLib.c ****         CyDelayUs(1u);
1058:.\Generated_Source\PSoC5/CyLib.c ****     }
1059:.\Generated_Source\PSoC5/CyLib.c **** }
1060:.\Generated_Source\PSoC5/CyLib.c **** 
1061:.\Generated_Source\PSoC5/CyLib.c **** 
1062:.\Generated_Source\PSoC5/CyLib.c **** /*******************************************************************************
1063:.\Generated_Source\PSoC5/CyLib.c **** * Function Name: CyXTAL_32KHZ_Stop
1064:.\Generated_Source\PSoC5/CyLib.c **** ****************************************************************************//**
1065:.\Generated_Source\PSoC5/CyLib.c **** *
1066:.\Generated_Source\PSoC5/CyLib.c **** *  Disables the 32KHz Crystal Oscillator.
1067:.\Generated_Source\PSoC5/CyLib.c **** *
1068:.\Generated_Source\PSoC5/CyLib.c **** *******************************************************************************/
1069:.\Generated_Source\PSoC5/CyLib.c **** void CyXTAL_32KHZ_Stop(void) 
1070:.\Generated_Source\PSoC5/CyLib.c **** {
 870              		.loc 1 1070 0
 871              		.cfi_startproc
 872              		@ args = 0, pretend = 0, frame = 0
 873              		@ frame_needed = 0, uses_anonymous_args = 0
ARM GAS  C:\Users\student\AppData\Local\Temp\ccmWIiPR.s 			page 36


 874              		@ link register save eliminated.
1071:.\Generated_Source\PSoC5/CyLib.c ****     CY_CLK_XTAL32_TST_REG  = CY_CLK_XTAL32_TST_DEFAULT;
 875              		.loc 1 1071 0
 876 0000 F322     		movs	r2, #243
 877 0002 094B     		ldr	r3, .L87
 878 0004 1A70     		strb	r2, [r3]
1072:.\Generated_Source\PSoC5/CyLib.c ****     CY_CLK_XTAL32_TR_REG   = CY_CLK_XTAL32_TR_POWERDOWN;
 879              		.loc 1 1072 0
 880 0006 0022     		movs	r2, #0
 881 0008 03F28E33 		addw	r3, r3, #910
 882 000c 1A70     		strb	r2, [r3]
1073:.\Generated_Source\PSoC5/CyLib.c ****     CY_CLK_XTAL32_CFG_REG = (CY_CLK_XTAL32_CFG_REG & ((uint8)(~CY_CLK_XTAL32_CFG_LP_MASK))) |
 883              		.loc 1 1073 0
 884 000e 074A     		ldr	r2, .L87+4
 885 0010 1378     		ldrb	r3, [r2]	@ zero_extendqisi2
 886 0012 03F0F303 		and	r3, r3, #243
 887 0016 43F00403 		orr	r3, r3, #4
 888 001a 1370     		strb	r3, [r2]
1074:.\Generated_Source\PSoC5/CyLib.c ****                              CY_CLK_XTAL32_CFG_LP_DEFAULT;
1075:.\Generated_Source\PSoC5/CyLib.c ****     CY_CLK_XTAL32_CR_REG &= ((uint8)(~(CY_CLK_XTAL32_CR_EN | CY_CLK_XTAL32_CR_LPM)));
 889              		.loc 1 1075 0
 890 001c 013A     		subs	r2, r2, #1
 891 001e 1378     		ldrb	r3, [r2]	@ zero_extendqisi2
 892 0020 03F0FC03 		and	r3, r3, #252
 893 0024 1370     		strb	r3, [r2]
 894 0026 7047     		bx	lr
 895              	.L88:
 896              		.align	2
 897              	.L87:
 898 0028 0A430040 		.word	1073758986
 899 002c 09430040 		.word	1073758985
 900              		.cfi_endproc
 901              	.LFE26:
 902              		.size	CyXTAL_32KHZ_Stop, .-CyXTAL_32KHZ_Stop
 903              		.section	.text.CyXTAL_32KHZ_ReadStatus,"ax",%progbits
 904              		.align	2
 905              		.global	CyXTAL_32KHZ_ReadStatus
 906              		.thumb
 907              		.thumb_func
 908              		.type	CyXTAL_32KHZ_ReadStatus, %function
 909              	CyXTAL_32KHZ_ReadStatus:
 910              	.LFB27:
1076:.\Generated_Source\PSoC5/CyLib.c **** 
1077:.\Generated_Source\PSoC5/CyLib.c ****     #if(CY_PSOC3)
1078:.\Generated_Source\PSoC5/CyLib.c ****         CY_CLK_XTAL32_CR_REG &= ((uint8)(~CY_CLK_XTAL32_CR_PDBEN));
1079:.\Generated_Source\PSoC5/CyLib.c ****     #endif  /* (CY_PSOC3) */
1080:.\Generated_Source\PSoC5/CyLib.c **** }
1081:.\Generated_Source\PSoC5/CyLib.c **** 
1082:.\Generated_Source\PSoC5/CyLib.c **** 
1083:.\Generated_Source\PSoC5/CyLib.c **** /*******************************************************************************
1084:.\Generated_Source\PSoC5/CyLib.c **** * Function Name: CyXTAL_32KHZ_ReadStatus
1085:.\Generated_Source\PSoC5/CyLib.c **** ****************************************************************************//**
1086:.\Generated_Source\PSoC5/CyLib.c **** *
1087:.\Generated_Source\PSoC5/CyLib.c **** *  Returns status of the 32 KHz oscillator.
1088:.\Generated_Source\PSoC5/CyLib.c **** *
1089:.\Generated_Source\PSoC5/CyLib.c **** * \return
1090:.\Generated_Source\PSoC5/CyLib.c **** *  Value     Define                    Source
ARM GAS  C:\Users\student\AppData\Local\Temp\ccmWIiPR.s 			page 37


1091:.\Generated_Source\PSoC5/CyLib.c **** *  20        CY_XTAL32K_ANA_STAT       Analog measurement
1092:.\Generated_Source\PSoC5/CyLib.c **** *                                       1: Stable
1093:.\Generated_Source\PSoC5/CyLib.c **** *                                       0: Not stable
1094:.\Generated_Source\PSoC5/CyLib.c **** *
1095:.\Generated_Source\PSoC5/CyLib.c **** *******************************************************************************/
1096:.\Generated_Source\PSoC5/CyLib.c **** uint8 CyXTAL_32KHZ_ReadStatus(void) 
1097:.\Generated_Source\PSoC5/CyLib.c **** {
 911              		.loc 1 1097 0
 912              		.cfi_startproc
 913              		@ args = 0, pretend = 0, frame = 0
 914              		@ frame_needed = 0, uses_anonymous_args = 0
 915              		@ link register save eliminated.
1098:.\Generated_Source\PSoC5/CyLib.c ****     return(CY_CLK_XTAL32_CR_REG & CY_XTAL32K_ANA_STAT);
 916              		.loc 1 1098 0
 917 0000 024B     		ldr	r3, .L90
 918 0002 1878     		ldrb	r0, [r3]	@ zero_extendqisi2
1099:.\Generated_Source\PSoC5/CyLib.c **** }
 919              		.loc 1 1099 0
 920 0004 00F02000 		and	r0, r0, #32
 921 0008 7047     		bx	lr
 922              	.L91:
 923 000a 00BF     		.align	2
 924              	.L90:
 925 000c 08430040 		.word	1073758984
 926              		.cfi_endproc
 927              	.LFE27:
 928              		.size	CyXTAL_32KHZ_ReadStatus, .-CyXTAL_32KHZ_ReadStatus
 929              		.section	.text.CyXTAL_Start,"ax",%progbits
 930              		.align	2
 931              		.global	CyXTAL_Start
 932              		.thumb
 933              		.thumb_func
 934              		.type	CyXTAL_Start, %function
 935              	CyXTAL_Start:
 936              	.LFB29:
1100:.\Generated_Source\PSoC5/CyLib.c **** 
1101:.\Generated_Source\PSoC5/CyLib.c **** 
1102:.\Generated_Source\PSoC5/CyLib.c **** /*******************************************************************************
1103:.\Generated_Source\PSoC5/CyLib.c **** * Function Name: CyXTAL_32KHZ_SetPowerMode
1104:.\Generated_Source\PSoC5/CyLib.c **** ****************************************************************************//**
1105:.\Generated_Source\PSoC5/CyLib.c **** *
1106:.\Generated_Source\PSoC5/CyLib.c **** *  Sets the power mode for the 32 KHz oscillator used during the sleep mode.
1107:.\Generated_Source\PSoC5/CyLib.c **** *  Allows for lower power during sleep when there are fewer sources of noise.
1108:.\Generated_Source\PSoC5/CyLib.c **** *  During the active mode the oscillator is always run in the high power mode.
1109:.\Generated_Source\PSoC5/CyLib.c **** *
1110:.\Generated_Source\PSoC5/CyLib.c **** *  uint8 mode
1111:.\Generated_Source\PSoC5/CyLib.c **** *       \param 0: High power mode
1112:.\Generated_Source\PSoC5/CyLib.c **** *       \param 1: Low power mode during sleep
1113:.\Generated_Source\PSoC5/CyLib.c **** *
1114:.\Generated_Source\PSoC5/CyLib.c **** * \return
1115:.\Generated_Source\PSoC5/CyLib.c **** *  Previous power mode.
1116:.\Generated_Source\PSoC5/CyLib.c **** *
1117:.\Generated_Source\PSoC5/CyLib.c **** *******************************************************************************/
1118:.\Generated_Source\PSoC5/CyLib.c **** uint8 CyXTAL_32KHZ_SetPowerMode(uint8 mode) 
1119:.\Generated_Source\PSoC5/CyLib.c **** {
1120:.\Generated_Source\PSoC5/CyLib.c ****     uint8 state = (0u != (CY_CLK_XTAL32_CR_REG & CY_CLK_XTAL32_CR_LPM)) ? 1u : 0u;
1121:.\Generated_Source\PSoC5/CyLib.c **** 
ARM GAS  C:\Users\student\AppData\Local\Temp\ccmWIiPR.s 			page 38


1122:.\Generated_Source\PSoC5/CyLib.c ****     CY_CLK_XTAL32_TST_REG = CY_CLK_XTAL32_TST_DEFAULT;
1123:.\Generated_Source\PSoC5/CyLib.c **** 
1124:.\Generated_Source\PSoC5/CyLib.c ****     if(1u == mode)
1125:.\Generated_Source\PSoC5/CyLib.c ****     {
1126:.\Generated_Source\PSoC5/CyLib.c ****         /* Low power mode during Sleep */
1127:.\Generated_Source\PSoC5/CyLib.c ****         CY_CLK_XTAL32_TR_REG  = CY_CLK_XTAL32_TR_LOW_POWER;
1128:.\Generated_Source\PSoC5/CyLib.c ****         CyDelayUs(10u);
1129:.\Generated_Source\PSoC5/CyLib.c ****         CY_CLK_XTAL32_CFG_REG = (CY_CLK_XTAL32_CFG_REG & ((uint8)(~CY_CLK_XTAL32_CFG_LP_MASK))) |
1130:.\Generated_Source\PSoC5/CyLib.c ****                                 CY_CLK_XTAL32_CFG_LP_LOWPOWER;
1131:.\Generated_Source\PSoC5/CyLib.c ****         CyDelayUs(20u);
1132:.\Generated_Source\PSoC5/CyLib.c ****         CY_CLK_XTAL32_CR_REG |= CY_CLK_XTAL32_CR_LPM;
1133:.\Generated_Source\PSoC5/CyLib.c ****     }
1134:.\Generated_Source\PSoC5/CyLib.c ****     else
1135:.\Generated_Source\PSoC5/CyLib.c ****     {
1136:.\Generated_Source\PSoC5/CyLib.c ****         /* High power mode */
1137:.\Generated_Source\PSoC5/CyLib.c ****         CY_CLK_XTAL32_TR_REG  = CY_CLK_XTAL32_TR_HIGH_POWER;
1138:.\Generated_Source\PSoC5/CyLib.c ****         CyDelayUs(10u);
1139:.\Generated_Source\PSoC5/CyLib.c ****         CY_CLK_XTAL32_CFG_REG = (CY_CLK_XTAL32_CFG_REG & ((uint8)(~CY_CLK_XTAL32_CFG_LP_MASK))) |
1140:.\Generated_Source\PSoC5/CyLib.c ****                                 CY_CLK_XTAL32_CFG_LP_DEFAULT;
1141:.\Generated_Source\PSoC5/CyLib.c ****         CY_CLK_XTAL32_CR_REG &= ((uint8)(~CY_CLK_XTAL32_CR_LPM));
1142:.\Generated_Source\PSoC5/CyLib.c ****     }
1143:.\Generated_Source\PSoC5/CyLib.c **** 
1144:.\Generated_Source\PSoC5/CyLib.c ****     return(state);
1145:.\Generated_Source\PSoC5/CyLib.c **** }
1146:.\Generated_Source\PSoC5/CyLib.c **** 
1147:.\Generated_Source\PSoC5/CyLib.c **** 
1148:.\Generated_Source\PSoC5/CyLib.c **** /*******************************************************************************
1149:.\Generated_Source\PSoC5/CyLib.c **** * Function Name: CyXTAL_Start
1150:.\Generated_Source\PSoC5/CyLib.c **** ****************************************************************************//**
1151:.\Generated_Source\PSoC5/CyLib.c **** *
1152:.\Generated_Source\PSoC5/CyLib.c **** *  Enables the megahertz crystal.
1153:.\Generated_Source\PSoC5/CyLib.c **** *
1154:.\Generated_Source\PSoC5/CyLib.c **** *  PSoC 3:
1155:.\Generated_Source\PSoC5/CyLib.c **** *  Waits until the XERR bit is low (no error) for a millisecond or until the
1156:.\Generated_Source\PSoC5/CyLib.c **** *  number of milliseconds specified by the wait parameter has expired.
1157:.\Generated_Source\PSoC5/CyLib.c **** *
1158:.\Generated_Source\PSoC5/CyLib.c **** *   \param wait: Valid range [0-255].
1159:.\Generated_Source\PSoC5/CyLib.c **** *   This is the timeout value in milliseconds.
1160:.\Generated_Source\PSoC5/CyLib.c **** *   The appropriate value is crystal specific.
1161:.\Generated_Source\PSoC5/CyLib.c **** *
1162:.\Generated_Source\PSoC5/CyLib.c **** * \return
1163:.\Generated_Source\PSoC5/CyLib.c **** *   CYRET_SUCCESS - Completed successfully
1164:.\Generated_Source\PSoC5/CyLib.c **** *   CYRET_TIMEOUT - Timeout occurred without detecting a low value on XERR.
1165:.\Generated_Source\PSoC5/CyLib.c **** *
1166:.\Generated_Source\PSoC5/CyLib.c **** * Side Effects and Restrictions:
1167:.\Generated_Source\PSoC5/CyLib.c **** *  If wait is enabled (non-zero wait). Uses the Fast Timewheel to time the wait.
1168:.\Generated_Source\PSoC5/CyLib.c **** *  Any other use of the Fast Timewheel (FTW) will be stopped during the period
1169:.\Generated_Source\PSoC5/CyLib.c **** *  of this function and then restored.
1170:.\Generated_Source\PSoC5/CyLib.c **** *
1171:.\Generated_Source\PSoC5/CyLib.c **** *  Uses the 100KHz ILO.  If not enabled, this function will enable the 100KHz
1172:.\Generated_Source\PSoC5/CyLib.c **** *  ILO for the period of this function. No changes to the setup of the ILO,
1173:.\Generated_Source\PSoC5/CyLib.c **** *  Fast Timewheel, Central Timewheel or Once Per Second interrupt may be made
1174:.\Generated_Source\PSoC5/CyLib.c **** *  by interrupt routines during the period of this function.
1175:.\Generated_Source\PSoC5/CyLib.c **** *
1176:.\Generated_Source\PSoC5/CyLib.c **** *  The current operation of the ILO, Central Timewheel and Once Per Second
1177:.\Generated_Source\PSoC5/CyLib.c **** *  interrupt are maintained during the operation of this function provided the
1178:.\Generated_Source\PSoC5/CyLib.c **** *  reading of the Power Manager Interrupt Status Register is only done using the
ARM GAS  C:\Users\student\AppData\Local\Temp\ccmWIiPR.s 			page 39


1179:.\Generated_Source\PSoC5/CyLib.c **** *  CyPmReadStatus() function.
1180:.\Generated_Source\PSoC5/CyLib.c **** *
1181:.\Generated_Source\PSoC5/CyLib.c **** *******************************************************************************/
1182:.\Generated_Source\PSoC5/CyLib.c **** cystatus CyXTAL_Start(uint8 wait) 
1183:.\Generated_Source\PSoC5/CyLib.c **** {
 937              		.loc 1 1183 0
 938              		.cfi_startproc
 939              		@ args = 0, pretend = 0, frame = 8
 940              		@ frame_needed = 0, uses_anonymous_args = 0
 941              	.LVL51:
 942 0000 F0B5     		push	{r4, r5, r6, r7, lr}
 943              		.cfi_def_cfa_offset 20
 944              		.cfi_offset 4, -20
 945              		.cfi_offset 5, -16
 946              		.cfi_offset 6, -12
 947              		.cfi_offset 7, -8
 948              		.cfi_offset 14, -4
 949 0002 83B0     		sub	sp, sp, #12
 950              		.cfi_def_cfa_offset 32
 951              	.LVL52:
1184:.\Generated_Source\PSoC5/CyLib.c ****     cystatus status = CYRET_SUCCESS;
1185:.\Generated_Source\PSoC5/CyLib.c ****     volatile uint8  timeout = wait;
 952              		.loc 1 1185 0
 953 0004 8DF80700 		strb	r0, [sp, #7]
1186:.\Generated_Source\PSoC5/CyLib.c ****     volatile uint8 count;
1187:.\Generated_Source\PSoC5/CyLib.c ****     uint8 iloEnableState;
1188:.\Generated_Source\PSoC5/CyLib.c ****     uint8 pmTwCfg0Tmp;
1189:.\Generated_Source\PSoC5/CyLib.c ****     uint8 pmTwCfg2Tmp;
1190:.\Generated_Source\PSoC5/CyLib.c **** 
1191:.\Generated_Source\PSoC5/CyLib.c **** 
1192:.\Generated_Source\PSoC5/CyLib.c ****     /* Enables MHz crystal oscillator circuit  */
1193:.\Generated_Source\PSoC5/CyLib.c ****     CY_CLK_XMHZ_CSR_REG |= CY_CLK_XMHZ_CSR_ENABLE;
 954              		.loc 1 1193 0
 955 0008 254A     		ldr	r2, .L103
 956 000a 1378     		ldrb	r3, [r2]	@ zero_extendqisi2
 957 000c 43F00103 		orr	r3, r3, #1
 958 0010 1370     		strb	r3, [r2]
1194:.\Generated_Source\PSoC5/CyLib.c **** 
1195:.\Generated_Source\PSoC5/CyLib.c **** 
1196:.\Generated_Source\PSoC5/CyLib.c ****     if(wait > 0u)
 959              		.loc 1 1196 0
 960 0012 0028     		cmp	r0, #0
 961 0014 40D0     		beq	.L100
1197:.\Generated_Source\PSoC5/CyLib.c ****     {
1198:.\Generated_Source\PSoC5/CyLib.c ****         /* Save 100 KHz ILO, FTW interval, enable and interrupt enable */
1199:.\Generated_Source\PSoC5/CyLib.c ****         iloEnableState = CY_LIB_SLOWCLK_ILO_CR0_REG;
 962              		.loc 1 1199 0
 963 0016 234B     		ldr	r3, .L103+4
 964 0018 1E78     		ldrb	r6, [r3]	@ zero_extendqisi2
 965 001a F6B2     		uxtb	r6, r6
 966              	.LVL53:
1200:.\Generated_Source\PSoC5/CyLib.c ****         pmTwCfg0Tmp = CY_LIB_PM_TW_CFG0_REG;
 967              		.loc 1 1200 0
 968 001c 8033     		adds	r3, r3, #128
 969 001e 1D78     		ldrb	r5, [r3]	@ zero_extendqisi2
 970 0020 EDB2     		uxtb	r5, r5
 971              	.LVL54:
ARM GAS  C:\Users\student\AppData\Local\Temp\ccmWIiPR.s 			page 40


1201:.\Generated_Source\PSoC5/CyLib.c ****         pmTwCfg2Tmp = CY_LIB_PM_TW_CFG2_REG;
 972              		.loc 1 1201 0
 973 0022 0233     		adds	r3, r3, #2
 974 0024 1C78     		ldrb	r4, [r3]	@ zero_extendqisi2
 975 0026 E4B2     		uxtb	r4, r4
 976              	.LVL55:
1202:.\Generated_Source\PSoC5/CyLib.c **** 
1203:.\Generated_Source\PSoC5/CyLib.c ****         /* Set 250 us interval */
1204:.\Generated_Source\PSoC5/CyLib.c ****         CyPmFtwSetInterval(CY_CLK_XMHZ_FTW_INTERVAL);
 977              		.loc 1 1204 0
 978 0028 1820     		movs	r0, #24
 979              	.LVL56:
 980 002a FFF7FEFF 		bl	CyPmFtwSetInterval
 981              	.LVL57:
1205:.\Generated_Source\PSoC5/CyLib.c ****         status = CYRET_TIMEOUT;
1206:.\Generated_Source\PSoC5/CyLib.c **** 
1207:.\Generated_Source\PSoC5/CyLib.c **** 
1208:.\Generated_Source\PSoC5/CyLib.c ****         for( ; timeout > 0u; timeout--)
 982              		.loc 1 1208 0
 983 002e 21E0     		b	.L94
 984              	.L98:
1209:.\Generated_Source\PSoC5/CyLib.c ****         {
1210:.\Generated_Source\PSoC5/CyLib.c ****             /* Read XERR bit to clear it */
1211:.\Generated_Source\PSoC5/CyLib.c ****             (void) CY_CLK_XMHZ_CSR_REG;
 985              		.loc 1 1211 0
 986 0030 1B4B     		ldr	r3, .L103
 987 0032 1B78     		ldrb	r3, [r3]	@ zero_extendqisi2
1212:.\Generated_Source\PSoC5/CyLib.c **** 
1213:.\Generated_Source\PSoC5/CyLib.c ****             /* Wait for 1 millisecond - 4 x 250 us */
1214:.\Generated_Source\PSoC5/CyLib.c ****             for(count = 4u; count > 0u; count--)
 988              		.loc 1 1214 0
 989 0034 0423     		movs	r3, #4
 990 0036 8DF80630 		strb	r3, [sp, #6]
 991 003a 0BE0     		b	.L95
 992              	.L96:
1215:.\Generated_Source\PSoC5/CyLib.c ****             {
1216:.\Generated_Source\PSoC5/CyLib.c ****                 while(0u == (CY_PM_FTW_INT & CyPmReadStatus(CY_PM_FTW_INT)))
 993              		.loc 1 1216 0 discriminator 1
 994 003c 0120     		movs	r0, #1
 995 003e FFF7FEFF 		bl	CyPmReadStatus
 996              	.LVL58:
 997 0042 10F0010F 		tst	r0, #1
 998 0046 F9D0     		beq	.L96
1214:.\Generated_Source\PSoC5/CyLib.c ****             {
 999              		.loc 1 1214 0 discriminator 2
 1000 0048 9DF80630 		ldrb	r3, [sp, #6]	@ zero_extendqisi2
 1001 004c 013B     		subs	r3, r3, #1
 1002 004e DBB2     		uxtb	r3, r3
 1003 0050 8DF80630 		strb	r3, [sp, #6]
 1004              	.L95:
1214:.\Generated_Source\PSoC5/CyLib.c ****             {
 1005              		.loc 1 1214 0 is_stmt 0 discriminator 1
 1006 0054 9DF80630 		ldrb	r3, [sp, #6]	@ zero_extendqisi2
 1007 0058 13F0FF0F 		tst	r3, #255
 1008 005c EED1     		bne	.L96
1217:.\Generated_Source\PSoC5/CyLib.c ****                 {
1218:.\Generated_Source\PSoC5/CyLib.c ****                     /* Wait for FTW interrupt event */
ARM GAS  C:\Users\student\AppData\Local\Temp\ccmWIiPR.s 			page 41


1219:.\Generated_Source\PSoC5/CyLib.c ****                 }
1220:.\Generated_Source\PSoC5/CyLib.c ****             }
1221:.\Generated_Source\PSoC5/CyLib.c **** 
1222:.\Generated_Source\PSoC5/CyLib.c **** 
1223:.\Generated_Source\PSoC5/CyLib.c ****             /*******************************************************************
1224:.\Generated_Source\PSoC5/CyLib.c ****             * High output indicates an oscillator failure.
1225:.\Generated_Source\PSoC5/CyLib.c ****             * Only can be used after a start-up interval (1 ms) is completed.
1226:.\Generated_Source\PSoC5/CyLib.c ****             *******************************************************************/
1227:.\Generated_Source\PSoC5/CyLib.c ****             if(0u == (CY_CLK_XMHZ_CSR_REG & CY_CLK_XMHZ_CSR_XERR))
 1009              		.loc 1 1227 0 is_stmt 1
 1010 005e 104B     		ldr	r3, .L103
 1011 0060 1B78     		ldrb	r3, [r3]	@ zero_extendqisi2
 1012 0062 13F0800F 		tst	r3, #128
 1013 0066 0CD0     		beq	.L101
1208:.\Generated_Source\PSoC5/CyLib.c ****         {
 1014              		.loc 1 1208 0
 1015 0068 9DF80730 		ldrb	r3, [sp, #7]	@ zero_extendqisi2
 1016 006c 013B     		subs	r3, r3, #1
 1017 006e DBB2     		uxtb	r3, r3
 1018 0070 8DF80730 		strb	r3, [sp, #7]
 1019              	.L94:
1208:.\Generated_Source\PSoC5/CyLib.c ****         {
 1020              		.loc 1 1208 0 is_stmt 0 discriminator 1
 1021 0074 9DF80730 		ldrb	r3, [sp, #7]	@ zero_extendqisi2
 1022 0078 13F0FF0F 		tst	r3, #255
 1023 007c D8D1     		bne	.L98
1205:.\Generated_Source\PSoC5/CyLib.c **** 
 1024              		.loc 1 1205 0 is_stmt 1
 1025 007e 1027     		movs	r7, #16
 1026 0080 00E0     		b	.L97
 1027              	.L101:
1228:.\Generated_Source\PSoC5/CyLib.c ****             {
1229:.\Generated_Source\PSoC5/CyLib.c ****                 status = CYRET_SUCCESS;
 1028              		.loc 1 1229 0
 1029 0082 0027     		movs	r7, #0
 1030              	.L97:
 1031              	.LVL59:
1230:.\Generated_Source\PSoC5/CyLib.c ****                 break;
1231:.\Generated_Source\PSoC5/CyLib.c ****             }
1232:.\Generated_Source\PSoC5/CyLib.c ****         }
1233:.\Generated_Source\PSoC5/CyLib.c **** 
1234:.\Generated_Source\PSoC5/CyLib.c **** 
1235:.\Generated_Source\PSoC5/CyLib.c ****         /* Restore 100 KHz ILO, FTW interval, enable and interrupt enable */
1236:.\Generated_Source\PSoC5/CyLib.c ****         if(0u == (iloEnableState & CY_LIB_SLOWCLK_ILO_CR0_EN_100KHZ))
 1032              		.loc 1 1236 0
 1033 0084 16F0040F 		tst	r6, #4
 1034 0088 01D1     		bne	.L99
1237:.\Generated_Source\PSoC5/CyLib.c ****         {
1238:.\Generated_Source\PSoC5/CyLib.c ****             CyILO_Stop100K();
 1035              		.loc 1 1238 0
 1036 008a FFF7FEFF 		bl	CyILO_Stop100K
 1037              	.LVL60:
 1038              	.L99:
1239:.\Generated_Source\PSoC5/CyLib.c ****         }
1240:.\Generated_Source\PSoC5/CyLib.c ****         CY_LIB_PM_TW_CFG0_REG = pmTwCfg0Tmp;
 1039              		.loc 1 1240 0
 1040 008e 064B     		ldr	r3, .L103+8
ARM GAS  C:\Users\student\AppData\Local\Temp\ccmWIiPR.s 			page 42


 1041 0090 1D70     		strb	r5, [r3]
1241:.\Generated_Source\PSoC5/CyLib.c ****         CY_LIB_PM_TW_CFG2_REG = pmTwCfg2Tmp;
 1042              		.loc 1 1241 0
 1043 0092 0233     		adds	r3, r3, #2
 1044 0094 1C70     		strb	r4, [r3]
 1045 0096 00E0     		b	.L93
 1046              	.LVL61:
 1047              	.L100:
1184:.\Generated_Source\PSoC5/CyLib.c ****     volatile uint8  timeout = wait;
 1048              		.loc 1 1184 0
 1049 0098 0027     		movs	r7, #0
 1050              	.LVL62:
 1051              	.L93:
1242:.\Generated_Source\PSoC5/CyLib.c ****     }
1243:.\Generated_Source\PSoC5/CyLib.c **** 
1244:.\Generated_Source\PSoC5/CyLib.c ****     return(status);
1245:.\Generated_Source\PSoC5/CyLib.c **** }
 1052              		.loc 1 1245 0
 1053 009a 3846     		mov	r0, r7
 1054 009c 03B0     		add	sp, sp, #12
 1055              		.cfi_def_cfa_offset 20
 1056              		@ sp needed
 1057 009e F0BD     		pop	{r4, r5, r6, r7, pc}
 1058              	.LVL63:
 1059              	.L104:
 1060              		.align	2
 1061              	.L103:
 1062 00a0 10420040 		.word	1073758736
 1063 00a4 00430040 		.word	1073758976
 1064 00a8 80430040 		.word	1073759104
 1065              		.cfi_endproc
 1066              	.LFE29:
 1067              		.size	CyXTAL_Start, .-CyXTAL_Start
 1068              		.section	.text.CyXTAL_Stop,"ax",%progbits
 1069              		.align	2
 1070              		.global	CyXTAL_Stop
 1071              		.thumb
 1072              		.thumb_func
 1073              		.type	CyXTAL_Stop, %function
 1074              	CyXTAL_Stop:
 1075              	.LFB30:
1246:.\Generated_Source\PSoC5/CyLib.c **** 
1247:.\Generated_Source\PSoC5/CyLib.c **** 
1248:.\Generated_Source\PSoC5/CyLib.c **** /*******************************************************************************
1249:.\Generated_Source\PSoC5/CyLib.c **** * Function Name: CyXTAL_Stop
1250:.\Generated_Source\PSoC5/CyLib.c **** ****************************************************************************//**
1251:.\Generated_Source\PSoC5/CyLib.c **** *
1252:.\Generated_Source\PSoC5/CyLib.c **** *  Disables the megahertz crystal oscillator.
1253:.\Generated_Source\PSoC5/CyLib.c **** *
1254:.\Generated_Source\PSoC5/CyLib.c **** *******************************************************************************/
1255:.\Generated_Source\PSoC5/CyLib.c **** void CyXTAL_Stop(void) 
1256:.\Generated_Source\PSoC5/CyLib.c **** {
 1076              		.loc 1 1256 0
 1077              		.cfi_startproc
 1078              		@ args = 0, pretend = 0, frame = 0
 1079              		@ frame_needed = 0, uses_anonymous_args = 0
 1080              		@ link register save eliminated.
ARM GAS  C:\Users\student\AppData\Local\Temp\ccmWIiPR.s 			page 43


1257:.\Generated_Source\PSoC5/CyLib.c ****     /* Disable oscillator. */
1258:.\Generated_Source\PSoC5/CyLib.c ****     FASTCLK_XMHZ_CSR &= ((uint8)(~XMHZ_CONTROL_ENABLE));
 1081              		.loc 1 1258 0
 1082 0000 024A     		ldr	r2, .L106
 1083 0002 1378     		ldrb	r3, [r2]	@ zero_extendqisi2
 1084 0004 03F0FE03 		and	r3, r3, #254
 1085 0008 1370     		strb	r3, [r2]
 1086 000a 7047     		bx	lr
 1087              	.L107:
 1088              		.align	2
 1089              	.L106:
 1090 000c 10420040 		.word	1073758736
 1091              		.cfi_endproc
 1092              	.LFE30:
 1093              		.size	CyXTAL_Stop, .-CyXTAL_Stop
 1094              		.section	.text.CyXTAL_EnableErrStatus,"ax",%progbits
 1095              		.align	2
 1096              		.global	CyXTAL_EnableErrStatus
 1097              		.thumb
 1098              		.thumb_func
 1099              		.type	CyXTAL_EnableErrStatus, %function
 1100              	CyXTAL_EnableErrStatus:
 1101              	.LFB31:
1259:.\Generated_Source\PSoC5/CyLib.c **** }
1260:.\Generated_Source\PSoC5/CyLib.c **** 
1261:.\Generated_Source\PSoC5/CyLib.c **** 
1262:.\Generated_Source\PSoC5/CyLib.c **** /*******************************************************************************
1263:.\Generated_Source\PSoC5/CyLib.c **** * Function Name: CyXTAL_EnableErrStatus
1264:.\Generated_Source\PSoC5/CyLib.c **** ****************************************************************************//**
1265:.\Generated_Source\PSoC5/CyLib.c **** *
1266:.\Generated_Source\PSoC5/CyLib.c **** *  Enables the generation of the XERR status bit for the megahertz crystal.
1267:.\Generated_Source\PSoC5/CyLib.c **** *  This function is not available for PSoC5.
1268:.\Generated_Source\PSoC5/CyLib.c **** *
1269:.\Generated_Source\PSoC5/CyLib.c **** *******************************************************************************/
1270:.\Generated_Source\PSoC5/CyLib.c **** void CyXTAL_EnableErrStatus(void) 
1271:.\Generated_Source\PSoC5/CyLib.c **** {
 1102              		.loc 1 1271 0
 1103              		.cfi_startproc
 1104              		@ args = 0, pretend = 0, frame = 0
 1105              		@ frame_needed = 0, uses_anonymous_args = 0
 1106              		@ link register save eliminated.
1272:.\Generated_Source\PSoC5/CyLib.c ****     /* If oscillator has insufficient amplitude, XERR bit will be high. */
1273:.\Generated_Source\PSoC5/CyLib.c ****     CY_CLK_XMHZ_CSR_REG &= ((uint8)(~CY_CLK_XMHZ_CSR_XFB));
 1107              		.loc 1 1273 0
 1108 0000 024A     		ldr	r2, .L109
 1109 0002 1378     		ldrb	r3, [r2]	@ zero_extendqisi2
 1110 0004 03F0FB03 		and	r3, r3, #251
 1111 0008 1370     		strb	r3, [r2]
 1112 000a 7047     		bx	lr
 1113              	.L110:
 1114              		.align	2
 1115              	.L109:
 1116 000c 10420040 		.word	1073758736
 1117              		.cfi_endproc
 1118              	.LFE31:
 1119              		.size	CyXTAL_EnableErrStatus, .-CyXTAL_EnableErrStatus
 1120              		.section	.text.CyXTAL_DisableErrStatus,"ax",%progbits
ARM GAS  C:\Users\student\AppData\Local\Temp\ccmWIiPR.s 			page 44


 1121              		.align	2
 1122              		.global	CyXTAL_DisableErrStatus
 1123              		.thumb
 1124              		.thumb_func
 1125              		.type	CyXTAL_DisableErrStatus, %function
 1126              	CyXTAL_DisableErrStatus:
 1127              	.LFB32:
1274:.\Generated_Source\PSoC5/CyLib.c **** }
1275:.\Generated_Source\PSoC5/CyLib.c **** 
1276:.\Generated_Source\PSoC5/CyLib.c **** 
1277:.\Generated_Source\PSoC5/CyLib.c **** /*******************************************************************************
1278:.\Generated_Source\PSoC5/CyLib.c **** * Function Name: CyXTAL_DisableErrStatus
1279:.\Generated_Source\PSoC5/CyLib.c **** ****************************************************************************//**
1280:.\Generated_Source\PSoC5/CyLib.c **** *
1281:.\Generated_Source\PSoC5/CyLib.c **** *  Disables the generation of the XERR status bit for the megahertz crystal.
1282:.\Generated_Source\PSoC5/CyLib.c **** *  This function is not available for PSoC5.
1283:.\Generated_Source\PSoC5/CyLib.c **** *
1284:.\Generated_Source\PSoC5/CyLib.c **** *******************************************************************************/
1285:.\Generated_Source\PSoC5/CyLib.c **** void CyXTAL_DisableErrStatus(void) 
1286:.\Generated_Source\PSoC5/CyLib.c **** {
 1128              		.loc 1 1286 0
 1129              		.cfi_startproc
 1130              		@ args = 0, pretend = 0, frame = 0
 1131              		@ frame_needed = 0, uses_anonymous_args = 0
 1132              		@ link register save eliminated.
1287:.\Generated_Source\PSoC5/CyLib.c ****     /* If oscillator has insufficient amplitude, XERR bit will be high. */
1288:.\Generated_Source\PSoC5/CyLib.c ****     CY_CLK_XMHZ_CSR_REG |= CY_CLK_XMHZ_CSR_XFB;
 1133              		.loc 1 1288 0
 1134 0000 024A     		ldr	r2, .L112
 1135 0002 1378     		ldrb	r3, [r2]	@ zero_extendqisi2
 1136 0004 43F00403 		orr	r3, r3, #4
 1137 0008 1370     		strb	r3, [r2]
 1138 000a 7047     		bx	lr
 1139              	.L113:
 1140              		.align	2
 1141              	.L112:
 1142 000c 10420040 		.word	1073758736
 1143              		.cfi_endproc
 1144              	.LFE32:
 1145              		.size	CyXTAL_DisableErrStatus, .-CyXTAL_DisableErrStatus
 1146              		.section	.text.CyXTAL_ReadStatus,"ax",%progbits
 1147              		.align	2
 1148              		.global	CyXTAL_ReadStatus
 1149              		.thumb
 1150              		.thumb_func
 1151              		.type	CyXTAL_ReadStatus, %function
 1152              	CyXTAL_ReadStatus:
 1153              	.LFB33:
1289:.\Generated_Source\PSoC5/CyLib.c **** }
1290:.\Generated_Source\PSoC5/CyLib.c **** 
1291:.\Generated_Source\PSoC5/CyLib.c **** 
1292:.\Generated_Source\PSoC5/CyLib.c **** /*******************************************************************************
1293:.\Generated_Source\PSoC5/CyLib.c **** * Function Name: CyXTAL_ReadStatus
1294:.\Generated_Source\PSoC5/CyLib.c **** ****************************************************************************//**
1295:.\Generated_Source\PSoC5/CyLib.c **** *
1296:.\Generated_Source\PSoC5/CyLib.c **** *  Reads the XERR status bit for the megahertz crystal. This status bit is a
1297:.\Generated_Source\PSoC5/CyLib.c **** *  sticky, clear on read. This function is not available for PSoC5.
ARM GAS  C:\Users\student\AppData\Local\Temp\ccmWIiPR.s 			page 45


1298:.\Generated_Source\PSoC5/CyLib.c **** *
1299:.\Generated_Source\PSoC5/CyLib.c **** * \return
1300:.\Generated_Source\PSoC5/CyLib.c **** *   Status
1301:.\Generated_Source\PSoC5/CyLib.c **** *    0: No error
1302:.\Generated_Source\PSoC5/CyLib.c **** *    1: Error
1303:.\Generated_Source\PSoC5/CyLib.c **** *
1304:.\Generated_Source\PSoC5/CyLib.c **** *******************************************************************************/
1305:.\Generated_Source\PSoC5/CyLib.c **** uint8 CyXTAL_ReadStatus(void) 
1306:.\Generated_Source\PSoC5/CyLib.c **** {
 1154              		.loc 1 1306 0
 1155              		.cfi_startproc
 1156              		@ args = 0, pretend = 0, frame = 0
 1157              		@ frame_needed = 0, uses_anonymous_args = 0
 1158              		@ link register save eliminated.
1307:.\Generated_Source\PSoC5/CyLib.c ****     /***************************************************************************
1308:.\Generated_Source\PSoC5/CyLib.c ****     * High output indicates an oscillator failure. Only use this after a start-up
1309:.\Generated_Source\PSoC5/CyLib.c ****     * interval is completed. This can be used for the status and failure recovery.
1310:.\Generated_Source\PSoC5/CyLib.c ****     ***************************************************************************/
1311:.\Generated_Source\PSoC5/CyLib.c ****     return((0u != (CY_CLK_XMHZ_CSR_REG & CY_CLK_XMHZ_CSR_XERR)) ? 1u : 0u);
 1159              		.loc 1 1311 0
 1160 0000 044B     		ldr	r3, .L117
 1161 0002 1B78     		ldrb	r3, [r3]	@ zero_extendqisi2
 1162 0004 13F0800F 		tst	r3, #128
 1163 0008 01D0     		beq	.L116
 1164 000a 0120     		movs	r0, #1
 1165 000c 7047     		bx	lr
 1166              	.L116:
 1167 000e 0020     		movs	r0, #0
1312:.\Generated_Source\PSoC5/CyLib.c **** }
 1168              		.loc 1 1312 0
 1169 0010 7047     		bx	lr
 1170              	.L118:
 1171 0012 00BF     		.align	2
 1172              	.L117:
 1173 0014 10420040 		.word	1073758736
 1174              		.cfi_endproc
 1175              	.LFE33:
 1176              		.size	CyXTAL_ReadStatus, .-CyXTAL_ReadStatus
 1177              		.section	.text.CyXTAL_EnableFaultRecovery,"ax",%progbits
 1178              		.align	2
 1179              		.global	CyXTAL_EnableFaultRecovery
 1180              		.thumb
 1181              		.thumb_func
 1182              		.type	CyXTAL_EnableFaultRecovery, %function
 1183              	CyXTAL_EnableFaultRecovery:
 1184              	.LFB34:
1313:.\Generated_Source\PSoC5/CyLib.c **** 
1314:.\Generated_Source\PSoC5/CyLib.c **** 
1315:.\Generated_Source\PSoC5/CyLib.c **** /*******************************************************************************
1316:.\Generated_Source\PSoC5/CyLib.c **** * Function Name: CyXTAL_EnableFaultRecovery
1317:.\Generated_Source\PSoC5/CyLib.c **** ****************************************************************************//**
1318:.\Generated_Source\PSoC5/CyLib.c **** *
1319:.\Generated_Source\PSoC5/CyLib.c **** *  Enables the fault recovery circuit which will switch to the IMO in the case
1320:.\Generated_Source\PSoC5/CyLib.c **** *  of a fault in the megahertz crystal circuit. The crystal must be up and
1321:.\Generated_Source\PSoC5/CyLib.c **** *  running with the XERR bit at 0, before calling this function to prevent
1322:.\Generated_Source\PSoC5/CyLib.c **** *  an immediate fault switchover. This function is not available for PSoC5.
1323:.\Generated_Source\PSoC5/CyLib.c **** *
ARM GAS  C:\Users\student\AppData\Local\Temp\ccmWIiPR.s 			page 46


1324:.\Generated_Source\PSoC5/CyLib.c **** *******************************************************************************/
1325:.\Generated_Source\PSoC5/CyLib.c **** void CyXTAL_EnableFaultRecovery(void) 
1326:.\Generated_Source\PSoC5/CyLib.c **** {
 1185              		.loc 1 1326 0
 1186              		.cfi_startproc
 1187              		@ args = 0, pretend = 0, frame = 0
 1188              		@ frame_needed = 0, uses_anonymous_args = 0
 1189              		@ link register save eliminated.
1327:.\Generated_Source\PSoC5/CyLib.c ****     CY_CLK_XMHZ_CSR_REG |= CY_CLK_XMHZ_CSR_XPROT;
 1190              		.loc 1 1327 0
 1191 0000 024A     		ldr	r2, .L120
 1192 0002 1378     		ldrb	r3, [r2]	@ zero_extendqisi2
 1193 0004 43F04003 		orr	r3, r3, #64
 1194 0008 1370     		strb	r3, [r2]
 1195 000a 7047     		bx	lr
 1196              	.L121:
 1197              		.align	2
 1198              	.L120:
 1199 000c 10420040 		.word	1073758736
 1200              		.cfi_endproc
 1201              	.LFE34:
 1202              		.size	CyXTAL_EnableFaultRecovery, .-CyXTAL_EnableFaultRecovery
 1203              		.section	.text.CyXTAL_DisableFaultRecovery,"ax",%progbits
 1204              		.align	2
 1205              		.global	CyXTAL_DisableFaultRecovery
 1206              		.thumb
 1207              		.thumb_func
 1208              		.type	CyXTAL_DisableFaultRecovery, %function
 1209              	CyXTAL_DisableFaultRecovery:
 1210              	.LFB35:
1328:.\Generated_Source\PSoC5/CyLib.c **** }
1329:.\Generated_Source\PSoC5/CyLib.c **** 
1330:.\Generated_Source\PSoC5/CyLib.c **** 
1331:.\Generated_Source\PSoC5/CyLib.c **** /*******************************************************************************
1332:.\Generated_Source\PSoC5/CyLib.c **** * Function Name: CyXTAL_DisableFaultRecovery
1333:.\Generated_Source\PSoC5/CyLib.c **** ****************************************************************************//**
1334:.\Generated_Source\PSoC5/CyLib.c **** *
1335:.\Generated_Source\PSoC5/CyLib.c **** *  Disables the fault recovery circuit which will switch to the IMO in the case
1336:.\Generated_Source\PSoC5/CyLib.c **** *  of a fault in the megahertz crystal circuit. This function is not available
1337:.\Generated_Source\PSoC5/CyLib.c **** *  for PSoC5.
1338:.\Generated_Source\PSoC5/CyLib.c **** *
1339:.\Generated_Source\PSoC5/CyLib.c **** *******************************************************************************/
1340:.\Generated_Source\PSoC5/CyLib.c **** void CyXTAL_DisableFaultRecovery(void) 
1341:.\Generated_Source\PSoC5/CyLib.c **** {
 1211              		.loc 1 1341 0
 1212              		.cfi_startproc
 1213              		@ args = 0, pretend = 0, frame = 0
 1214              		@ frame_needed = 0, uses_anonymous_args = 0
 1215              		@ link register save eliminated.
1342:.\Generated_Source\PSoC5/CyLib.c ****     CY_CLK_XMHZ_CSR_REG &= ((uint8)(~CY_CLK_XMHZ_CSR_XPROT));
 1216              		.loc 1 1342 0
 1217 0000 024A     		ldr	r2, .L123
 1218 0002 1378     		ldrb	r3, [r2]	@ zero_extendqisi2
 1219 0004 03F0BF03 		and	r3, r3, #191
 1220 0008 1370     		strb	r3, [r2]
 1221 000a 7047     		bx	lr
 1222              	.L124:
ARM GAS  C:\Users\student\AppData\Local\Temp\ccmWIiPR.s 			page 47


 1223              		.align	2
 1224              	.L123:
 1225 000c 10420040 		.word	1073758736
 1226              		.cfi_endproc
 1227              	.LFE35:
 1228              		.size	CyXTAL_DisableFaultRecovery, .-CyXTAL_DisableFaultRecovery
 1229              		.section	.text.CyXTAL_SetStartup,"ax",%progbits
 1230              		.align	2
 1231              		.global	CyXTAL_SetStartup
 1232              		.thumb
 1233              		.thumb_func
 1234              		.type	CyXTAL_SetStartup, %function
 1235              	CyXTAL_SetStartup:
 1236              	.LFB36:
1343:.\Generated_Source\PSoC5/CyLib.c **** }
1344:.\Generated_Source\PSoC5/CyLib.c **** 
1345:.\Generated_Source\PSoC5/CyLib.c **** 
1346:.\Generated_Source\PSoC5/CyLib.c **** /*******************************************************************************
1347:.\Generated_Source\PSoC5/CyLib.c **** * Function Name: CyXTAL_SetStartup
1348:.\Generated_Source\PSoC5/CyLib.c **** ****************************************************************************//**
1349:.\Generated_Source\PSoC5/CyLib.c **** *
1350:.\Generated_Source\PSoC5/CyLib.c **** *  Sets the startup settings for the crystal. The logic model outputs a
1351:.\Generated_Source\PSoC5/CyLib.c **** *  frequency (setting + 4) MHz when enabled.
1352:.\Generated_Source\PSoC5/CyLib.c **** *
1353:.\Generated_Source\PSoC5/CyLib.c **** *  This is artificial as the actual frequency is determined by an attached
1354:.\Generated_Source\PSoC5/CyLib.c **** *  external crystal.
1355:.\Generated_Source\PSoC5/CyLib.c **** *
1356:.\Generated_Source\PSoC5/CyLib.c **** *  \param setting: Valid range [0-31].
1357:.\Generated_Source\PSoC5/CyLib.c **** *   The value is dependent on the frequency and quality of the crystal being
1358:.\Generated_Source\PSoC5/CyLib.c **** *   used. Refer to the device TRM and datasheet for more information.
1359:.\Generated_Source\PSoC5/CyLib.c **** *
1360:.\Generated_Source\PSoC5/CyLib.c **** *******************************************************************************/
1361:.\Generated_Source\PSoC5/CyLib.c **** void CyXTAL_SetStartup(uint8 setting) 
1362:.\Generated_Source\PSoC5/CyLib.c **** {
 1237              		.loc 1 1362 0
 1238              		.cfi_startproc
 1239              		@ args = 0, pretend = 0, frame = 0
 1240              		@ frame_needed = 0, uses_anonymous_args = 0
 1241              		@ link register save eliminated.
 1242              	.LVL64:
1363:.\Generated_Source\PSoC5/CyLib.c ****     CY_CLK_XMHZ_CFG0_REG = (CY_CLK_XMHZ_CFG0_REG & ((uint8)(~CY_CLK_XMHZ_CFG0_XCFG_MASK))) |
 1243              		.loc 1 1363 0
 1244 0000 044A     		ldr	r2, .L126
 1245 0002 1378     		ldrb	r3, [r2]	@ zero_extendqisi2
 1246 0004 03F0E003 		and	r3, r3, #224
 1247 0008 00F01F00 		and	r0, r0, #31
 1248              	.LVL65:
 1249 000c 1843     		orrs	r0, r0, r3
 1250 000e 1070     		strb	r0, [r2]
 1251 0010 7047     		bx	lr
 1252              	.L127:
 1253 0012 00BF     		.align	2
 1254              	.L126:
 1255 0014 12420040 		.word	1073758738
 1256              		.cfi_endproc
 1257              	.LFE36:
 1258              		.size	CyXTAL_SetStartup, .-CyXTAL_SetStartup
ARM GAS  C:\Users\student\AppData\Local\Temp\ccmWIiPR.s 			page 48


 1259              		.section	.text.CyXTAL_SetFbVoltage,"ax",%progbits
 1260              		.align	2
 1261              		.global	CyXTAL_SetFbVoltage
 1262              		.thumb
 1263              		.thumb_func
 1264              		.type	CyXTAL_SetFbVoltage, %function
 1265              	CyXTAL_SetFbVoltage:
 1266              	.LFB37:
1364:.\Generated_Source\PSoC5/CyLib.c ****                            (setting & CY_CLK_XMHZ_CFG0_XCFG_MASK);
1365:.\Generated_Source\PSoC5/CyLib.c **** }
1366:.\Generated_Source\PSoC5/CyLib.c **** 
1367:.\Generated_Source\PSoC5/CyLib.c **** 
1368:.\Generated_Source\PSoC5/CyLib.c **** 
1369:.\Generated_Source\PSoC5/CyLib.c **** /*******************************************************************************
1370:.\Generated_Source\PSoC5/CyLib.c **** * Function Name: CyXTAL_SetFbVoltage
1371:.\Generated_Source\PSoC5/CyLib.c **** ****************************************************************************//**
1372:.\Generated_Source\PSoC5/CyLib.c **** *
1373:.\Generated_Source\PSoC5/CyLib.c **** *  Sets the feedback reference voltage to use for the crystal circuit.
1374:.\Generated_Source\PSoC5/CyLib.c **** *  This function is only available for PSoC3 and PSoC 5LP.
1375:.\Generated_Source\PSoC5/CyLib.c **** *
1376:.\Generated_Source\PSoC5/CyLib.c **** *  \param setting: Valid range [0-15].
1377:.\Generated_Source\PSoC5/CyLib.c **** *  Refer to the device TRM and datasheet for more information.
1378:.\Generated_Source\PSoC5/CyLib.c **** *
1379:.\Generated_Source\PSoC5/CyLib.c **** *******************************************************************************/
1380:.\Generated_Source\PSoC5/CyLib.c **** void CyXTAL_SetFbVoltage(uint8 setting) 
1381:.\Generated_Source\PSoC5/CyLib.c **** {
 1267              		.loc 1 1381 0
 1268              		.cfi_startproc
 1269              		@ args = 0, pretend = 0, frame = 0
 1270              		@ frame_needed = 0, uses_anonymous_args = 0
 1271              		@ link register save eliminated.
 1272              	.LVL66:
1382:.\Generated_Source\PSoC5/CyLib.c ****     CY_CLK_XMHZ_CFG1_REG = ((CY_CLK_XMHZ_CFG1_REG & ((uint8)(~CY_CLK_XMHZ_CFG1_VREF_FB_MASK))) |
 1273              		.loc 1 1382 0
 1274 0000 044A     		ldr	r2, .L129
 1275 0002 1378     		ldrb	r3, [r2]	@ zero_extendqisi2
 1276 0004 03F0F003 		and	r3, r3, #240
 1277 0008 00F00F00 		and	r0, r0, #15
 1278              	.LVL67:
 1279 000c 1843     		orrs	r0, r0, r3
 1280 000e 1070     		strb	r0, [r2]
 1281 0010 7047     		bx	lr
 1282              	.L130:
 1283 0012 00BF     		.align	2
 1284              	.L129:
 1285 0014 13420040 		.word	1073758739
 1286              		.cfi_endproc
 1287              	.LFE37:
 1288              		.size	CyXTAL_SetFbVoltage, .-CyXTAL_SetFbVoltage
 1289              		.section	.text.CyXTAL_SetWdVoltage,"ax",%progbits
 1290              		.align	2
 1291              		.global	CyXTAL_SetWdVoltage
 1292              		.thumb
 1293              		.thumb_func
 1294              		.type	CyXTAL_SetWdVoltage, %function
 1295              	CyXTAL_SetWdVoltage:
 1296              	.LFB38:
ARM GAS  C:\Users\student\AppData\Local\Temp\ccmWIiPR.s 			page 49


1383:.\Generated_Source\PSoC5/CyLib.c ****                             (setting & CY_CLK_XMHZ_CFG1_VREF_FB_MASK));
1384:.\Generated_Source\PSoC5/CyLib.c **** }
1385:.\Generated_Source\PSoC5/CyLib.c **** 
1386:.\Generated_Source\PSoC5/CyLib.c **** 
1387:.\Generated_Source\PSoC5/CyLib.c **** /*******************************************************************************
1388:.\Generated_Source\PSoC5/CyLib.c **** * Function Name: CyXTAL_SetWdVoltage
1389:.\Generated_Source\PSoC5/CyLib.c **** ****************************************************************************//**
1390:.\Generated_Source\PSoC5/CyLib.c **** *
1391:.\Generated_Source\PSoC5/CyLib.c **** *  Sets the reference voltage used by the watchdog to detect a failure in the
1392:.\Generated_Source\PSoC5/CyLib.c **** *  crystal circuit. This function is only available for PSoC3 and PSoC 5LP.
1393:.\Generated_Source\PSoC5/CyLib.c **** *
1394:.\Generated_Source\PSoC5/CyLib.c **** *  \param setting: Valid range [0-7].
1395:.\Generated_Source\PSoC5/CyLib.c **** *  Refer to the device TRM and datasheet for more information.
1396:.\Generated_Source\PSoC5/CyLib.c **** *
1397:.\Generated_Source\PSoC5/CyLib.c **** *******************************************************************************/
1398:.\Generated_Source\PSoC5/CyLib.c **** void CyXTAL_SetWdVoltage(uint8 setting) 
1399:.\Generated_Source\PSoC5/CyLib.c **** {
 1297              		.loc 1 1399 0
 1298              		.cfi_startproc
 1299              		@ args = 0, pretend = 0, frame = 0
 1300              		@ frame_needed = 0, uses_anonymous_args = 0
 1301              		@ link register save eliminated.
 1302              	.LVL68:
1400:.\Generated_Source\PSoC5/CyLib.c ****     CY_CLK_XMHZ_CFG1_REG = ((CY_CLK_XMHZ_CFG1_REG & ((uint8)(~CY_CLK_XMHZ_CFG1_VREF_WD_MASK))) |
 1303              		.loc 1 1400 0
 1304 0000 044A     		ldr	r2, .L132
 1305 0002 1378     		ldrb	r3, [r2]	@ zero_extendqisi2
1401:.\Generated_Source\PSoC5/CyLib.c ****                             (((uint8)(setting << 4u)) & CY_CLK_XMHZ_CFG1_VREF_WD_MASK));
 1306              		.loc 1 1401 0
 1307 0004 0001     		lsls	r0, r0, #4
 1308              	.LVL69:
1400:.\Generated_Source\PSoC5/CyLib.c ****     CY_CLK_XMHZ_CFG1_REG = ((CY_CLK_XMHZ_CFG1_REG & ((uint8)(~CY_CLK_XMHZ_CFG1_VREF_WD_MASK))) |
 1309              		.loc 1 1400 0
 1310 0006 03F08F03 		and	r3, r3, #143
 1311 000a 00F07000 		and	r0, r0, #112
 1312 000e 1843     		orrs	r0, r0, r3
 1313 0010 1070     		strb	r0, [r2]
 1314 0012 7047     		bx	lr
 1315              	.L133:
 1316              		.align	2
 1317              	.L132:
 1318 0014 13420040 		.word	1073758739
 1319              		.cfi_endproc
 1320              	.LFE38:
 1321              		.size	CyXTAL_SetWdVoltage, .-CyXTAL_SetWdVoltage
 1322              		.section	.text.CyHalt,"ax",%progbits
 1323              		.align	2
 1324              		.global	CyHalt
 1325              		.thumb
 1326              		.thumb_func
 1327              		.type	CyHalt, %function
 1328              	CyHalt:
 1329              	.LFB39:
1402:.\Generated_Source\PSoC5/CyLib.c **** }
1403:.\Generated_Source\PSoC5/CyLib.c **** 
1404:.\Generated_Source\PSoC5/CyLib.c **** 
1405:.\Generated_Source\PSoC5/CyLib.c **** /*******************************************************************************
ARM GAS  C:\Users\student\AppData\Local\Temp\ccmWIiPR.s 			page 50


1406:.\Generated_Source\PSoC5/CyLib.c **** * Function Name: CyHalt
1407:.\Generated_Source\PSoC5/CyLib.c **** ****************************************************************************//**
1408:.\Generated_Source\PSoC5/CyLib.c **** *
1409:.\Generated_Source\PSoC5/CyLib.c **** *  Halts the CPU.
1410:.\Generated_Source\PSoC5/CyLib.c **** *
1411:.\Generated_Source\PSoC5/CyLib.c **** *  \param uint8 reason: Value to be used during debugging.
1412:.\Generated_Source\PSoC5/CyLib.c **** *
1413:.\Generated_Source\PSoC5/CyLib.c **** *******************************************************************************/
1414:.\Generated_Source\PSoC5/CyLib.c **** void CyHalt(uint8 reason) CYREENTRANT
1415:.\Generated_Source\PSoC5/CyLib.c **** {
 1330              		.loc 1 1415 0
 1331              		.cfi_startproc
 1332              		@ args = 0, pretend = 0, frame = 0
 1333              		@ frame_needed = 0, uses_anonymous_args = 0
 1334              		@ link register save eliminated.
 1335              	.LVL70:
1416:.\Generated_Source\PSoC5/CyLib.c ****     if(0u != reason)
1417:.\Generated_Source\PSoC5/CyLib.c ****     {
1418:.\Generated_Source\PSoC5/CyLib.c ****         /* To remove unreferenced local variable warning */
1419:.\Generated_Source\PSoC5/CyLib.c ****     }
1420:.\Generated_Source\PSoC5/CyLib.c **** 
1421:.\Generated_Source\PSoC5/CyLib.c ****     #if defined (__ARMCC_VERSION)
1422:.\Generated_Source\PSoC5/CyLib.c ****         __breakpoint(0x0);
1423:.\Generated_Source\PSoC5/CyLib.c ****     #elif defined(__GNUC__) || defined (__ICCARM__)
1424:.\Generated_Source\PSoC5/CyLib.c ****         __asm("    bkpt    1");
 1336              		.loc 1 1424 0
 1337              	@ 1424 ".\Generated_Source\PSoC5\CyLib.c" 1
 1338 0000 01BE     		    bkpt    1
 1339              	@ 0 "" 2
 1340              		.thumb
 1341 0002 7047     		bx	lr
 1342              		.cfi_endproc
 1343              	.LFE39:
 1344              		.size	CyHalt, .-CyHalt
 1345              		.section	.text.CyPLL_OUT_SetPQ,"ax",%progbits
 1346              		.align	2
 1347              		.global	CyPLL_OUT_SetPQ
 1348              		.thumb
 1349              		.thumb_func
 1350              		.type	CyPLL_OUT_SetPQ, %function
 1351              	CyPLL_OUT_SetPQ:
 1352              	.LFB2:
 188:.\Generated_Source\PSoC5/CyLib.c ****     /* Halt CPU in debug mode if PLL is enabled */
 1353              		.loc 1 188 0
 1354              		.cfi_startproc
 1355              		@ args = 0, pretend = 0, frame = 0
 1356              		@ frame_needed = 0, uses_anonymous_args = 0
 1357              	.LVL71:
 1358 0000 70B5     		push	{r4, r5, r6, lr}
 1359              		.cfi_def_cfa_offset 16
 1360              		.cfi_offset 4, -16
 1361              		.cfi_offset 5, -12
 1362              		.cfi_offset 6, -8
 1363              		.cfi_offset 14, -4
 1364 0002 0546     		mov	r5, r0
 1365 0004 0C46     		mov	r4, r1
 1366 0006 1646     		mov	r6, r2
ARM GAS  C:\Users\student\AppData\Local\Temp\ccmWIiPR.s 			page 51


 190:.\Generated_Source\PSoC5/CyLib.c **** 
 1367              		.loc 1 190 0
 1368 0008 124B     		ldr	r3, .L140
 1369 000a 1B78     		ldrb	r3, [r3]	@ zero_extendqisi2
 1370 000c 13F0010F 		tst	r3, #1
 1371 0010 02D0     		beq	.L136
 190:.\Generated_Source\PSoC5/CyLib.c **** 
 1372              		.loc 1 190 0 is_stmt 0 discriminator 1
 1373 0012 0020     		movs	r0, #0
 1374              	.LVL72:
 1375 0014 FFF7FEFF 		bl	CyHalt
 1376              	.LVL73:
 1377              	.L136:
 192:.\Generated_Source\PSoC5/CyLib.c ****        (qDiv    <= CY_CLK_PLL_MAX_Q_VALUE  ) && (qDiv    >= CY_CLK_PLL_MIN_Q_VALUE  ) &&
 1378              		.loc 1 192 0 is_stmt 1
 1379 0018 072D     		cmp	r5, #7
 1380 001a 16D9     		bls	.L137
 192:.\Generated_Source\PSoC5/CyLib.c ****        (qDiv    <= CY_CLK_PLL_MAX_Q_VALUE  ) && (qDiv    >= CY_CLK_PLL_MIN_Q_VALUE  ) &&
 1381              		.loc 1 192 0 is_stmt 0 discriminator 1
 1382 001c 102C     		cmp	r4, #16
 1383 001e 14D8     		bhi	.L137
 193:.\Generated_Source\PSoC5/CyLib.c ****        (current >= CY_CLK_PLL_MIN_CUR_VALUE) && (current <= CY_CLK_PLL_MAX_CUR_VALUE))
 1384              		.loc 1 193 0 is_stmt 1
 1385 0020 9CB1     		cbz	r4, .L137
 193:.\Generated_Source\PSoC5/CyLib.c ****        (current >= CY_CLK_PLL_MIN_CUR_VALUE) && (current <= CY_CLK_PLL_MAX_CUR_VALUE))
 1386              		.loc 1 193 0 is_stmt 0 discriminator 1
 1387 0022 96B1     		cbz	r6, .L137
 194:.\Generated_Source\PSoC5/CyLib.c ****     {
 1388              		.loc 1 194 0 is_stmt 1
 1389 0024 072E     		cmp	r6, #7
 1390 0026 10D8     		bhi	.L137
 197:.\Generated_Source\PSoC5/CyLib.c ****         CY_CLK_PLL_Q_REG = ((uint8)(qDiv - 1u));
 1391              		.loc 1 197 0
 1392 0028 0B4B     		ldr	r3, .L140+4
 1393 002a 1D70     		strb	r5, [r3]
 198:.\Generated_Source\PSoC5/CyLib.c ****         CY_CLK_PLL_CFG1_REG = (CY_CLK_PLL_CFG1_REG & CY_CLK_PLL_CURRENT_MASK) |
 1394              		.loc 1 198 0
 1395 002c 013C     		subs	r4, r4, #1
 1396 002e E4B2     		uxtb	r4, r4
 1397 0030 0133     		adds	r3, r3, #1
 1398 0032 1C70     		strb	r4, [r3]
 199:.\Generated_Source\PSoC5/CyLib.c ****                                 ((uint8)(((uint8)(current - 1u)) << CY_CLK_PLL_CURRENT_POSITION));
 1399              		.loc 1 199 0
 1400 0034 0949     		ldr	r1, .L140+8
 1401 0036 0A78     		ldrb	r2, [r1]	@ zero_extendqisi2
 200:.\Generated_Source\PSoC5/CyLib.c ****     }
 1402              		.loc 1 200 0
 1403 0038 731E     		subs	r3, r6, #1
 1404 003a 1B01     		lsls	r3, r3, #4
 1405 003c 03F0F003 		and	r3, r3, #240
 199:.\Generated_Source\PSoC5/CyLib.c ****                                 ((uint8)(((uint8)(current - 1u)) << CY_CLK_PLL_CURRENT_POSITION));
 1406              		.loc 1 199 0
 1407 0040 02F08F02 		and	r2, r2, #143
 1408 0044 1343     		orrs	r3, r3, r2
 1409 0046 0B70     		strb	r3, [r1]
 1410 0048 70BD     		pop	{r4, r5, r6, pc}
 1411              	.L137:
ARM GAS  C:\Users\student\AppData\Local\Temp\ccmWIiPR.s 			page 52


 210:.\Generated_Source\PSoC5/CyLib.c ****     }
 1412              		.loc 1 210 0 discriminator 1
 1413 004a 0020     		movs	r0, #0
 1414 004c FFF7FEFF 		bl	CyHalt
 1415              	.LVL74:
 1416 0050 70BD     		pop	{r4, r5, r6, pc}
 1417              	.L141:
 1418 0052 00BF     		.align	2
 1419              	.L140:
 1420 0054 20420040 		.word	1073758752
 1421 0058 22420040 		.word	1073758754
 1422 005c 21420040 		.word	1073758753
 1423              		.cfi_endproc
 1424              	.LFE2:
 1425              		.size	CyPLL_OUT_SetPQ, .-CyPLL_OUT_SetPQ
 1426              		.section	.text.CyPLL_OUT_SetSource,"ax",%progbits
 1427              		.align	2
 1428              		.global	CyPLL_OUT_SetSource
 1429              		.thumb
 1430              		.thumb_func
 1431              		.type	CyPLL_OUT_SetSource, %function
 1432              	CyPLL_OUT_SetSource:
 1433              	.LFB3:
 238:.\Generated_Source\PSoC5/CyLib.c ****     /* Halt CPU in debug mode if PLL is enabled */
 1434              		.loc 1 238 0
 1435              		.cfi_startproc
 1436              		@ args = 0, pretend = 0, frame = 0
 1437              		@ frame_needed = 0, uses_anonymous_args = 0
 1438              	.LVL75:
 1439 0000 10B5     		push	{r4, lr}
 1440              		.cfi_def_cfa_offset 8
 1441              		.cfi_offset 4, -8
 1442              		.cfi_offset 14, -4
 1443 0002 0446     		mov	r4, r0
 240:.\Generated_Source\PSoC5/CyLib.c **** 
 1444              		.loc 1 240 0
 1445 0004 0A4B     		ldr	r3, .L148
 1446 0006 1B78     		ldrb	r3, [r3]	@ zero_extendqisi2
 1447 0008 13F0010F 		tst	r3, #1
 1448 000c 02D0     		beq	.L143
 240:.\Generated_Source\PSoC5/CyLib.c **** 
 1449              		.loc 1 240 0 is_stmt 0 discriminator 1
 1450 000e 0020     		movs	r0, #0
 1451              	.LVL76:
 1452 0010 FFF7FEFF 		bl	CyHalt
 1453              	.LVL77:
 1454              	.L143:
 242:.\Generated_Source\PSoC5/CyLib.c ****     {
 1455              		.loc 1 242 0 is_stmt 1
 1456 0014 022C     		cmp	r4, #2
 1457 0016 07D8     		bhi	.L144
 247:.\Generated_Source\PSoC5/CyLib.c ****         break;
 1458              		.loc 1 247 0
 1459 0018 4FF04023 		mov	r3, #1073758208
 1460 001c 1878     		ldrb	r0, [r3]	@ zero_extendqisi2
 1461 001e 00F0FC00 		and	r0, r0, #252
 1462 0022 2043     		orrs	r0, r0, r4
ARM GAS  C:\Users\student\AppData\Local\Temp\ccmWIiPR.s 			page 53


 1463 0024 1870     		strb	r0, [r3]
 248:.\Generated_Source\PSoC5/CyLib.c **** 
 1464              		.loc 1 248 0
 1465 0026 10BD     		pop	{r4, pc}
 1466              	.L144:
 251:.\Generated_Source\PSoC5/CyLib.c ****         break;
 1467              		.loc 1 251 0 discriminator 1
 1468 0028 0020     		movs	r0, #0
 1469 002a FFF7FEFF 		bl	CyHalt
 1470              	.LVL78:
 1471 002e 10BD     		pop	{r4, pc}
 1472              	.L149:
 1473              		.align	2
 1474              	.L148:
 1475 0030 20420040 		.word	1073758752
 1476              		.cfi_endproc
 1477              	.LFE3:
 1478              		.size	CyPLL_OUT_SetSource, .-CyPLL_OUT_SetSource
 1479              		.section	.text.CyIMO_SetTrimValue,"ax",%progbits
 1480              		.align	2
 1481              		.thumb
 1482              		.thumb_func
 1483              		.type	CyIMO_SetTrimValue, %function
 1484              	CyIMO_SetTrimValue:
 1485              	.LFB7:
 368:.\Generated_Source\PSoC5/CyLib.c ****     uint8 usbPowerOn = CyUSB_PowerOnCheck();
 1486              		.loc 1 368 0
 1487              		.cfi_startproc
 1488              		@ args = 0, pretend = 0, frame = 0
 1489              		@ frame_needed = 0, uses_anonymous_args = 0
 1490              	.LVL79:
 1491 0000 10B5     		push	{r4, lr}
 1492              		.cfi_def_cfa_offset 8
 1493              		.cfi_offset 4, -8
 1494              		.cfi_offset 14, -4
 1495 0002 0446     		mov	r4, r0
 369:.\Generated_Source\PSoC5/CyLib.c **** 
 1496              		.loc 1 369 0
 1497 0004 FFF7FEFF 		bl	CyUSB_PowerOnCheck
 1498              	.LVL80:
 372:.\Generated_Source\PSoC5/CyLib.c ****     {
 1499              		.loc 1 372 0
 1500 0008 0128     		cmp	r0, #1
 1501 000a 04D1     		bne	.L151
 375:.\Generated_Source\PSoC5/CyLib.c ****     }
 1502              		.loc 1 375 0
 1503 000c 254A     		ldr	r2, .L164
 1504 000e 1378     		ldrb	r3, [r2]	@ zero_extendqisi2
 1505 0010 03F0FD03 		and	r3, r3, #253
 1506 0014 1370     		strb	r3, [r2]
 1507              	.L151:
 377:.\Generated_Source\PSoC5/CyLib.c ****     {
 1508              		.loc 1 377 0
 1509 0016 082C     		cmp	r4, #8
 1510 0018 3FD8     		bhi	.L152
 1511 001a DFE804F0 		tbb	[pc, r4]
 1512              	.L154:
ARM GAS  C:\Users\student\AppData\Local\Temp\ccmWIiPR.s 			page 54


 1513 001e 05       		.byte	(.L153-.L154)/2
 1514 001f 0B       		.byte	(.L155-.L154)/2
 1515 0020 11       		.byte	(.L156-.L154)/2
 1516 0021 17       		.byte	(.L157-.L154)/2
 1517 0022 1D       		.byte	(.L158-.L154)/2
 1518 0023 23       		.byte	(.L159-.L154)/2
 1519 0024 29       		.byte	(.L160-.L154)/2
 1520 0025 3E       		.byte	(.L152-.L154)/2
 1521 0026 2F       		.byte	(.L161-.L154)/2
 1522 0027 00       		.p2align 1
 1523              	.L153:
 380:.\Generated_Source\PSoC5/CyLib.c ****         break;
 1524              		.loc 1 380 0
 1525 0028 1F4B     		ldr	r3, .L164+4
 1526 002a 1B78     		ldrb	r3, [r3]	@ zero_extendqisi2
 1527 002c DBB2     		uxtb	r3, r3
 1528 002e 1F4A     		ldr	r2, .L164+8
 1529 0030 1370     		strb	r3, [r2]
 381:.\Generated_Source\PSoC5/CyLib.c **** 
 1530              		.loc 1 381 0
 1531 0032 10BD     		pop	{r4, pc}
 1532              	.L155:
 384:.\Generated_Source\PSoC5/CyLib.c ****         break;
 1533              		.loc 1 384 0
 1534 0034 1E4B     		ldr	r3, .L164+12
 1535 0036 1B78     		ldrb	r3, [r3]	@ zero_extendqisi2
 1536 0038 DBB2     		uxtb	r3, r3
 1537 003a 1C4A     		ldr	r2, .L164+8
 1538 003c 1370     		strb	r3, [r2]
 385:.\Generated_Source\PSoC5/CyLib.c **** 
 1539              		.loc 1 385 0
 1540 003e 10BD     		pop	{r4, pc}
 1541              	.L156:
 388:.\Generated_Source\PSoC5/CyLib.c ****         break;
 1542              		.loc 1 388 0
 1543 0040 1C4B     		ldr	r3, .L164+16
 1544 0042 1B78     		ldrb	r3, [r3]	@ zero_extendqisi2
 1545 0044 DBB2     		uxtb	r3, r3
 1546 0046 194A     		ldr	r2, .L164+8
 1547 0048 1370     		strb	r3, [r2]
 389:.\Generated_Source\PSoC5/CyLib.c **** 
 1548              		.loc 1 389 0
 1549 004a 10BD     		pop	{r4, pc}
 1550              	.L157:
 392:.\Generated_Source\PSoC5/CyLib.c ****         break;
 1551              		.loc 1 392 0
 1552 004c 1A4B     		ldr	r3, .L164+20
 1553 004e 1B78     		ldrb	r3, [r3]	@ zero_extendqisi2
 1554 0050 DBB2     		uxtb	r3, r3
 1555 0052 164A     		ldr	r2, .L164+8
 1556 0054 1370     		strb	r3, [r2]
 393:.\Generated_Source\PSoC5/CyLib.c **** 
 1557              		.loc 1 393 0
 1558 0056 10BD     		pop	{r4, pc}
 1559              	.L158:
 396:.\Generated_Source\PSoC5/CyLib.c ****         break;
 1560              		.loc 1 396 0
ARM GAS  C:\Users\student\AppData\Local\Temp\ccmWIiPR.s 			page 55


 1561 0058 184B     		ldr	r3, .L164+24
 1562 005a 1B78     		ldrb	r3, [r3]	@ zero_extendqisi2
 1563 005c DBB2     		uxtb	r3, r3
 1564 005e 134A     		ldr	r2, .L164+8
 1565 0060 1370     		strb	r3, [r2]
 397:.\Generated_Source\PSoC5/CyLib.c **** 
 1566              		.loc 1 397 0
 1567 0062 10BD     		pop	{r4, pc}
 1568              	.L159:
 400:.\Generated_Source\PSoC5/CyLib.c ****         break;
 1569              		.loc 1 400 0
 1570 0064 164B     		ldr	r3, .L164+28
 1571 0066 1B78     		ldrb	r3, [r3]	@ zero_extendqisi2
 1572 0068 DBB2     		uxtb	r3, r3
 1573 006a 104A     		ldr	r2, .L164+8
 1574 006c 1370     		strb	r3, [r2]
 401:.\Generated_Source\PSoC5/CyLib.c **** 
 1575              		.loc 1 401 0
 1576 006e 10BD     		pop	{r4, pc}
 1577              	.L160:
 405:.\Generated_Source\PSoC5/CyLib.c ****         break;
 1578              		.loc 1 405 0
 1579 0070 144B     		ldr	r3, .L164+32
 1580 0072 1B78     		ldrb	r3, [r3]	@ zero_extendqisi2
 1581 0074 DBB2     		uxtb	r3, r3
 1582 0076 0D4A     		ldr	r2, .L164+8
 1583 0078 1370     		strb	r3, [r2]
 406:.\Generated_Source\PSoC5/CyLib.c **** #endif  /* (CY_PSOC5) */
 1584              		.loc 1 406 0
 1585 007a 10BD     		pop	{r4, pc}
 1586              	.L161:
 410:.\Generated_Source\PSoC5/CyLib.c **** 
 1587              		.loc 1 410 0
 1588 007c 124B     		ldr	r3, .L164+36
 1589 007e 1B78     		ldrb	r3, [r3]	@ zero_extendqisi2
 1590 0080 DBB2     		uxtb	r3, r3
 1591 0082 0A4A     		ldr	r2, .L164+8
 1592 0084 1370     		strb	r3, [r2]
 413:.\Generated_Source\PSoC5/CyLib.c ****         {
 1593              		.loc 1 413 0
 1594 0086 0128     		cmp	r0, #1
 1595 0088 0AD1     		bne	.L150
 416:.\Generated_Source\PSoC5/CyLib.c ****         }
 1596              		.loc 1 416 0
 1597 008a 02F5CB52 		add	r2, r2, #6496
 1598 008e 0832     		adds	r2, r2, #8
 1599 0090 1378     		ldrb	r3, [r2]	@ zero_extendqisi2
 1600 0092 43F00203 		orr	r3, r3, #2
 1601 0096 1370     		strb	r3, [r2]
 1602 0098 10BD     		pop	{r4, pc}
 1603              	.L152:
 421:.\Generated_Source\PSoC5/CyLib.c ****         break;
 1604              		.loc 1 421 0 discriminator 1
 1605 009a 0020     		movs	r0, #0
 1606              	.LVL81:
 1607 009c FFF7FEFF 		bl	CyHalt
 1608              	.LVL82:
ARM GAS  C:\Users\student\AppData\Local\Temp\ccmWIiPR.s 			page 56


 1609              	.L150:
 1610 00a0 10BD     		pop	{r4, pc}
 1611              	.L165:
 1612 00a2 00BF     		.align	2
 1613              	.L164:
 1614 00a4 09600040 		.word	1073766409
 1615 00a8 08010049 		.word	1224737032
 1616 00ac A1460040 		.word	1073759905
 1617 00b0 09010049 		.word	1224737033
 1618 00b4 0A010049 		.word	1224737034
 1619 00b8 0B010049 		.word	1224737035
 1620 00bc 89010049 		.word	1224737161
 1621 00c0 0C010049 		.word	1224737036
 1622 00c4 0D010049 		.word	1224737037
 1623 00c8 0F010049 		.word	1224737039
 1624              		.cfi_endproc
 1625              	.LFE7:
 1626              		.size	CyIMO_SetTrimValue, .-CyIMO_SetTrimValue
 1627              		.section	.text.CyIMO_SetFreq,"ax",%progbits
 1628              		.align	2
 1629              		.global	CyIMO_SetFreq
 1630              		.thumb
 1631              		.thumb_func
 1632              		.type	CyIMO_SetFreq, %function
 1633              	CyIMO_SetFreq:
 1634              	.LFB8:
 458:.\Generated_Source\PSoC5/CyLib.c ****     uint8 currentFreq;
 1635              		.loc 1 458 0
 1636              		.cfi_startproc
 1637              		@ args = 0, pretend = 0, frame = 0
 1638              		@ frame_needed = 0, uses_anonymous_args = 0
 1639              	.LVL83:
 1640 0000 70B5     		push	{r4, r5, r6, lr}
 1641              		.cfi_def_cfa_offset 16
 1642              		.cfi_offset 4, -16
 1643              		.cfi_offset 5, -12
 1644              		.cfi_offset 6, -8
 1645              		.cfi_offset 14, -4
 1646 0002 0646     		mov	r6, r0
 469:.\Generated_Source\PSoC5/CyLib.c **** 
 1647              		.loc 1 469 0
 1648 0004 3A4B     		ldr	r3, .L191
 1649 0006 1C78     		ldrb	r4, [r3]	@ zero_extendqisi2
 1650 0008 04F00704 		and	r4, r4, #7
 1651              	.LVL84:
 472:.\Generated_Source\PSoC5/CyLib.c **** 
 1652              		.loc 1 472 0
 1653 000c 0828     		cmp	r0, #8
 1654 000e 01D1     		bne	.L189
 1655 0010 0325     		movs	r5, #3
 1656 0012 00E0     		b	.L167
 1657              	.L189:
 1658 0014 0546     		mov	r5, r0
 1659              	.L167:
 1660              	.LVL85:
 474:.\Generated_Source\PSoC5/CyLib.c ****     {
 1661              		.loc 1 474 0 discriminator 4
ARM GAS  C:\Users\student\AppData\Local\Temp\ccmWIiPR.s 			page 57


 1662 0016 062C     		cmp	r4, #6
 1663 0018 0BD8     		bhi	.L168
 1664 001a DFE804F0 		tbb	[pc, r4]
 1665              	.L170:
 1666 001e 04       		.byte	(.L169-.L170)/2
 1667 001f 0D       		.byte	(.L171-.L170)/2
 1668 0020 06       		.byte	(.L172-.L170)/2
 1669 0021 08       		.byte	(.L173-.L170)/2
 1670 0022 0D       		.byte	(.L171-.L170)/2
 1671 0023 0D       		.byte	(.L171-.L170)/2
 1672 0024 0D       		.byte	(.L171-.L170)/2
 1673 0025 00       		.p2align 1
 1674              	.L169:
 477:.\Generated_Source\PSoC5/CyLib.c ****         break;
 1675              		.loc 1 477 0
 1676 0026 0224     		movs	r4, #2
 1677              	.LVL86:
 1678 0028 06E0     		b	.L171
 1679              	.LVL87:
 1680              	.L172:
 485:.\Generated_Source\PSoC5/CyLib.c ****         break;
 1681              		.loc 1 485 0
 1682 002a 0324     		movs	r4, #3
 486:.\Generated_Source\PSoC5/CyLib.c **** 
 1683              		.loc 1 486 0
 1684 002c 04E0     		b	.L171
 1685              	.LVL88:
 1686              	.L173:
 489:.\Generated_Source\PSoC5/CyLib.c ****         break;
 1687              		.loc 1 489 0
 1688 002e 0024     		movs	r4, #0
 490:.\Generated_Source\PSoC5/CyLib.c **** 
 1689              		.loc 1 490 0
 1690 0030 02E0     		b	.L171
 1691              	.LVL89:
 1692              	.L168:
 507:.\Generated_Source\PSoC5/CyLib.c ****         break;
 1693              		.loc 1 507 0 discriminator 1
 1694 0032 0020     		movs	r0, #0
 1695              	.LVL90:
 1696 0034 FFF7FEFF 		bl	CyHalt
 1697              	.LVL91:
 1698              	.L171:
 511:.\Generated_Source\PSoC5/CyLib.c ****     {
 1699              		.loc 1 511 0
 1700 0038 AC42     		cmp	r4, r5
 1701 003a 02D8     		bhi	.L174
 514:.\Generated_Source\PSoC5/CyLib.c ****     }
 1702              		.loc 1 514 0
 1703 003c 3046     		mov	r0, r6
 1704 003e FFF7FEFF 		bl	CyIMO_SetTrimValue
 1705              	.LVL92:
 1706              	.L174:
 518:.\Generated_Source\PSoC5/CyLib.c ****     {
 1707              		.loc 1 518 0
 1708 0042 082E     		cmp	r6, #8
 1709 0044 44D8     		bhi	.L175
ARM GAS  C:\Users\student\AppData\Local\Temp\ccmWIiPR.s 			page 58


 1710 0046 DFE806F0 		tbb	[pc, r6]
 1711              	.L177:
 1712 004a 05       		.byte	(.L176-.L177)/2
 1713 004b 0D       		.byte	(.L178-.L177)/2
 1714 004c 15       		.byte	(.L179-.L177)/2
 1715 004d 1B       		.byte	(.L180-.L177)/2
 1716 004e 23       		.byte	(.L181-.L177)/2
 1717 004f 2B       		.byte	(.L182-.L177)/2
 1718 0050 33       		.byte	(.L183-.L177)/2
 1719 0051 43       		.byte	(.L175-.L177)/2
 1720 0052 3B       		.byte	(.L184-.L177)/2
 1721 0053 00       		.p2align 1
 1722              	.L176:
 521:.\Generated_Source\PSoC5/CyLib.c ****             CY_LIB_IMO_3MHZ_VALUE) & ((uint8)(~CY_LIB_IMO_USBCLK_ON_SET));
 1723              		.loc 1 521 0
 1724 0054 264A     		ldr	r2, .L191
 1725 0056 1378     		ldrb	r3, [r2]	@ zero_extendqisi2
 1726 0058 03F0B803 		and	r3, r3, #184
 1727 005c 43F00303 		orr	r3, r3, #3
 1728 0060 1370     		strb	r3, [r2]
 523:.\Generated_Source\PSoC5/CyLib.c **** 
 1729              		.loc 1 523 0
 1730 0062 38E0     		b	.L185
 1731              	.L178:
 526:.\Generated_Source\PSoC5/CyLib.c ****             CY_LIB_IMO_6MHZ_VALUE) & ((uint8)(~CY_LIB_IMO_USBCLK_ON_SET));
 1732              		.loc 1 526 0
 1733 0064 224A     		ldr	r2, .L191
 1734 0066 1378     		ldrb	r3, [r2]	@ zero_extendqisi2
 1735 0068 03F0B803 		and	r3, r3, #184
 1736 006c 43F00103 		orr	r3, r3, #1
 1737 0070 1370     		strb	r3, [r2]
 528:.\Generated_Source\PSoC5/CyLib.c **** 
 1738              		.loc 1 528 0
 1739 0072 30E0     		b	.L185
 1740              	.L179:
 531:.\Generated_Source\PSoC5/CyLib.c ****             CY_LIB_IMO_12MHZ_VALUE) & ((uint8)(~CY_LIB_IMO_USBCLK_ON_SET));
 1741              		.loc 1 531 0
 1742 0074 1E4A     		ldr	r2, .L191
 1743 0076 1378     		ldrb	r3, [r2]	@ zero_extendqisi2
 1744 0078 03F0B803 		and	r3, r3, #184
 1745 007c 1370     		strb	r3, [r2]
 533:.\Generated_Source\PSoC5/CyLib.c **** 
 1746              		.loc 1 533 0
 1747 007e 2AE0     		b	.L185
 1748              	.L180:
 536:.\Generated_Source\PSoC5/CyLib.c ****             CY_LIB_IMO_24MHZ_VALUE) & ((uint8)(~CY_LIB_IMO_USBCLK_ON_SET));
 1749              		.loc 1 536 0
 1750 0080 1B4A     		ldr	r2, .L191
 1751 0082 1378     		ldrb	r3, [r2]	@ zero_extendqisi2
 1752 0084 03F0B803 		and	r3, r3, #184
 1753 0088 43F00203 		orr	r3, r3, #2
 1754 008c 1370     		strb	r3, [r2]
 538:.\Generated_Source\PSoC5/CyLib.c **** 
 1755              		.loc 1 538 0
 1756 008e 22E0     		b	.L185
 1757              	.L181:
 541:.\Generated_Source\PSoC5/CyLib.c ****             CY_LIB_IMO_48MHZ_VALUE) & ((uint8)(~CY_LIB_IMO_USBCLK_ON_SET));
ARM GAS  C:\Users\student\AppData\Local\Temp\ccmWIiPR.s 			page 59


 1758              		.loc 1 541 0
 1759 0090 174A     		ldr	r2, .L191
 1760 0092 1378     		ldrb	r3, [r2]	@ zero_extendqisi2
 1761 0094 03F0B803 		and	r3, r3, #184
 1762 0098 43F00403 		orr	r3, r3, #4
 1763 009c 1370     		strb	r3, [r2]
 543:.\Generated_Source\PSoC5/CyLib.c **** 
 1764              		.loc 1 543 0
 1765 009e 1AE0     		b	.L185
 1766              	.L182:
 546:.\Generated_Source\PSoC5/CyLib.c ****             CY_LIB_IMO_62MHZ_VALUE) & ((uint8)(~CY_LIB_IMO_USBCLK_ON_SET));
 1767              		.loc 1 546 0
 1768 00a0 134A     		ldr	r2, .L191
 1769 00a2 1378     		ldrb	r3, [r2]	@ zero_extendqisi2
 1770 00a4 03F0B803 		and	r3, r3, #184
 1771 00a8 43F00503 		orr	r3, r3, #5
 1772 00ac 1370     		strb	r3, [r2]
 548:.\Generated_Source\PSoC5/CyLib.c **** 
 1773              		.loc 1 548 0
 1774 00ae 12E0     		b	.L185
 1775              	.L183:
 552:.\Generated_Source\PSoC5/CyLib.c ****             CY_LIB_IMO_74MHZ_VALUE) & ((uint8)(~CY_LIB_IMO_USBCLK_ON_SET));
 1776              		.loc 1 552 0
 1777 00b0 0F4A     		ldr	r2, .L191
 1778 00b2 1378     		ldrb	r3, [r2]	@ zero_extendqisi2
 1779 00b4 03F0B803 		and	r3, r3, #184
 1780 00b8 43F00603 		orr	r3, r3, #6
 1781 00bc 1370     		strb	r3, [r2]
 554:.\Generated_Source\PSoC5/CyLib.c **** #endif  /* (CY_PSOC5) */
 1782              		.loc 1 554 0
 1783 00be 0AE0     		b	.L185
 1784              	.L184:
 558:.\Generated_Source\PSoC5/CyLib.c ****             CY_LIB_IMO_24MHZ_VALUE) | CY_LIB_IMO_USBCLK_ON_SET;
 1785              		.loc 1 558 0
 1786 00c0 0B4A     		ldr	r2, .L191
 1787 00c2 1378     		ldrb	r3, [r2]	@ zero_extendqisi2
 1788 00c4 03F0B803 		and	r3, r3, #184
 1789 00c8 43F04203 		orr	r3, r3, #66
 1790 00cc 1370     		strb	r3, [r2]
 560:.\Generated_Source\PSoC5/CyLib.c **** 
 1791              		.loc 1 560 0
 1792 00ce 02E0     		b	.L185
 1793              	.L175:
 563:.\Generated_Source\PSoC5/CyLib.c ****         break;
 1794              		.loc 1 563 0 discriminator 1
 1795 00d0 0020     		movs	r0, #0
 1796 00d2 FFF7FEFF 		bl	CyHalt
 1797              	.LVL93:
 1798              	.L185:
 568:.\Generated_Source\PSoC5/CyLib.c ****     {
 1799              		.loc 1 568 0
 1800 00d6 082E     		cmp	r6, #8
 1801 00d8 02D1     		bne	.L186
 570:.\Generated_Source\PSoC5/CyLib.c ****     }
 1802              		.loc 1 570 0
 1803 00da FFF7FEFF 		bl	CyIMO_EnableDoubler
 1804              	.LVL94:
ARM GAS  C:\Users\student\AppData\Local\Temp\ccmWIiPR.s 			page 60


 1805 00de 01E0     		b	.L187
 1806              	.L186:
 574:.\Generated_Source\PSoC5/CyLib.c ****     }
 1807              		.loc 1 574 0
 1808 00e0 FFF7FEFF 		bl	CyIMO_DisableDoubler
 1809              	.LVL95:
 1810              	.L187:
 577:.\Generated_Source\PSoC5/CyLib.c ****     {
 1811              		.loc 1 577 0
 1812 00e4 AC42     		cmp	r4, r5
 1813 00e6 02D9     		bls	.L166
 580:.\Generated_Source\PSoC5/CyLib.c ****     }
 1814              		.loc 1 580 0
 1815 00e8 3046     		mov	r0, r6
 1816 00ea FFF7FEFF 		bl	CyIMO_SetTrimValue
 1817              	.LVL96:
 1818              	.L166:
 1819 00ee 70BD     		pop	{r4, r5, r6, pc}
 1820              	.LVL97:
 1821              	.L192:
 1822              		.align	2
 1823              	.L191:
 1824 00f0 00420040 		.word	1073758720
 1825              		.cfi_endproc
 1826              	.LFE8:
 1827              		.size	CyIMO_SetFreq, .-CyIMO_SetFreq
 1828              		.section	.text.CyIMO_SetSource,"ax",%progbits
 1829              		.align	2
 1830              		.global	CyIMO_SetSource
 1831              		.thumb
 1832              		.thumb_func
 1833              		.type	CyIMO_SetSource, %function
 1834              	CyIMO_SetSource:
 1835              	.LFB9:
 608:.\Generated_Source\PSoC5/CyLib.c ****     switch(source)
 1836              		.loc 1 608 0
 1837              		.cfi_startproc
 1838              		@ args = 0, pretend = 0, frame = 0
 1839              		@ frame_needed = 0, uses_anonymous_args = 0
 1840              	.LVL98:
 1841 0000 08B5     		push	{r3, lr}
 1842              		.cfi_def_cfa_offset 8
 1843              		.cfi_offset 3, -8
 1844              		.cfi_offset 14, -4
 609:.\Generated_Source\PSoC5/CyLib.c ****     {
 1845              		.loc 1 609 0
 1846 0002 0128     		cmp	r0, #1
 1847 0004 0FD0     		beq	.L195
 1848 0006 D8B1     		cbz	r0, .L196
 1849 0008 0228     		cmp	r0, #2
 1850 000a 1FD1     		bne	.L199
 612:.\Generated_Source\PSoC5/CyLib.c ****         CY_LIB_FASTCLK_IMO_CR_REG |= CY_LIB_FASTCLK_IMO_IMO;
 1851              		.loc 1 612 0
 1852 000c 4FF04022 		mov	r2, #1073758208
 1853 0010 1378     		ldrb	r3, [r2]	@ zero_extendqisi2
 1854 0012 03F0BF03 		and	r3, r3, #191
 1855 0016 1370     		strb	r3, [r2]
ARM GAS  C:\Users\student\AppData\Local\Temp\ccmWIiPR.s 			page 61


 613:.\Generated_Source\PSoC5/CyLib.c ****         break;
 1856              		.loc 1 613 0
 1857 0018 02F50072 		add	r2, r2, #512
 1858 001c 1378     		ldrb	r3, [r2]	@ zero_extendqisi2
 1859 001e 43F02003 		orr	r3, r3, #32
 1860 0022 1370     		strb	r3, [r2]
 614:.\Generated_Source\PSoC5/CyLib.c **** 
 1861              		.loc 1 614 0
 1862 0024 08BD     		pop	{r3, pc}
 1863              	.L195:
 617:.\Generated_Source\PSoC5/CyLib.c ****         CY_LIB_FASTCLK_IMO_CR_REG |= CY_LIB_FASTCLK_IMO_IMO;
 1864              		.loc 1 617 0
 1865 0026 4FF04022 		mov	r2, #1073758208
 1866 002a 1378     		ldrb	r3, [r2]	@ zero_extendqisi2
 1867 002c 43F04003 		orr	r3, r3, #64
 1868 0030 1370     		strb	r3, [r2]
 618:.\Generated_Source\PSoC5/CyLib.c ****         break;
 1869              		.loc 1 618 0
 1870 0032 02F50072 		add	r2, r2, #512
 1871 0036 1378     		ldrb	r3, [r2]	@ zero_extendqisi2
 1872 0038 43F02003 		orr	r3, r3, #32
 1873 003c 1370     		strb	r3, [r2]
 619:.\Generated_Source\PSoC5/CyLib.c **** 
 1874              		.loc 1 619 0
 1875 003e 08BD     		pop	{r3, pc}
 1876              	.L196:
 622:.\Generated_Source\PSoC5/CyLib.c ****         break;
 1877              		.loc 1 622 0
 1878 0040 044A     		ldr	r2, .L201
 1879 0042 1378     		ldrb	r3, [r2]	@ zero_extendqisi2
 1880 0044 03F0DF03 		and	r3, r3, #223
 1881 0048 1370     		strb	r3, [r2]
 623:.\Generated_Source\PSoC5/CyLib.c **** 
 1882              		.loc 1 623 0
 1883 004a 08BD     		pop	{r3, pc}
 1884              	.L199:
 627:.\Generated_Source\PSoC5/CyLib.c ****         break;
 1885              		.loc 1 627 0 discriminator 1
 1886 004c 0020     		movs	r0, #0
 1887              	.LVL99:
 1888 004e FFF7FEFF 		bl	CyHalt
 1889              	.LVL100:
 1890 0052 08BD     		pop	{r3, pc}
 1891              	.L202:
 1892              		.align	2
 1893              	.L201:
 1894 0054 00420040 		.word	1073758720
 1895              		.cfi_endproc
 1896              	.LFE9:
 1897              		.size	CyIMO_SetSource, .-CyIMO_SetSource
 1898              		.section	.text.CySoftwareReset,"ax",%progbits
 1899              		.align	2
 1900              		.global	CySoftwareReset
 1901              		.thumb
 1902              		.thumb_func
 1903              		.type	CySoftwareReset, %function
 1904              	CySoftwareReset:
ARM GAS  C:\Users\student\AppData\Local\Temp\ccmWIiPR.s 			page 62


 1905              	.LFB40:
1425:.\Generated_Source\PSoC5/CyLib.c ****     #elif defined(__C51__)
1426:.\Generated_Source\PSoC5/CyLib.c ****         CYDEV_HALT_CPU;
1427:.\Generated_Source\PSoC5/CyLib.c ****     #endif  /* (__ARMCC_VERSION) */
1428:.\Generated_Source\PSoC5/CyLib.c **** }
1429:.\Generated_Source\PSoC5/CyLib.c **** 
1430:.\Generated_Source\PSoC5/CyLib.c **** 
1431:.\Generated_Source\PSoC5/CyLib.c **** /*******************************************************************************
1432:.\Generated_Source\PSoC5/CyLib.c **** * Function Name: CySoftwareReset
1433:.\Generated_Source\PSoC5/CyLib.c **** ****************************************************************************//**
1434:.\Generated_Source\PSoC5/CyLib.c **** *
1435:.\Generated_Source\PSoC5/CyLib.c **** *  Forces a device software reset.
1436:.\Generated_Source\PSoC5/CyLib.c **** *
1437:.\Generated_Source\PSoC5/CyLib.c **** *******************************************************************************/
1438:.\Generated_Source\PSoC5/CyLib.c **** void CySoftwareReset(void) 
1439:.\Generated_Source\PSoC5/CyLib.c **** {
 1906              		.loc 1 1439 0
 1907              		.cfi_startproc
 1908              		@ args = 0, pretend = 0, frame = 0
 1909              		@ frame_needed = 0, uses_anonymous_args = 0
 1910              		@ link register save eliminated.
1440:.\Generated_Source\PSoC5/CyLib.c ****     CY_LIB_RESET_CR2_REG |= CY_LIB_RESET_CR2_RESET;
 1911              		.loc 1 1440 0
 1912 0000 024A     		ldr	r2, .L204
 1913 0002 1378     		ldrb	r3, [r2]	@ zero_extendqisi2
 1914 0004 43F00103 		orr	r3, r3, #1
 1915 0008 1370     		strb	r3, [r2]
 1916 000a 7047     		bx	lr
 1917              	.L205:
 1918              		.align	2
 1919              	.L204:
 1920 000c F6460040 		.word	1073759990
 1921              		.cfi_endproc
 1922              	.LFE40:
 1923              		.size	CySoftwareReset, .-CySoftwareReset
 1924              		.section	.text.CyDelay,"ax",%progbits
 1925              		.align	2
 1926              		.global	CyDelay
 1927              		.thumb
 1928              		.thumb_func
 1929              		.type	CyDelay, %function
 1930              	CyDelay:
 1931              	.LFB41:
1441:.\Generated_Source\PSoC5/CyLib.c **** }
1442:.\Generated_Source\PSoC5/CyLib.c **** 
1443:.\Generated_Source\PSoC5/CyLib.c **** 
1444:.\Generated_Source\PSoC5/CyLib.c **** /*******************************************************************************
1445:.\Generated_Source\PSoC5/CyLib.c **** * Function Name: CyDelay
1446:.\Generated_Source\PSoC5/CyLib.c **** ****************************************************************************//**
1447:.\Generated_Source\PSoC5/CyLib.c **** *
1448:.\Generated_Source\PSoC5/CyLib.c **** *  Blocks for milliseconds.
1449:.\Generated_Source\PSoC5/CyLib.c **** *
1450:.\Generated_Source\PSoC5/CyLib.c **** *  Note:
1451:.\Generated_Source\PSoC5/CyLib.c **** *  CyDelay has been implemented with the instruction cache assumed enabled. When
1452:.\Generated_Source\PSoC5/CyLib.c **** *  the instruction cache is disabled on PSoC5, CyDelay will be two times larger.
1453:.\Generated_Source\PSoC5/CyLib.c **** *  For example, with instruction cache disabled CyDelay(100) would result in
1454:.\Generated_Source\PSoC5/CyLib.c **** *  about 200 ms delay instead of 100 ms.
ARM GAS  C:\Users\student\AppData\Local\Temp\ccmWIiPR.s 			page 63


1455:.\Generated_Source\PSoC5/CyLib.c **** *
1456:.\Generated_Source\PSoC5/CyLib.c **** *  \param milliseconds: number of milliseconds to delay.
1457:.\Generated_Source\PSoC5/CyLib.c **** *
1458:.\Generated_Source\PSoC5/CyLib.c **** *******************************************************************************/
1459:.\Generated_Source\PSoC5/CyLib.c **** void CyDelay(uint32 milliseconds) CYREENTRANT
1460:.\Generated_Source\PSoC5/CyLib.c **** {
 1932              		.loc 1 1460 0
 1933              		.cfi_startproc
 1934              		@ args = 0, pretend = 0, frame = 0
 1935              		@ frame_needed = 0, uses_anonymous_args = 0
 1936              	.LVL101:
 1937 0000 10B5     		push	{r4, lr}
 1938              		.cfi_def_cfa_offset 8
 1939              		.cfi_offset 4, -8
 1940              		.cfi_offset 14, -4
 1941 0002 0446     		mov	r4, r0
1461:.\Generated_Source\PSoC5/CyLib.c ****     while (milliseconds > 32768u)
 1942              		.loc 1 1461 0
 1943 0004 05E0     		b	.L207
 1944              	.LVL102:
 1945              	.L208:
1462:.\Generated_Source\PSoC5/CyLib.c ****     {
1463:.\Generated_Source\PSoC5/CyLib.c ****         /***********************************************************************
1464:.\Generated_Source\PSoC5/CyLib.c ****         * This loop prevents overflow.At 100MHz, milliseconds * delay_freq_khz
1465:.\Generated_Source\PSoC5/CyLib.c ****         * overflows at about 42 seconds.
1466:.\Generated_Source\PSoC5/CyLib.c ****         ***********************************************************************/
1467:.\Generated_Source\PSoC5/CyLib.c ****         CyDelayCycles(cydelay_32k_ms);
 1946              		.loc 1 1467 0
 1947 0006 084B     		ldr	r3, .L210
 1948 0008 1868     		ldr	r0, [r3]
 1949 000a FFF7FEFF 		bl	CyDelayCycles
 1950              	.LVL103:
1468:.\Generated_Source\PSoC5/CyLib.c ****         milliseconds = ((uint32)(milliseconds - 32768u));
 1951              		.loc 1 1468 0
 1952 000e A4F50044 		sub	r4, r4, #32768
 1953              	.LVL104:
 1954              	.L207:
1461:.\Generated_Source\PSoC5/CyLib.c ****     while (milliseconds > 32768u)
 1955              		.loc 1 1461 0
 1956 0012 B4F5004F 		cmp	r4, #32768
 1957 0016 F6D8     		bhi	.L208
1469:.\Generated_Source\PSoC5/CyLib.c ****     }
1470:.\Generated_Source\PSoC5/CyLib.c **** 
1471:.\Generated_Source\PSoC5/CyLib.c ****     CyDelayCycles(milliseconds * cydelay_freq_khz);
 1958              		.loc 1 1471 0
 1959 0018 034B     		ldr	r3, .L210
 1960 001a 5868     		ldr	r0, [r3, #4]
 1961 001c 00FB04F0 		mul	r0, r0, r4
 1962 0020 FFF7FEFF 		bl	CyDelayCycles
 1963              	.LVL105:
 1964 0024 10BD     		pop	{r4, pc}
 1965              	.LVL106:
 1966              	.L211:
 1967 0026 00BF     		.align	2
 1968              	.L210:
 1969 0028 00000000 		.word	.LANCHOR0
 1970              		.cfi_endproc
ARM GAS  C:\Users\student\AppData\Local\Temp\ccmWIiPR.s 			page 64


 1971              	.LFE41:
 1972              		.size	CyDelay, .-CyDelay
 1973              		.section	.text.CyDelayUs,"ax",%progbits
 1974              		.align	2
 1975              		.global	CyDelayUs
 1976              		.thumb
 1977              		.thumb_func
 1978              		.type	CyDelayUs, %function
 1979              	CyDelayUs:
 1980              	.LFB42:
1472:.\Generated_Source\PSoC5/CyLib.c **** }
1473:.\Generated_Source\PSoC5/CyLib.c **** 
1474:.\Generated_Source\PSoC5/CyLib.c **** 
1475:.\Generated_Source\PSoC5/CyLib.c **** #if(!CY_PSOC3)
1476:.\Generated_Source\PSoC5/CyLib.c **** 
1477:.\Generated_Source\PSoC5/CyLib.c ****     /* For PSoC3 devices function is defined in CyBootAsmKeil.a51 file */
1478:.\Generated_Source\PSoC5/CyLib.c **** 
1479:.\Generated_Source\PSoC5/CyLib.c ****     /*******************************************************************************
1480:.\Generated_Source\PSoC5/CyLib.c ****     * Function Name: CyDelayUs
1481:.\Generated_Source\PSoC5/CyLib.c ****     ****************************************************************************//**
1482:.\Generated_Source\PSoC5/CyLib.c ****     *
1483:.\Generated_Source\PSoC5/CyLib.c ****     *  Blocks for microseconds.
1484:.\Generated_Source\PSoC5/CyLib.c ****     *
1485:.\Generated_Source\PSoC5/CyLib.c ****     *  Note:
1486:.\Generated_Source\PSoC5/CyLib.c ****     *   CyDelay has been implemented with the instruction cache assumed enabled.
1487:.\Generated_Source\PSoC5/CyLib.c ****     *   When instruction cache is disabled on PSoC5, CyDelayUs will be two times
1488:.\Generated_Source\PSoC5/CyLib.c ****     *   larger. Ex: With instruction cache disabled CyDelayUs(100) would result
1489:.\Generated_Source\PSoC5/CyLib.c ****     *   in about 200us delay instead of 100us.
1490:.\Generated_Source\PSoC5/CyLib.c ****     *
1491:.\Generated_Source\PSoC5/CyLib.c ****     *  \param uint16 microseconds: number of microseconds to delay.
1492:.\Generated_Source\PSoC5/CyLib.c ****     *
1493:.\Generated_Source\PSoC5/CyLib.c ****     * \sideeffect
1494:.\Generated_Source\PSoC5/CyLib.c ****     *  CyDelayUS has been implemented with the instruction cache assumed enabled.
1495:.\Generated_Source\PSoC5/CyLib.c ****     *  When the instruction cache is disabled on PSoC 5, CyDelayUs will be two times
1496:.\Generated_Source\PSoC5/CyLib.c ****     *  larger. For example, with the instruction cache disabled CyDelayUs(100) would
1497:.\Generated_Source\PSoC5/CyLib.c ****     *  result in about 200 us delay instead of 100 us.
1498:.\Generated_Source\PSoC5/CyLib.c ****     *
1499:.\Generated_Source\PSoC5/CyLib.c ****     *  If the bus clock frequency is a small non-integer number, the actual delay
1500:.\Generated_Source\PSoC5/CyLib.c ****     *  can be up to twice as long as the nominal value. The actual delay cannot be
1501:.\Generated_Source\PSoC5/CyLib.c ****     *  shorter than the nominal one.
1502:.\Generated_Source\PSoC5/CyLib.c ****     *******************************************************************************/
1503:.\Generated_Source\PSoC5/CyLib.c ****     void CyDelayUs(uint16 microseconds) CYREENTRANT
1504:.\Generated_Source\PSoC5/CyLib.c ****     {
 1981              		.loc 1 1504 0
 1982              		.cfi_startproc
 1983              		@ args = 0, pretend = 0, frame = 0
 1984              		@ frame_needed = 0, uses_anonymous_args = 0
 1985              	.LVL107:
 1986 0000 08B5     		push	{r3, lr}
 1987              		.cfi_def_cfa_offset 8
 1988              		.cfi_offset 3, -8
 1989              		.cfi_offset 14, -4
1505:.\Generated_Source\PSoC5/CyLib.c ****         CyDelayCycles((uint32)microseconds * cydelay_freq_mhz);
 1990              		.loc 1 1505 0
 1991 0002 034B     		ldr	r3, .L214
 1992 0004 1B7A     		ldrb	r3, [r3, #8]	@ zero_extendqisi2
 1993 0006 03FB00F0 		mul	r0, r3, r0
ARM GAS  C:\Users\student\AppData\Local\Temp\ccmWIiPR.s 			page 65


 1994              	.LVL108:
 1995 000a FFF7FEFF 		bl	CyDelayCycles
 1996              	.LVL109:
 1997 000e 08BD     		pop	{r3, pc}
 1998              	.L215:
 1999              		.align	2
 2000              	.L214:
 2001 0010 00000000 		.word	.LANCHOR0
 2002              		.cfi_endproc
 2003              	.LFE42:
 2004              		.size	CyDelayUs, .-CyDelayUs
 2005              		.section	.text.CyXTAL_32KHZ_SetPowerMode,"ax",%progbits
 2006              		.align	2
 2007              		.global	CyXTAL_32KHZ_SetPowerMode
 2008              		.thumb
 2009              		.thumb_func
 2010              		.type	CyXTAL_32KHZ_SetPowerMode, %function
 2011              	CyXTAL_32KHZ_SetPowerMode:
 2012              	.LFB28:
1119:.\Generated_Source\PSoC5/CyLib.c ****     uint8 state = (0u != (CY_CLK_XTAL32_CR_REG & CY_CLK_XTAL32_CR_LPM)) ? 1u : 0u;
 2013              		.loc 1 1119 0
 2014              		.cfi_startproc
 2015              		@ args = 0, pretend = 0, frame = 0
 2016              		@ frame_needed = 0, uses_anonymous_args = 0
 2017              	.LVL110:
 2018 0000 10B5     		push	{r4, lr}
 2019              		.cfi_def_cfa_offset 8
 2020              		.cfi_offset 4, -8
 2021              		.cfi_offset 14, -4
1120:.\Generated_Source\PSoC5/CyLib.c **** 
 2022              		.loc 1 1120 0
 2023 0002 1C4B     		ldr	r3, .L222
 2024 0004 1B78     		ldrb	r3, [r3]	@ zero_extendqisi2
 2025 0006 13F0020F 		tst	r3, #2
 2026 000a 01D0     		beq	.L220
 2027 000c 0124     		movs	r4, #1
 2028 000e 00E0     		b	.L217
 2029              	.L220:
 2030 0010 0024     		movs	r4, #0
 2031              	.L217:
 2032              	.LVL111:
1122:.\Generated_Source\PSoC5/CyLib.c **** 
 2033              		.loc 1 1122 0 discriminator 4
 2034 0012 F322     		movs	r2, #243
 2035 0014 184B     		ldr	r3, .L222+4
 2036 0016 1A70     		strb	r2, [r3]
1124:.\Generated_Source\PSoC5/CyLib.c ****     {
 2037              		.loc 1 1124 0 discriminator 4
 2038 0018 0128     		cmp	r0, #1
 2039 001a 16D1     		bne	.L218
1127:.\Generated_Source\PSoC5/CyLib.c ****         CyDelayUs(10u);
 2040              		.loc 1 1127 0
 2041 001c 0122     		movs	r2, #1
 2042 001e 03F28E33 		addw	r3, r3, #910
 2043 0022 1A70     		strb	r2, [r3]
1128:.\Generated_Source\PSoC5/CyLib.c ****         CY_CLK_XTAL32_CFG_REG = (CY_CLK_XTAL32_CFG_REG & ((uint8)(~CY_CLK_XTAL32_CFG_LP_MASK))) |
 2044              		.loc 1 1128 0
ARM GAS  C:\Users\student\AppData\Local\Temp\ccmWIiPR.s 			page 66


 2045 0024 0A20     		movs	r0, #10
 2046              	.LVL112:
 2047 0026 FFF7FEFF 		bl	CyDelayUs
 2048              	.LVL113:
1129:.\Generated_Source\PSoC5/CyLib.c ****                                 CY_CLK_XTAL32_CFG_LP_LOWPOWER;
 2049              		.loc 1 1129 0
 2050 002a 144A     		ldr	r2, .L222+8
 2051 002c 1378     		ldrb	r3, [r2]	@ zero_extendqisi2
 2052 002e 03F0F303 		and	r3, r3, #243
 2053 0032 43F00803 		orr	r3, r3, #8
 2054 0036 1370     		strb	r3, [r2]
1131:.\Generated_Source\PSoC5/CyLib.c ****         CY_CLK_XTAL32_CR_REG |= CY_CLK_XTAL32_CR_LPM;
 2055              		.loc 1 1131 0
 2056 0038 1420     		movs	r0, #20
 2057 003a FFF7FEFF 		bl	CyDelayUs
 2058              	.LVL114:
1132:.\Generated_Source\PSoC5/CyLib.c ****     }
 2059              		.loc 1 1132 0
 2060 003e 0D4A     		ldr	r2, .L222
 2061 0040 1378     		ldrb	r3, [r2]	@ zero_extendqisi2
 2062 0042 43F00203 		orr	r3, r3, #2
 2063 0046 1370     		strb	r3, [r2]
 2064 0048 11E0     		b	.L219
 2065              	.LVL115:
 2066              	.L218:
1137:.\Generated_Source\PSoC5/CyLib.c ****         CyDelayUs(10u);
 2067              		.loc 1 1137 0
 2068 004a 0622     		movs	r2, #6
 2069 004c 0C4B     		ldr	r3, .L222+12
 2070 004e 1A70     		strb	r2, [r3]
1138:.\Generated_Source\PSoC5/CyLib.c ****         CY_CLK_XTAL32_CFG_REG = (CY_CLK_XTAL32_CFG_REG & ((uint8)(~CY_CLK_XTAL32_CFG_LP_MASK))) |
 2071              		.loc 1 1138 0
 2072 0050 0A20     		movs	r0, #10
 2073              	.LVL116:
 2074 0052 FFF7FEFF 		bl	CyDelayUs
 2075              	.LVL117:
1139:.\Generated_Source\PSoC5/CyLib.c ****                                 CY_CLK_XTAL32_CFG_LP_DEFAULT;
 2076              		.loc 1 1139 0
 2077 0056 094A     		ldr	r2, .L222+8
 2078 0058 1378     		ldrb	r3, [r2]	@ zero_extendqisi2
 2079 005a 03F0F303 		and	r3, r3, #243
 2080 005e 43F00403 		orr	r3, r3, #4
 2081 0062 1370     		strb	r3, [r2]
1141:.\Generated_Source\PSoC5/CyLib.c ****     }
 2082              		.loc 1 1141 0
 2083 0064 013A     		subs	r2, r2, #1
 2084 0066 1378     		ldrb	r3, [r2]	@ zero_extendqisi2
 2085 0068 03F0FD03 		and	r3, r3, #253
 2086 006c 1370     		strb	r3, [r2]
 2087              	.L219:
1145:.\Generated_Source\PSoC5/CyLib.c **** 
 2088              		.loc 1 1145 0
 2089 006e 2046     		mov	r0, r4
 2090 0070 10BD     		pop	{r4, pc}
 2091              	.LVL118:
 2092              	.L223:
 2093 0072 00BF     		.align	2
ARM GAS  C:\Users\student\AppData\Local\Temp\ccmWIiPR.s 			page 67


 2094              	.L222:
 2095 0074 08430040 		.word	1073758984
 2096 0078 0A430040 		.word	1073758986
 2097 007c 09430040 		.word	1073758985
 2098 0080 98460040 		.word	1073759896
 2099              		.cfi_endproc
 2100              	.LFE28:
 2101              		.size	CyXTAL_32KHZ_SetPowerMode, .-CyXTAL_32KHZ_SetPowerMode
 2102              		.section	.text.CyXTAL_32KHZ_Start,"ax",%progbits
 2103              		.align	2
 2104              		.global	CyXTAL_32KHZ_Start
 2105              		.thumb
 2106              		.thumb_func
 2107              		.type	CyXTAL_32KHZ_Start, %function
 2108              	CyXTAL_32KHZ_Start:
 2109              	.LFB25:
1033:.\Generated_Source\PSoC5/CyLib.c ****     volatile uint16 i;
 2110              		.loc 1 1033 0
 2111              		.cfi_startproc
 2112              		@ args = 0, pretend = 0, frame = 8
 2113              		@ frame_needed = 0, uses_anonymous_args = 0
 2114 0000 00B5     		push	{lr}
 2115              		.cfi_def_cfa_offset 4
 2116              		.cfi_offset 14, -4
 2117 0002 83B0     		sub	sp, sp, #12
 2118              		.cfi_def_cfa_offset 16
1036:.\Generated_Source\PSoC5/CyLib.c ****     CY_CLK_XTAL32_TR_REG  = CY_CLK_XTAL32_TR_STARTUP;
 2119              		.loc 1 1036 0
 2120 0004 F322     		movs	r2, #243
 2121 0006 184B     		ldr	r3, .L230
 2122 0008 1A70     		strb	r2, [r3]
1037:.\Generated_Source\PSoC5/CyLib.c ****     CY_CLK_XTAL32_CFG_REG = (CY_CLK_XTAL32_CFG_REG & ((uint8)(~CY_CLK_XTAL32_CFG_LP_MASK))) |
 2123              		.loc 1 1037 0
 2124 000a 0322     		movs	r2, #3
 2125 000c 03F28E33 		addw	r3, r3, #910
 2126 0010 1A70     		strb	r2, [r3]
1038:.\Generated_Source\PSoC5/CyLib.c ****                                 CY_CLK_XTAL32_CFG_LP_DEFAULT;
 2127              		.loc 1 1038 0
 2128 0012 164A     		ldr	r2, .L230+4
 2129 0014 1378     		ldrb	r3, [r2]	@ zero_extendqisi2
 2130 0016 03F0F303 		and	r3, r3, #243
 2131 001a 43F00403 		orr	r3, r3, #4
 2132 001e 1370     		strb	r3, [r2]
1046:.\Generated_Source\PSoC5/CyLib.c **** 
 2133              		.loc 1 1046 0
 2134 0020 013A     		subs	r2, r2, #1
 2135 0022 1378     		ldrb	r3, [r2]	@ zero_extendqisi2
 2136 0024 43F00103 		orr	r3, r3, #1
 2137 0028 1370     		strb	r3, [r2]
1048:.\Generated_Source\PSoC5/CyLib.c ****     {
 2138              		.loc 1 1048 0
 2139 002a 4FF47A73 		mov	r3, #1000
 2140 002e ADF80630 		strh	r3, [sp, #6]	@ movhi
 2141 0032 11E0     		b	.L225
 2142              	.L228:
1050:.\Generated_Source\PSoC5/CyLib.c ****         {
 2143              		.loc 1 1050 0
ARM GAS  C:\Users\student\AppData\Local\Temp\ccmWIiPR.s 			page 68


 2144 0034 FFF7FEFF 		bl	CyXTAL_32KHZ_ReadStatus
 2145              	.LVL119:
 2146 0038 10F0200F 		tst	r0, #32
 2147 003c 03D0     		beq	.L226
1053:.\Generated_Source\PSoC5/CyLib.c **** 
 2148              		.loc 1 1053 0
 2149 003e 0020     		movs	r0, #0
 2150 0040 FFF7FEFF 		bl	CyXTAL_32KHZ_SetPowerMode
 2151              	.LVL120:
1055:.\Generated_Source\PSoC5/CyLib.c ****         }
 2152              		.loc 1 1055 0
 2153 0044 0DE0     		b	.L224
 2154              	.L226:
1057:.\Generated_Source\PSoC5/CyLib.c ****     }
 2155              		.loc 1 1057 0 discriminator 2
 2156 0046 0120     		movs	r0, #1
 2157 0048 FFF7FEFF 		bl	CyDelayUs
 2158              	.LVL121:
1048:.\Generated_Source\PSoC5/CyLib.c ****     {
 2159              		.loc 1 1048 0 discriminator 2
 2160 004c BDF80630 		ldrh	r3, [sp, #6]
 2161 0050 013B     		subs	r3, r3, #1
 2162 0052 9BB2     		uxth	r3, r3
 2163 0054 ADF80630 		strh	r3, [sp, #6]	@ movhi
 2164              	.L225:
1048:.\Generated_Source\PSoC5/CyLib.c ****     {
 2165              		.loc 1 1048 0 is_stmt 0 discriminator 1
 2166 0058 BDF80630 		ldrh	r3, [sp, #6]
 2167 005c 9BB2     		uxth	r3, r3
 2168 005e 002B     		cmp	r3, #0
 2169 0060 E8D1     		bne	.L228
 2170              	.L224:
1059:.\Generated_Source\PSoC5/CyLib.c **** 
 2171              		.loc 1 1059 0 is_stmt 1
 2172 0062 03B0     		add	sp, sp, #12
 2173              		.cfi_def_cfa_offset 4
 2174              		@ sp needed
 2175 0064 5DF804FB 		ldr	pc, [sp], #4
 2176              	.L231:
 2177              		.align	2
 2178              	.L230:
 2179 0068 0A430040 		.word	1073758986
 2180 006c 09430040 		.word	1073758985
 2181              		.cfi_endproc
 2182              	.LFE25:
 2183              		.size	CyXTAL_32KHZ_Start, .-CyXTAL_32KHZ_Start
 2184              		.section	.text.CyDelayFreq,"ax",%progbits
 2185              		.align	2
 2186              		.global	CyDelayFreq
 2187              		.thumb
 2188              		.thumb_func
 2189              		.type	CyDelayFreq, %function
 2190              	CyDelayFreq:
 2191              	.LFB43:
1506:.\Generated_Source\PSoC5/CyLib.c ****     }
1507:.\Generated_Source\PSoC5/CyLib.c **** 
1508:.\Generated_Source\PSoC5/CyLib.c **** #endif  /* (!CY_PSOC3) */
ARM GAS  C:\Users\student\AppData\Local\Temp\ccmWIiPR.s 			page 69


1509:.\Generated_Source\PSoC5/CyLib.c **** 
1510:.\Generated_Source\PSoC5/CyLib.c **** 
1511:.\Generated_Source\PSoC5/CyLib.c **** /*******************************************************************************
1512:.\Generated_Source\PSoC5/CyLib.c **** * Function Name: CyDelayFreq
1513:.\Generated_Source\PSoC5/CyLib.c **** ****************************************************************************//**
1514:.\Generated_Source\PSoC5/CyLib.c **** *
1515:.\Generated_Source\PSoC5/CyLib.c **** *  Sets the clock frequency for CyDelay.
1516:.\Generated_Source\PSoC5/CyLib.c **** *
1517:.\Generated_Source\PSoC5/CyLib.c **** *  \param freq: The frequency of the bus clock in Hertz.
1518:.\Generated_Source\PSoC5/CyLib.c **** *
1519:.\Generated_Source\PSoC5/CyLib.c **** *******************************************************************************/
1520:.\Generated_Source\PSoC5/CyLib.c **** void CyDelayFreq(uint32 freq) CYREENTRANT
1521:.\Generated_Source\PSoC5/CyLib.c **** {
 2192              		.loc 1 1521 0
 2193              		.cfi_startproc
 2194              		@ args = 0, pretend = 0, frame = 0
 2195              		@ frame_needed = 0, uses_anonymous_args = 0
 2196              		@ link register save eliminated.
 2197              	.LVL122:
1522:.\Generated_Source\PSoC5/CyLib.c ****     if (freq != 0u)
 2198              		.loc 1 1522 0
 2199 0000 10B1     		cbz	r0, .L233
1523:.\Generated_Source\PSoC5/CyLib.c ****     {
1524:.\Generated_Source\PSoC5/CyLib.c ****         cydelay_freq_hz = freq;
 2200              		.loc 1 1524 0
 2201 0002 0E4A     		ldr	r2, .L235
 2202 0004 D060     		str	r0, [r2, #12]
 2203 0006 02E0     		b	.L234
 2204              	.L233:
1525:.\Generated_Source\PSoC5/CyLib.c ****     }
1526:.\Generated_Source\PSoC5/CyLib.c ****     else
1527:.\Generated_Source\PSoC5/CyLib.c ****     {
1528:.\Generated_Source\PSoC5/CyLib.c ****         cydelay_freq_hz = BCLK__BUS_CLK__HZ;
 2205              		.loc 1 1528 0
 2206 0008 0D4A     		ldr	r2, .L235+4
 2207 000a 0C4B     		ldr	r3, .L235
 2208 000c DA60     		str	r2, [r3, #12]
 2209              	.L234:
1529:.\Generated_Source\PSoC5/CyLib.c ****     }
1530:.\Generated_Source\PSoC5/CyLib.c **** 
1531:.\Generated_Source\PSoC5/CyLib.c ****     cydelay_freq_mhz = (uint8)((cydelay_freq_hz + 999999u) / 1000000u);
 2210              		.loc 1 1531 0
 2211 000e 0B49     		ldr	r1, .L235
 2212 0010 CB68     		ldr	r3, [r1, #12]
 2213 0012 03F57422 		add	r2, r3, #999424
 2214 0016 02F23F22 		addw	r2, r2, #575
 2215 001a 0A48     		ldr	r0, .L235+8
 2216              	.LVL123:
 2217 001c A0FB0202 		umull	r0, r2, r0, r2
 2218 0020 C2F38742 		ubfx	r2, r2, #18, #8
 2219 0024 0A72     		strb	r2, [r1, #8]
1532:.\Generated_Source\PSoC5/CyLib.c ****     cydelay_freq_khz = (cydelay_freq_hz + 999u) / 1000u;
 2220              		.loc 1 1532 0
 2221 0026 03F2E733 		addw	r3, r3, #999
 2222 002a 074A     		ldr	r2, .L235+12
 2223 002c A2FB0323 		umull	r2, r3, r2, r3
 2224 0030 9B09     		lsrs	r3, r3, #6
ARM GAS  C:\Users\student\AppData\Local\Temp\ccmWIiPR.s 			page 70


 2225 0032 4B60     		str	r3, [r1, #4]
1533:.\Generated_Source\PSoC5/CyLib.c ****     cydelay_32k_ms   = 32768u * cydelay_freq_khz;
 2226              		.loc 1 1533 0
 2227 0034 DB03     		lsls	r3, r3, #15
 2228 0036 0B60     		str	r3, [r1]
 2229 0038 7047     		bx	lr
 2230              	.L236:
 2231 003a 00BF     		.align	2
 2232              	.L235:
 2233 003c 00000000 		.word	.LANCHOR0
 2234 0040 00366E01 		.word	24000000
 2235 0044 83DE1B43 		.word	1125899907
 2236 0048 D34D6210 		.word	274877907
 2237              		.cfi_endproc
 2238              	.LFE43:
 2239              		.size	CyDelayFreq, .-CyDelayFreq
 2240              		.section	.text.CyWdtStart,"ax",%progbits
 2241              		.align	2
 2242              		.global	CyWdtStart
 2243              		.thumb
 2244              		.thumb_func
 2245              		.type	CyWdtStart, %function
 2246              	CyWdtStart:
 2247              	.LFB44:
1534:.\Generated_Source\PSoC5/CyLib.c **** }
1535:.\Generated_Source\PSoC5/CyLib.c **** 
1536:.\Generated_Source\PSoC5/CyLib.c **** 
1537:.\Generated_Source\PSoC5/CyLib.c **** /*******************************************************************************
1538:.\Generated_Source\PSoC5/CyLib.c **** * Function Name: CyWdtStart
1539:.\Generated_Source\PSoC5/CyLib.c **** ****************************************************************************//**
1540:.\Generated_Source\PSoC5/CyLib.c **** *
1541:.\Generated_Source\PSoC5/CyLib.c **** *  Enables the watchdog timer.
1542:.\Generated_Source\PSoC5/CyLib.c **** *
1543:.\Generated_Source\PSoC5/CyLib.c **** *  The timer is configured for the specified count interval, the central
1544:.\Generated_Source\PSoC5/CyLib.c **** *  timewheel is cleared, the setting for the low power mode is configured and
1545:.\Generated_Source\PSoC5/CyLib.c **** *  the watchdog timer is enabled.
1546:.\Generated_Source\PSoC5/CyLib.c **** *
1547:.\Generated_Source\PSoC5/CyLib.c **** *  Once enabled the watchdog cannot be disabled. The watchdog counts each time
1548:.\Generated_Source\PSoC5/CyLib.c **** *  the Central Time Wheel (CTW) reaches the period specified. The watchdog must
1549:.\Generated_Source\PSoC5/CyLib.c **** *  be cleared using the CyWdtClear() function before three ticks of the watchdog
1550:.\Generated_Source\PSoC5/CyLib.c **** *  timer occur. The CTW is free running, so this will occur after between 2 and
1551:.\Generated_Source\PSoC5/CyLib.c **** *  3 timer periods elapse.
1552:.\Generated_Source\PSoC5/CyLib.c **** *
1553:.\Generated_Source\PSoC5/CyLib.c **** *  PSoC5: The watchdog timer should not be used during sleep modes. Since the
1554:.\Generated_Source\PSoC5/CyLib.c **** *  WDT cannot be disabled after it is enabled, the WDT timeout period can be
1555:.\Generated_Source\PSoC5/CyLib.c **** *  set to be greater than the sleep wakeup period, then feed the dog on each
1556:.\Generated_Source\PSoC5/CyLib.c **** *  wakeup from Sleep.
1557:.\Generated_Source\PSoC5/CyLib.c **** *
1558:.\Generated_Source\PSoC5/CyLib.c **** *  \param ticks: One of the four available timer periods. Once WDT enabled, the
1559:.\Generated_Source\PSoC5/CyLib.c ****    interval cannot be changed.
1560:.\Generated_Source\PSoC5/CyLib.c **** *         CYWDT_2_TICKS     -     4 - 6     ms
1561:.\Generated_Source\PSoC5/CyLib.c **** *         CYWDT_16_TICKS    -    32 - 48    ms
1562:.\Generated_Source\PSoC5/CyLib.c **** *         CYWDT_128_TICKS   -   256 - 384   ms
1563:.\Generated_Source\PSoC5/CyLib.c **** *         CYWDT_1024_TICKS  - 2.048 - 3.072 s
1564:.\Generated_Source\PSoC5/CyLib.c **** *
1565:.\Generated_Source\PSoC5/CyLib.c **** *  \param lpMode: Low power mode configuration. This parameter is ignored for PSoC 5.
1566:.\Generated_Source\PSoC5/CyLib.c **** *          The WDT always acts as if CYWDT_LPMODE_NOCHANGE is passed.
ARM GAS  C:\Users\student\AppData\Local\Temp\ccmWIiPR.s 			page 71


1567:.\Generated_Source\PSoC5/CyLib.c **** *
1568:.\Generated_Source\PSoC5/CyLib.c **** *          CYWDT_LPMODE_NOCHANGE - No Change
1569:.\Generated_Source\PSoC5/CyLib.c **** *          CYWDT_LPMODE_MAXINTER - Switch to longest timer mode during low power
1570:.\Generated_Source\PSoC5/CyLib.c **** *                                 mode
1571:.\Generated_Source\PSoC5/CyLib.c **** *          CYWDT_LPMODE_DISABLED - Disable WDT during low power mode
1572:.\Generated_Source\PSoC5/CyLib.c **** *
1573:.\Generated_Source\PSoC5/CyLib.c **** * \sideeffect
1574:.\Generated_Source\PSoC5/CyLib.c **** *  PSoC5: The ILO 1 KHz must be enabled for proper WDT operation. Stopping the
1575:.\Generated_Source\PSoC5/CyLib.c **** *  ILO 1 kHz could break the active WDT functionality.
1576:.\Generated_Source\PSoC5/CyLib.c **** *
1577:.\Generated_Source\PSoC5/CyLib.c **** *******************************************************************************/
1578:.\Generated_Source\PSoC5/CyLib.c **** void CyWdtStart(uint8 ticks, uint8 lpMode) 
1579:.\Generated_Source\PSoC5/CyLib.c **** {
 2248              		.loc 1 1579 0
 2249              		.cfi_startproc
 2250              		@ args = 0, pretend = 0, frame = 0
 2251              		@ frame_needed = 0, uses_anonymous_args = 0
 2252              		@ link register save eliminated.
 2253              	.LVL124:
1580:.\Generated_Source\PSoC5/CyLib.c ****     /* Set WDT interval */
1581:.\Generated_Source\PSoC5/CyLib.c ****     CY_WDT_CFG_REG = (CY_WDT_CFG_REG & ((uint8)(~CY_WDT_CFG_INTERVAL_MASK))) | (ticks & CY_WDT_CFG_
 2254              		.loc 1 1581 0
 2255 0000 0E4B     		ldr	r3, .L238
 2256 0002 1A78     		ldrb	r2, [r3]	@ zero_extendqisi2
 2257 0004 02F0FC02 		and	r2, r2, #252
 2258 0008 00F00300 		and	r0, r0, #3
 2259              	.LVL125:
 2260 000c 1043     		orrs	r0, r0, r2
 2261 000e 1870     		strb	r0, [r3]
1582:.\Generated_Source\PSoC5/CyLib.c **** 
1583:.\Generated_Source\PSoC5/CyLib.c ****     /* Reset CTW to ensure that first watchdog period is full */
1584:.\Generated_Source\PSoC5/CyLib.c ****     CY_WDT_CFG_REG |= CY_WDT_CFG_CTW_RESET;
 2262              		.loc 1 1584 0
 2263 0010 1A78     		ldrb	r2, [r3]	@ zero_extendqisi2
 2264 0012 42F08002 		orr	r2, r2, #128
 2265 0016 1A70     		strb	r2, [r3]
1585:.\Generated_Source\PSoC5/CyLib.c ****     CY_WDT_CFG_REG &= ((uint8)(~CY_WDT_CFG_CTW_RESET));
 2266              		.loc 1 1585 0
 2267 0018 1A78     		ldrb	r2, [r3]	@ zero_extendqisi2
 2268 001a 02F07F02 		and	r2, r2, #127
 2269 001e 1A70     		strb	r2, [r3]
1586:.\Generated_Source\PSoC5/CyLib.c **** 
1587:.\Generated_Source\PSoC5/CyLib.c ****     /* Setting low power mode */
1588:.\Generated_Source\PSoC5/CyLib.c ****     CY_WDT_CFG_REG = (((uint8)(lpMode << CY_WDT_CFG_LPMODE_SHIFT)) & CY_WDT_CFG_LPMODE_MASK) |
 2270              		.loc 1 1588 0
 2271 0020 4901     		lsls	r1, r1, #5
 2272              	.LVL126:
1589:.\Generated_Source\PSoC5/CyLib.c ****                        (CY_WDT_CFG_REG & ((uint8)(~CY_WDT_CFG_LPMODE_MASK)));
 2273              		.loc 1 1589 0
 2274 0022 1A78     		ldrb	r2, [r3]	@ zero_extendqisi2
1588:.\Generated_Source\PSoC5/CyLib.c ****                        (CY_WDT_CFG_REG & ((uint8)(~CY_WDT_CFG_LPMODE_MASK)));
 2275              		.loc 1 1588 0
 2276 0024 01F06001 		and	r1, r1, #96
 2277 0028 02F09F02 		and	r2, r2, #159
 2278 002c 1143     		orrs	r1, r1, r2
 2279 002e 1970     		strb	r1, [r3]
1590:.\Generated_Source\PSoC5/CyLib.c **** 
ARM GAS  C:\Users\student\AppData\Local\Temp\ccmWIiPR.s 			page 72


1591:.\Generated_Source\PSoC5/CyLib.c ****     /* Enables watchdog reset */
1592:.\Generated_Source\PSoC5/CyLib.c ****     CY_WDT_CFG_REG |= CY_WDT_CFG_WDR_EN;
 2280              		.loc 1 1592 0
 2281 0030 1A78     		ldrb	r2, [r3]	@ zero_extendqisi2
 2282 0032 42F01002 		orr	r2, r2, #16
 2283 0036 1A70     		strb	r2, [r3]
 2284 0038 7047     		bx	lr
 2285              	.L239:
 2286 003a 00BF     		.align	2
 2287              	.L238:
 2288 003c 83430040 		.word	1073759107
 2289              		.cfi_endproc
 2290              	.LFE44:
 2291              		.size	CyWdtStart, .-CyWdtStart
 2292              		.section	.text.CyWdtClear,"ax",%progbits
 2293              		.align	2
 2294              		.global	CyWdtClear
 2295              		.thumb
 2296              		.thumb_func
 2297              		.type	CyWdtClear, %function
 2298              	CyWdtClear:
 2299              	.LFB45:
1593:.\Generated_Source\PSoC5/CyLib.c **** }
1594:.\Generated_Source\PSoC5/CyLib.c **** 
1595:.\Generated_Source\PSoC5/CyLib.c **** 
1596:.\Generated_Source\PSoC5/CyLib.c **** /*******************************************************************************
1597:.\Generated_Source\PSoC5/CyLib.c **** * Function Name: CyWdtClear
1598:.\Generated_Source\PSoC5/CyLib.c **** ****************************************************************************//**
1599:.\Generated_Source\PSoC5/CyLib.c **** *
1600:.\Generated_Source\PSoC5/CyLib.c **** *  Clears (feeds) the watchdog timer.
1601:.\Generated_Source\PSoC5/CyLib.c **** *
1602:.\Generated_Source\PSoC5/CyLib.c **** *******************************************************************************/
1603:.\Generated_Source\PSoC5/CyLib.c **** void CyWdtClear(void) 
1604:.\Generated_Source\PSoC5/CyLib.c **** {
 2300              		.loc 1 1604 0
 2301              		.cfi_startproc
 2302              		@ args = 0, pretend = 0, frame = 0
 2303              		@ frame_needed = 0, uses_anonymous_args = 0
 2304              		@ link register save eliminated.
1605:.\Generated_Source\PSoC5/CyLib.c ****     CY_WDT_CR_REG = CY_WDT_CR_FEED;
 2305              		.loc 1 1605 0
 2306 0000 0122     		movs	r2, #1
 2307 0002 014B     		ldr	r3, .L241
 2308 0004 1A70     		strb	r2, [r3]
 2309 0006 7047     		bx	lr
 2310              	.L242:
 2311              		.align	2
 2312              	.L241:
 2313 0008 84430040 		.word	1073759108
 2314              		.cfi_endproc
 2315              	.LFE45:
 2316              		.size	CyWdtClear, .-CyWdtClear
 2317              		.section	.text.CyVdStickyStatus,"ax",%progbits
 2318              		.align	2
 2319              		.global	CyVdStickyStatus
 2320              		.thumb
 2321              		.thumb_func
ARM GAS  C:\Users\student\AppData\Local\Temp\ccmWIiPR.s 			page 73


 2322              		.type	CyVdStickyStatus, %function
 2323              	CyVdStickyStatus:
 2324              	.LFB52:
1606:.\Generated_Source\PSoC5/CyLib.c **** }
1607:.\Generated_Source\PSoC5/CyLib.c **** 
1608:.\Generated_Source\PSoC5/CyLib.c **** 
1609:.\Generated_Source\PSoC5/CyLib.c **** 
1610:.\Generated_Source\PSoC5/CyLib.c **** /*******************************************************************************
1611:.\Generated_Source\PSoC5/CyLib.c **** * Function Name: CyVdLvDigitEnable
1612:.\Generated_Source\PSoC5/CyLib.c **** ****************************************************************************//**
1613:.\Generated_Source\PSoC5/CyLib.c **** *
1614:.\Generated_Source\PSoC5/CyLib.c **** *  Sets the voltage trip level, enables the output of the digital low-voltage
1615:.\Generated_Source\PSoC5/CyLib.c **** *  monitor, and optionally configures voltage monitor to reset device upon the
1616:.\Generated_Source\PSoC5/CyLib.c **** *  low-voltage event instead of generating an interrupt.
1617:.\Generated_Source\PSoC5/CyLib.c **** *
1618:.\Generated_Source\PSoC5/CyLib.c **** *  Note The associated interrupt enable/disable state is not changed by the
1619:.\Generated_Source\PSoC5/CyLib.c **** *  function. The Interrupt component API should be used to register the
1620:.\Generated_Source\PSoC5/CyLib.c **** *  interrupt service routine and to enable/disable associated interrupt.
1621:.\Generated_Source\PSoC5/CyLib.c **** *
1622:.\Generated_Source\PSoC5/CyLib.c **** *  \param reset: Enables device reset on digital low-voltage event:
1623:.\Generated_Source\PSoC5/CyLib.c **** *   Zero - Interrupt on digital low-voltage event
1624:.\Generated_Source\PSoC5/CyLib.c **** *   Non-zero - Reset on digital low-voltage event
1625:.\Generated_Source\PSoC5/CyLib.c **** *
1626:.\Generated_Source\PSoC5/CyLib.c **** *  \param threshold: Sets the trip point of the digital low-voltage monitoring circuit
1627:.\Generated_Source\PSoC5/CyLib.c **** *   in steps of approximately 250 mV in range from 1.70 V (0x00) to 5.45 V
1628:.\Generated_Source\PSoC5/CyLib.c **** *   (0x0F). For example, the trip point is set to 1.80 V when the threshold
1629:.\Generated_Source\PSoC5/CyLib.c **** *   parameter value is 0x04. Refer to the device TRM for the exact trip voltage
1630:.\Generated_Source\PSoC5/CyLib.c **** *   values.
1631:.\Generated_Source\PSoC5/CyLib.c **** *
1632:.\Generated_Source\PSoC5/CyLib.c **** * Side Effects and Restrictions:
1633:.\Generated_Source\PSoC5/CyLib.c **** *  The voltage resets are momentary. When a voltage reset (analog/digital
1634:.\Generated_Source\PSoC5/CyLib.c **** *  low-voltage and analog high-voltage) occurs, the RESET_CR1 and RESET_CR3
1635:.\Generated_Source\PSoC5/CyLib.c **** *  registers are restored to their default values. This means that the voltage
1636:.\Generated_Source\PSoC5/CyLib.c **** *  monitor circuit is no longer enabled and the device exits reset. If the
1637:.\Generated_Source\PSoC5/CyLib.c **** *  supply is below the trip level and firmware enables the voltage reset
1638:.\Generated_Source\PSoC5/CyLib.c **** *  functionality, the device will reset again. This will continue as long as the
1639:.\Generated_Source\PSoC5/CyLib.c **** *  supply is below the trip level or as long as the user enables the reset
1640:.\Generated_Source\PSoC5/CyLib.c **** *  functionality of the voltage monitor functionality.
1641:.\Generated_Source\PSoC5/CyLib.c **** *
1642:.\Generated_Source\PSoC5/CyLib.c **** *  When any voltage reset occurs, the RESET_SR0 and RESET_SR2 status registers
1643:.\Generated_Source\PSoC5/CyLib.c **** *  are cleared. This means that analog low-voltage, digital low-voltage and
1644:.\Generated_Source\PSoC5/CyLib.c **** *  analog high-voltage status bits are not persistent across any voltage reset.
1645:.\Generated_Source\PSoC5/CyLib.c **** *
1646:.\Generated_Source\PSoC5/CyLib.c **** *******************************************************************************/
1647:.\Generated_Source\PSoC5/CyLib.c **** void CyVdLvDigitEnable(uint8 reset, uint8 threshold) 
1648:.\Generated_Source\PSoC5/CyLib.c **** {
1649:.\Generated_Source\PSoC5/CyLib.c ****     uint32 intRegTmp;
1650:.\Generated_Source\PSoC5/CyLib.c ****     uint8 interruptState;
1651:.\Generated_Source\PSoC5/CyLib.c **** 
1652:.\Generated_Source\PSoC5/CyLib.c ****     interruptState = CyEnterCriticalSection();
1653:.\Generated_Source\PSoC5/CyLib.c **** 
1654:.\Generated_Source\PSoC5/CyLib.c ****     /* Store interrupt enable state */
1655:.\Generated_Source\PSoC5/CyLib.c ****     intRegTmp = CY_INT_ENABLE_REG & CY_VD_INT_MASK;
1656:.\Generated_Source\PSoC5/CyLib.c **** 
1657:.\Generated_Source\PSoC5/CyLib.c ****     /* Disable VD interrupt (write 1) to protect against glitches */
1658:.\Generated_Source\PSoC5/CyLib.c ****     CY_INT_CLEAR_REG = CY_VD_INT_MASK;
1659:.\Generated_Source\PSoC5/CyLib.c **** 
ARM GAS  C:\Users\student\AppData\Local\Temp\ccmWIiPR.s 			page 74


1660:.\Generated_Source\PSoC5/CyLib.c ****     CY_VD_PRES_CONTROL_REG &= ((uint8)(~CY_VD_PRESD_EN));
1661:.\Generated_Source\PSoC5/CyLib.c **** 
1662:.\Generated_Source\PSoC5/CyLib.c ****     CY_VD_LVI_TRIP_REG = (threshold & CY_VD_LVI_TRIP_LVID_MASK) |
1663:.\Generated_Source\PSoC5/CyLib.c ****                             (CY_VD_LVI_TRIP_REG & ((uint8)(~CY_VD_LVI_TRIP_LVID_MASK)));
1664:.\Generated_Source\PSoC5/CyLib.c ****     CY_VD_LVI_HVI_CONTROL_REG |= CY_VD_LVID_EN;
1665:.\Generated_Source\PSoC5/CyLib.c **** 
1666:.\Generated_Source\PSoC5/CyLib.c ****     /* Timeout to eliminate glitches on LVI/HVI when enabling (ID # 127412) */
1667:.\Generated_Source\PSoC5/CyLib.c ****     CyDelayUs(1u);
1668:.\Generated_Source\PSoC5/CyLib.c **** 
1669:.\Generated_Source\PSoC5/CyLib.c ****     (void) CyVdStickyStatus(CY_VD_LVID);
1670:.\Generated_Source\PSoC5/CyLib.c **** 
1671:.\Generated_Source\PSoC5/CyLib.c ****     if(0u != reset)
1672:.\Generated_Source\PSoC5/CyLib.c ****     {
1673:.\Generated_Source\PSoC5/CyLib.c ****         CY_VD_PRES_CONTROL_REG |= CY_VD_PRESD_EN;
1674:.\Generated_Source\PSoC5/CyLib.c ****     }
1675:.\Generated_Source\PSoC5/CyLib.c ****     else
1676:.\Generated_Source\PSoC5/CyLib.c ****     {
1677:.\Generated_Source\PSoC5/CyLib.c ****         CY_VD_PRES_CONTROL_REG &= ((uint8)(~CY_VD_PRESD_EN));
1678:.\Generated_Source\PSoC5/CyLib.c ****     }
1679:.\Generated_Source\PSoC5/CyLib.c **** 
1680:.\Generated_Source\PSoC5/CyLib.c ****     /* Clear pending interrupt */
1681:.\Generated_Source\PSoC5/CyLib.c ****     CY_INT_CLR_PEND_REG = CY_VD_INT_MASK;
1682:.\Generated_Source\PSoC5/CyLib.c **** 
1683:.\Generated_Source\PSoC5/CyLib.c ****     /* Restore interrupt enable state */
1684:.\Generated_Source\PSoC5/CyLib.c ****     CY_INT_ENABLE_REG = intRegTmp;
1685:.\Generated_Source\PSoC5/CyLib.c **** 
1686:.\Generated_Source\PSoC5/CyLib.c ****     CyExitCriticalSection(interruptState);
1687:.\Generated_Source\PSoC5/CyLib.c **** }
1688:.\Generated_Source\PSoC5/CyLib.c **** 
1689:.\Generated_Source\PSoC5/CyLib.c **** 
1690:.\Generated_Source\PSoC5/CyLib.c **** /*******************************************************************************
1691:.\Generated_Source\PSoC5/CyLib.c **** * Function Name: CyVdLvAnalogEnable
1692:.\Generated_Source\PSoC5/CyLib.c **** ****************************************************************************//**
1693:.\Generated_Source\PSoC5/CyLib.c **** *
1694:.\Generated_Source\PSoC5/CyLib.c **** *  Sets the voltage trip level, enables the output of the analog low-voltage
1695:.\Generated_Source\PSoC5/CyLib.c **** *  monitor, and optionally configures voltage monitor to reset device upon the
1696:.\Generated_Source\PSoC5/CyLib.c **** *  low-voltage event instead of generating an interrupt.
1697:.\Generated_Source\PSoC5/CyLib.c **** *
1698:.\Generated_Source\PSoC5/CyLib.c **** *  Note The associated interrupt enable/disable state is not changed by the
1699:.\Generated_Source\PSoC5/CyLib.c **** *  function. The Interrupt component API should be used to register the
1700:.\Generated_Source\PSoC5/CyLib.c **** *  interrupt service routine and to enable/disable associated interrupt.
1701:.\Generated_Source\PSoC5/CyLib.c **** *
1702:.\Generated_Source\PSoC5/CyLib.c **** *  \param reset: Enables device reset on analog low-voltage event:
1703:.\Generated_Source\PSoC5/CyLib.c **** *  Zero - Interrupt on analog low-voltage event
1704:.\Generated_Source\PSoC5/CyLib.c **** *  Non-zero - Reset on analog low-voltage event
1705:.\Generated_Source\PSoC5/CyLib.c **** *
1706:.\Generated_Source\PSoC5/CyLib.c **** *  \param threshold: Sets the trip point of the analog low-voltage monitoring circuit
1707:.\Generated_Source\PSoC5/CyLib.c **** *  in steps of approximately 250 mV in range from 1.70 V (0x00) to 5.45 V
1708:.\Generated_Source\PSoC5/CyLib.c **** *  (0x0F). For example, the trip point is set to 1.80 V when value of the
1709:.\Generated_Source\PSoC5/CyLib.c **** *  threshold parameter is 0x04. Please refer to the device TRM for the exact
1710:.\Generated_Source\PSoC5/CyLib.c **** *  trip voltage values.
1711:.\Generated_Source\PSoC5/CyLib.c **** *
1712:.\Generated_Source\PSoC5/CyLib.c **** * Side Effects and Restrictions:
1713:.\Generated_Source\PSoC5/CyLib.c **** *  The voltage resets are momentary. When a voltage reset (analog/digital
1714:.\Generated_Source\PSoC5/CyLib.c **** *  low-voltage and analog high-voltage) occurs, the RESET_CR1 and RESET_CR3
1715:.\Generated_Source\PSoC5/CyLib.c **** *  registers are restored to their default values. This means that the voltage
1716:.\Generated_Source\PSoC5/CyLib.c **** *  monitor circuit is no longer enabled and the device exits reset. If the
ARM GAS  C:\Users\student\AppData\Local\Temp\ccmWIiPR.s 			page 75


1717:.\Generated_Source\PSoC5/CyLib.c **** *  supply is below the trip level and firmware enables the voltage reset
1718:.\Generated_Source\PSoC5/CyLib.c **** *  functionality, the device will reset again. This will continue as long as
1719:.\Generated_Source\PSoC5/CyLib.c **** *  the supply is below the trip level or as long as the user enables the reset
1720:.\Generated_Source\PSoC5/CyLib.c **** *  functionality of the voltage monitor functionality.
1721:.\Generated_Source\PSoC5/CyLib.c **** *
1722:.\Generated_Source\PSoC5/CyLib.c **** *  When any voltage reset occurs, the RESET_SR0 and RESET_SR2 status registers
1723:.\Generated_Source\PSoC5/CyLib.c **** *  are cleared. This means that analog low-voltage, digital low-voltage and
1724:.\Generated_Source\PSoC5/CyLib.c **** *  analog high-voltage status bits are not persistent across any voltage reset.
1725:.\Generated_Source\PSoC5/CyLib.c **** *
1726:.\Generated_Source\PSoC5/CyLib.c **** *******************************************************************************/
1727:.\Generated_Source\PSoC5/CyLib.c **** void CyVdLvAnalogEnable(uint8 reset, uint8 threshold) 
1728:.\Generated_Source\PSoC5/CyLib.c **** {
1729:.\Generated_Source\PSoC5/CyLib.c ****     uint32 intRegTmp;
1730:.\Generated_Source\PSoC5/CyLib.c ****     uint8 interruptState;
1731:.\Generated_Source\PSoC5/CyLib.c **** 
1732:.\Generated_Source\PSoC5/CyLib.c ****     interruptState = CyEnterCriticalSection();
1733:.\Generated_Source\PSoC5/CyLib.c **** 
1734:.\Generated_Source\PSoC5/CyLib.c ****     /* Store interrupt enable state */
1735:.\Generated_Source\PSoC5/CyLib.c ****     intRegTmp = CY_INT_ENABLE_REG & CY_VD_INT_MASK;
1736:.\Generated_Source\PSoC5/CyLib.c **** 
1737:.\Generated_Source\PSoC5/CyLib.c ****     /* Disable VD interrupt (write 1) to protect against glitches */
1738:.\Generated_Source\PSoC5/CyLib.c ****     CY_INT_CLEAR_REG = CY_VD_INT_MASK;
1739:.\Generated_Source\PSoC5/CyLib.c **** 
1740:.\Generated_Source\PSoC5/CyLib.c ****     CY_VD_PRES_CONTROL_REG &= ((uint8)(~CY_VD_PRESA_EN));
1741:.\Generated_Source\PSoC5/CyLib.c **** 
1742:.\Generated_Source\PSoC5/CyLib.c ****     CY_VD_LVI_TRIP_REG = ((uint8)(threshold << 4u)) | (CY_VD_LVI_TRIP_REG & 0x0Fu);
1743:.\Generated_Source\PSoC5/CyLib.c ****     CY_VD_LVI_HVI_CONTROL_REG |= CY_VD_LVIA_EN;
1744:.\Generated_Source\PSoC5/CyLib.c **** 
1745:.\Generated_Source\PSoC5/CyLib.c ****     /* Timeout to eliminate glitches on LVI/HVI when enabling (ID # 127412) */
1746:.\Generated_Source\PSoC5/CyLib.c ****     CyDelayUs(1u);
1747:.\Generated_Source\PSoC5/CyLib.c **** 
1748:.\Generated_Source\PSoC5/CyLib.c ****     (void) CyVdStickyStatus(CY_VD_LVIA);
1749:.\Generated_Source\PSoC5/CyLib.c **** 
1750:.\Generated_Source\PSoC5/CyLib.c ****     if(0u != reset)
1751:.\Generated_Source\PSoC5/CyLib.c ****     {
1752:.\Generated_Source\PSoC5/CyLib.c ****         CY_VD_PRES_CONTROL_REG |= CY_VD_PRESA_EN;
1753:.\Generated_Source\PSoC5/CyLib.c ****     }
1754:.\Generated_Source\PSoC5/CyLib.c ****     else
1755:.\Generated_Source\PSoC5/CyLib.c ****     {
1756:.\Generated_Source\PSoC5/CyLib.c ****         CY_VD_PRES_CONTROL_REG &= ((uint8)(~CY_VD_PRESA_EN));
1757:.\Generated_Source\PSoC5/CyLib.c ****     }
1758:.\Generated_Source\PSoC5/CyLib.c **** 
1759:.\Generated_Source\PSoC5/CyLib.c ****     /* Clear pending interrupt */
1760:.\Generated_Source\PSoC5/CyLib.c ****     CY_INT_CLR_PEND_REG = CY_VD_INT_MASK;
1761:.\Generated_Source\PSoC5/CyLib.c **** 
1762:.\Generated_Source\PSoC5/CyLib.c ****     /* Restore interrupt enable state */
1763:.\Generated_Source\PSoC5/CyLib.c ****     CY_INT_ENABLE_REG = intRegTmp;
1764:.\Generated_Source\PSoC5/CyLib.c **** 
1765:.\Generated_Source\PSoC5/CyLib.c ****     CyExitCriticalSection(interruptState);
1766:.\Generated_Source\PSoC5/CyLib.c **** }
1767:.\Generated_Source\PSoC5/CyLib.c **** 
1768:.\Generated_Source\PSoC5/CyLib.c **** 
1769:.\Generated_Source\PSoC5/CyLib.c **** /*******************************************************************************
1770:.\Generated_Source\PSoC5/CyLib.c **** * Function Name: CyVdLvDigitDisable
1771:.\Generated_Source\PSoC5/CyLib.c **** ****************************************************************************//**
1772:.\Generated_Source\PSoC5/CyLib.c **** *
1773:.\Generated_Source\PSoC5/CyLib.c **** *  Disables the digital low-voltage monitor, turns off device reset upon the
ARM GAS  C:\Users\student\AppData\Local\Temp\ccmWIiPR.s 			page 76


1774:.\Generated_Source\PSoC5/CyLib.c **** *  digital low-voltage event, and clears the associated persistent status bit.
1775:.\Generated_Source\PSoC5/CyLib.c **** *
1776:.\Generated_Source\PSoC5/CyLib.c **** *  Note The associated interrupt enable/disable state is not changed by the
1777:.\Generated_Source\PSoC5/CyLib.c **** *  function. The pending interrupt status is not cleared. The Interrupt
1778:.\Generated_Source\PSoC5/CyLib.c **** *  component API should be used to manipulate with the associated interrupts.
1779:.\Generated_Source\PSoC5/CyLib.c **** *
1780:.\Generated_Source\PSoC5/CyLib.c **** *******************************************************************************/
1781:.\Generated_Source\PSoC5/CyLib.c **** void CyVdLvDigitDisable(void) 
1782:.\Generated_Source\PSoC5/CyLib.c **** {
1783:.\Generated_Source\PSoC5/CyLib.c ****     CY_VD_LVI_HVI_CONTROL_REG &= ((uint8)(~CY_VD_LVID_EN));
1784:.\Generated_Source\PSoC5/CyLib.c ****     CY_VD_PRES_CONTROL_REG &= ((uint8)(~CY_VD_PRESD_EN));
1785:.\Generated_Source\PSoC5/CyLib.c ****     (void) CyVdStickyStatus(CY_VD_LVID);
1786:.\Generated_Source\PSoC5/CyLib.c **** 
1787:.\Generated_Source\PSoC5/CyLib.c ****     while(0u != (CyVdStickyStatus(CY_VD_LVID) & CY_VD_LVID))
1788:.\Generated_Source\PSoC5/CyLib.c ****     {
1789:.\Generated_Source\PSoC5/CyLib.c **** 
1790:.\Generated_Source\PSoC5/CyLib.c ****     }
1791:.\Generated_Source\PSoC5/CyLib.c **** }
1792:.\Generated_Source\PSoC5/CyLib.c **** 
1793:.\Generated_Source\PSoC5/CyLib.c **** 
1794:.\Generated_Source\PSoC5/CyLib.c **** /*******************************************************************************
1795:.\Generated_Source\PSoC5/CyLib.c **** * Function Name: CyVdLvAnalogDisable
1796:.\Generated_Source\PSoC5/CyLib.c **** ****************************************************************************//**
1797:.\Generated_Source\PSoC5/CyLib.c **** *
1798:.\Generated_Source\PSoC5/CyLib.c **** *  Disables the analog low-voltage monitor, turns off device reset upon the
1799:.\Generated_Source\PSoC5/CyLib.c **** *  analog low-voltage event, and clears the associated persistent status bit.
1800:.\Generated_Source\PSoC5/CyLib.c **** *
1801:.\Generated_Source\PSoC5/CyLib.c **** *  Note The associated interrupt enable/disable state is not changed by the
1802:.\Generated_Source\PSoC5/CyLib.c **** *  function. The pending interrupt status is not cleared. The Interrupt
1803:.\Generated_Source\PSoC5/CyLib.c **** *  component API should be used to manipulate with the associated interrupts.
1804:.\Generated_Source\PSoC5/CyLib.c **** *
1805:.\Generated_Source\PSoC5/CyLib.c **** *******************************************************************************/
1806:.\Generated_Source\PSoC5/CyLib.c **** void CyVdLvAnalogDisable(void) 
1807:.\Generated_Source\PSoC5/CyLib.c **** {
1808:.\Generated_Source\PSoC5/CyLib.c ****     CY_VD_LVI_HVI_CONTROL_REG &= ((uint8)(~CY_VD_LVIA_EN));
1809:.\Generated_Source\PSoC5/CyLib.c ****     CY_VD_PRES_CONTROL_REG &= ((uint8)(~CY_VD_PRESA_EN));
1810:.\Generated_Source\PSoC5/CyLib.c ****     while(0u != (CyVdStickyStatus(CY_VD_LVIA) & CY_VD_LVIA))
1811:.\Generated_Source\PSoC5/CyLib.c ****     {
1812:.\Generated_Source\PSoC5/CyLib.c **** 
1813:.\Generated_Source\PSoC5/CyLib.c ****     }
1814:.\Generated_Source\PSoC5/CyLib.c **** }
1815:.\Generated_Source\PSoC5/CyLib.c **** 
1816:.\Generated_Source\PSoC5/CyLib.c **** 
1817:.\Generated_Source\PSoC5/CyLib.c **** /*******************************************************************************
1818:.\Generated_Source\PSoC5/CyLib.c **** * Function Name: CyVdHvAnalogEnable
1819:.\Generated_Source\PSoC5/CyLib.c **** ****************************************************************************//**
1820:.\Generated_Source\PSoC5/CyLib.c **** *
1821:.\Generated_Source\PSoC5/CyLib.c **** *  Enables the output of the analog high-voltage monitor and sets 5.75 V
1822:.\Generated_Source\PSoC5/CyLib.c **** *  threshold detection for Vdda.
1823:.\Generated_Source\PSoC5/CyLib.c **** *
1824:.\Generated_Source\PSoC5/CyLib.c **** *  Note The associated interrupt enable/disable state is not changed by the
1825:.\Generated_Source\PSoC5/CyLib.c **** *  function. The Interrupt component API should be used to register the
1826:.\Generated_Source\PSoC5/CyLib.c **** *  interrupt service routine and to enable/disable associated interrupt.
1827:.\Generated_Source\PSoC5/CyLib.c **** *
1828:.\Generated_Source\PSoC5/CyLib.c **** *******************************************************************************/
1829:.\Generated_Source\PSoC5/CyLib.c **** void CyVdHvAnalogEnable(void) 
1830:.\Generated_Source\PSoC5/CyLib.c **** {
ARM GAS  C:\Users\student\AppData\Local\Temp\ccmWIiPR.s 			page 77


1831:.\Generated_Source\PSoC5/CyLib.c ****     uint32 intRegTmp;
1832:.\Generated_Source\PSoC5/CyLib.c ****     uint8 interruptState;
1833:.\Generated_Source\PSoC5/CyLib.c **** 
1834:.\Generated_Source\PSoC5/CyLib.c ****     interruptState = CyEnterCriticalSection();
1835:.\Generated_Source\PSoC5/CyLib.c **** 
1836:.\Generated_Source\PSoC5/CyLib.c ****     /* Store interrupt enable state */
1837:.\Generated_Source\PSoC5/CyLib.c ****     intRegTmp = CY_INT_ENABLE_REG & CY_VD_INT_MASK;
1838:.\Generated_Source\PSoC5/CyLib.c **** 
1839:.\Generated_Source\PSoC5/CyLib.c ****     /* Disable VD interrupt (write 1) to protect against glitches */
1840:.\Generated_Source\PSoC5/CyLib.c ****     CY_INT_CLEAR_REG = CY_VD_INT_MASK;
1841:.\Generated_Source\PSoC5/CyLib.c **** 
1842:.\Generated_Source\PSoC5/CyLib.c ****     CY_VD_PRES_CONTROL_REG &= ((uint8)(~CY_VD_PRESA_EN));
1843:.\Generated_Source\PSoC5/CyLib.c **** 
1844:.\Generated_Source\PSoC5/CyLib.c ****     CY_VD_LVI_HVI_CONTROL_REG |= CY_VD_HVIA_EN;
1845:.\Generated_Source\PSoC5/CyLib.c **** 
1846:.\Generated_Source\PSoC5/CyLib.c ****     /* Timeout to eliminate glitches on the LVI/HVI when enabling (ID # 127412)  */
1847:.\Generated_Source\PSoC5/CyLib.c ****     CyDelayUs(1u);
1848:.\Generated_Source\PSoC5/CyLib.c **** 
1849:.\Generated_Source\PSoC5/CyLib.c ****     (void) CyVdStickyStatus(CY_VD_HVIA);
1850:.\Generated_Source\PSoC5/CyLib.c **** 
1851:.\Generated_Source\PSoC5/CyLib.c ****     /* Clear pending interrupt */
1852:.\Generated_Source\PSoC5/CyLib.c ****     CY_INT_CLR_PEND_REG = CY_VD_INT_MASK;
1853:.\Generated_Source\PSoC5/CyLib.c **** 
1854:.\Generated_Source\PSoC5/CyLib.c ****     /* Restore interrupt enable state */
1855:.\Generated_Source\PSoC5/CyLib.c ****     CY_INT_ENABLE_REG = intRegTmp;
1856:.\Generated_Source\PSoC5/CyLib.c **** 
1857:.\Generated_Source\PSoC5/CyLib.c ****     CyExitCriticalSection(interruptState);
1858:.\Generated_Source\PSoC5/CyLib.c **** }
1859:.\Generated_Source\PSoC5/CyLib.c **** 
1860:.\Generated_Source\PSoC5/CyLib.c **** 
1861:.\Generated_Source\PSoC5/CyLib.c **** /*******************************************************************************
1862:.\Generated_Source\PSoC5/CyLib.c **** * Function Name: CyVdHvAnalogDisable
1863:.\Generated_Source\PSoC5/CyLib.c **** ****************************************************************************//**
1864:.\Generated_Source\PSoC5/CyLib.c **** *
1865:.\Generated_Source\PSoC5/CyLib.c **** *  Disables the analog high-voltage monitor and clears the associated persistent
1866:.\Generated_Source\PSoC5/CyLib.c **** *  status bit.
1867:.\Generated_Source\PSoC5/CyLib.c **** *
1868:.\Generated_Source\PSoC5/CyLib.c **** *  Note The associated interrupt enable/disable state is not changed by the
1869:.\Generated_Source\PSoC5/CyLib.c **** *  function. The pending interrupt status is not cleared. The Interrupt
1870:.\Generated_Source\PSoC5/CyLib.c **** *  component API should be used to manipulate with the associated interrupts.
1871:.\Generated_Source\PSoC5/CyLib.c **** *
1872:.\Generated_Source\PSoC5/CyLib.c **** *******************************************************************************/
1873:.\Generated_Source\PSoC5/CyLib.c **** void CyVdHvAnalogDisable(void) 
1874:.\Generated_Source\PSoC5/CyLib.c **** {
1875:.\Generated_Source\PSoC5/CyLib.c ****     CY_VD_LVI_HVI_CONTROL_REG &= ((uint8)(~CY_VD_HVIA_EN));
1876:.\Generated_Source\PSoC5/CyLib.c ****     while(0u != (CyVdStickyStatus(CY_VD_HVIA) & CY_VD_HVIA))
1877:.\Generated_Source\PSoC5/CyLib.c ****     {
1878:.\Generated_Source\PSoC5/CyLib.c **** 
1879:.\Generated_Source\PSoC5/CyLib.c ****     }
1880:.\Generated_Source\PSoC5/CyLib.c **** }
1881:.\Generated_Source\PSoC5/CyLib.c **** 
1882:.\Generated_Source\PSoC5/CyLib.c **** 
1883:.\Generated_Source\PSoC5/CyLib.c **** /*******************************************************************************
1884:.\Generated_Source\PSoC5/CyLib.c **** * Function Name: CyVdStickyStatus
1885:.\Generated_Source\PSoC5/CyLib.c **** ****************************************************************************//**
1886:.\Generated_Source\PSoC5/CyLib.c **** *
1887:.\Generated_Source\PSoC5/CyLib.c **** *  Reads and clears the voltage detection status bits in the RESET_SR0 register.
ARM GAS  C:\Users\student\AppData\Local\Temp\ccmWIiPR.s 			page 78


1888:.\Generated_Source\PSoC5/CyLib.c **** *  The bits are set to 1 by the voltage monitor circuit when the supply is
1889:.\Generated_Source\PSoC5/CyLib.c **** *  outside the detector trip point. They stay set to 1 until they are read or
1890:.\Generated_Source\PSoC5/CyLib.c **** *  a POR / LVI / PRES reset occurs. This function uses a shadow register, so
1891:.\Generated_Source\PSoC5/CyLib.c **** *  only the bits passed in the parameter will be cleared in the shadow register.
1892:.\Generated_Source\PSoC5/CyLib.c **** *
1893:.\Generated_Source\PSoC5/CyLib.c **** *  \param mask: Bits in the RESET_SR0 shadow register to clear and return.
1894:.\Generated_Source\PSoC5/CyLib.c **** *   Define                  Definition
1895:.\Generated_Source\PSoC5/CyLib.c **** *   CY_VD_LVID            Persistent status of digital LVI.
1896:.\Generated_Source\PSoC5/CyLib.c **** *   CY_VD_LVIA            Persistent status of analog LVI.
1897:.\Generated_Source\PSoC5/CyLib.c **** *   CY_VD_HVIA            Persistent status of analog HVI.
1898:.\Generated_Source\PSoC5/CyLib.c **** *
1899:.\Generated_Source\PSoC5/CyLib.c **** * \return
1900:.\Generated_Source\PSoC5/CyLib.c **** *  Status. Same enumerated bit values as used for the mask parameter. A zero is
1901:.\Generated_Source\PSoC5/CyLib.c **** *  returned for bits not used in the mask parameter.
1902:.\Generated_Source\PSoC5/CyLib.c **** *
1903:.\Generated_Source\PSoC5/CyLib.c **** * Side Effects and Restrictions:
1904:.\Generated_Source\PSoC5/CyLib.c **** *  When an LVI reset occurs, the RESET_SR0 status registers are cleared. This
1905:.\Generated_Source\PSoC5/CyLib.c **** *  means that the voltage detection status bits are not persistent across an LVI
1906:.\Generated_Source\PSoC5/CyLib.c **** *  reset and cannot be used to determine a reset source.
1907:.\Generated_Source\PSoC5/CyLib.c **** *
1908:.\Generated_Source\PSoC5/CyLib.c **** *******************************************************************************/
1909:.\Generated_Source\PSoC5/CyLib.c **** uint8 CyVdStickyStatus(uint8 mask) 
1910:.\Generated_Source\PSoC5/CyLib.c **** {
 2325              		.loc 1 1910 0
 2326              		.cfi_startproc
 2327              		@ args = 0, pretend = 0, frame = 0
 2328              		@ frame_needed = 0, uses_anonymous_args = 0
 2329              	.LVL127:
 2330 0000 38B5     		push	{r3, r4, r5, lr}
 2331              		.cfi_def_cfa_offset 16
 2332              		.cfi_offset 3, -16
 2333              		.cfi_offset 4, -12
 2334              		.cfi_offset 5, -8
 2335              		.cfi_offset 14, -4
 2336 0002 0546     		mov	r5, r0
1911:.\Generated_Source\PSoC5/CyLib.c ****     static uint8 interruptStatus;
1912:.\Generated_Source\PSoC5/CyLib.c ****     uint8 interruptState;
1913:.\Generated_Source\PSoC5/CyLib.c ****     uint8 tmpStatus;
1914:.\Generated_Source\PSoC5/CyLib.c **** 
1915:.\Generated_Source\PSoC5/CyLib.c ****     interruptState = CyEnterCriticalSection();
 2337              		.loc 1 1915 0
 2338 0004 FFF7FEFF 		bl	CyEnterCriticalSection
 2339              	.LVL128:
1916:.\Generated_Source\PSoC5/CyLib.c **** 
1917:.\Generated_Source\PSoC5/CyLib.c ****     interruptStatus |= CY_VD_PERSISTENT_STATUS_REG;
 2340              		.loc 1 1917 0
 2341 0008 064B     		ldr	r3, .L245
 2342 000a 1978     		ldrb	r1, [r3]	@ zero_extendqisi2
 2343 000c 064A     		ldr	r2, .L245+4
 2344 000e 1378     		ldrb	r3, [r2]	@ zero_extendqisi2
 2345 0010 0B43     		orrs	r3, r3, r1
1918:.\Generated_Source\PSoC5/CyLib.c ****     tmpStatus = interruptStatus & (uint8)(CY_VD_LVID | CY_VD_LVIA | CY_VD_HVIA);
 2346              		.loc 1 1918 0
 2347 0012 03F00704 		and	r4, r3, #7
 2348              	.LVL129:
1919:.\Generated_Source\PSoC5/CyLib.c ****     interruptStatus &= ((uint8)(~mask));
 2349              		.loc 1 1919 0
ARM GAS  C:\Users\student\AppData\Local\Temp\ccmWIiPR.s 			page 79


 2350 0016 23EA0503 		bic	r3, r3, r5
 2351 001a 1370     		strb	r3, [r2]
1920:.\Generated_Source\PSoC5/CyLib.c **** 
1921:.\Generated_Source\PSoC5/CyLib.c ****     CyExitCriticalSection(interruptState);
 2352              		.loc 1 1921 0
 2353 001c FFF7FEFF 		bl	CyExitCriticalSection
 2354              	.LVL130:
1922:.\Generated_Source\PSoC5/CyLib.c **** 
1923:.\Generated_Source\PSoC5/CyLib.c ****     return(tmpStatus);
1924:.\Generated_Source\PSoC5/CyLib.c **** }
 2355              		.loc 1 1924 0
 2356 0020 2046     		mov	r0, r4
 2357 0022 38BD     		pop	{r3, r4, r5, pc}
 2358              	.LVL131:
 2359              	.L246:
 2360              		.align	2
 2361              	.L245:
 2362 0024 FA460040 		.word	1073759994
 2363 0028 00000000 		.word	.LANCHOR1
 2364              		.cfi_endproc
 2365              	.LFE52:
 2366              		.size	CyVdStickyStatus, .-CyVdStickyStatus
 2367              		.section	.text.CyVdLvDigitEnable,"ax",%progbits
 2368              		.align	2
 2369              		.global	CyVdLvDigitEnable
 2370              		.thumb
 2371              		.thumb_func
 2372              		.type	CyVdLvDigitEnable, %function
 2373              	CyVdLvDigitEnable:
 2374              	.LFB46:
1648:.\Generated_Source\PSoC5/CyLib.c ****     uint32 intRegTmp;
 2375              		.loc 1 1648 0
 2376              		.cfi_startproc
 2377              		@ args = 0, pretend = 0, frame = 0
 2378              		@ frame_needed = 0, uses_anonymous_args = 0
 2379              	.LVL132:
 2380 0000 2DE9F041 		push	{r4, r5, r6, r7, r8, lr}
 2381              		.cfi_def_cfa_offset 24
 2382              		.cfi_offset 4, -24
 2383              		.cfi_offset 5, -20
 2384              		.cfi_offset 6, -16
 2385              		.cfi_offset 7, -12
 2386              		.cfi_offset 8, -8
 2387              		.cfi_offset 14, -4
 2388 0004 0746     		mov	r7, r0
 2389 0006 8846     		mov	r8, r1
1652:.\Generated_Source\PSoC5/CyLib.c **** 
 2390              		.loc 1 1652 0
 2391 0008 FFF7FEFF 		bl	CyEnterCriticalSection
 2392              	.LVL133:
 2393 000c 0646     		mov	r6, r0
 2394              	.LVL134:
1655:.\Generated_Source\PSoC5/CyLib.c **** 
 2395              		.loc 1 1655 0
 2396 000e 1A4B     		ldr	r3, .L251
 2397 0010 1C68     		ldr	r4, [r3]
 2398 0012 04F00104 		and	r4, r4, #1
ARM GAS  C:\Users\student\AppData\Local\Temp\ccmWIiPR.s 			page 80


 2399              	.LVL135:
1658:.\Generated_Source\PSoC5/CyLib.c **** 
 2400              		.loc 1 1658 0
 2401 0016 0125     		movs	r5, #1
 2402 0018 8033     		adds	r3, r3, #128
 2403 001a 1D60     		str	r5, [r3]
1660:.\Generated_Source\PSoC5/CyLib.c **** 
 2404              		.loc 1 1660 0
 2405 001c 174A     		ldr	r2, .L251+4
 2406 001e 1378     		ldrb	r3, [r2]	@ zero_extendqisi2
 2407 0020 03F0BF03 		and	r3, r3, #191
 2408 0024 1370     		strb	r3, [r2]
1663:.\Generated_Source\PSoC5/CyLib.c ****     CY_VD_LVI_HVI_CONTROL_REG |= CY_VD_LVID_EN;
 2409              		.loc 1 1663 0
 2410 0026 033A     		subs	r2, r2, #3
 2411 0028 1378     		ldrb	r3, [r2]	@ zero_extendqisi2
1662:.\Generated_Source\PSoC5/CyLib.c ****                             (CY_VD_LVI_TRIP_REG & ((uint8)(~CY_VD_LVI_TRIP_LVID_MASK)));
 2412              		.loc 1 1662 0
 2413 002a 08F00F01 		and	r1, r8, #15
 2414 002e 03F0F003 		and	r3, r3, #240
 2415 0032 1943     		orrs	r1, r1, r3
 2416 0034 1170     		strb	r1, [r2]
1664:.\Generated_Source\PSoC5/CyLib.c **** 
 2417              		.loc 1 1664 0
 2418 0036 0132     		adds	r2, r2, #1
 2419 0038 1378     		ldrb	r3, [r2]	@ zero_extendqisi2
 2420 003a 2B43     		orrs	r3, r3, r5
 2421 003c 1370     		strb	r3, [r2]
1667:.\Generated_Source\PSoC5/CyLib.c **** 
 2422              		.loc 1 1667 0
 2423 003e 2846     		mov	r0, r5
 2424 0040 FFF7FEFF 		bl	CyDelayUs
 2425              	.LVL136:
1669:.\Generated_Source\PSoC5/CyLib.c **** 
 2426              		.loc 1 1669 0
 2427 0044 2846     		mov	r0, r5
 2428 0046 FFF7FEFF 		bl	CyVdStickyStatus
 2429              	.LVL137:
1671:.\Generated_Source\PSoC5/CyLib.c ****     {
 2430              		.loc 1 1671 0
 2431 004a 2FB1     		cbz	r7, .L248
1673:.\Generated_Source\PSoC5/CyLib.c ****     }
 2432              		.loc 1 1673 0
 2433 004c 0B4A     		ldr	r2, .L251+4
 2434 004e 1378     		ldrb	r3, [r2]	@ zero_extendqisi2
 2435 0050 43F04003 		orr	r3, r3, #64
 2436 0054 1370     		strb	r3, [r2]
 2437 0056 04E0     		b	.L249
 2438              	.L248:
1677:.\Generated_Source\PSoC5/CyLib.c ****     }
 2439              		.loc 1 1677 0
 2440 0058 084A     		ldr	r2, .L251+4
 2441 005a 1378     		ldrb	r3, [r2]	@ zero_extendqisi2
 2442 005c 03F0BF03 		and	r3, r3, #191
 2443 0060 1370     		strb	r3, [r2]
 2444              	.L249:
1681:.\Generated_Source\PSoC5/CyLib.c **** 
ARM GAS  C:\Users\student\AppData\Local\Temp\ccmWIiPR.s 			page 81


 2445              		.loc 1 1681 0
 2446 0062 0122     		movs	r2, #1
 2447 0064 064B     		ldr	r3, .L251+8
 2448 0066 1A60     		str	r2, [r3]
1684:.\Generated_Source\PSoC5/CyLib.c **** 
 2449              		.loc 1 1684 0
 2450 0068 A3F5C073 		sub	r3, r3, #384
 2451 006c 1C60     		str	r4, [r3]
1686:.\Generated_Source\PSoC5/CyLib.c **** }
 2452              		.loc 1 1686 0
 2453 006e 3046     		mov	r0, r6
 2454 0070 FFF7FEFF 		bl	CyExitCriticalSection
 2455              	.LVL138:
 2456 0074 BDE8F081 		pop	{r4, r5, r6, r7, r8, pc}
 2457              	.LVL139:
 2458              	.L252:
 2459              		.align	2
 2460              	.L251:
 2461 0078 00E100E0 		.word	-536813312
 2462 007c F7460040 		.word	1073759991
 2463 0080 80E200E0 		.word	-536812928
 2464              		.cfi_endproc
 2465              	.LFE46:
 2466              		.size	CyVdLvDigitEnable, .-CyVdLvDigitEnable
 2467              		.section	.text.CyVdLvAnalogEnable,"ax",%progbits
 2468              		.align	2
 2469              		.global	CyVdLvAnalogEnable
 2470              		.thumb
 2471              		.thumb_func
 2472              		.type	CyVdLvAnalogEnable, %function
 2473              	CyVdLvAnalogEnable:
 2474              	.LFB47:
1728:.\Generated_Source\PSoC5/CyLib.c ****     uint32 intRegTmp;
 2475              		.loc 1 1728 0
 2476              		.cfi_startproc
 2477              		@ args = 0, pretend = 0, frame = 0
 2478              		@ frame_needed = 0, uses_anonymous_args = 0
 2479              	.LVL140:
 2480 0000 F8B5     		push	{r3, r4, r5, r6, r7, lr}
 2481              		.cfi_def_cfa_offset 24
 2482              		.cfi_offset 3, -24
 2483              		.cfi_offset 4, -20
 2484              		.cfi_offset 5, -16
 2485              		.cfi_offset 6, -12
 2486              		.cfi_offset 7, -8
 2487              		.cfi_offset 14, -4
 2488 0002 0746     		mov	r7, r0
 2489 0004 0C46     		mov	r4, r1
1732:.\Generated_Source\PSoC5/CyLib.c **** 
 2490              		.loc 1 1732 0
 2491 0006 FFF7FEFF 		bl	CyEnterCriticalSection
 2492              	.LVL141:
 2493 000a 0646     		mov	r6, r0
 2494              	.LVL142:
1735:.\Generated_Source\PSoC5/CyLib.c **** 
 2495              		.loc 1 1735 0
 2496 000c 194B     		ldr	r3, .L257
ARM GAS  C:\Users\student\AppData\Local\Temp\ccmWIiPR.s 			page 82


 2497 000e 1D68     		ldr	r5, [r3]
 2498 0010 05F00105 		and	r5, r5, #1
 2499              	.LVL143:
1738:.\Generated_Source\PSoC5/CyLib.c **** 
 2500              		.loc 1 1738 0
 2501 0014 0120     		movs	r0, #1
 2502 0016 8033     		adds	r3, r3, #128
 2503 0018 1860     		str	r0, [r3]
1740:.\Generated_Source\PSoC5/CyLib.c **** 
 2504              		.loc 1 1740 0
 2505 001a 174A     		ldr	r2, .L257+4
 2506 001c 1378     		ldrb	r3, [r2]	@ zero_extendqisi2
 2507 001e 03F07F03 		and	r3, r3, #127
 2508 0022 1370     		strb	r3, [r2]
1742:.\Generated_Source\PSoC5/CyLib.c ****     CY_VD_LVI_HVI_CONTROL_REG |= CY_VD_LVIA_EN;
 2509              		.loc 1 1742 0
 2510 0024 2101     		lsls	r1, r4, #4
 2511 0026 C9B2     		uxtb	r1, r1
 2512 0028 033A     		subs	r2, r2, #3
 2513 002a 1378     		ldrb	r3, [r2]	@ zero_extendqisi2
 2514 002c 03F00F03 		and	r3, r3, #15
 2515 0030 1943     		orrs	r1, r1, r3
 2516 0032 1170     		strb	r1, [r2]
1743:.\Generated_Source\PSoC5/CyLib.c **** 
 2517              		.loc 1 1743 0
 2518 0034 0132     		adds	r2, r2, #1
 2519 0036 1378     		ldrb	r3, [r2]	@ zero_extendqisi2
 2520 0038 43F00203 		orr	r3, r3, #2
 2521 003c 1370     		strb	r3, [r2]
1746:.\Generated_Source\PSoC5/CyLib.c **** 
 2522              		.loc 1 1746 0
 2523 003e FFF7FEFF 		bl	CyDelayUs
 2524              	.LVL144:
1748:.\Generated_Source\PSoC5/CyLib.c **** 
 2525              		.loc 1 1748 0
 2526 0042 0220     		movs	r0, #2
 2527 0044 FFF7FEFF 		bl	CyVdStickyStatus
 2528              	.LVL145:
1750:.\Generated_Source\PSoC5/CyLib.c ****     {
 2529              		.loc 1 1750 0
 2530 0048 2FB1     		cbz	r7, .L254
1752:.\Generated_Source\PSoC5/CyLib.c ****     }
 2531              		.loc 1 1752 0
 2532 004a 0B4A     		ldr	r2, .L257+4
 2533 004c 1378     		ldrb	r3, [r2]	@ zero_extendqisi2
 2534 004e 43F08003 		orr	r3, r3, #128
 2535 0052 1370     		strb	r3, [r2]
 2536 0054 04E0     		b	.L255
 2537              	.L254:
1756:.\Generated_Source\PSoC5/CyLib.c ****     }
 2538              		.loc 1 1756 0
 2539 0056 084A     		ldr	r2, .L257+4
 2540 0058 1378     		ldrb	r3, [r2]	@ zero_extendqisi2
 2541 005a 03F07F03 		and	r3, r3, #127
 2542 005e 1370     		strb	r3, [r2]
 2543              	.L255:
1760:.\Generated_Source\PSoC5/CyLib.c **** 
ARM GAS  C:\Users\student\AppData\Local\Temp\ccmWIiPR.s 			page 83


 2544              		.loc 1 1760 0
 2545 0060 0122     		movs	r2, #1
 2546 0062 064B     		ldr	r3, .L257+8
 2547 0064 1A60     		str	r2, [r3]
1763:.\Generated_Source\PSoC5/CyLib.c **** 
 2548              		.loc 1 1763 0
 2549 0066 A3F5C073 		sub	r3, r3, #384
 2550 006a 1D60     		str	r5, [r3]
1765:.\Generated_Source\PSoC5/CyLib.c **** }
 2551              		.loc 1 1765 0
 2552 006c 3046     		mov	r0, r6
 2553 006e FFF7FEFF 		bl	CyExitCriticalSection
 2554              	.LVL146:
 2555 0072 F8BD     		pop	{r3, r4, r5, r6, r7, pc}
 2556              	.LVL147:
 2557              	.L258:
 2558              		.align	2
 2559              	.L257:
 2560 0074 00E100E0 		.word	-536813312
 2561 0078 F7460040 		.word	1073759991
 2562 007c 80E200E0 		.word	-536812928
 2563              		.cfi_endproc
 2564              	.LFE47:
 2565              		.size	CyVdLvAnalogEnable, .-CyVdLvAnalogEnable
 2566              		.section	.text.CyVdLvDigitDisable,"ax",%progbits
 2567              		.align	2
 2568              		.global	CyVdLvDigitDisable
 2569              		.thumb
 2570              		.thumb_func
 2571              		.type	CyVdLvDigitDisable, %function
 2572              	CyVdLvDigitDisable:
 2573              	.LFB48:
1782:.\Generated_Source\PSoC5/CyLib.c ****     CY_VD_LVI_HVI_CONTROL_REG &= ((uint8)(~CY_VD_LVID_EN));
 2574              		.loc 1 1782 0
 2575              		.cfi_startproc
 2576              		@ args = 0, pretend = 0, frame = 0
 2577              		@ frame_needed = 0, uses_anonymous_args = 0
 2578 0000 08B5     		push	{r3, lr}
 2579              		.cfi_def_cfa_offset 8
 2580              		.cfi_offset 3, -8
 2581              		.cfi_offset 14, -4
1783:.\Generated_Source\PSoC5/CyLib.c ****     CY_VD_PRES_CONTROL_REG &= ((uint8)(~CY_VD_PRESD_EN));
 2582              		.loc 1 1783 0
 2583 0002 0A4A     		ldr	r2, .L262
 2584 0004 1378     		ldrb	r3, [r2]	@ zero_extendqisi2
 2585 0006 03F0FE03 		and	r3, r3, #254
 2586 000a 1370     		strb	r3, [r2]
1784:.\Generated_Source\PSoC5/CyLib.c ****     (void) CyVdStickyStatus(CY_VD_LVID);
 2587              		.loc 1 1784 0
 2588 000c 0232     		adds	r2, r2, #2
 2589 000e 1378     		ldrb	r3, [r2]	@ zero_extendqisi2
 2590 0010 03F0BF03 		and	r3, r3, #191
 2591 0014 1370     		strb	r3, [r2]
1785:.\Generated_Source\PSoC5/CyLib.c **** 
 2592              		.loc 1 1785 0
 2593 0016 0120     		movs	r0, #1
 2594 0018 FFF7FEFF 		bl	CyVdStickyStatus
ARM GAS  C:\Users\student\AppData\Local\Temp\ccmWIiPR.s 			page 84


 2595              	.LVL148:
 2596              	.L260:
1787:.\Generated_Source\PSoC5/CyLib.c ****     {
 2597              		.loc 1 1787 0 discriminator 1
 2598 001c 0120     		movs	r0, #1
 2599 001e FFF7FEFF 		bl	CyVdStickyStatus
 2600              	.LVL149:
 2601 0022 10F0010F 		tst	r0, #1
 2602 0026 F9D1     		bne	.L260
1791:.\Generated_Source\PSoC5/CyLib.c **** 
 2603              		.loc 1 1791 0
 2604 0028 08BD     		pop	{r3, pc}
 2605              	.L263:
 2606 002a 00BF     		.align	2
 2607              	.L262:
 2608 002c F5460040 		.word	1073759989
 2609              		.cfi_endproc
 2610              	.LFE48:
 2611              		.size	CyVdLvDigitDisable, .-CyVdLvDigitDisable
 2612              		.section	.text.CyVdLvAnalogDisable,"ax",%progbits
 2613              		.align	2
 2614              		.global	CyVdLvAnalogDisable
 2615              		.thumb
 2616              		.thumb_func
 2617              		.type	CyVdLvAnalogDisable, %function
 2618              	CyVdLvAnalogDisable:
 2619              	.LFB49:
1807:.\Generated_Source\PSoC5/CyLib.c ****     CY_VD_LVI_HVI_CONTROL_REG &= ((uint8)(~CY_VD_LVIA_EN));
 2620              		.loc 1 1807 0
 2621              		.cfi_startproc
 2622              		@ args = 0, pretend = 0, frame = 0
 2623              		@ frame_needed = 0, uses_anonymous_args = 0
 2624 0000 08B5     		push	{r3, lr}
 2625              		.cfi_def_cfa_offset 8
 2626              		.cfi_offset 3, -8
 2627              		.cfi_offset 14, -4
1808:.\Generated_Source\PSoC5/CyLib.c ****     CY_VD_PRES_CONTROL_REG &= ((uint8)(~CY_VD_PRESA_EN));
 2628              		.loc 1 1808 0
 2629 0002 084A     		ldr	r2, .L267
 2630 0004 1378     		ldrb	r3, [r2]	@ zero_extendqisi2
 2631 0006 03F0FD03 		and	r3, r3, #253
 2632 000a 1370     		strb	r3, [r2]
1809:.\Generated_Source\PSoC5/CyLib.c ****     while(0u != (CyVdStickyStatus(CY_VD_LVIA) & CY_VD_LVIA))
 2633              		.loc 1 1809 0
 2634 000c 0232     		adds	r2, r2, #2
 2635 000e 1378     		ldrb	r3, [r2]	@ zero_extendqisi2
 2636 0010 03F07F03 		and	r3, r3, #127
 2637 0014 1370     		strb	r3, [r2]
 2638              	.L265:
1810:.\Generated_Source\PSoC5/CyLib.c ****     {
 2639              		.loc 1 1810 0 discriminator 1
 2640 0016 0220     		movs	r0, #2
 2641 0018 FFF7FEFF 		bl	CyVdStickyStatus
 2642              	.LVL150:
 2643 001c 10F0020F 		tst	r0, #2
 2644 0020 F9D1     		bne	.L265
1814:.\Generated_Source\PSoC5/CyLib.c **** 
ARM GAS  C:\Users\student\AppData\Local\Temp\ccmWIiPR.s 			page 85


 2645              		.loc 1 1814 0
 2646 0022 08BD     		pop	{r3, pc}
 2647              	.L268:
 2648              		.align	2
 2649              	.L267:
 2650 0024 F5460040 		.word	1073759989
 2651              		.cfi_endproc
 2652              	.LFE49:
 2653              		.size	CyVdLvAnalogDisable, .-CyVdLvAnalogDisable
 2654              		.section	.text.CyVdHvAnalogEnable,"ax",%progbits
 2655              		.align	2
 2656              		.global	CyVdHvAnalogEnable
 2657              		.thumb
 2658              		.thumb_func
 2659              		.type	CyVdHvAnalogEnable, %function
 2660              	CyVdHvAnalogEnable:
 2661              	.LFB50:
1830:.\Generated_Source\PSoC5/CyLib.c ****     uint32 intRegTmp;
 2662              		.loc 1 1830 0
 2663              		.cfi_startproc
 2664              		@ args = 0, pretend = 0, frame = 0
 2665              		@ frame_needed = 0, uses_anonymous_args = 0
 2666 0000 F8B5     		push	{r3, r4, r5, r6, r7, lr}
 2667              		.cfi_def_cfa_offset 24
 2668              		.cfi_offset 3, -24
 2669              		.cfi_offset 4, -20
 2670              		.cfi_offset 5, -16
 2671              		.cfi_offset 6, -12
 2672              		.cfi_offset 7, -8
 2673              		.cfi_offset 14, -4
1834:.\Generated_Source\PSoC5/CyLib.c **** 
 2674              		.loc 1 1834 0
 2675 0002 FFF7FEFF 		bl	CyEnterCriticalSection
 2676              	.LVL151:
 2677 0006 0746     		mov	r7, r0
 2678              	.LVL152:
1837:.\Generated_Source\PSoC5/CyLib.c **** 
 2679              		.loc 1 1837 0
 2680 0008 0E4E     		ldr	r6, .L271
 2681 000a 3468     		ldr	r4, [r6]
 2682 000c 04F00104 		and	r4, r4, #1
 2683              	.LVL153:
1840:.\Generated_Source\PSoC5/CyLib.c **** 
 2684              		.loc 1 1840 0
 2685 0010 0125     		movs	r5, #1
 2686 0012 0D4B     		ldr	r3, .L271+4
 2687 0014 1D60     		str	r5, [r3]
1842:.\Generated_Source\PSoC5/CyLib.c **** 
 2688              		.loc 1 1842 0
 2689 0016 0D4A     		ldr	r2, .L271+8
 2690 0018 1378     		ldrb	r3, [r2]	@ zero_extendqisi2
 2691 001a 03F07F03 		and	r3, r3, #127
 2692 001e 1370     		strb	r3, [r2]
1844:.\Generated_Source\PSoC5/CyLib.c **** 
 2693              		.loc 1 1844 0
 2694 0020 023A     		subs	r2, r2, #2
 2695 0022 1378     		ldrb	r3, [r2]	@ zero_extendqisi2
ARM GAS  C:\Users\student\AppData\Local\Temp\ccmWIiPR.s 			page 86


 2696 0024 43F00403 		orr	r3, r3, #4
 2697 0028 1370     		strb	r3, [r2]
1847:.\Generated_Source\PSoC5/CyLib.c **** 
 2698              		.loc 1 1847 0
 2699 002a 2846     		mov	r0, r5
 2700 002c FFF7FEFF 		bl	CyDelayUs
 2701              	.LVL154:
1849:.\Generated_Source\PSoC5/CyLib.c **** 
 2702              		.loc 1 1849 0
 2703 0030 0420     		movs	r0, #4
 2704 0032 FFF7FEFF 		bl	CyVdStickyStatus
 2705              	.LVL155:
1852:.\Generated_Source\PSoC5/CyLib.c **** 
 2706              		.loc 1 1852 0
 2707 0036 064B     		ldr	r3, .L271+12
 2708 0038 1D60     		str	r5, [r3]
1855:.\Generated_Source\PSoC5/CyLib.c **** 
 2709              		.loc 1 1855 0
 2710 003a 3460     		str	r4, [r6]
1857:.\Generated_Source\PSoC5/CyLib.c **** }
 2711              		.loc 1 1857 0
 2712 003c 3846     		mov	r0, r7
 2713 003e FFF7FEFF 		bl	CyExitCriticalSection
 2714              	.LVL156:
 2715 0042 F8BD     		pop	{r3, r4, r5, r6, r7, pc}
 2716              	.LVL157:
 2717              	.L272:
 2718              		.align	2
 2719              	.L271:
 2720 0044 00E100E0 		.word	-536813312
 2721 0048 80E100E0 		.word	-536813184
 2722 004c F7460040 		.word	1073759991
 2723 0050 80E200E0 		.word	-536812928
 2724              		.cfi_endproc
 2725              	.LFE50:
 2726              		.size	CyVdHvAnalogEnable, .-CyVdHvAnalogEnable
 2727              		.section	.text.CyVdHvAnalogDisable,"ax",%progbits
 2728              		.align	2
 2729              		.global	CyVdHvAnalogDisable
 2730              		.thumb
 2731              		.thumb_func
 2732              		.type	CyVdHvAnalogDisable, %function
 2733              	CyVdHvAnalogDisable:
 2734              	.LFB51:
1874:.\Generated_Source\PSoC5/CyLib.c ****     CY_VD_LVI_HVI_CONTROL_REG &= ((uint8)(~CY_VD_HVIA_EN));
 2735              		.loc 1 1874 0
 2736              		.cfi_startproc
 2737              		@ args = 0, pretend = 0, frame = 0
 2738              		@ frame_needed = 0, uses_anonymous_args = 0
 2739 0000 08B5     		push	{r3, lr}
 2740              		.cfi_def_cfa_offset 8
 2741              		.cfi_offset 3, -8
 2742              		.cfi_offset 14, -4
1875:.\Generated_Source\PSoC5/CyLib.c ****     while(0u != (CyVdStickyStatus(CY_VD_HVIA) & CY_VD_HVIA))
 2743              		.loc 1 1875 0
 2744 0002 064A     		ldr	r2, .L276
 2745 0004 1378     		ldrb	r3, [r2]	@ zero_extendqisi2
ARM GAS  C:\Users\student\AppData\Local\Temp\ccmWIiPR.s 			page 87


 2746 0006 03F0FB03 		and	r3, r3, #251
 2747 000a 1370     		strb	r3, [r2]
 2748              	.L274:
1876:.\Generated_Source\PSoC5/CyLib.c ****     {
 2749              		.loc 1 1876 0 discriminator 1
 2750 000c 0420     		movs	r0, #4
 2751 000e FFF7FEFF 		bl	CyVdStickyStatus
 2752              	.LVL158:
 2753 0012 10F0040F 		tst	r0, #4
 2754 0016 F9D1     		bne	.L274
1880:.\Generated_Source\PSoC5/CyLib.c **** 
 2755              		.loc 1 1880 0
 2756 0018 08BD     		pop	{r3, pc}
 2757              	.L277:
 2758 001a 00BF     		.align	2
 2759              	.L276:
 2760 001c F5460040 		.word	1073759989
 2761              		.cfi_endproc
 2762              	.LFE51:
 2763              		.size	CyVdHvAnalogDisable, .-CyVdHvAnalogDisable
 2764              		.section	.text.CyVdRealTimeStatus,"ax",%progbits
 2765              		.align	2
 2766              		.global	CyVdRealTimeStatus
 2767              		.thumb
 2768              		.thumb_func
 2769              		.type	CyVdRealTimeStatus, %function
 2770              	CyVdRealTimeStatus:
 2771              	.LFB53:
1925:.\Generated_Source\PSoC5/CyLib.c **** 
1926:.\Generated_Source\PSoC5/CyLib.c **** 
1927:.\Generated_Source\PSoC5/CyLib.c **** /*******************************************************************************
1928:.\Generated_Source\PSoC5/CyLib.c **** * Function Name: CyVdRealTimeStatus
1929:.\Generated_Source\PSoC5/CyLib.c **** ****************************************************************************//**
1930:.\Generated_Source\PSoC5/CyLib.c **** *
1931:.\Generated_Source\PSoC5/CyLib.c **** *  Reads the real-time voltage detection status bits in the RESET_SR2 register.
1932:.\Generated_Source\PSoC5/CyLib.c **** *  The bits are set to 1 by the voltage monitor circuit when the supply is
1933:.\Generated_Source\PSoC5/CyLib.c **** *  outside the detectors trip point, and set to 0 when the supply is inside the
1934:.\Generated_Source\PSoC5/CyLib.c **** *  trip point.
1935:.\Generated_Source\PSoC5/CyLib.c **** *
1936:.\Generated_Source\PSoC5/CyLib.c **** * \return
1937:.\Generated_Source\PSoC5/CyLib.c **** *  Status of the LVID, LVIA, and HVIA bits in the RESET_SR2 register.
1938:.\Generated_Source\PSoC5/CyLib.c **** *   Define                  Definition
1939:.\Generated_Source\PSoC5/CyLib.c **** *   CY_VD_LVID            Real-time status of digital LVI.
1940:.\Generated_Source\PSoC5/CyLib.c **** *   CY_VD_LVIA            Real-time status of analog LVI.
1941:.\Generated_Source\PSoC5/CyLib.c **** *   CY_VD_HVIA            Real-time status of analog HVI.
1942:.\Generated_Source\PSoC5/CyLib.c **** *
1943:.\Generated_Source\PSoC5/CyLib.c **** * Side Effects and Restrictions:
1944:.\Generated_Source\PSoC5/CyLib.c **** *  When an LVI reset occurs, the RESET_SR2 status registers are cleared. This
1945:.\Generated_Source\PSoC5/CyLib.c **** *  means that the voltage detection status bits are not persistent across an LVI
1946:.\Generated_Source\PSoC5/CyLib.c **** *  reset and cannot be used to determine a reset source.
1947:.\Generated_Source\PSoC5/CyLib.c **** *
1948:.\Generated_Source\PSoC5/CyLib.c **** *******************************************************************************/
1949:.\Generated_Source\PSoC5/CyLib.c **** uint8 CyVdRealTimeStatus(void) 
1950:.\Generated_Source\PSoC5/CyLib.c **** {
 2772              		.loc 1 1950 0
 2773              		.cfi_startproc
 2774              		@ args = 0, pretend = 0, frame = 0
ARM GAS  C:\Users\student\AppData\Local\Temp\ccmWIiPR.s 			page 88


 2775              		@ frame_needed = 0, uses_anonymous_args = 0
 2776 0000 10B5     		push	{r4, lr}
 2777              		.cfi_def_cfa_offset 8
 2778              		.cfi_offset 4, -8
 2779              		.cfi_offset 14, -4
1951:.\Generated_Source\PSoC5/CyLib.c ****     uint8 interruptState;
1952:.\Generated_Source\PSoC5/CyLib.c ****     uint8 vdFlagsState;
1953:.\Generated_Source\PSoC5/CyLib.c **** 
1954:.\Generated_Source\PSoC5/CyLib.c ****     interruptState = CyEnterCriticalSection();
 2780              		.loc 1 1954 0
 2781 0002 FFF7FEFF 		bl	CyEnterCriticalSection
 2782              	.LVL159:
1955:.\Generated_Source\PSoC5/CyLib.c ****     vdFlagsState = CY_VD_RT_STATUS_REG & (CY_VD_LVID | CY_VD_LVIA | CY_VD_HVIA);
 2783              		.loc 1 1955 0
 2784 0006 044B     		ldr	r3, .L280
 2785 0008 1C78     		ldrb	r4, [r3]	@ zero_extendqisi2
 2786 000a 04F00704 		and	r4, r4, #7
 2787              	.LVL160:
1956:.\Generated_Source\PSoC5/CyLib.c ****     CyExitCriticalSection(interruptState);
 2788              		.loc 1 1956 0
 2789 000e FFF7FEFF 		bl	CyExitCriticalSection
 2790              	.LVL161:
1957:.\Generated_Source\PSoC5/CyLib.c **** 
1958:.\Generated_Source\PSoC5/CyLib.c ****     return(vdFlagsState);
1959:.\Generated_Source\PSoC5/CyLib.c **** }
 2791              		.loc 1 1959 0
 2792 0012 2046     		mov	r0, r4
 2793 0014 10BD     		pop	{r4, pc}
 2794              	.LVL162:
 2795              	.L281:
 2796 0016 00BF     		.align	2
 2797              	.L280:
 2798 0018 FC460040 		.word	1073759996
 2799              		.cfi_endproc
 2800              	.LFE53:
 2801              		.size	CyVdRealTimeStatus, .-CyVdRealTimeStatus
 2802              		.section	.text.CyDisableInts,"ax",%progbits
 2803              		.align	2
 2804              		.global	CyDisableInts
 2805              		.thumb
 2806              		.thumb_func
 2807              		.type	CyDisableInts, %function
 2808              	CyDisableInts:
 2809              	.LFB54:
1960:.\Generated_Source\PSoC5/CyLib.c **** 
1961:.\Generated_Source\PSoC5/CyLib.c **** 
1962:.\Generated_Source\PSoC5/CyLib.c **** /*******************************************************************************
1963:.\Generated_Source\PSoC5/CyLib.c **** * Function Name: CyDisableInts
1964:.\Generated_Source\PSoC5/CyLib.c **** ****************************************************************************//**
1965:.\Generated_Source\PSoC5/CyLib.c **** *
1966:.\Generated_Source\PSoC5/CyLib.c **** *  Disables the interrupt enable for each interrupt.
1967:.\Generated_Source\PSoC5/CyLib.c **** *
1968:.\Generated_Source\PSoC5/CyLib.c **** * \return
1969:.\Generated_Source\PSoC5/CyLib.c **** *  32 bit mask of previously enabled interrupts.
1970:.\Generated_Source\PSoC5/CyLib.c **** *
1971:.\Generated_Source\PSoC5/CyLib.c **** *******************************************************************************/
1972:.\Generated_Source\PSoC5/CyLib.c **** uint32 CyDisableInts(void) 
ARM GAS  C:\Users\student\AppData\Local\Temp\ccmWIiPR.s 			page 89


1973:.\Generated_Source\PSoC5/CyLib.c **** {
 2810              		.loc 1 1973 0
 2811              		.cfi_startproc
 2812              		@ args = 0, pretend = 0, frame = 0
 2813              		@ frame_needed = 0, uses_anonymous_args = 0
 2814 0000 10B5     		push	{r4, lr}
 2815              		.cfi_def_cfa_offset 8
 2816              		.cfi_offset 4, -8
 2817              		.cfi_offset 14, -4
1974:.\Generated_Source\PSoC5/CyLib.c ****     uint32 intState;
1975:.\Generated_Source\PSoC5/CyLib.c ****     uint8 interruptState;
1976:.\Generated_Source\PSoC5/CyLib.c **** 
1977:.\Generated_Source\PSoC5/CyLib.c ****     interruptState = CyEnterCriticalSection();
 2818              		.loc 1 1977 0
 2819 0002 FFF7FEFF 		bl	CyEnterCriticalSection
 2820              	.LVL163:
1978:.\Generated_Source\PSoC5/CyLib.c **** 
1979:.\Generated_Source\PSoC5/CyLib.c ****     #if(CY_PSOC3)
1980:.\Generated_Source\PSoC5/CyLib.c **** 
1981:.\Generated_Source\PSoC5/CyLib.c ****         /* Get the current interrupt state. */
1982:.\Generated_Source\PSoC5/CyLib.c ****         intState  = ((uint32) CY_GET_REG8(CY_INT_CLR_EN0_PTR));
1983:.\Generated_Source\PSoC5/CyLib.c ****         intState |= ((uint32) (((uint32) CY_GET_REG8(CY_INT_CLR_EN1_PTR)) << 8u));
1984:.\Generated_Source\PSoC5/CyLib.c ****         intState |= ((uint32) (((uint32) CY_GET_REG8(CY_INT_CLR_EN2_PTR)) << 16u));
1985:.\Generated_Source\PSoC5/CyLib.c ****         intState |= ((uint32) (((uint32) CY_GET_REG8(CY_INT_CLR_EN3_PTR)) << 24u));
1986:.\Generated_Source\PSoC5/CyLib.c **** 
1987:.\Generated_Source\PSoC5/CyLib.c **** 
1988:.\Generated_Source\PSoC5/CyLib.c ****         /* Disable all of the interrupts. */
1989:.\Generated_Source\PSoC5/CyLib.c ****         CY_SET_REG8(CY_INT_CLR_EN0_PTR, 0xFFu);
1990:.\Generated_Source\PSoC5/CyLib.c ****         CY_SET_REG8(CY_INT_CLR_EN1_PTR, 0xFFu);
1991:.\Generated_Source\PSoC5/CyLib.c ****         CY_SET_REG8(CY_INT_CLR_EN2_PTR, 0xFFu);
1992:.\Generated_Source\PSoC5/CyLib.c ****         CY_SET_REG8(CY_INT_CLR_EN3_PTR, 0xFFu);
1993:.\Generated_Source\PSoC5/CyLib.c **** 
1994:.\Generated_Source\PSoC5/CyLib.c ****     #else
1995:.\Generated_Source\PSoC5/CyLib.c **** 
1996:.\Generated_Source\PSoC5/CyLib.c ****         /* Get the current interrupt state. */
1997:.\Generated_Source\PSoC5/CyLib.c ****         intState = CY_GET_REG32(CY_INT_CLEAR_PTR);
 2821              		.loc 1 1997 0
 2822 0006 044B     		ldr	r3, .L284
 2823 0008 1C68     		ldr	r4, [r3]
 2824              	.LVL164:
1998:.\Generated_Source\PSoC5/CyLib.c **** 
1999:.\Generated_Source\PSoC5/CyLib.c ****         /* Disable all of the interrupts. */
2000:.\Generated_Source\PSoC5/CyLib.c ****         CY_SET_REG32(CY_INT_CLEAR_PTR, 0xFFFFFFFFu);
 2825              		.loc 1 2000 0
 2826 000a 4FF0FF32 		mov	r2, #-1
 2827 000e 1A60     		str	r2, [r3]
2001:.\Generated_Source\PSoC5/CyLib.c **** 
2002:.\Generated_Source\PSoC5/CyLib.c ****     #endif /* (CY_PSOC3) */
2003:.\Generated_Source\PSoC5/CyLib.c **** 
2004:.\Generated_Source\PSoC5/CyLib.c ****     CyExitCriticalSection(interruptState);
 2828              		.loc 1 2004 0
 2829 0010 FFF7FEFF 		bl	CyExitCriticalSection
 2830              	.LVL165:
2005:.\Generated_Source\PSoC5/CyLib.c **** 
2006:.\Generated_Source\PSoC5/CyLib.c ****     return (intState);
2007:.\Generated_Source\PSoC5/CyLib.c **** }
 2831              		.loc 1 2007 0
ARM GAS  C:\Users\student\AppData\Local\Temp\ccmWIiPR.s 			page 90


 2832 0014 2046     		mov	r0, r4
 2833 0016 10BD     		pop	{r4, pc}
 2834              	.LVL166:
 2835              	.L285:
 2836              		.align	2
 2837              	.L284:
 2838 0018 80E100E0 		.word	-536813184
 2839              		.cfi_endproc
 2840              	.LFE54:
 2841              		.size	CyDisableInts, .-CyDisableInts
 2842              		.section	.text.CyEnableInts,"ax",%progbits
 2843              		.align	2
 2844              		.global	CyEnableInts
 2845              		.thumb
 2846              		.thumb_func
 2847              		.type	CyEnableInts, %function
 2848              	CyEnableInts:
 2849              	.LFB55:
2008:.\Generated_Source\PSoC5/CyLib.c **** 
2009:.\Generated_Source\PSoC5/CyLib.c **** 
2010:.\Generated_Source\PSoC5/CyLib.c **** /*******************************************************************************
2011:.\Generated_Source\PSoC5/CyLib.c **** * Function Name: CyEnableInts
2012:.\Generated_Source\PSoC5/CyLib.c **** ****************************************************************************//**
2013:.\Generated_Source\PSoC5/CyLib.c **** *
2014:.\Generated_Source\PSoC5/CyLib.c **** *  Enables interrupts to a given state.
2015:.\Generated_Source\PSoC5/CyLib.c **** *
2016:.\Generated_Source\PSoC5/CyLib.c **** *  \param uint32 mask: 32 bit mask of interrupts to enable.
2017:.\Generated_Source\PSoC5/CyLib.c **** *
2018:.\Generated_Source\PSoC5/CyLib.c **** *******************************************************************************/
2019:.\Generated_Source\PSoC5/CyLib.c **** void CyEnableInts(uint32 mask) 
2020:.\Generated_Source\PSoC5/CyLib.c **** {
 2850              		.loc 1 2020 0
 2851              		.cfi_startproc
 2852              		@ args = 0, pretend = 0, frame = 0
 2853              		@ frame_needed = 0, uses_anonymous_args = 0
 2854              	.LVL167:
 2855 0000 10B5     		push	{r4, lr}
 2856              		.cfi_def_cfa_offset 8
 2857              		.cfi_offset 4, -8
 2858              		.cfi_offset 14, -4
 2859 0002 0446     		mov	r4, r0
2021:.\Generated_Source\PSoC5/CyLib.c **** 
2022:.\Generated_Source\PSoC5/CyLib.c ****     uint8 interruptState;
2023:.\Generated_Source\PSoC5/CyLib.c **** 
2024:.\Generated_Source\PSoC5/CyLib.c ****     interruptState = CyEnterCriticalSection();
 2860              		.loc 1 2024 0
 2861 0004 FFF7FEFF 		bl	CyEnterCriticalSection
 2862              	.LVL168:
2025:.\Generated_Source\PSoC5/CyLib.c **** 
2026:.\Generated_Source\PSoC5/CyLib.c ****     #if(CY_PSOC3)
2027:.\Generated_Source\PSoC5/CyLib.c **** 
2028:.\Generated_Source\PSoC5/CyLib.c ****         /* Set interrupts as enabled. */
2029:.\Generated_Source\PSoC5/CyLib.c ****         CY_SET_REG8(CY_INT_SET_EN3_PTR, ((uint8) (mask >> 24u)));
2030:.\Generated_Source\PSoC5/CyLib.c ****         CY_SET_REG8(CY_INT_SET_EN2_PTR, ((uint8) (mask >> 16u)));
2031:.\Generated_Source\PSoC5/CyLib.c ****         CY_SET_REG8(CY_INT_SET_EN1_PTR, ((uint8) (mask >> 8u )));
2032:.\Generated_Source\PSoC5/CyLib.c ****         CY_SET_REG8(CY_INT_SET_EN0_PTR, ((uint8) (mask )));
2033:.\Generated_Source\PSoC5/CyLib.c **** 
ARM GAS  C:\Users\student\AppData\Local\Temp\ccmWIiPR.s 			page 91


2034:.\Generated_Source\PSoC5/CyLib.c ****     #else
2035:.\Generated_Source\PSoC5/CyLib.c **** 
2036:.\Generated_Source\PSoC5/CyLib.c ****         CY_SET_REG32(CY_INT_ENABLE_PTR, mask);
 2863              		.loc 1 2036 0
 2864 0008 024B     		ldr	r3, .L288
 2865 000a 1C60     		str	r4, [r3]
2037:.\Generated_Source\PSoC5/CyLib.c **** 
2038:.\Generated_Source\PSoC5/CyLib.c ****     #endif /* (CY_PSOC3) */
2039:.\Generated_Source\PSoC5/CyLib.c **** 
2040:.\Generated_Source\PSoC5/CyLib.c ****     CyExitCriticalSection(interruptState);
 2866              		.loc 1 2040 0
 2867 000c FFF7FEFF 		bl	CyExitCriticalSection
 2868              	.LVL169:
 2869 0010 10BD     		pop	{r4, pc}
 2870              	.LVL170:
 2871              	.L289:
 2872 0012 00BF     		.align	2
 2873              	.L288:
 2874 0014 00E100E0 		.word	-536813312
 2875              		.cfi_endproc
 2876              	.LFE55:
 2877              		.size	CyEnableInts, .-CyEnableInts
 2878              		.section	.text.CyFlushCache,"ax",%progbits
 2879              		.align	2
 2880              		.global	CyFlushCache
 2881              		.thumb
 2882              		.thumb_func
 2883              		.type	CyFlushCache, %function
 2884              	CyFlushCache:
 2885              	.LFB56:
2041:.\Generated_Source\PSoC5/CyLib.c **** 
2042:.\Generated_Source\PSoC5/CyLib.c **** }
2043:.\Generated_Source\PSoC5/CyLib.c **** 
2044:.\Generated_Source\PSoC5/CyLib.c **** #if(CY_PSOC5)
2045:.\Generated_Source\PSoC5/CyLib.c **** 
2046:.\Generated_Source\PSoC5/CyLib.c ****     /*******************************************************************************
2047:.\Generated_Source\PSoC5/CyLib.c ****     * Function Name: CyFlushCache
2048:.\Generated_Source\PSoC5/CyLib.c ****     ****************************************************************************//**
2049:.\Generated_Source\PSoC5/CyLib.c ****     *  Call this API after a flash row erase/write operation to invalidate or flush
2050:.\Generated_Source\PSoC5/CyLib.c ****     *  any of that particular flash region content already present in the cache.
2051:.\Generated_Source\PSoC5/CyLib.c ****     *  After a cache flush operation, any access to that flash region after the
2052:.\Generated_Source\PSoC5/CyLib.c ****     *  erase/write operation would reload the cache with the modified data from the
2053:.\Generated_Source\PSoC5/CyLib.c ****     *  flash region. If the flash region update involves multiple flash row write
2054:.\Generated_Source\PSoC5/CyLib.c ****     *  operations, then the flushing of the cache can be done once at the end of
2055:.\Generated_Source\PSoC5/CyLib.c ****     *  the operation as long as the flash data would not be accessed in the middle
2056:.\Generated_Source\PSoC5/CyLib.c ****     *  of the multiple row update process. Else, flush the cache after every flash
2057:.\Generated_Source\PSoC5/CyLib.c ****     *  row write.
2058:.\Generated_Source\PSoC5/CyLib.c ****     *
2059:.\Generated_Source\PSoC5/CyLib.c ****     *******************************************************************************/
2060:.\Generated_Source\PSoC5/CyLib.c ****     void CyFlushCache(void)
2061:.\Generated_Source\PSoC5/CyLib.c ****     {
 2886              		.loc 1 2061 0
 2887              		.cfi_startproc
 2888              		@ args = 0, pretend = 0, frame = 0
 2889              		@ frame_needed = 0, uses_anonymous_args = 0
 2890 0000 08B5     		push	{r3, lr}
 2891              		.cfi_def_cfa_offset 8
ARM GAS  C:\Users\student\AppData\Local\Temp\ccmWIiPR.s 			page 92


 2892              		.cfi_offset 3, -8
 2893              		.cfi_offset 14, -4
2062:.\Generated_Source\PSoC5/CyLib.c ****         uint8 interruptState;
2063:.\Generated_Source\PSoC5/CyLib.c **** 
2064:.\Generated_Source\PSoC5/CyLib.c ****         /* Save current global interrupt enable and disable it */
2065:.\Generated_Source\PSoC5/CyLib.c ****         interruptState = CyEnterCriticalSection();
 2894              		.loc 1 2065 0
 2895 0002 FFF7FEFF 		bl	CyEnterCriticalSection
 2896              	.LVL171:
2066:.\Generated_Source\PSoC5/CyLib.c **** 
2067:.\Generated_Source\PSoC5/CyLib.c ****         /* Fill instruction prefectch unit to insure data integrity */
2068:.\Generated_Source\PSoC5/CyLib.c ****         CY_NOP;
 2897              		.loc 1 2068 0
 2898              	@ 2068 ".\Generated_Source\PSoC5\CyLib.c" 1
 2899 0006 00BF     		NOP
 2900              	
 2901              	@ 0 "" 2
2069:.\Generated_Source\PSoC5/CyLib.c ****         CY_NOP;
 2902              		.loc 1 2069 0
 2903              	@ 2069 ".\Generated_Source\PSoC5\CyLib.c" 1
 2904 0008 00BF     		NOP
 2905              	
 2906              	@ 0 "" 2
2070:.\Generated_Source\PSoC5/CyLib.c ****         CY_NOP;
 2907              		.loc 1 2070 0
 2908              	@ 2070 ".\Generated_Source\PSoC5\CyLib.c" 1
 2909 000a 00BF     		NOP
 2910              	
 2911              	@ 0 "" 2
2071:.\Generated_Source\PSoC5/CyLib.c ****         CY_NOP;
 2912              		.loc 1 2071 0
 2913              	@ 2071 ".\Generated_Source\PSoC5\CyLib.c" 1
 2914 000c 00BF     		NOP
 2915              	
 2916              	@ 0 "" 2
2072:.\Generated_Source\PSoC5/CyLib.c ****         CY_NOP;
 2917              		.loc 1 2072 0
 2918              	@ 2072 ".\Generated_Source\PSoC5\CyLib.c" 1
 2919 000e 00BF     		NOP
 2920              	
 2921              	@ 0 "" 2
2073:.\Generated_Source\PSoC5/CyLib.c ****         CY_NOP;
 2922              		.loc 1 2073 0
 2923              	@ 2073 ".\Generated_Source\PSoC5\CyLib.c" 1
 2924 0010 00BF     		NOP
 2925              	
 2926              	@ 0 "" 2
2074:.\Generated_Source\PSoC5/CyLib.c ****         CY_NOP;
 2927              		.loc 1 2074 0
 2928              	@ 2074 ".\Generated_Source\PSoC5\CyLib.c" 1
 2929 0012 00BF     		NOP
 2930              	
 2931              	@ 0 "" 2
2075:.\Generated_Source\PSoC5/CyLib.c ****         CY_NOP;
 2932              		.loc 1 2075 0
 2933              	@ 2075 ".\Generated_Source\PSoC5\CyLib.c" 1
 2934 0014 00BF     		NOP
ARM GAS  C:\Users\student\AppData\Local\Temp\ccmWIiPR.s 			page 93


 2935              	
 2936              	@ 0 "" 2
2076:.\Generated_Source\PSoC5/CyLib.c ****         CY_NOP;
 2937              		.loc 1 2076 0
 2938              	@ 2076 ".\Generated_Source\PSoC5\CyLib.c" 1
 2939 0016 00BF     		NOP
 2940              	
 2941              	@ 0 "" 2
2077:.\Generated_Source\PSoC5/CyLib.c ****         CY_NOP;
 2942              		.loc 1 2077 0
 2943              	@ 2077 ".\Generated_Source\PSoC5\CyLib.c" 1
 2944 0018 00BF     		NOP
 2945              	
 2946              	@ 0 "" 2
2078:.\Generated_Source\PSoC5/CyLib.c ****         CY_NOP;
 2947              		.loc 1 2078 0
 2948              	@ 2078 ".\Generated_Source\PSoC5\CyLib.c" 1
 2949 001a 00BF     		NOP
 2950              	
 2951              	@ 0 "" 2
2079:.\Generated_Source\PSoC5/CyLib.c ****         CY_NOP;
 2952              		.loc 1 2079 0
 2953              	@ 2079 ".\Generated_Source\PSoC5\CyLib.c" 1
 2954 001c 00BF     		NOP
 2955              	
 2956              	@ 0 "" 2
2080:.\Generated_Source\PSoC5/CyLib.c ****         CY_NOP;
 2957              		.loc 1 2080 0
 2958              	@ 2080 ".\Generated_Source\PSoC5\CyLib.c" 1
 2959 001e 00BF     		NOP
 2960              	
 2961              	@ 0 "" 2
2081:.\Generated_Source\PSoC5/CyLib.c ****         CY_NOP;
 2962              		.loc 1 2081 0
 2963              	@ 2081 ".\Generated_Source\PSoC5\CyLib.c" 1
 2964 0020 00BF     		NOP
 2965              	
 2966              	@ 0 "" 2
2082:.\Generated_Source\PSoC5/CyLib.c ****         CY_NOP;
 2967              		.loc 1 2082 0
 2968              	@ 2082 ".\Generated_Source\PSoC5\CyLib.c" 1
 2969 0022 00BF     		NOP
 2970              	
 2971              	@ 0 "" 2
2083:.\Generated_Source\PSoC5/CyLib.c ****         CY_NOP;
 2972              		.loc 1 2083 0
 2973              	@ 2083 ".\Generated_Source\PSoC5\CyLib.c" 1
 2974 0024 00BF     		NOP
 2975              	
 2976              	@ 0 "" 2
2084:.\Generated_Source\PSoC5/CyLib.c **** 
2085:.\Generated_Source\PSoC5/CyLib.c ****         /* All entries in cache are invalidated on next clock cycle. */
2086:.\Generated_Source\PSoC5/CyLib.c ****         CY_CACHE_CONTROL_REG |= CY_CACHE_CONTROL_FLUSH;
 2977              		.loc 1 2086 0
 2978              		.thumb
 2979 0026 064A     		ldr	r2, .L292
 2980 0028 1388     		ldrh	r3, [r2]
ARM GAS  C:\Users\student\AppData\Local\Temp\ccmWIiPR.s 			page 94


 2981 002a 9BB2     		uxth	r3, r3
 2982 002c 43F00403 		orr	r3, r3, #4
 2983 0030 1380     		strh	r3, [r2]	@ movhi
2087:.\Generated_Source\PSoC5/CyLib.c **** 
2088:.\Generated_Source\PSoC5/CyLib.c ****         /* Once this is executed it's guaranteed the cache has been flushed */
2089:.\Generated_Source\PSoC5/CyLib.c ****         (void) CY_CACHE_CONTROL_REG;
 2984              		.loc 1 2089 0
 2985 0032 1388     		ldrh	r3, [r2]
2090:.\Generated_Source\PSoC5/CyLib.c **** 
2091:.\Generated_Source\PSoC5/CyLib.c ****         /* Flush the pipeline */
2092:.\Generated_Source\PSoC5/CyLib.c ****         CY_SYS_ISB;
 2986              		.loc 1 2092 0
 2987              	@ 2092 ".\Generated_Source\PSoC5\CyLib.c" 1
 2988 0034 BFF36F8F 		isb 
 2989              	
 2990              	@ 0 "" 2
2093:.\Generated_Source\PSoC5/CyLib.c **** 
2094:.\Generated_Source\PSoC5/CyLib.c ****         /* Restore global interrupt enable state */
2095:.\Generated_Source\PSoC5/CyLib.c ****         CyExitCriticalSection(interruptState);
 2991              		.loc 1 2095 0
 2992              		.thumb
 2993 0038 FFF7FEFF 		bl	CyExitCriticalSection
 2994              	.LVL172:
 2995 003c 08BD     		pop	{r3, pc}
 2996              	.L293:
 2997 003e 00BF     		.align	2
 2998              	.L292:
 2999 0040 00480040 		.word	1073760256
 3000              		.cfi_endproc
 3001              	.LFE56:
 3002              		.size	CyFlushCache, .-CyFlushCache
 3003              		.section	.text.CyIntSetSysVector,"ax",%progbits
 3004              		.align	2
 3005              		.global	CyIntSetSysVector
 3006              		.thumb
 3007              		.thumb_func
 3008              		.type	CyIntSetSysVector, %function
 3009              	CyIntSetSysVector:
 3010              	.LFB57:
2096:.\Generated_Source\PSoC5/CyLib.c ****     }
2097:.\Generated_Source\PSoC5/CyLib.c **** 
2098:.\Generated_Source\PSoC5/CyLib.c **** 
2099:.\Generated_Source\PSoC5/CyLib.c ****     /*******************************************************************************
2100:.\Generated_Source\PSoC5/CyLib.c ****     * Function Name: CyIntSetSysVector
2101:.\Generated_Source\PSoC5/CyLib.c ****     ****************************************************************************//**
2102:.\Generated_Source\PSoC5/CyLib.c ****     *  Sets the interrupt vector of the specified system interrupt number. System
2103:.\Generated_Source\PSoC5/CyLib.c ****     *  interrupts are present only for the ARM platform. These interrupts are for
2104:.\Generated_Source\PSoC5/CyLib.c ****     *  SysTick, PendSV and others.
2105:.\Generated_Source\PSoC5/CyLib.c ****     *
2106:.\Generated_Source\PSoC5/CyLib.c ****     *  \param number: System interrupt number:
2107:.\Generated_Source\PSoC5/CyLib.c ****     *    CY_INT_NMI_IRQN                - Non Maskable Interrupt
2108:.\Generated_Source\PSoC5/CyLib.c ****     *    CY_INT_HARD_FAULT_IRQN         - Hard Fault Interrupt
2109:.\Generated_Source\PSoC5/CyLib.c ****     *    CY_INT_MEM_MANAGE_IRQN         - Memory Management Interrupt
2110:.\Generated_Source\PSoC5/CyLib.c ****     *    CY_INT_BUS_FAULT_IRQN          - Bus Fault Interrupt
2111:.\Generated_Source\PSoC5/CyLib.c ****     *    CY_INT_USAGE_FAULT_IRQN        - Usage Fault Interrupt
2112:.\Generated_Source\PSoC5/CyLib.c ****     *    CY_INT_SVCALL_IRQN             - SV Call Interrupt
2113:.\Generated_Source\PSoC5/CyLib.c ****     *    CY_INT_DEBUG_MONITOR_IRQN      - Debug Monitor Interrupt
ARM GAS  C:\Users\student\AppData\Local\Temp\ccmWIiPR.s 			page 95


2114:.\Generated_Source\PSoC5/CyLib.c ****     *    CY_INT_PEND_SV_IRQN            - Pend SV Interrupt
2115:.\Generated_Source\PSoC5/CyLib.c ****     *    CY_INT_SYSTICK_IRQN            - System Tick Interrupt
2116:.\Generated_Source\PSoC5/CyLib.c ****     *
2117:.\Generated_Source\PSoC5/CyLib.c ****     *  \param address: Pointer to an interrupt service routine.
2118:.\Generated_Source\PSoC5/CyLib.c ****     *
2119:.\Generated_Source\PSoC5/CyLib.c ****     * \return
2120:.\Generated_Source\PSoC5/CyLib.c ****     *   The old ISR vector at this location.
2121:.\Generated_Source\PSoC5/CyLib.c ****     *
2122:.\Generated_Source\PSoC5/CyLib.c ****     *******************************************************************************/
2123:.\Generated_Source\PSoC5/CyLib.c ****     cyisraddress CyIntSetSysVector(uint8 number, cyisraddress address)
2124:.\Generated_Source\PSoC5/CyLib.c ****     {
 3011              		.loc 1 2124 0
 3012              		.cfi_startproc
 3013              		@ args = 0, pretend = 0, frame = 0
 3014              		@ frame_needed = 0, uses_anonymous_args = 0
 3015              	.LVL173:
 3016 0000 70B5     		push	{r4, r5, r6, lr}
 3017              		.cfi_def_cfa_offset 16
 3018              		.cfi_offset 4, -16
 3019              		.cfi_offset 5, -12
 3020              		.cfi_offset 6, -8
 3021              		.cfi_offset 14, -4
 3022 0002 0446     		mov	r4, r0
 3023 0004 0E46     		mov	r6, r1
2125:.\Generated_Source\PSoC5/CyLib.c ****         cyisraddress oldIsr;
2126:.\Generated_Source\PSoC5/CyLib.c ****         cyisraddress *ramVectorTable = *CY_INT_VECT_TABLE;
 3024              		.loc 1 2126 0
 3025 0006 074B     		ldr	r3, .L297
 3026 0008 1D68     		ldr	r5, [r3]
 3027              	.LVL174:
2127:.\Generated_Source\PSoC5/CyLib.c **** 
2128:.\Generated_Source\PSoC5/CyLib.c ****         CYASSERT(number <= CY_INT_SYS_NUMBER_MAX);
 3028              		.loc 1 2128 0
 3029 000a 0F28     		cmp	r0, #15
 3030 000c 02D9     		bls	.L295
 3031              		.loc 1 2128 0 is_stmt 0 discriminator 1
 3032 000e 0020     		movs	r0, #0
 3033              	.LVL175:
 3034 0010 FFF7FEFF 		bl	CyHalt
 3035              	.LVL176:
 3036              	.L295:
2129:.\Generated_Source\PSoC5/CyLib.c **** 
2130:.\Generated_Source\PSoC5/CyLib.c ****         /* Save old Interrupt service routine. */
2131:.\Generated_Source\PSoC5/CyLib.c ****         oldIsr = ramVectorTable[number & CY_INT_SYS_NUMBER_MASK];
 3037              		.loc 1 2131 0 is_stmt 1
 3038 0014 04F00F04 		and	r4, r4, #15
 3039 0018 55F82400 		ldr	r0, [r5, r4, lsl #2]
 3040              	.LVL177:
2132:.\Generated_Source\PSoC5/CyLib.c **** 
2133:.\Generated_Source\PSoC5/CyLib.c ****         /* Set new Interrupt service routine. */
2134:.\Generated_Source\PSoC5/CyLib.c ****         ramVectorTable[number & CY_INT_SYS_NUMBER_MASK] = address;
 3041              		.loc 1 2134 0
 3042 001c 45F82460 		str	r6, [r5, r4, lsl #2]
2135:.\Generated_Source\PSoC5/CyLib.c **** 
2136:.\Generated_Source\PSoC5/CyLib.c ****         return (oldIsr);
2137:.\Generated_Source\PSoC5/CyLib.c ****     }
 3043              		.loc 1 2137 0
ARM GAS  C:\Users\student\AppData\Local\Temp\ccmWIiPR.s 			page 96


 3044 0020 70BD     		pop	{r4, r5, r6, pc}
 3045              	.LVL178:
 3046              	.L298:
 3047 0022 00BF     		.align	2
 3048              	.L297:
 3049 0024 08ED00E0 		.word	-536810232
 3050              		.cfi_endproc
 3051              	.LFE57:
 3052              		.size	CyIntSetSysVector, .-CyIntSetSysVector
 3053              		.section	.text.CyIntGetSysVector,"ax",%progbits
 3054              		.align	2
 3055              		.global	CyIntGetSysVector
 3056              		.thumb
 3057              		.thumb_func
 3058              		.type	CyIntGetSysVector, %function
 3059              	CyIntGetSysVector:
 3060              	.LFB58:
2138:.\Generated_Source\PSoC5/CyLib.c **** 
2139:.\Generated_Source\PSoC5/CyLib.c **** 
2140:.\Generated_Source\PSoC5/CyLib.c ****     /*******************************************************************************
2141:.\Generated_Source\PSoC5/CyLib.c ****     * Function Name: CyIntGetSysVector
2142:.\Generated_Source\PSoC5/CyLib.c ****     ****************************************************************************//**
2143:.\Generated_Source\PSoC5/CyLib.c ****     *
2144:.\Generated_Source\PSoC5/CyLib.c ****     *  Gets the interrupt vector of the specified system interrupt number. System
2145:.\Generated_Source\PSoC5/CyLib.c ****     *  interrupts are present only for the ARM platform. These interrupts are for
2146:.\Generated_Source\PSoC5/CyLib.c ****     *  SysTick, PendSV and others.
2147:.\Generated_Source\PSoC5/CyLib.c ****     *
2148:.\Generated_Source\PSoC5/CyLib.c ****     *  \param number: System interrupt number:
2149:.\Generated_Source\PSoC5/CyLib.c ****     *    CY_INT_NMI_IRQN                - Non Maskable Interrupt
2150:.\Generated_Source\PSoC5/CyLib.c ****     *    CY_INT_HARD_FAULT_IRQN         - Hard Fault Interrupt
2151:.\Generated_Source\PSoC5/CyLib.c ****     *    CY_INT_MEMORY_MANAGEMENT_IRQN  - Memory Management Interrupt
2152:.\Generated_Source\PSoC5/CyLib.c ****     *    CY_INT_BUS_FAULT_IRQN          - Bus Fault Interrupt
2153:.\Generated_Source\PSoC5/CyLib.c ****     *    CY_INT_USAGE_FAULT_IRQN        - Usage Fault Interrupt
2154:.\Generated_Source\PSoC5/CyLib.c ****     *    CY_INT_SVCALL_IRQN             - SV Call Interrupt
2155:.\Generated_Source\PSoC5/CyLib.c ****     *    CY_INT_DEBUG_MONITOR_IRQN      - Debug Monitor Interrupt
2156:.\Generated_Source\PSoC5/CyLib.c ****     *    CY_INT_PEND_SV_IRQN            - Pend SV Interrupt
2157:.\Generated_Source\PSoC5/CyLib.c ****     *    CY_INT_SYSTICK_IRQN            - System Tick Interrupt
2158:.\Generated_Source\PSoC5/CyLib.c ****     *
2159:.\Generated_Source\PSoC5/CyLib.c ****     * \return
2160:.\Generated_Source\PSoC5/CyLib.c ****     *   Address of the ISR in the interrupt vector table.
2161:.\Generated_Source\PSoC5/CyLib.c ****     *
2162:.\Generated_Source\PSoC5/CyLib.c ****     *******************************************************************************/
2163:.\Generated_Source\PSoC5/CyLib.c ****     cyisraddress CyIntGetSysVector(uint8 number)
2164:.\Generated_Source\PSoC5/CyLib.c ****     {
 3061              		.loc 1 2164 0
 3062              		.cfi_startproc
 3063              		@ args = 0, pretend = 0, frame = 0
 3064              		@ frame_needed = 0, uses_anonymous_args = 0
 3065              	.LVL179:
 3066 0000 38B5     		push	{r3, r4, r5, lr}
 3067              		.cfi_def_cfa_offset 16
 3068              		.cfi_offset 3, -16
 3069              		.cfi_offset 4, -12
 3070              		.cfi_offset 5, -8
 3071              		.cfi_offset 14, -4
 3072 0002 0446     		mov	r4, r0
2165:.\Generated_Source\PSoC5/CyLib.c ****         cyisraddress *ramVectorTable = *CY_INT_VECT_TABLE;
ARM GAS  C:\Users\student\AppData\Local\Temp\ccmWIiPR.s 			page 97


 3073              		.loc 1 2165 0
 3074 0004 054B     		ldr	r3, .L302
 3075 0006 1D68     		ldr	r5, [r3]
 3076              	.LVL180:
2166:.\Generated_Source\PSoC5/CyLib.c ****         CYASSERT(number <= CY_INT_SYS_NUMBER_MAX);
 3077              		.loc 1 2166 0
 3078 0008 0F28     		cmp	r0, #15
 3079 000a 02D9     		bls	.L300
 3080              		.loc 1 2166 0 is_stmt 0 discriminator 1
 3081 000c 0020     		movs	r0, #0
 3082              	.LVL181:
 3083 000e FFF7FEFF 		bl	CyHalt
 3084              	.LVL182:
 3085              	.L300:
2167:.\Generated_Source\PSoC5/CyLib.c **** 
2168:.\Generated_Source\PSoC5/CyLib.c ****         return ramVectorTable[number & CY_INT_SYS_NUMBER_MASK];
 3086              		.loc 1 2168 0 is_stmt 1
 3087 0012 04F00F04 		and	r4, r4, #15
2169:.\Generated_Source\PSoC5/CyLib.c ****     }
 3088              		.loc 1 2169 0
 3089 0016 55F82400 		ldr	r0, [r5, r4, lsl #2]
 3090 001a 38BD     		pop	{r3, r4, r5, pc}
 3091              	.LVL183:
 3092              	.L303:
 3093              		.align	2
 3094              	.L302:
 3095 001c 08ED00E0 		.word	-536810232
 3096              		.cfi_endproc
 3097              	.LFE58:
 3098              		.size	CyIntGetSysVector, .-CyIntGetSysVector
 3099              		.section	.text.CyIntSetVector,"ax",%progbits
 3100              		.align	2
 3101              		.global	CyIntSetVector
 3102              		.thumb
 3103              		.thumb_func
 3104              		.type	CyIntSetVector, %function
 3105              	CyIntSetVector:
 3106              	.LFB59:
2170:.\Generated_Source\PSoC5/CyLib.c **** 
2171:.\Generated_Source\PSoC5/CyLib.c **** 
2172:.\Generated_Source\PSoC5/CyLib.c ****     /*******************************************************************************
2173:.\Generated_Source\PSoC5/CyLib.c ****     * Function Name: CyIntSetVector
2174:.\Generated_Source\PSoC5/CyLib.c ****     ****************************************************************************//**
2175:.\Generated_Source\PSoC5/CyLib.c ****     *
2176:.\Generated_Source\PSoC5/CyLib.c ****     *  Sets the interrupt vector of the specified interrupt number.
2177:.\Generated_Source\PSoC5/CyLib.c ****     *
2178:.\Generated_Source\PSoC5/CyLib.c ****     *  \param number: Valid range [0-31].  Interrupt number
2179:.\Generated_Source\PSoC5/CyLib.c ****     *  \param address: Pointer to an interrupt service routine
2180:.\Generated_Source\PSoC5/CyLib.c ****     *
2181:.\Generated_Source\PSoC5/CyLib.c ****     * \return
2182:.\Generated_Source\PSoC5/CyLib.c ****     *   Previous interrupt vector value.
2183:.\Generated_Source\PSoC5/CyLib.c ****     *
2184:.\Generated_Source\PSoC5/CyLib.c ****     *******************************************************************************/
2185:.\Generated_Source\PSoC5/CyLib.c ****     cyisraddress CyIntSetVector(uint8 number, cyisraddress address)
2186:.\Generated_Source\PSoC5/CyLib.c ****     {
 3107              		.loc 1 2186 0
 3108              		.cfi_startproc
ARM GAS  C:\Users\student\AppData\Local\Temp\ccmWIiPR.s 			page 98


 3109              		@ args = 0, pretend = 0, frame = 0
 3110              		@ frame_needed = 0, uses_anonymous_args = 0
 3111              	.LVL184:
 3112 0000 70B5     		push	{r4, r5, r6, lr}
 3113              		.cfi_def_cfa_offset 16
 3114              		.cfi_offset 4, -16
 3115              		.cfi_offset 5, -12
 3116              		.cfi_offset 6, -8
 3117              		.cfi_offset 14, -4
 3118 0002 0446     		mov	r4, r0
 3119 0004 0E46     		mov	r6, r1
2187:.\Generated_Source\PSoC5/CyLib.c ****         cyisraddress oldIsr;
2188:.\Generated_Source\PSoC5/CyLib.c ****         cyisraddress *ramVectorTable = *CY_INT_VECT_TABLE;
 3120              		.loc 1 2188 0
 3121 0006 074B     		ldr	r3, .L307
 3122 0008 1D68     		ldr	r5, [r3]
 3123              	.LVL185:
2189:.\Generated_Source\PSoC5/CyLib.c **** 
2190:.\Generated_Source\PSoC5/CyLib.c ****         CYASSERT(number <= CY_INT_NUMBER_MAX);
 3124              		.loc 1 2190 0
 3125 000a 1F28     		cmp	r0, #31
 3126 000c 02D9     		bls	.L305
 3127              		.loc 1 2190 0 is_stmt 0 discriminator 1
 3128 000e 0020     		movs	r0, #0
 3129              	.LVL186:
 3130 0010 FFF7FEFF 		bl	CyHalt
 3131              	.LVL187:
 3132              	.L305:
2191:.\Generated_Source\PSoC5/CyLib.c **** 
2192:.\Generated_Source\PSoC5/CyLib.c ****         /* Save old Interrupt service routine. */
2193:.\Generated_Source\PSoC5/CyLib.c ****         oldIsr = ramVectorTable[CY_INT_IRQ_BASE + (number & CY_INT_NUMBER_MASK)];
 3133              		.loc 1 2193 0 is_stmt 1
 3134 0014 04F01F04 		and	r4, r4, #31
 3135 0018 1034     		adds	r4, r4, #16
 3136 001a 55F82400 		ldr	r0, [r5, r4, lsl #2]
 3137              	.LVL188:
2194:.\Generated_Source\PSoC5/CyLib.c **** 
2195:.\Generated_Source\PSoC5/CyLib.c ****         /* Set new Interrupt service routine. */
2196:.\Generated_Source\PSoC5/CyLib.c ****         ramVectorTable[CY_INT_IRQ_BASE + (number & CY_INT_NUMBER_MASK)] = address;
 3138              		.loc 1 2196 0
 3139 001e 45F82460 		str	r6, [r5, r4, lsl #2]
2197:.\Generated_Source\PSoC5/CyLib.c **** 
2198:.\Generated_Source\PSoC5/CyLib.c ****         return (oldIsr);
2199:.\Generated_Source\PSoC5/CyLib.c ****     }
 3140              		.loc 1 2199 0
 3141 0022 70BD     		pop	{r4, r5, r6, pc}
 3142              	.LVL189:
 3143              	.L308:
 3144              		.align	2
 3145              	.L307:
 3146 0024 08ED00E0 		.word	-536810232
 3147              		.cfi_endproc
 3148              	.LFE59:
 3149              		.size	CyIntSetVector, .-CyIntSetVector
 3150              		.section	.text.CyIntGetVector,"ax",%progbits
 3151              		.align	2
 3152              		.global	CyIntGetVector
ARM GAS  C:\Users\student\AppData\Local\Temp\ccmWIiPR.s 			page 99


 3153              		.thumb
 3154              		.thumb_func
 3155              		.type	CyIntGetVector, %function
 3156              	CyIntGetVector:
 3157              	.LFB60:
2200:.\Generated_Source\PSoC5/CyLib.c **** 
2201:.\Generated_Source\PSoC5/CyLib.c **** 
2202:.\Generated_Source\PSoC5/CyLib.c ****     /*******************************************************************************
2203:.\Generated_Source\PSoC5/CyLib.c ****     * Function Name: CyIntGetVector
2204:.\Generated_Source\PSoC5/CyLib.c ****     ****************************************************************************//**
2205:.\Generated_Source\PSoC5/CyLib.c ****     *
2206:.\Generated_Source\PSoC5/CyLib.c ****     *  Gets the interrupt vector of the specified interrupt number.
2207:.\Generated_Source\PSoC5/CyLib.c ****     *
2208:.\Generated_Source\PSoC5/CyLib.c ****     *  \param number: Valid range [0-31].  Interrupt number
2209:.\Generated_Source\PSoC5/CyLib.c ****     *
2210:.\Generated_Source\PSoC5/CyLib.c ****     * \return
2211:.\Generated_Source\PSoC5/CyLib.c ****     *  The address of the ISR in the interrupt vector table.
2212:.\Generated_Source\PSoC5/CyLib.c ****     *
2213:.\Generated_Source\PSoC5/CyLib.c ****     *******************************************************************************/
2214:.\Generated_Source\PSoC5/CyLib.c ****     cyisraddress CyIntGetVector(uint8 number)
2215:.\Generated_Source\PSoC5/CyLib.c ****     {
 3158              		.loc 1 2215 0
 3159              		.cfi_startproc
 3160              		@ args = 0, pretend = 0, frame = 0
 3161              		@ frame_needed = 0, uses_anonymous_args = 0
 3162              	.LVL190:
 3163 0000 38B5     		push	{r3, r4, r5, lr}
 3164              		.cfi_def_cfa_offset 16
 3165              		.cfi_offset 3, -16
 3166              		.cfi_offset 4, -12
 3167              		.cfi_offset 5, -8
 3168              		.cfi_offset 14, -4
 3169 0002 0446     		mov	r4, r0
2216:.\Generated_Source\PSoC5/CyLib.c ****         cyisraddress *ramVectorTable = *CY_INT_VECT_TABLE;
 3170              		.loc 1 2216 0
 3171 0004 064B     		ldr	r3, .L312
 3172 0006 1D68     		ldr	r5, [r3]
 3173              	.LVL191:
2217:.\Generated_Source\PSoC5/CyLib.c ****         CYASSERT(number <= CY_INT_NUMBER_MAX);
 3174              		.loc 1 2217 0
 3175 0008 1F28     		cmp	r0, #31
 3176 000a 02D9     		bls	.L310
 3177              		.loc 1 2217 0 is_stmt 0 discriminator 1
 3178 000c 0020     		movs	r0, #0
 3179              	.LVL192:
 3180 000e FFF7FEFF 		bl	CyHalt
 3181              	.LVL193:
 3182              	.L310:
2218:.\Generated_Source\PSoC5/CyLib.c **** 
2219:.\Generated_Source\PSoC5/CyLib.c ****         return (ramVectorTable[CY_INT_IRQ_BASE + (number & CY_INT_NUMBER_MASK)]);
 3183              		.loc 1 2219 0 is_stmt 1
 3184 0012 04F01F04 		and	r4, r4, #31
 3185 0016 1034     		adds	r4, r4, #16
2220:.\Generated_Source\PSoC5/CyLib.c ****     }
 3186              		.loc 1 2220 0
 3187 0018 55F82400 		ldr	r0, [r5, r4, lsl #2]
 3188 001c 38BD     		pop	{r3, r4, r5, pc}
ARM GAS  C:\Users\student\AppData\Local\Temp\ccmWIiPR.s 			page 100


 3189              	.LVL194:
 3190              	.L313:
 3191 001e 00BF     		.align	2
 3192              	.L312:
 3193 0020 08ED00E0 		.word	-536810232
 3194              		.cfi_endproc
 3195              	.LFE60:
 3196              		.size	CyIntGetVector, .-CyIntGetVector
 3197              		.section	.text.CyIntSetPriority,"ax",%progbits
 3198              		.align	2
 3199              		.global	CyIntSetPriority
 3200              		.thumb
 3201              		.thumb_func
 3202              		.type	CyIntSetPriority, %function
 3203              	CyIntSetPriority:
 3204              	.LFB61:
2221:.\Generated_Source\PSoC5/CyLib.c **** 
2222:.\Generated_Source\PSoC5/CyLib.c **** 
2223:.\Generated_Source\PSoC5/CyLib.c ****     /*******************************************************************************
2224:.\Generated_Source\PSoC5/CyLib.c ****     * Function Name: CyIntSetPriority
2225:.\Generated_Source\PSoC5/CyLib.c ****     ****************************************************************************//**
2226:.\Generated_Source\PSoC5/CyLib.c ****     *
2227:.\Generated_Source\PSoC5/CyLib.c ****     *  Sets the Priority of the Interrupt.
2228:.\Generated_Source\PSoC5/CyLib.c ****     *
2229:.\Generated_Source\PSoC5/CyLib.c ****     *  \param priority: Priority of the interrupt. 0 - 7, 0 being the highest.
2230:.\Generated_Source\PSoC5/CyLib.c ****     *  \param number: The number of the interrupt, 0 - 31.
2231:.\Generated_Source\PSoC5/CyLib.c ****     *
2232:.\Generated_Source\PSoC5/CyLib.c ****     *******************************************************************************/
2233:.\Generated_Source\PSoC5/CyLib.c ****     void CyIntSetPriority(uint8 number, uint8 priority)
2234:.\Generated_Source\PSoC5/CyLib.c ****     {
 3205              		.loc 1 2234 0
 3206              		.cfi_startproc
 3207              		@ args = 0, pretend = 0, frame = 0
 3208              		@ frame_needed = 0, uses_anonymous_args = 0
 3209              	.LVL195:
 3210 0000 38B5     		push	{r3, r4, r5, lr}
 3211              		.cfi_def_cfa_offset 16
 3212              		.cfi_offset 3, -16
 3213              		.cfi_offset 4, -12
 3214              		.cfi_offset 5, -8
 3215              		.cfi_offset 14, -4
 3216 0002 0446     		mov	r4, r0
 3217 0004 0D46     		mov	r5, r1
2235:.\Generated_Source\PSoC5/CyLib.c ****         CYASSERT(priority <= CY_INT_PRIORITY_MAX);
 3218              		.loc 1 2235 0
 3219 0006 0729     		cmp	r1, #7
 3220 0008 02D9     		bls	.L315
 3221              		.loc 1 2235 0 is_stmt 0 discriminator 1
 3222 000a 0020     		movs	r0, #0
 3223              	.LVL196:
 3224 000c FFF7FEFF 		bl	CyHalt
 3225              	.LVL197:
 3226              	.L315:
2236:.\Generated_Source\PSoC5/CyLib.c ****         CYASSERT(number <= CY_INT_NUMBER_MAX);
 3227              		.loc 1 2236 0 is_stmt 1
 3228 0010 1F2C     		cmp	r4, #31
 3229 0012 02D9     		bls	.L316
ARM GAS  C:\Users\student\AppData\Local\Temp\ccmWIiPR.s 			page 101


 3230              		.loc 1 2236 0 is_stmt 0 discriminator 1
 3231 0014 0020     		movs	r0, #0
 3232 0016 FFF7FEFF 		bl	CyHalt
 3233              	.LVL198:
 3234              	.L316:
2237:.\Generated_Source\PSoC5/CyLib.c ****         CY_INT_PRIORITY_PTR[number & CY_INT_NUMBER_MASK] = (priority & CY_INT_PRIORITY_MASK)<< 5;
 3235              		.loc 1 2237 0 is_stmt 1
 3236 001a 04F01F00 		and	r0, r4, #31
 3237 001e 00F16040 		add	r0, r0, #-536870912
 3238 0022 00F56440 		add	r0, r0, #58368
 3239 0026 6D01     		lsls	r5, r5, #5
 3240 0028 EDB2     		uxtb	r5, r5
 3241 002a 0570     		strb	r5, [r0]
 3242 002c 38BD     		pop	{r3, r4, r5, pc}
 3243              		.cfi_endproc
 3244              	.LFE61:
 3245              		.size	CyIntSetPriority, .-CyIntSetPriority
 3246 002e 00BF     		.section	.text.CyIntGetPriority,"ax",%progbits
 3247              		.align	2
 3248              		.global	CyIntGetPriority
 3249              		.thumb
 3250              		.thumb_func
 3251              		.type	CyIntGetPriority, %function
 3252              	CyIntGetPriority:
 3253              	.LFB62:
2238:.\Generated_Source\PSoC5/CyLib.c ****     }
2239:.\Generated_Source\PSoC5/CyLib.c **** 
2240:.\Generated_Source\PSoC5/CyLib.c **** 
2241:.\Generated_Source\PSoC5/CyLib.c ****     /*******************************************************************************
2242:.\Generated_Source\PSoC5/CyLib.c ****     * Function Name: CyIntGetPriority
2243:.\Generated_Source\PSoC5/CyLib.c ****     ****************************************************************************//**
2244:.\Generated_Source\PSoC5/CyLib.c ****     *
2245:.\Generated_Source\PSoC5/CyLib.c ****     *  Gets the Priority of the Interrupt.
2246:.\Generated_Source\PSoC5/CyLib.c ****     *
2247:.\Generated_Source\PSoC5/CyLib.c ****     *  \param number: The number of the interrupt, 0 - 31.
2248:.\Generated_Source\PSoC5/CyLib.c ****     *
2249:.\Generated_Source\PSoC5/CyLib.c ****     * \return
2250:.\Generated_Source\PSoC5/CyLib.c ****     *  Priority of the interrupt. 0 - 7, 0 being the highest.
2251:.\Generated_Source\PSoC5/CyLib.c ****     *
2252:.\Generated_Source\PSoC5/CyLib.c ****     *******************************************************************************/
2253:.\Generated_Source\PSoC5/CyLib.c ****     uint8 CyIntGetPriority(uint8 number)
2254:.\Generated_Source\PSoC5/CyLib.c ****     {
 3254              		.loc 1 2254 0
 3255              		.cfi_startproc
 3256              		@ args = 0, pretend = 0, frame = 0
 3257              		@ frame_needed = 0, uses_anonymous_args = 0
 3258              	.LVL199:
 3259 0000 10B5     		push	{r4, lr}
 3260              		.cfi_def_cfa_offset 8
 3261              		.cfi_offset 4, -8
 3262              		.cfi_offset 14, -4
 3263 0002 0446     		mov	r4, r0
2255:.\Generated_Source\PSoC5/CyLib.c ****         uint8 priority;
2256:.\Generated_Source\PSoC5/CyLib.c **** 
2257:.\Generated_Source\PSoC5/CyLib.c ****         CYASSERT(number <= CY_INT_NUMBER_MAX);
 3264              		.loc 1 2257 0
 3265 0004 1F28     		cmp	r0, #31
ARM GAS  C:\Users\student\AppData\Local\Temp\ccmWIiPR.s 			page 102


 3266 0006 02D9     		bls	.L319
 3267              		.loc 1 2257 0 is_stmt 0 discriminator 1
 3268 0008 0020     		movs	r0, #0
 3269              	.LVL200:
 3270 000a FFF7FEFF 		bl	CyHalt
 3271              	.LVL201:
 3272              	.L319:
2258:.\Generated_Source\PSoC5/CyLib.c **** 
2259:.\Generated_Source\PSoC5/CyLib.c ****         priority = CY_INT_PRIORITY_PTR[number & CY_INT_NUMBER_MASK] >> 5;
 3273              		.loc 1 2259 0 is_stmt 1
 3274 000e 04F01F00 		and	r0, r4, #31
 3275 0012 00F16040 		add	r0, r0, #-536870912
 3276 0016 00F56440 		add	r0, r0, #58368
 3277 001a 0078     		ldrb	r0, [r0]	@ zero_extendqisi2
 3278              	.LVL202:
2260:.\Generated_Source\PSoC5/CyLib.c **** 
2261:.\Generated_Source\PSoC5/CyLib.c ****         return (priority);
2262:.\Generated_Source\PSoC5/CyLib.c ****     }
 3279              		.loc 1 2262 0
 3280 001c 4009     		lsrs	r0, r0, #5
 3281              	.LVL203:
 3282 001e 10BD     		pop	{r4, pc}
 3283              		.cfi_endproc
 3284              	.LFE62:
 3285              		.size	CyIntGetPriority, .-CyIntGetPriority
 3286              		.section	.text.CyIntGetState,"ax",%progbits
 3287              		.align	2
 3288              		.global	CyIntGetState
 3289              		.thumb
 3290              		.thumb_func
 3291              		.type	CyIntGetState, %function
 3292              	CyIntGetState:
 3293              	.LFB63:
2263:.\Generated_Source\PSoC5/CyLib.c **** 
2264:.\Generated_Source\PSoC5/CyLib.c **** 
2265:.\Generated_Source\PSoC5/CyLib.c ****     /*******************************************************************************
2266:.\Generated_Source\PSoC5/CyLib.c ****     * Function Name: CyIntGetState
2267:.\Generated_Source\PSoC5/CyLib.c ****     ****************************************************************************//**
2268:.\Generated_Source\PSoC5/CyLib.c ****     *
2269:.\Generated_Source\PSoC5/CyLib.c ****     *   Gets the enable state of the specified interrupt number.
2270:.\Generated_Source\PSoC5/CyLib.c ****     *
2271:.\Generated_Source\PSoC5/CyLib.c ****     *   \param number: Valid range [0-31].  Interrupt number.
2272:.\Generated_Source\PSoC5/CyLib.c ****     *
2273:.\Generated_Source\PSoC5/CyLib.c ****     * \return
2274:.\Generated_Source\PSoC5/CyLib.c ****     *   Enable status: 1 if enabled, 0 if disabled
2275:.\Generated_Source\PSoC5/CyLib.c ****     *
2276:.\Generated_Source\PSoC5/CyLib.c ****     *******************************************************************************/
2277:.\Generated_Source\PSoC5/CyLib.c ****     uint8 CyIntGetState(uint8 number)
2278:.\Generated_Source\PSoC5/CyLib.c ****     {
 3294              		.loc 1 2278 0
 3295              		.cfi_startproc
 3296              		@ args = 0, pretend = 0, frame = 0
 3297              		@ frame_needed = 0, uses_anonymous_args = 0
 3298              	.LVL204:
 3299 0000 10B5     		push	{r4, lr}
 3300              		.cfi_def_cfa_offset 8
 3301              		.cfi_offset 4, -8
ARM GAS  C:\Users\student\AppData\Local\Temp\ccmWIiPR.s 			page 103


 3302              		.cfi_offset 14, -4
 3303 0002 0446     		mov	r4, r0
2279:.\Generated_Source\PSoC5/CyLib.c ****         reg32 * stateReg;
2280:.\Generated_Source\PSoC5/CyLib.c **** 
2281:.\Generated_Source\PSoC5/CyLib.c ****         CYASSERT(number <= CY_INT_NUMBER_MAX);
 3304              		.loc 1 2281 0
 3305 0004 1F28     		cmp	r0, #31
 3306 0006 02D9     		bls	.L322
 3307              		.loc 1 2281 0 is_stmt 0 discriminator 1
 3308 0008 0020     		movs	r0, #0
 3309              	.LVL205:
 3310 000a FFF7FEFF 		bl	CyHalt
 3311              	.LVL206:
 3312              	.L322:
2282:.\Generated_Source\PSoC5/CyLib.c **** 
2283:.\Generated_Source\PSoC5/CyLib.c ****         /* Get pointer to Interrupt enable register. */
2284:.\Generated_Source\PSoC5/CyLib.c ****         stateReg = CY_INT_ENABLE_PTR;
2285:.\Generated_Source\PSoC5/CyLib.c **** 
2286:.\Generated_Source\PSoC5/CyLib.c ****         /* Get state of interrupt. */
2287:.\Generated_Source\PSoC5/CyLib.c ****         return (0u != (*stateReg & (((uint32) 1u) << (0x1Fu & number)))) ? ((uint8)(1u)) : ((uint8)
 3313              		.loc 1 2287 0 is_stmt 1
 3314 000e 044B     		ldr	r3, .L324
 3315 0010 1868     		ldr	r0, [r3]
 3316 0012 04F01F04 		and	r4, r4, #31
 3317 0016 E040     		lsrs	r0, r0, r4
 3318 0018 00F00100 		and	r0, r0, #1
2288:.\Generated_Source\PSoC5/CyLib.c ****     }
 3319              		.loc 1 2288 0
 3320 001c 10BD     		pop	{r4, pc}
 3321              	.L325:
 3322 001e 00BF     		.align	2
 3323              	.L324:
 3324 0020 00E100E0 		.word	-536813312
 3325              		.cfi_endproc
 3326              	.LFE63:
 3327              		.size	CyIntGetState, .-CyIntGetState
 3328              		.section	.text.CySysTickStop,"ax",%progbits
 3329              		.align	2
 3330              		.global	CySysTickStop
 3331              		.thumb
 3332              		.thumb_func
 3333              		.type	CySysTickStop, %function
 3334              	CySysTickStop:
 3335              	.LFB67:
2289:.\Generated_Source\PSoC5/CyLib.c **** 
2290:.\Generated_Source\PSoC5/CyLib.c **** 
2291:.\Generated_Source\PSoC5/CyLib.c **** #else   /* PSoC3 */
2292:.\Generated_Source\PSoC5/CyLib.c **** 
2293:.\Generated_Source\PSoC5/CyLib.c ****     /*******************************************************************************
2294:.\Generated_Source\PSoC5/CyLib.c ****     * Function Name: IntDefaultHandler
2295:.\Generated_Source\PSoC5/CyLib.c ****     ****************************************************************************//**
2296:.\Generated_Source\PSoC5/CyLib.c ****     *
2297:.\Generated_Source\PSoC5/CyLib.c ****     *  This function is called for all interrupts, other than a reset that gets
2298:.\Generated_Source\PSoC5/CyLib.c ****     *  called before the system is setup.
2299:.\Generated_Source\PSoC5/CyLib.c ****     *
2300:.\Generated_Source\PSoC5/CyLib.c ****     * Theory:
2301:.\Generated_Source\PSoC5/CyLib.c ****     *  Any value other than zero is acceptable.
ARM GAS  C:\Users\student\AppData\Local\Temp\ccmWIiPR.s 			page 104


2302:.\Generated_Source\PSoC5/CyLib.c ****     *
2303:.\Generated_Source\PSoC5/CyLib.c ****     *******************************************************************************/
2304:.\Generated_Source\PSoC5/CyLib.c ****     CY_ISR(IntDefaultHandler)
2305:.\Generated_Source\PSoC5/CyLib.c ****     {
2306:.\Generated_Source\PSoC5/CyLib.c ****         #ifdef CY_BOOT_INT_DEFAULT_HANDLER_EXCEPTION_ENTRY_CALLBACK
2307:.\Generated_Source\PSoC5/CyLib.c ****             CyBoot_IntDefaultHandler_Exception_EntryCallback();
2308:.\Generated_Source\PSoC5/CyLib.c ****         #endif /* CY_BOOT_INT_DEFAULT_HANDLER_EXCEPTION_ENTRY_CALLBACK */
2309:.\Generated_Source\PSoC5/CyLib.c **** 
2310:.\Generated_Source\PSoC5/CyLib.c ****         while(1)
2311:.\Generated_Source\PSoC5/CyLib.c ****         {
2312:.\Generated_Source\PSoC5/CyLib.c ****             /***********************************************************************
2313:.\Generated_Source\PSoC5/CyLib.c ****             * We must not get here. If we do, a serious problem occurs, so go
2314:.\Generated_Source\PSoC5/CyLib.c ****             * into an infinite loop.
2315:.\Generated_Source\PSoC5/CyLib.c ****             ***********************************************************************/
2316:.\Generated_Source\PSoC5/CyLib.c ****         }
2317:.\Generated_Source\PSoC5/CyLib.c ****     }
2318:.\Generated_Source\PSoC5/CyLib.c **** 
2319:.\Generated_Source\PSoC5/CyLib.c **** 
2320:.\Generated_Source\PSoC5/CyLib.c ****     /*******************************************************************************
2321:.\Generated_Source\PSoC5/CyLib.c ****     * Function Name: IntDefaultHandler
2322:.\Generated_Source\PSoC5/CyLib.c ****     ****************************************************************************//**
2323:.\Generated_Source\PSoC5/CyLib.c ****     *
2324:.\Generated_Source\PSoC5/CyLib.c ****     *  This function is called during startup to initialize interrupt address vector
2325:.\Generated_Source\PSoC5/CyLib.c ****     *  registers with the address of the IntDefaultHandler().
2326:.\Generated_Source\PSoC5/CyLib.c ****     *
2327:.\Generated_Source\PSoC5/CyLib.c ****     *******************************************************************************/
2328:.\Generated_Source\PSoC5/CyLib.c ****     void CyIntInitVectors(void) 
2329:.\Generated_Source\PSoC5/CyLib.c ****     {
2330:.\Generated_Source\PSoC5/CyLib.c ****         uint8 i;
2331:.\Generated_Source\PSoC5/CyLib.c **** 
2332:.\Generated_Source\PSoC5/CyLib.c ****         for (i = 0; i <= CY_INT_NUMBER_MAX; i++)
2333:.\Generated_Source\PSoC5/CyLib.c ****         {
2334:.\Generated_Source\PSoC5/CyLib.c ****             CY_SET_REG16(&CY_INT_VECT_TABLE[i], (uint16) &IntDefaultHandler);
2335:.\Generated_Source\PSoC5/CyLib.c ****         }
2336:.\Generated_Source\PSoC5/CyLib.c ****     }
2337:.\Generated_Source\PSoC5/CyLib.c **** 
2338:.\Generated_Source\PSoC5/CyLib.c **** 
2339:.\Generated_Source\PSoC5/CyLib.c ****     /*******************************************************************************
2340:.\Generated_Source\PSoC5/CyLib.c ****     * Function Name: CyIntSetVector
2341:.\Generated_Source\PSoC5/CyLib.c ****     ****************************************************************************//**
2342:.\Generated_Source\PSoC5/CyLib.c ****     *
2343:.\Generated_Source\PSoC5/CyLib.c ****     *  Sets the interrupt vector of the specified interrupt number.
2344:.\Generated_Source\PSoC5/CyLib.c ****     *
2345:.\Generated_Source\PSoC5/CyLib.c ****     *  \param number:  Valid range [0-31].  Interrupt number
2346:.\Generated_Source\PSoC5/CyLib.c ****     *  \param address: Pointer to an interrupt service routine
2347:.\Generated_Source\PSoC5/CyLib.c ****     *
2348:.\Generated_Source\PSoC5/CyLib.c ****     * \return
2349:.\Generated_Source\PSoC5/CyLib.c ****     *  Previous interrupt vector value.
2350:.\Generated_Source\PSoC5/CyLib.c ****     *
2351:.\Generated_Source\PSoC5/CyLib.c ****     *******************************************************************************/
2352:.\Generated_Source\PSoC5/CyLib.c ****     cyisraddress CyIntSetVector(uint8 number, cyisraddress address) 
2353:.\Generated_Source\PSoC5/CyLib.c ****     {
2354:.\Generated_Source\PSoC5/CyLib.c ****         cyisraddress oldIsr;
2355:.\Generated_Source\PSoC5/CyLib.c **** 
2356:.\Generated_Source\PSoC5/CyLib.c ****         CYASSERT(number <= CY_INT_NUMBER_MAX);
2357:.\Generated_Source\PSoC5/CyLib.c **** 
2358:.\Generated_Source\PSoC5/CyLib.c ****         /* Save old Interrupt service routine. */
ARM GAS  C:\Users\student\AppData\Local\Temp\ccmWIiPR.s 			page 105


2359:.\Generated_Source\PSoC5/CyLib.c ****         oldIsr = (cyisraddress) \
2360:.\Generated_Source\PSoC5/CyLib.c ****                     CY_GET_REG16(&CY_INT_VECT_TABLE[number & CY_INT_NUMBER_MASK]);
2361:.\Generated_Source\PSoC5/CyLib.c **** 
2362:.\Generated_Source\PSoC5/CyLib.c ****         /* Set new Interrupt service routine. */
2363:.\Generated_Source\PSoC5/CyLib.c ****         CY_SET_REG16(&CY_INT_VECT_TABLE[number], (uint16) address);
2364:.\Generated_Source\PSoC5/CyLib.c **** 
2365:.\Generated_Source\PSoC5/CyLib.c ****         return (oldIsr);
2366:.\Generated_Source\PSoC5/CyLib.c ****     }
2367:.\Generated_Source\PSoC5/CyLib.c **** 
2368:.\Generated_Source\PSoC5/CyLib.c **** 
2369:.\Generated_Source\PSoC5/CyLib.c ****     /*******************************************************************************
2370:.\Generated_Source\PSoC5/CyLib.c ****     * Function Name: CyIntGetVector
2371:.\Generated_Source\PSoC5/CyLib.c ****     ****************************************************************************//**
2372:.\Generated_Source\PSoC5/CyLib.c ****     *
2373:.\Generated_Source\PSoC5/CyLib.c ****     *  Gets the interrupt vector of the specified interrupt number.
2374:.\Generated_Source\PSoC5/CyLib.c ****     *
2375:.\Generated_Source\PSoC5/CyLib.c ****     *  \param number: Valid range [0-31].  Interrupt number
2376:.\Generated_Source\PSoC5/CyLib.c ****     *
2377:.\Generated_Source\PSoC5/CyLib.c ****     * \return
2378:.\Generated_Source\PSoC5/CyLib.c ****     *  Address of the ISR in the interrupt vector table.
2379:.\Generated_Source\PSoC5/CyLib.c ****     *
2380:.\Generated_Source\PSoC5/CyLib.c ****     *******************************************************************************/
2381:.\Generated_Source\PSoC5/CyLib.c ****     cyisraddress CyIntGetVector(uint8 number) 
2382:.\Generated_Source\PSoC5/CyLib.c ****     {
2383:.\Generated_Source\PSoC5/CyLib.c ****         CYASSERT(number <= CY_INT_NUMBER_MAX);
2384:.\Generated_Source\PSoC5/CyLib.c **** 
2385:.\Generated_Source\PSoC5/CyLib.c ****         return ((cyisraddress) \
2386:.\Generated_Source\PSoC5/CyLib.c ****                 CY_GET_REG16(&CY_INT_VECT_TABLE[number & CY_INT_NUMBER_MASK]));
2387:.\Generated_Source\PSoC5/CyLib.c ****     }
2388:.\Generated_Source\PSoC5/CyLib.c **** 
2389:.\Generated_Source\PSoC5/CyLib.c **** 
2390:.\Generated_Source\PSoC5/CyLib.c ****     /*******************************************************************************
2391:.\Generated_Source\PSoC5/CyLib.c ****     * Function Name: CyIntSetPriority
2392:.\Generated_Source\PSoC5/CyLib.c ****     ****************************************************************************//**
2393:.\Generated_Source\PSoC5/CyLib.c ****     *
2394:.\Generated_Source\PSoC5/CyLib.c ****     *  Sets the Priority of the Interrupt.
2395:.\Generated_Source\PSoC5/CyLib.c ****     *
2396:.\Generated_Source\PSoC5/CyLib.c ****     *  \param priority: Priority of the interrupt. 0 - 7, 0 being the highest.
2397:.\Generated_Source\PSoC5/CyLib.c ****     *  \param number:   The number of the interrupt, 0 - 31.
2398:.\Generated_Source\PSoC5/CyLib.c ****     *
2399:.\Generated_Source\PSoC5/CyLib.c ****     *******************************************************************************/
2400:.\Generated_Source\PSoC5/CyLib.c ****     void CyIntSetPriority(uint8 number, uint8 priority) 
2401:.\Generated_Source\PSoC5/CyLib.c ****     {
2402:.\Generated_Source\PSoC5/CyLib.c ****         CYASSERT(priority <= CY_INT_PRIORITY_MAX);
2403:.\Generated_Source\PSoC5/CyLib.c **** 
2404:.\Generated_Source\PSoC5/CyLib.c ****         CYASSERT(number <= CY_INT_NUMBER_MAX);
2405:.\Generated_Source\PSoC5/CyLib.c **** 
2406:.\Generated_Source\PSoC5/CyLib.c ****         CY_INT_PRIORITY_PTR[number & CY_INT_NUMBER_MASK] =
2407:.\Generated_Source\PSoC5/CyLib.c ****                     (priority & CY_INT_PRIORITY_MASK) << 5;
2408:.\Generated_Source\PSoC5/CyLib.c ****     }
2409:.\Generated_Source\PSoC5/CyLib.c **** 
2410:.\Generated_Source\PSoC5/CyLib.c **** 
2411:.\Generated_Source\PSoC5/CyLib.c ****     /*******************************************************************************
2412:.\Generated_Source\PSoC5/CyLib.c ****     * Function Name: CyIntGetPriority
2413:.\Generated_Source\PSoC5/CyLib.c ****     ****************************************************************************//**
2414:.\Generated_Source\PSoC5/CyLib.c ****     *
2415:.\Generated_Source\PSoC5/CyLib.c ****     *  Gets the Priority of the Interrupt.
ARM GAS  C:\Users\student\AppData\Local\Temp\ccmWIiPR.s 			page 106


2416:.\Generated_Source\PSoC5/CyLib.c ****     *
2417:.\Generated_Source\PSoC5/CyLib.c ****     *  \param number: The number of the interrupt, 0 - 31.
2418:.\Generated_Source\PSoC5/CyLib.c ****     *
2419:.\Generated_Source\PSoC5/CyLib.c ****     * \return
2420:.\Generated_Source\PSoC5/CyLib.c ****     *  Priority of the interrupt. 0 - 7, 0 being the highest.
2421:.\Generated_Source\PSoC5/CyLib.c ****     *
2422:.\Generated_Source\PSoC5/CyLib.c ****     *******************************************************************************/
2423:.\Generated_Source\PSoC5/CyLib.c ****     uint8 CyIntGetPriority(uint8 number) 
2424:.\Generated_Source\PSoC5/CyLib.c ****     {
2425:.\Generated_Source\PSoC5/CyLib.c ****         uint8 priority;
2426:.\Generated_Source\PSoC5/CyLib.c **** 
2427:.\Generated_Source\PSoC5/CyLib.c ****         CYASSERT(number <= CY_INT_NUMBER_MAX);
2428:.\Generated_Source\PSoC5/CyLib.c **** 
2429:.\Generated_Source\PSoC5/CyLib.c ****         priority = CY_INT_PRIORITY_PTR[number & CY_INT_NUMBER_MASK] >> 5;
2430:.\Generated_Source\PSoC5/CyLib.c **** 
2431:.\Generated_Source\PSoC5/CyLib.c ****         return (priority);
2432:.\Generated_Source\PSoC5/CyLib.c ****     }
2433:.\Generated_Source\PSoC5/CyLib.c **** 
2434:.\Generated_Source\PSoC5/CyLib.c **** 
2435:.\Generated_Source\PSoC5/CyLib.c ****     /*******************************************************************************
2436:.\Generated_Source\PSoC5/CyLib.c ****     * Function Name: CyIntGetState
2437:.\Generated_Source\PSoC5/CyLib.c ****     ****************************************************************************//**
2438:.\Generated_Source\PSoC5/CyLib.c ****     *
2439:.\Generated_Source\PSoC5/CyLib.c ****     *   Gets the enable state of the specified interrupt number.
2440:.\Generated_Source\PSoC5/CyLib.c ****     *
2441:.\Generated_Source\PSoC5/CyLib.c ****     *   \param number: Valid range [0-31].  Interrupt number.
2442:.\Generated_Source\PSoC5/CyLib.c ****     *
2443:.\Generated_Source\PSoC5/CyLib.c ****     * \return
2444:.\Generated_Source\PSoC5/CyLib.c ****     *   Enable status: 1 if enabled, 0 if disabled
2445:.\Generated_Source\PSoC5/CyLib.c ****     *
2446:.\Generated_Source\PSoC5/CyLib.c ****     *******************************************************************************/
2447:.\Generated_Source\PSoC5/CyLib.c ****     uint8 CyIntGetState(uint8 number) 
2448:.\Generated_Source\PSoC5/CyLib.c ****     {
2449:.\Generated_Source\PSoC5/CyLib.c ****         reg8 * stateReg;
2450:.\Generated_Source\PSoC5/CyLib.c **** 
2451:.\Generated_Source\PSoC5/CyLib.c ****         CYASSERT(number <= CY_INT_NUMBER_MAX);
2452:.\Generated_Source\PSoC5/CyLib.c **** 
2453:.\Generated_Source\PSoC5/CyLib.c ****         /* Get pointer to Interrupt enable register. */
2454:.\Generated_Source\PSoC5/CyLib.c ****         stateReg = CY_INT_ENABLE_PTR + ((number & CY_INT_NUMBER_MASK) >> 3u);
2455:.\Generated_Source\PSoC5/CyLib.c **** 
2456:.\Generated_Source\PSoC5/CyLib.c ****         /* Get state of interrupt. */
2457:.\Generated_Source\PSoC5/CyLib.c ****         return ((0u != (*stateReg & ((uint8)(1u << (0x07u & number))))) ? ((uint8)(1u)) : ((uint8)(
2458:.\Generated_Source\PSoC5/CyLib.c ****     }
2459:.\Generated_Source\PSoC5/CyLib.c **** 
2460:.\Generated_Source\PSoC5/CyLib.c **** #endif  /* (CY_PSOC5) */
2461:.\Generated_Source\PSoC5/CyLib.c **** 
2462:.\Generated_Source\PSoC5/CyLib.c **** 
2463:.\Generated_Source\PSoC5/CyLib.c **** #if(CYDEV_VARIABLE_VDDA == 1)
2464:.\Generated_Source\PSoC5/CyLib.c **** 
2465:.\Generated_Source\PSoC5/CyLib.c ****     /*******************************************************************************
2466:.\Generated_Source\PSoC5/CyLib.c ****     * Function Name: CySetScPumps
2467:.\Generated_Source\PSoC5/CyLib.c ****     ****************************************************************************//**
2468:.\Generated_Source\PSoC5/CyLib.c ****     *
2469:.\Generated_Source\PSoC5/CyLib.c ****     *  If 1 is passed as a parameter:
2470:.\Generated_Source\PSoC5/CyLib.c ****     *   - if any of the SC blocks are used - enable pumps for the SC blocks and
2471:.\Generated_Source\PSoC5/CyLib.c ****     *     start boost clock.
2472:.\Generated_Source\PSoC5/CyLib.c ****     *   - For each enabled SC block set a boost clock index and enable the boost
ARM GAS  C:\Users\student\AppData\Local\Temp\ccmWIiPR.s 			page 107


2473:.\Generated_Source\PSoC5/CyLib.c ****     *     clock.
2474:.\Generated_Source\PSoC5/CyLib.c ****     *
2475:.\Generated_Source\PSoC5/CyLib.c ****     *  If non-1 value is passed as a parameter:
2476:.\Generated_Source\PSoC5/CyLib.c ****     *   - If all SC blocks are not used - disable pumps for the SC blocks and
2477:.\Generated_Source\PSoC5/CyLib.c ****     *     stop the boost clock.
2478:.\Generated_Source\PSoC5/CyLib.c ****     *   - For each enabled SC block clear the boost clock index and disable the
2479:.\Generated_Source\PSoC5/CyLib.c ****     *     boost clock.
2480:.\Generated_Source\PSoC5/CyLib.c ****     *
2481:.\Generated_Source\PSoC5/CyLib.c ****     *  The global variable CyScPumpEnabled is updated to be equal to passed the
2482:.\Generated_Source\PSoC5/CyLib.c ****     *  parameter.
2483:.\Generated_Source\PSoC5/CyLib.c ****     *
2484:.\Generated_Source\PSoC5/CyLib.c ****     *   \param uint8 enable: Enable/disable SC pumps and the boost clock for the enabled
2485:.\Generated_Source\PSoC5/CyLib.c ****     *                 \param SC block:
2486:.\Generated_Source\PSoC5/CyLib.c ****     *                 1 - Enable
2487:.\Generated_Source\PSoC5/CyLib.c ****     *                 0 - Disable
2488:.\Generated_Source\PSoC5/CyLib.c ****     *
2489:.\Generated_Source\PSoC5/CyLib.c ****     *******************************************************************************/
2490:.\Generated_Source\PSoC5/CyLib.c ****     void CySetScPumps(uint8 enable) 
2491:.\Generated_Source\PSoC5/CyLib.c ****     {
2492:.\Generated_Source\PSoC5/CyLib.c ****         if(1u == enable)
2493:.\Generated_Source\PSoC5/CyLib.c ****         {
2494:.\Generated_Source\PSoC5/CyLib.c ****             /* The SC pumps should be enabled */
2495:.\Generated_Source\PSoC5/CyLib.c ****             CyScPumpEnabled = 1u;
2496:.\Generated_Source\PSoC5/CyLib.c ****             /* Enable pumps if any of SC blocks are used */
2497:.\Generated_Source\PSoC5/CyLib.c ****             if(0u != (CY_LIB_ACT_CFG9_REG & CY_LIB_ACT_CFG9_SWCAPS_MASK))
2498:.\Generated_Source\PSoC5/CyLib.c ****             {
2499:.\Generated_Source\PSoC5/CyLib.c ****                 CY_LIB_SC_MISC_REG |= CY_LIB_SC_MISC_PUMP_FORCE;
2500:.\Generated_Source\PSoC5/CyLib.c ****                 CyScBoostClk_Start();
2501:.\Generated_Source\PSoC5/CyLib.c ****             }
2502:.\Generated_Source\PSoC5/CyLib.c ****             /* Set positive pump for each enabled SC block: set clock index and enable it */
2503:.\Generated_Source\PSoC5/CyLib.c ****             if(0u != (CY_LIB_ACT_CFG9_REG & CY_LIB_ACT_CFG9_SWCAP0_EN))
2504:.\Generated_Source\PSoC5/CyLib.c ****             {
2505:.\Generated_Source\PSoC5/CyLib.c ****                 CY_LIB_SC0_BST_REG = (CY_LIB_SC0_BST_REG & CY_LIB_SC_BST_CLK_INDEX_MASK) | CyScBoos
2506:.\Generated_Source\PSoC5/CyLib.c ****                 CY_LIB_SC0_BST_REG |= CY_LIB_SC_BST_CLK_EN;
2507:.\Generated_Source\PSoC5/CyLib.c ****             }
2508:.\Generated_Source\PSoC5/CyLib.c ****             if(0u != (CY_LIB_ACT_CFG9_REG & CY_LIB_ACT_CFG9_SWCAP1_EN))
2509:.\Generated_Source\PSoC5/CyLib.c ****             {
2510:.\Generated_Source\PSoC5/CyLib.c ****                 CY_LIB_SC1_BST_REG = (CY_LIB_SC1_BST_REG & CY_LIB_SC_BST_CLK_INDEX_MASK) | CyScBoos
2511:.\Generated_Source\PSoC5/CyLib.c ****                 CY_LIB_SC1_BST_REG |= CY_LIB_SC_BST_CLK_EN;
2512:.\Generated_Source\PSoC5/CyLib.c ****             }
2513:.\Generated_Source\PSoC5/CyLib.c ****             if(0u != (CY_LIB_ACT_CFG9_REG & CY_LIB_ACT_CFG9_SWCAP2_EN))
2514:.\Generated_Source\PSoC5/CyLib.c ****             {
2515:.\Generated_Source\PSoC5/CyLib.c ****                 CY_LIB_SC2_BST_REG = (CY_LIB_SC2_BST_REG & CY_LIB_SC_BST_CLK_INDEX_MASK) | CyScBoos
2516:.\Generated_Source\PSoC5/CyLib.c ****                 CY_LIB_SC2_BST_REG |= CY_LIB_SC_BST_CLK_EN;
2517:.\Generated_Source\PSoC5/CyLib.c ****             }
2518:.\Generated_Source\PSoC5/CyLib.c ****             if(0u != (CY_LIB_ACT_CFG9_REG & CY_LIB_ACT_CFG9_SWCAP3_EN))
2519:.\Generated_Source\PSoC5/CyLib.c ****             {
2520:.\Generated_Source\PSoC5/CyLib.c ****                 CY_LIB_SC3_BST_REG = (CY_LIB_SC3_BST_REG & CY_LIB_SC_BST_CLK_INDEX_MASK) | CyScBoos
2521:.\Generated_Source\PSoC5/CyLib.c ****                 CY_LIB_SC3_BST_REG |= CY_LIB_SC_BST_CLK_EN;
2522:.\Generated_Source\PSoC5/CyLib.c ****             }
2523:.\Generated_Source\PSoC5/CyLib.c ****         }
2524:.\Generated_Source\PSoC5/CyLib.c ****         else
2525:.\Generated_Source\PSoC5/CyLib.c ****         {
2526:.\Generated_Source\PSoC5/CyLib.c ****             /* The SC pumps should be disabled */
2527:.\Generated_Source\PSoC5/CyLib.c ****             CyScPumpEnabled = 0u;
2528:.\Generated_Source\PSoC5/CyLib.c ****             /* Disable pumps for all SC blocks and stop boost clock */
2529:.\Generated_Source\PSoC5/CyLib.c ****             CY_LIB_SC_MISC_REG &= ((uint8)(~CY_LIB_SC_MISC_PUMP_FORCE));
ARM GAS  C:\Users\student\AppData\Local\Temp\ccmWIiPR.s 			page 108


2530:.\Generated_Source\PSoC5/CyLib.c ****             CyScBoostClk_Stop();
2531:.\Generated_Source\PSoC5/CyLib.c ****             /* Disable boost clock and clear clock index for each SC block */
2532:.\Generated_Source\PSoC5/CyLib.c ****             CY_LIB_SC0_BST_REG &= ((uint8)(~CY_LIB_SC_BST_CLK_EN));
2533:.\Generated_Source\PSoC5/CyLib.c ****             CY_LIB_SC0_BST_REG = CY_LIB_SC0_BST_REG & CY_LIB_SC_BST_CLK_INDEX_MASK;
2534:.\Generated_Source\PSoC5/CyLib.c ****             CY_LIB_SC1_BST_REG &= ((uint8)(~CY_LIB_SC_BST_CLK_EN));
2535:.\Generated_Source\PSoC5/CyLib.c ****             CY_LIB_SC1_BST_REG = CY_LIB_SC1_BST_REG & CY_LIB_SC_BST_CLK_INDEX_MASK;
2536:.\Generated_Source\PSoC5/CyLib.c ****             CY_LIB_SC2_BST_REG &= ((uint8)(~CY_LIB_SC_BST_CLK_EN));
2537:.\Generated_Source\PSoC5/CyLib.c ****             CY_LIB_SC2_BST_REG = CY_LIB_SC2_BST_REG & CY_LIB_SC_BST_CLK_INDEX_MASK;
2538:.\Generated_Source\PSoC5/CyLib.c ****             CY_LIB_SC3_BST_REG &= ((uint8)(~CY_LIB_SC_BST_CLK_EN));
2539:.\Generated_Source\PSoC5/CyLib.c ****             CY_LIB_SC3_BST_REG = CY_LIB_SC3_BST_REG & CY_LIB_SC_BST_CLK_INDEX_MASK;
2540:.\Generated_Source\PSoC5/CyLib.c ****         }
2541:.\Generated_Source\PSoC5/CyLib.c ****     }
2542:.\Generated_Source\PSoC5/CyLib.c **** 
2543:.\Generated_Source\PSoC5/CyLib.c **** #endif  /* (CYDEV_VARIABLE_VDDA == 1) */
2544:.\Generated_Source\PSoC5/CyLib.c **** 
2545:.\Generated_Source\PSoC5/CyLib.c **** 
2546:.\Generated_Source\PSoC5/CyLib.c **** #if(CY_PSOC5)
2547:.\Generated_Source\PSoC5/CyLib.c ****     /*******************************************************************************
2548:.\Generated_Source\PSoC5/CyLib.c ****     * Function Name: CySysTickStart
2549:.\Generated_Source\PSoC5/CyLib.c ****     ****************************************************************************//**
2550:.\Generated_Source\PSoC5/CyLib.c ****     *
2551:.\Generated_Source\PSoC5/CyLib.c ****     *  Configures the SysTick timer to generate interrupt every 1 ms by call to the
2552:.\Generated_Source\PSoC5/CyLib.c ****     *  CySysTickInit() function and starts it by calling CySysTickEnable() function.
2553:.\Generated_Source\PSoC5/CyLib.c ****     *  Refer to the corresponding function description for the details.
2554:.\Generated_Source\PSoC5/CyLib.c **** 
2555:.\Generated_Source\PSoC5/CyLib.c ****     * \sideeffect
2556:.\Generated_Source\PSoC5/CyLib.c ****     *  Clears SysTick count flag if it was set
2557:.\Generated_Source\PSoC5/CyLib.c ****     *
2558:.\Generated_Source\PSoC5/CyLib.c ****     *******************************************************************************/
2559:.\Generated_Source\PSoC5/CyLib.c ****     void CySysTickStart(void)
2560:.\Generated_Source\PSoC5/CyLib.c ****     {
2561:.\Generated_Source\PSoC5/CyLib.c ****         if (0u == CySysTickInitVar)
2562:.\Generated_Source\PSoC5/CyLib.c ****         {
2563:.\Generated_Source\PSoC5/CyLib.c ****             CySysTickInit();
2564:.\Generated_Source\PSoC5/CyLib.c ****             CySysTickInitVar = 1u;
2565:.\Generated_Source\PSoC5/CyLib.c ****         }
2566:.\Generated_Source\PSoC5/CyLib.c **** 
2567:.\Generated_Source\PSoC5/CyLib.c ****         CySysTickEnable();
2568:.\Generated_Source\PSoC5/CyLib.c ****     }
2569:.\Generated_Source\PSoC5/CyLib.c **** 
2570:.\Generated_Source\PSoC5/CyLib.c **** 
2571:.\Generated_Source\PSoC5/CyLib.c ****     /*******************************************************************************
2572:.\Generated_Source\PSoC5/CyLib.c ****     * Function Name: CySysTickInit
2573:.\Generated_Source\PSoC5/CyLib.c ****     ****************************************************************************//**
2574:.\Generated_Source\PSoC5/CyLib.c ****     *
2575:.\Generated_Source\PSoC5/CyLib.c ****     *  Initializes the callback addresses with pointers to NULL, associates the
2576:.\Generated_Source\PSoC5/CyLib.c ****     *  SysTick system vector with the function that is responsible for calling
2577:.\Generated_Source\PSoC5/CyLib.c ****     *  registered callback functions, configures SysTick timer to generate interrupt
2578:.\Generated_Source\PSoC5/CyLib.c ****     * every 1 ms.
2579:.\Generated_Source\PSoC5/CyLib.c ****     *
2580:.\Generated_Source\PSoC5/CyLib.c ****     * \sideeffect
2581:.\Generated_Source\PSoC5/CyLib.c ****     *  Clears SysTick count flag if it was set.
2582:.\Generated_Source\PSoC5/CyLib.c ****     *
2583:.\Generated_Source\PSoC5/CyLib.c ****     *  The 1 ms interrupt interval is configured based on the frequency determined
2584:.\Generated_Source\PSoC5/CyLib.c ****     *  by PSoC Creator at build time. If System clock frequency is changed in
2585:.\Generated_Source\PSoC5/CyLib.c ****     *  runtime, the CyDelayFreq() with the appropriate parameter should be called.
2586:.\Generated_Source\PSoC5/CyLib.c ****     *
ARM GAS  C:\Users\student\AppData\Local\Temp\ccmWIiPR.s 			page 109


2587:.\Generated_Source\PSoC5/CyLib.c ****     *******************************************************************************/
2588:.\Generated_Source\PSoC5/CyLib.c ****     void CySysTickInit(void)
2589:.\Generated_Source\PSoC5/CyLib.c ****     {
2590:.\Generated_Source\PSoC5/CyLib.c ****         uint32 i;
2591:.\Generated_Source\PSoC5/CyLib.c **** 
2592:.\Generated_Source\PSoC5/CyLib.c ****         for (i = 0u; i<CY_SYS_SYST_NUM_OF_CALLBACKS; i++)
2593:.\Generated_Source\PSoC5/CyLib.c ****         {
2594:.\Generated_Source\PSoC5/CyLib.c ****             CySysTickCallbacks[i] = (void *) 0;
2595:.\Generated_Source\PSoC5/CyLib.c ****         }
2596:.\Generated_Source\PSoC5/CyLib.c **** 
2597:.\Generated_Source\PSoC5/CyLib.c ****         (void) CyIntSetSysVector(CY_INT_SYSTICK_IRQN, &CySysTickServiceCallbacks);
2598:.\Generated_Source\PSoC5/CyLib.c ****         CySysTickSetClockSource(CY_SYS_SYST_CSR_CLK_SRC_SYSCLK);
2599:.\Generated_Source\PSoC5/CyLib.c ****         CySysTickSetReload(cydelay_freq_hz/1000u);
2600:.\Generated_Source\PSoC5/CyLib.c ****         CySysTickClear();
2601:.\Generated_Source\PSoC5/CyLib.c ****         CyIntEnable(CY_INT_SYSTICK_IRQN);
2602:.\Generated_Source\PSoC5/CyLib.c ****     }
2603:.\Generated_Source\PSoC5/CyLib.c **** 
2604:.\Generated_Source\PSoC5/CyLib.c **** 
2605:.\Generated_Source\PSoC5/CyLib.c ****     /*******************************************************************************
2606:.\Generated_Source\PSoC5/CyLib.c ****     * Function Name: CySysTickEnable
2607:.\Generated_Source\PSoC5/CyLib.c ****     ****************************************************************************//**
2608:.\Generated_Source\PSoC5/CyLib.c ****     *
2609:.\Generated_Source\PSoC5/CyLib.c ****     *  Enables the SysTick timer and its interrupt.
2610:.\Generated_Source\PSoC5/CyLib.c ****     *
2611:.\Generated_Source\PSoC5/CyLib.c ****     * \sideeffect
2612:.\Generated_Source\PSoC5/CyLib.c ****     *  Clears SysTick count flag if it was set
2613:.\Generated_Source\PSoC5/CyLib.c ****     *
2614:.\Generated_Source\PSoC5/CyLib.c ****     *******************************************************************************/
2615:.\Generated_Source\PSoC5/CyLib.c ****     void CySysTickEnable(void)
2616:.\Generated_Source\PSoC5/CyLib.c ****     {
2617:.\Generated_Source\PSoC5/CyLib.c ****         CySysTickEnableInterrupt();
2618:.\Generated_Source\PSoC5/CyLib.c ****         CY_SYS_SYST_CSR_REG |= CY_SYS_SYST_CSR_ENABLE;
2619:.\Generated_Source\PSoC5/CyLib.c ****     }
2620:.\Generated_Source\PSoC5/CyLib.c **** 
2621:.\Generated_Source\PSoC5/CyLib.c **** 
2622:.\Generated_Source\PSoC5/CyLib.c ****     /*******************************************************************************
2623:.\Generated_Source\PSoC5/CyLib.c ****     * Function Name: CySysTickStop
2624:.\Generated_Source\PSoC5/CyLib.c ****     ****************************************************************************//**
2625:.\Generated_Source\PSoC5/CyLib.c ****     *
2626:.\Generated_Source\PSoC5/CyLib.c ****     *  Stops the system timer (SysTick).
2627:.\Generated_Source\PSoC5/CyLib.c ****     *
2628:.\Generated_Source\PSoC5/CyLib.c ****     * \sideeffect
2629:.\Generated_Source\PSoC5/CyLib.c ****     *  Clears SysTick count flag if it was set
2630:.\Generated_Source\PSoC5/CyLib.c ****     *
2631:.\Generated_Source\PSoC5/CyLib.c ****     *******************************************************************************/
2632:.\Generated_Source\PSoC5/CyLib.c ****     void CySysTickStop(void)
2633:.\Generated_Source\PSoC5/CyLib.c ****     {
 3336              		.loc 1 2633 0
 3337              		.cfi_startproc
 3338              		@ args = 0, pretend = 0, frame = 0
 3339              		@ frame_needed = 0, uses_anonymous_args = 0
 3340              		@ link register save eliminated.
2634:.\Generated_Source\PSoC5/CyLib.c ****         CY_SYS_SYST_CSR_REG &= ((uint32) ~(CY_SYS_SYST_CSR_ENABLE));
 3341              		.loc 1 2634 0
 3342 0000 024A     		ldr	r2, .L327
 3343 0002 1368     		ldr	r3, [r2]
 3344 0004 23F00103 		bic	r3, r3, #1
ARM GAS  C:\Users\student\AppData\Local\Temp\ccmWIiPR.s 			page 110


 3345 0008 1360     		str	r3, [r2]
 3346 000a 7047     		bx	lr
 3347              	.L328:
 3348              		.align	2
 3349              	.L327:
 3350 000c 10E000E0 		.word	-536813552
 3351              		.cfi_endproc
 3352              	.LFE67:
 3353              		.size	CySysTickStop, .-CySysTickStop
 3354              		.section	.text.CySysTickEnableInterrupt,"ax",%progbits
 3355              		.align	2
 3356              		.global	CySysTickEnableInterrupt
 3357              		.thumb
 3358              		.thumb_func
 3359              		.type	CySysTickEnableInterrupt, %function
 3360              	CySysTickEnableInterrupt:
 3361              	.LFB68:
2635:.\Generated_Source\PSoC5/CyLib.c ****     }
2636:.\Generated_Source\PSoC5/CyLib.c **** 
2637:.\Generated_Source\PSoC5/CyLib.c **** 
2638:.\Generated_Source\PSoC5/CyLib.c ****     /*******************************************************************************
2639:.\Generated_Source\PSoC5/CyLib.c ****     * Function Name: CySysTickEnableInterrupt
2640:.\Generated_Source\PSoC5/CyLib.c ****     ****************************************************************************//**
2641:.\Generated_Source\PSoC5/CyLib.c ****     *
2642:.\Generated_Source\PSoC5/CyLib.c ****     *  Enables the SysTick interrupt.
2643:.\Generated_Source\PSoC5/CyLib.c ****     *
2644:.\Generated_Source\PSoC5/CyLib.c ****     * \sideeffect
2645:.\Generated_Source\PSoC5/CyLib.c ****     *  Clears SysTick count flag if it was set
2646:.\Generated_Source\PSoC5/CyLib.c ****     *
2647:.\Generated_Source\PSoC5/CyLib.c ****     *******************************************************************************/
2648:.\Generated_Source\PSoC5/CyLib.c ****     void CySysTickEnableInterrupt(void)
2649:.\Generated_Source\PSoC5/CyLib.c ****     {
 3362              		.loc 1 2649 0
 3363              		.cfi_startproc
 3364              		@ args = 0, pretend = 0, frame = 0
 3365              		@ frame_needed = 0, uses_anonymous_args = 0
 3366              		@ link register save eliminated.
2650:.\Generated_Source\PSoC5/CyLib.c ****         CY_SYS_SYST_CSR_REG |= CY_SYS_SYST_CSR_ENABLE_INT;
 3367              		.loc 1 2650 0
 3368 0000 024A     		ldr	r2, .L330
 3369 0002 1368     		ldr	r3, [r2]
 3370 0004 43F00203 		orr	r3, r3, #2
 3371 0008 1360     		str	r3, [r2]
 3372 000a 7047     		bx	lr
 3373              	.L331:
 3374              		.align	2
 3375              	.L330:
 3376 000c 10E000E0 		.word	-536813552
 3377              		.cfi_endproc
 3378              	.LFE68:
 3379              		.size	CySysTickEnableInterrupt, .-CySysTickEnableInterrupt
 3380              		.section	.text.CySysTickEnable,"ax",%progbits
 3381              		.align	2
 3382              		.global	CySysTickEnable
 3383              		.thumb
 3384              		.thumb_func
 3385              		.type	CySysTickEnable, %function
ARM GAS  C:\Users\student\AppData\Local\Temp\ccmWIiPR.s 			page 111


 3386              	CySysTickEnable:
 3387              	.LFB66:
2616:.\Generated_Source\PSoC5/CyLib.c ****         CySysTickEnableInterrupt();
 3388              		.loc 1 2616 0
 3389              		.cfi_startproc
 3390              		@ args = 0, pretend = 0, frame = 0
 3391              		@ frame_needed = 0, uses_anonymous_args = 0
 3392 0000 08B5     		push	{r3, lr}
 3393              		.cfi_def_cfa_offset 8
 3394              		.cfi_offset 3, -8
 3395              		.cfi_offset 14, -4
2617:.\Generated_Source\PSoC5/CyLib.c ****         CY_SYS_SYST_CSR_REG |= CY_SYS_SYST_CSR_ENABLE;
 3396              		.loc 1 2617 0
 3397 0002 FFF7FEFF 		bl	CySysTickEnableInterrupt
 3398              	.LVL207:
2618:.\Generated_Source\PSoC5/CyLib.c ****     }
 3399              		.loc 1 2618 0
 3400 0006 034A     		ldr	r2, .L334
 3401 0008 1368     		ldr	r3, [r2]
 3402 000a 43F00103 		orr	r3, r3, #1
 3403 000e 1360     		str	r3, [r2]
 3404 0010 08BD     		pop	{r3, pc}
 3405              	.L335:
 3406 0012 00BF     		.align	2
 3407              	.L334:
 3408 0014 10E000E0 		.word	-536813552
 3409              		.cfi_endproc
 3410              	.LFE66:
 3411              		.size	CySysTickEnable, .-CySysTickEnable
 3412              		.section	.text.CySysTickDisableInterrupt,"ax",%progbits
 3413              		.align	2
 3414              		.global	CySysTickDisableInterrupt
 3415              		.thumb
 3416              		.thumb_func
 3417              		.type	CySysTickDisableInterrupt, %function
 3418              	CySysTickDisableInterrupt:
 3419              	.LFB69:
2651:.\Generated_Source\PSoC5/CyLib.c ****     }
2652:.\Generated_Source\PSoC5/CyLib.c **** 
2653:.\Generated_Source\PSoC5/CyLib.c **** 
2654:.\Generated_Source\PSoC5/CyLib.c ****     /*******************************************************************************
2655:.\Generated_Source\PSoC5/CyLib.c ****     * Function Name: CySysTickDisableInterrupt
2656:.\Generated_Source\PSoC5/CyLib.c ****     ****************************************************************************//**
2657:.\Generated_Source\PSoC5/CyLib.c ****     *
2658:.\Generated_Source\PSoC5/CyLib.c ****     *  Disables the SysTick interrupt.
2659:.\Generated_Source\PSoC5/CyLib.c ****     *
2660:.\Generated_Source\PSoC5/CyLib.c ****     * \sideeffect
2661:.\Generated_Source\PSoC5/CyLib.c ****     *  Clears SysTick count flag if it was set
2662:.\Generated_Source\PSoC5/CyLib.c ****     *
2663:.\Generated_Source\PSoC5/CyLib.c ****     *******************************************************************************/
2664:.\Generated_Source\PSoC5/CyLib.c ****     void CySysTickDisableInterrupt(void)
2665:.\Generated_Source\PSoC5/CyLib.c ****     {
 3420              		.loc 1 2665 0
 3421              		.cfi_startproc
 3422              		@ args = 0, pretend = 0, frame = 0
 3423              		@ frame_needed = 0, uses_anonymous_args = 0
 3424              		@ link register save eliminated.
ARM GAS  C:\Users\student\AppData\Local\Temp\ccmWIiPR.s 			page 112


2666:.\Generated_Source\PSoC5/CyLib.c ****         CY_SYS_SYST_CSR_REG &= ((uint32) ~(CY_SYS_SYST_CSR_ENABLE_INT));
 3425              		.loc 1 2666 0
 3426 0000 024A     		ldr	r2, .L337
 3427 0002 1368     		ldr	r3, [r2]
 3428 0004 23F00203 		bic	r3, r3, #2
 3429 0008 1360     		str	r3, [r2]
 3430 000a 7047     		bx	lr
 3431              	.L338:
 3432              		.align	2
 3433              	.L337:
 3434 000c 10E000E0 		.word	-536813552
 3435              		.cfi_endproc
 3436              	.LFE69:
 3437              		.size	CySysTickDisableInterrupt, .-CySysTickDisableInterrupt
 3438              		.section	.text.CySysTickSetReload,"ax",%progbits
 3439              		.align	2
 3440              		.global	CySysTickSetReload
 3441              		.thumb
 3442              		.thumb_func
 3443              		.type	CySysTickSetReload, %function
 3444              	CySysTickSetReload:
 3445              	.LFB70:
2667:.\Generated_Source\PSoC5/CyLib.c ****     }
2668:.\Generated_Source\PSoC5/CyLib.c **** 
2669:.\Generated_Source\PSoC5/CyLib.c **** 
2670:.\Generated_Source\PSoC5/CyLib.c ****     /*******************************************************************************
2671:.\Generated_Source\PSoC5/CyLib.c ****     * Function Name: CySysTickSetReload
2672:.\Generated_Source\PSoC5/CyLib.c ****     ****************************************************************************//**
2673:.\Generated_Source\PSoC5/CyLib.c ****     *
2674:.\Generated_Source\PSoC5/CyLib.c ****     *  Sets value the counter is set to on startup and after it reaches zero. This
2675:.\Generated_Source\PSoC5/CyLib.c ****     *  function do not change or reset current sysTick counter value, so it should
2676:.\Generated_Source\PSoC5/CyLib.c ****     *  be cleared using CySysTickClear() API.
2677:.\Generated_Source\PSoC5/CyLib.c ****     *
2678:.\Generated_Source\PSoC5/CyLib.c ****     *  \param value: Valid range [0x0-0x00FFFFFF]. Counter reset value.
2679:.\Generated_Source\PSoC5/CyLib.c ****     *
2680:.\Generated_Source\PSoC5/CyLib.c ****     *******************************************************************************/
2681:.\Generated_Source\PSoC5/CyLib.c ****     void CySysTickSetReload(uint32 value)
2682:.\Generated_Source\PSoC5/CyLib.c ****     {
 3446              		.loc 1 2682 0
 3447              		.cfi_startproc
 3448              		@ args = 0, pretend = 0, frame = 0
 3449              		@ frame_needed = 0, uses_anonymous_args = 0
 3450              		@ link register save eliminated.
 3451              	.LVL208:
2683:.\Generated_Source\PSoC5/CyLib.c ****         CY_SYS_SYST_RVR_REG = (value & CY_SYS_SYST_RVR_CNT_MASK);
 3452              		.loc 1 2683 0
 3453 0000 20F07F40 		bic	r0, r0, #-16777216
 3454              	.LVL209:
 3455 0004 014B     		ldr	r3, .L340
 3456 0006 1860     		str	r0, [r3]
 3457 0008 7047     		bx	lr
 3458              	.L341:
 3459 000a 00BF     		.align	2
 3460              	.L340:
 3461 000c 14E000E0 		.word	-536813548
 3462              		.cfi_endproc
 3463              	.LFE70:
ARM GAS  C:\Users\student\AppData\Local\Temp\ccmWIiPR.s 			page 113


 3464              		.size	CySysTickSetReload, .-CySysTickSetReload
 3465              		.section	.text.CySysTickGetReload,"ax",%progbits
 3466              		.align	2
 3467              		.global	CySysTickGetReload
 3468              		.thumb
 3469              		.thumb_func
 3470              		.type	CySysTickGetReload, %function
 3471              	CySysTickGetReload:
 3472              	.LFB71:
2684:.\Generated_Source\PSoC5/CyLib.c ****     }
2685:.\Generated_Source\PSoC5/CyLib.c **** 
2686:.\Generated_Source\PSoC5/CyLib.c **** 
2687:.\Generated_Source\PSoC5/CyLib.c ****     /*******************************************************************************
2688:.\Generated_Source\PSoC5/CyLib.c ****     * Function Name: CySysTickGetReload
2689:.\Generated_Source\PSoC5/CyLib.c ****     ****************************************************************************//**
2690:.\Generated_Source\PSoC5/CyLib.c ****     *
2691:.\Generated_Source\PSoC5/CyLib.c ****     *  Sets value the counter is set to on startup and after it reaches zero.
2692:.\Generated_Source\PSoC5/CyLib.c ****     *
2693:.\Generated_Source\PSoC5/CyLib.c ****     * \return
2694:.\Generated_Source\PSoC5/CyLib.c ****     *  Counter reset value
2695:.\Generated_Source\PSoC5/CyLib.c ****     *
2696:.\Generated_Source\PSoC5/CyLib.c ****     *******************************************************************************/
2697:.\Generated_Source\PSoC5/CyLib.c ****     uint32 CySysTickGetReload(void)
2698:.\Generated_Source\PSoC5/CyLib.c ****     {
 3473              		.loc 1 2698 0
 3474              		.cfi_startproc
 3475              		@ args = 0, pretend = 0, frame = 0
 3476              		@ frame_needed = 0, uses_anonymous_args = 0
 3477              		@ link register save eliminated.
2699:.\Generated_Source\PSoC5/CyLib.c ****         return(CY_SYS_SYST_RVR_REG & CY_SYS_SYST_RVR_CNT_MASK);
 3478              		.loc 1 2699 0
 3479 0000 024B     		ldr	r3, .L343
 3480 0002 1868     		ldr	r0, [r3]
2700:.\Generated_Source\PSoC5/CyLib.c ****     }
 3481              		.loc 1 2700 0
 3482 0004 20F07F40 		bic	r0, r0, #-16777216
 3483 0008 7047     		bx	lr
 3484              	.L344:
 3485 000a 00BF     		.align	2
 3486              	.L343:
 3487 000c 14E000E0 		.word	-536813548
 3488              		.cfi_endproc
 3489              	.LFE71:
 3490              		.size	CySysTickGetReload, .-CySysTickGetReload
 3491              		.section	.text.CySysTickGetValue,"ax",%progbits
 3492              		.align	2
 3493              		.global	CySysTickGetValue
 3494              		.thumb
 3495              		.thumb_func
 3496              		.type	CySysTickGetValue, %function
 3497              	CySysTickGetValue:
 3498              	.LFB72:
2701:.\Generated_Source\PSoC5/CyLib.c **** 
2702:.\Generated_Source\PSoC5/CyLib.c **** 
2703:.\Generated_Source\PSoC5/CyLib.c ****     /*******************************************************************************
2704:.\Generated_Source\PSoC5/CyLib.c ****     * Function Name: CySysTickGetValue
2705:.\Generated_Source\PSoC5/CyLib.c ****     ****************************************************************************//**
ARM GAS  C:\Users\student\AppData\Local\Temp\ccmWIiPR.s 			page 114


2706:.\Generated_Source\PSoC5/CyLib.c ****     *
2707:.\Generated_Source\PSoC5/CyLib.c ****     *  Gets current SysTick counter value.
2708:.\Generated_Source\PSoC5/CyLib.c ****     *
2709:.\Generated_Source\PSoC5/CyLib.c ****     * \return
2710:.\Generated_Source\PSoC5/CyLib.c ****     *  Current SysTick counter value
2711:.\Generated_Source\PSoC5/CyLib.c ****     *
2712:.\Generated_Source\PSoC5/CyLib.c ****     *******************************************************************************/
2713:.\Generated_Source\PSoC5/CyLib.c ****     uint32 CySysTickGetValue(void)
2714:.\Generated_Source\PSoC5/CyLib.c ****     {
 3499              		.loc 1 2714 0
 3500              		.cfi_startproc
 3501              		@ args = 0, pretend = 0, frame = 0
 3502              		@ frame_needed = 0, uses_anonymous_args = 0
 3503              		@ link register save eliminated.
2715:.\Generated_Source\PSoC5/CyLib.c ****         return(CY_SYS_SYST_CVR_REG & CY_SYS_SYST_CVR_CNT_MASK);
 3504              		.loc 1 2715 0
 3505 0000 024B     		ldr	r3, .L346
 3506 0002 1868     		ldr	r0, [r3]
2716:.\Generated_Source\PSoC5/CyLib.c ****     }
 3507              		.loc 1 2716 0
 3508 0004 20F07F40 		bic	r0, r0, #-16777216
 3509 0008 7047     		bx	lr
 3510              	.L347:
 3511 000a 00BF     		.align	2
 3512              	.L346:
 3513 000c 18E000E0 		.word	-536813544
 3514              		.cfi_endproc
 3515              	.LFE72:
 3516              		.size	CySysTickGetValue, .-CySysTickGetValue
 3517              		.section	.text.CySysTickSetClockSource,"ax",%progbits
 3518              		.align	2
 3519              		.global	CySysTickSetClockSource
 3520              		.thumb
 3521              		.thumb_func
 3522              		.type	CySysTickSetClockSource, %function
 3523              	CySysTickSetClockSource:
 3524              	.LFB73:
2717:.\Generated_Source\PSoC5/CyLib.c **** 
2718:.\Generated_Source\PSoC5/CyLib.c **** 
2719:.\Generated_Source\PSoC5/CyLib.c ****     /*******************************************************************************
2720:.\Generated_Source\PSoC5/CyLib.c ****     * Function Name: CySysTickSetClockSource
2721:.\Generated_Source\PSoC5/CyLib.c ****     ****************************************************************************//**
2722:.\Generated_Source\PSoC5/CyLib.c ****     *
2723:.\Generated_Source\PSoC5/CyLib.c ****     *  Sets the clock source for the SysTick counter.
2724:.\Generated_Source\PSoC5/CyLib.c ****     *
2725:.\Generated_Source\PSoC5/CyLib.c ****     *  \param clockSource: Clock source for SysTick counter
2726:.\Generated_Source\PSoC5/CyLib.c ****     *         Define                     Clock Source
2727:.\Generated_Source\PSoC5/CyLib.c ****     *   CY_SYS_SYST_CSR_CLK_SRC_SYSCLK     SysTick is clocked by CPU clock.
2728:.\Generated_Source\PSoC5/CyLib.c ****     *   CY_SYS_SYST_CSR_CLK_SRC_LFCLK      SysTick is clocked by the low frequency
2729:.\Generated_Source\PSoC5/CyLib.c ****     *                                      clock (ILO 100 KHz for PSoC 5LP, and
2730:.\Generated_Source\PSoC5/CyLib.c ****     *                                      LFCLK for PSoC 4).
2731:.\Generated_Source\PSoC5/CyLib.c ****     *
2732:.\Generated_Source\PSoC5/CyLib.c ****     * \sideeffect
2733:.\Generated_Source\PSoC5/CyLib.c ****     *  Clears SysTick count flag if it was set. If clock source is not ready this
2734:.\Generated_Source\PSoC5/CyLib.c ****     *  function call will have no effect. After changing clock source to the low
2735:.\Generated_Source\PSoC5/CyLib.c ****     *  frequency clock the counter and reload register values will remain unchanged
2736:.\Generated_Source\PSoC5/CyLib.c ****     *  so time to the interrupt will be significantly bigger and vice versa.
ARM GAS  C:\Users\student\AppData\Local\Temp\ccmWIiPR.s 			page 115


2737:.\Generated_Source\PSoC5/CyLib.c ****     *
2738:.\Generated_Source\PSoC5/CyLib.c ****     *******************************************************************************/
2739:.\Generated_Source\PSoC5/CyLib.c ****     void CySysTickSetClockSource(uint32 clockSource)
2740:.\Generated_Source\PSoC5/CyLib.c ****     {
 3525              		.loc 1 2740 0
 3526              		.cfi_startproc
 3527              		@ args = 0, pretend = 0, frame = 0
 3528              		@ frame_needed = 0, uses_anonymous_args = 0
 3529              		@ link register save eliminated.
 3530              	.LVL210:
2741:.\Generated_Source\PSoC5/CyLib.c ****         if (clockSource == CY_SYS_SYST_CSR_CLK_SRC_SYSCLK)
 3531              		.loc 1 2741 0
 3532 0000 0128     		cmp	r0, #1
 3533 0002 05D1     		bne	.L349
2742:.\Generated_Source\PSoC5/CyLib.c ****         {
2743:.\Generated_Source\PSoC5/CyLib.c ****             CY_SYS_SYST_CSR_REG |= (uint32)(CY_SYS_SYST_CSR_CLK_SRC_SYSCLK << CY_SYS_SYST_CSR_CLK_S
 3534              		.loc 1 2743 0
 3535 0004 054A     		ldr	r2, .L351
 3536 0006 1368     		ldr	r3, [r2]
 3537 0008 43F00403 		orr	r3, r3, #4
 3538 000c 1360     		str	r3, [r2]
 3539 000e 7047     		bx	lr
 3540              	.L349:
2744:.\Generated_Source\PSoC5/CyLib.c ****         }
2745:.\Generated_Source\PSoC5/CyLib.c ****         else
2746:.\Generated_Source\PSoC5/CyLib.c ****         {
2747:.\Generated_Source\PSoC5/CyLib.c ****             CY_SYS_SYST_CSR_REG &= ((uint32) ~((uint32)(CY_SYS_SYST_CSR_CLK_SRC_SYSCLK << CY_SYS_SY
 3541              		.loc 1 2747 0
 3542 0010 024A     		ldr	r2, .L351
 3543 0012 1368     		ldr	r3, [r2]
 3544 0014 23F00403 		bic	r3, r3, #4
 3545 0018 1360     		str	r3, [r2]
 3546 001a 7047     		bx	lr
 3547              	.L352:
 3548              		.align	2
 3549              	.L351:
 3550 001c 10E000E0 		.word	-536813552
 3551              		.cfi_endproc
 3552              	.LFE73:
 3553              		.size	CySysTickSetClockSource, .-CySysTickSetClockSource
 3554              		.section	.text.CySysTickGetCountFlag,"ax",%progbits
 3555              		.align	2
 3556              		.global	CySysTickGetCountFlag
 3557              		.thumb
 3558              		.thumb_func
 3559              		.type	CySysTickGetCountFlag, %function
 3560              	CySysTickGetCountFlag:
 3561              	.LFB74:
2748:.\Generated_Source\PSoC5/CyLib.c ****         }
2749:.\Generated_Source\PSoC5/CyLib.c ****     }
2750:.\Generated_Source\PSoC5/CyLib.c **** 
2751:.\Generated_Source\PSoC5/CyLib.c **** 
2752:.\Generated_Source\PSoC5/CyLib.c ****     /*******************************************************************************
2753:.\Generated_Source\PSoC5/CyLib.c ****     * Function Name: CySysTickGetCountFlag
2754:.\Generated_Source\PSoC5/CyLib.c ****     ****************************************************************************//**
2755:.\Generated_Source\PSoC5/CyLib.c ****     *
2756:.\Generated_Source\PSoC5/CyLib.c ****     *  The count flag is set once SysTick counter reaches zero.
ARM GAS  C:\Users\student\AppData\Local\Temp\ccmWIiPR.s 			page 116


2757:.\Generated_Source\PSoC5/CyLib.c ****     *   The flag cleared on read.
2758:.\Generated_Source\PSoC5/CyLib.c ****     *
2759:.\Generated_Source\PSoC5/CyLib.c ****     * \return
2760:.\Generated_Source\PSoC5/CyLib.c ****     *  Returns non-zero value if flag is set, otherwise zero is returned.
2761:.\Generated_Source\PSoC5/CyLib.c ****     *
2762:.\Generated_Source\PSoC5/CyLib.c ****     *
2763:.\Generated_Source\PSoC5/CyLib.c ****     * \sideeffect
2764:.\Generated_Source\PSoC5/CyLib.c ****     *  Clears SysTick count flag if it was set.
2765:.\Generated_Source\PSoC5/CyLib.c ****     *
2766:.\Generated_Source\PSoC5/CyLib.c ****     *******************************************************************************/
2767:.\Generated_Source\PSoC5/CyLib.c ****     uint32 CySysTickGetCountFlag(void)
2768:.\Generated_Source\PSoC5/CyLib.c ****     {
 3562              		.loc 1 2768 0
 3563              		.cfi_startproc
 3564              		@ args = 0, pretend = 0, frame = 0
 3565              		@ frame_needed = 0, uses_anonymous_args = 0
 3566              		@ link register save eliminated.
2769:.\Generated_Source\PSoC5/CyLib.c ****         return ((CY_SYS_SYST_CSR_REG >> CY_SYS_SYST_CSR_COUNTFLAG_SHIFT) & 0x01u);
 3567              		.loc 1 2769 0
 3568 0000 024B     		ldr	r3, .L354
 3569 0002 1868     		ldr	r0, [r3]
2770:.\Generated_Source\PSoC5/CyLib.c ****     }
 3570              		.loc 1 2770 0
 3571 0004 C0F30040 		ubfx	r0, r0, #16, #1
 3572 0008 7047     		bx	lr
 3573              	.L355:
 3574 000a 00BF     		.align	2
 3575              	.L354:
 3576 000c 10E000E0 		.word	-536813552
 3577              		.cfi_endproc
 3578              	.LFE74:
 3579              		.size	CySysTickGetCountFlag, .-CySysTickGetCountFlag
 3580              		.section	.text.CySysTickServiceCallbacks,"ax",%progbits
 3581              		.align	2
 3582              		.thumb
 3583              		.thumb_func
 3584              		.type	CySysTickServiceCallbacks, %function
 3585              	CySysTickServiceCallbacks:
 3586              	.LFB78:
2771:.\Generated_Source\PSoC5/CyLib.c **** 
2772:.\Generated_Source\PSoC5/CyLib.c **** 
2773:.\Generated_Source\PSoC5/CyLib.c ****     /*******************************************************************************
2774:.\Generated_Source\PSoC5/CyLib.c ****     * Function Name: CySysTickClear
2775:.\Generated_Source\PSoC5/CyLib.c ****     ****************************************************************************//**
2776:.\Generated_Source\PSoC5/CyLib.c ****     *
2777:.\Generated_Source\PSoC5/CyLib.c ****     *  Clears the SysTick counter for well-defined startup.
2778:.\Generated_Source\PSoC5/CyLib.c ****     *
2779:.\Generated_Source\PSoC5/CyLib.c ****     *******************************************************************************/
2780:.\Generated_Source\PSoC5/CyLib.c ****     void CySysTickClear(void)
2781:.\Generated_Source\PSoC5/CyLib.c ****     {
2782:.\Generated_Source\PSoC5/CyLib.c ****         CY_SYS_SYST_CVR_REG = 0u;
2783:.\Generated_Source\PSoC5/CyLib.c ****     }
2784:.\Generated_Source\PSoC5/CyLib.c **** 
2785:.\Generated_Source\PSoC5/CyLib.c **** 
2786:.\Generated_Source\PSoC5/CyLib.c ****     /*******************************************************************************
2787:.\Generated_Source\PSoC5/CyLib.c ****     * Function Name: CySysTickSetCallback
2788:.\Generated_Source\PSoC5/CyLib.c ****     ****************************************************************************//**
ARM GAS  C:\Users\student\AppData\Local\Temp\ccmWIiPR.s 			page 117


2789:.\Generated_Source\PSoC5/CyLib.c ****     *
2790:.\Generated_Source\PSoC5/CyLib.c ****     *  This function allows up to five user-defined interrupt service routine
2791:.\Generated_Source\PSoC5/CyLib.c ****     *  functions to be associated with the SysTick interrupt. These are specified
2792:.\Generated_Source\PSoC5/CyLib.c ****     *  through the use of pointers to the function.
2793:.\Generated_Source\PSoC5/CyLib.c ****     *
2794:.\Generated_Source\PSoC5/CyLib.c ****     *  To set a custom callback function without the overhead of the system provided
2795:.\Generated_Source\PSoC5/CyLib.c ****     *  one, use CyIntSetSysVector(CY_INT_SYSTICK_IRQN, cyisraddress <address>),
2796:.\Generated_Source\PSoC5/CyLib.c ****     *  where <address> is address of the custom defined interrupt service routine.
2797:.\Generated_Source\PSoC5/CyLib.c ****     *  Note: a custom callback function overrides the system defined callback
2798:.\Generated_Source\PSoC5/CyLib.c ****     *  functions.
2799:.\Generated_Source\PSoC5/CyLib.c ****     *
2800:.\Generated_Source\PSoC5/CyLib.c ****     *  \param number: The number of the callback function addresses to be set. The valid
2801:.\Generated_Source\PSoC5/CyLib.c ****     *          range is from 0 to 4.
2802:.\Generated_Source\PSoC5/CyLib.c ****     *
2803:.\Generated_Source\PSoC5/CyLib.c ****     *  void(*CallbackFunction(void): A pointer to the function that will be
2804:.\Generated_Source\PSoC5/CyLib.c ****     *                                associated with the SysTick ISR for the
2805:.\Generated_Source\PSoC5/CyLib.c ****     *                                specified number.
2806:.\Generated_Source\PSoC5/CyLib.c ****     *
2807:.\Generated_Source\PSoC5/CyLib.c ****     * \return
2808:.\Generated_Source\PSoC5/CyLib.c ****     *  Returns the address of the previous callback function.
2809:.\Generated_Source\PSoC5/CyLib.c ****     *  The NULL is returned if the specified address in not set.
2810:.\Generated_Source\PSoC5/CyLib.c ****     *
2811:.\Generated_Source\PSoC5/CyLib.c ****     * \sideeffect
2812:.\Generated_Source\PSoC5/CyLib.c ****     *  The registered callback functions will be executed in the interrupt.
2813:.\Generated_Source\PSoC5/CyLib.c ****     *
2814:.\Generated_Source\PSoC5/CyLib.c ****     *******************************************************************************/
2815:.\Generated_Source\PSoC5/CyLib.c ****     cySysTickCallback CySysTickSetCallback(uint32 number, cySysTickCallback function)
2816:.\Generated_Source\PSoC5/CyLib.c ****     {
2817:.\Generated_Source\PSoC5/CyLib.c ****         cySysTickCallback retVal;
2818:.\Generated_Source\PSoC5/CyLib.c **** 
2819:.\Generated_Source\PSoC5/CyLib.c ****         retVal = CySysTickCallbacks[number];
2820:.\Generated_Source\PSoC5/CyLib.c ****         CySysTickCallbacks[number] = function;
2821:.\Generated_Source\PSoC5/CyLib.c ****         return (retVal);
2822:.\Generated_Source\PSoC5/CyLib.c ****     }
2823:.\Generated_Source\PSoC5/CyLib.c **** 
2824:.\Generated_Source\PSoC5/CyLib.c **** 
2825:.\Generated_Source\PSoC5/CyLib.c ****     /*******************************************************************************
2826:.\Generated_Source\PSoC5/CyLib.c ****     * Function Name: CySysTickGetCallback
2827:.\Generated_Source\PSoC5/CyLib.c ****     ****************************************************************************//**
2828:.\Generated_Source\PSoC5/CyLib.c ****     *
2829:.\Generated_Source\PSoC5/CyLib.c ****     *  The function get the specified callback pointer.
2830:.\Generated_Source\PSoC5/CyLib.c ****     *
2831:.\Generated_Source\PSoC5/CyLib.c ****     *  \param number: The number of callback function address to get. The valid
2832:.\Generated_Source\PSoC5/CyLib.c ****     *          range is from 0 to 4.
2833:.\Generated_Source\PSoC5/CyLib.c ****     *
2834:.\Generated_Source\PSoC5/CyLib.c ****     * \return
2835:.\Generated_Source\PSoC5/CyLib.c ****     *  Returns the address of the specified callback function.
2836:.\Generated_Source\PSoC5/CyLib.c ****     *  The NULL is returned if the specified address in not initialized.
2837:.\Generated_Source\PSoC5/CyLib.c ****     *
2838:.\Generated_Source\PSoC5/CyLib.c ****     *******************************************************************************/
2839:.\Generated_Source\PSoC5/CyLib.c ****     cySysTickCallback CySysTickGetCallback(uint32 number)
2840:.\Generated_Source\PSoC5/CyLib.c ****     {
2841:.\Generated_Source\PSoC5/CyLib.c ****         return ((cySysTickCallback) CySysTickCallbacks[number]);
2842:.\Generated_Source\PSoC5/CyLib.c ****     }
2843:.\Generated_Source\PSoC5/CyLib.c **** 
2844:.\Generated_Source\PSoC5/CyLib.c **** 
2845:.\Generated_Source\PSoC5/CyLib.c ****     /*******************************************************************************
ARM GAS  C:\Users\student\AppData\Local\Temp\ccmWIiPR.s 			page 118


2846:.\Generated_Source\PSoC5/CyLib.c ****     * Function Name: CySysTickServiceCallbacks
2847:.\Generated_Source\PSoC5/CyLib.c ****     ****************************************************************************//**
2848:.\Generated_Source\PSoC5/CyLib.c ****     *
2849:.\Generated_Source\PSoC5/CyLib.c ****     *  System Tick timer interrupt routine
2850:.\Generated_Source\PSoC5/CyLib.c ****     *
2851:.\Generated_Source\PSoC5/CyLib.c ****     *******************************************************************************/
2852:.\Generated_Source\PSoC5/CyLib.c ****     static void CySysTickServiceCallbacks(void)
2853:.\Generated_Source\PSoC5/CyLib.c ****     {
 3587              		.loc 1 2853 0
 3588              		.cfi_startproc
 3589              		@ args = 0, pretend = 0, frame = 0
 3590              		@ frame_needed = 0, uses_anonymous_args = 0
 3591 0000 10B5     		push	{r4, lr}
 3592              		.cfi_def_cfa_offset 8
 3593              		.cfi_offset 4, -8
 3594              		.cfi_offset 14, -4
2854:.\Generated_Source\PSoC5/CyLib.c ****         uint32 i;
2855:.\Generated_Source\PSoC5/CyLib.c **** 
2856:.\Generated_Source\PSoC5/CyLib.c ****         /* Verify that tick timer flag was set */
2857:.\Generated_Source\PSoC5/CyLib.c ****         if (1u == CySysTickGetCountFlag())
 3595              		.loc 1 2857 0
 3596 0002 FFF7FEFF 		bl	CySysTickGetCountFlag
 3597              	.LVL211:
 3598 0006 0128     		cmp	r0, #1
 3599 0008 0BD1     		bne	.L356
 3600 000a 07E0     		b	.L361
 3601              	.LVL212:
 3602              	.L360:
2858:.\Generated_Source\PSoC5/CyLib.c ****         {
2859:.\Generated_Source\PSoC5/CyLib.c ****             for (i=0u; i < CY_SYS_SYST_NUM_OF_CALLBACKS; i++)
2860:.\Generated_Source\PSoC5/CyLib.c ****             {
2861:.\Generated_Source\PSoC5/CyLib.c ****                 if (CySysTickCallbacks[i] != (void *) 0)
 3603              		.loc 1 2861 0
 3604 000c 054B     		ldr	r3, .L363
 3605 000e 03EB8403 		add	r3, r3, r4, lsl #2
 3606 0012 5B68     		ldr	r3, [r3, #4]
 3607 0014 03B1     		cbz	r3, .L359
2862:.\Generated_Source\PSoC5/CyLib.c ****                 {
2863:.\Generated_Source\PSoC5/CyLib.c ****                     (void)(CySysTickCallbacks[i])();
 3608              		.loc 1 2863 0
 3609 0016 9847     		blx	r3
 3610              	.LVL213:
 3611              	.L359:
2859:.\Generated_Source\PSoC5/CyLib.c ****             {
 3612              		.loc 1 2859 0 discriminator 2
 3613 0018 0134     		adds	r4, r4, #1
 3614              	.LVL214:
 3615 001a 00E0     		b	.L357
 3616              	.LVL215:
 3617              	.L361:
 3618 001c 0024     		movs	r4, #0
 3619              	.L357:
 3620              	.LVL216:
2859:.\Generated_Source\PSoC5/CyLib.c ****             {
 3621              		.loc 1 2859 0 is_stmt 0 discriminator 1
 3622 001e 042C     		cmp	r4, #4
 3623 0020 F4D9     		bls	.L360
ARM GAS  C:\Users\student\AppData\Local\Temp\ccmWIiPR.s 			page 119


 3624              	.LVL217:
 3625              	.L356:
 3626 0022 10BD     		pop	{r4, pc}
 3627              	.L364:
 3628              		.align	2
 3629              	.L363:
 3630 0024 00000000 		.word	.LANCHOR1
 3631              		.cfi_endproc
 3632              	.LFE78:
 3633              		.size	CySysTickServiceCallbacks, .-CySysTickServiceCallbacks
 3634              		.section	.text.CySysTickClear,"ax",%progbits
 3635              		.align	2
 3636              		.global	CySysTickClear
 3637              		.thumb
 3638              		.thumb_func
 3639              		.type	CySysTickClear, %function
 3640              	CySysTickClear:
 3641              	.LFB75:
2781:.\Generated_Source\PSoC5/CyLib.c ****         CY_SYS_SYST_CVR_REG = 0u;
 3642              		.loc 1 2781 0 is_stmt 1
 3643              		.cfi_startproc
 3644              		@ args = 0, pretend = 0, frame = 0
 3645              		@ frame_needed = 0, uses_anonymous_args = 0
 3646              		@ link register save eliminated.
2782:.\Generated_Source\PSoC5/CyLib.c ****     }
 3647              		.loc 1 2782 0
 3648 0000 0022     		movs	r2, #0
 3649 0002 014B     		ldr	r3, .L366
 3650 0004 1A60     		str	r2, [r3]
 3651 0006 7047     		bx	lr
 3652              	.L367:
 3653              		.align	2
 3654              	.L366:
 3655 0008 18E000E0 		.word	-536813544
 3656              		.cfi_endproc
 3657              	.LFE75:
 3658              		.size	CySysTickClear, .-CySysTickClear
 3659              		.section	.text.CySysTickInit,"ax",%progbits
 3660              		.align	2
 3661              		.global	CySysTickInit
 3662              		.thumb
 3663              		.thumb_func
 3664              		.type	CySysTickInit, %function
 3665              	CySysTickInit:
 3666              	.LFB65:
2589:.\Generated_Source\PSoC5/CyLib.c ****         uint32 i;
 3667              		.loc 1 2589 0
 3668              		.cfi_startproc
 3669              		@ args = 0, pretend = 0, frame = 0
 3670              		@ frame_needed = 0, uses_anonymous_args = 0
 3671 0000 08B5     		push	{r3, lr}
 3672              		.cfi_def_cfa_offset 8
 3673              		.cfi_offset 3, -8
 3674              		.cfi_offset 14, -4
 3675              	.LVL218:
2592:.\Generated_Source\PSoC5/CyLib.c ****         {
 3676              		.loc 1 2592 0
ARM GAS  C:\Users\student\AppData\Local\Temp\ccmWIiPR.s 			page 120


 3677 0002 0023     		movs	r3, #0
 3678 0004 05E0     		b	.L369
 3679              	.LVL219:
 3680              	.L370:
2594:.\Generated_Source\PSoC5/CyLib.c ****         }
 3681              		.loc 1 2594 0 discriminator 3
 3682 0006 0F4A     		ldr	r2, .L372
 3683 0008 02EB8302 		add	r2, r2, r3, lsl #2
 3684 000c 0021     		movs	r1, #0
 3685 000e 5160     		str	r1, [r2, #4]
2592:.\Generated_Source\PSoC5/CyLib.c ****         {
 3686              		.loc 1 2592 0 discriminator 3
 3687 0010 0133     		adds	r3, r3, #1
 3688              	.LVL220:
 3689              	.L369:
2592:.\Generated_Source\PSoC5/CyLib.c ****         {
 3690              		.loc 1 2592 0 is_stmt 0 discriminator 1
 3691 0012 042B     		cmp	r3, #4
 3692 0014 F7D9     		bls	.L370
2597:.\Generated_Source\PSoC5/CyLib.c ****         CySysTickSetClockSource(CY_SYS_SYST_CSR_CLK_SRC_SYSCLK);
 3693              		.loc 1 2597 0 is_stmt 1
 3694 0016 0F20     		movs	r0, #15
 3695 0018 0B49     		ldr	r1, .L372+4
 3696 001a FFF7FEFF 		bl	CyIntSetSysVector
 3697              	.LVL221:
2598:.\Generated_Source\PSoC5/CyLib.c ****         CySysTickSetReload(cydelay_freq_hz/1000u);
 3698              		.loc 1 2598 0
 3699 001e 0120     		movs	r0, #1
 3700 0020 FFF7FEFF 		bl	CySysTickSetClockSource
 3701              	.LVL222:
2599:.\Generated_Source\PSoC5/CyLib.c ****         CySysTickClear();
 3702              		.loc 1 2599 0
 3703 0024 094B     		ldr	r3, .L372+8
 3704 0026 DB68     		ldr	r3, [r3, #12]
 3705 0028 0948     		ldr	r0, .L372+12
 3706 002a A0FB0330 		umull	r3, r0, r0, r3
 3707 002e 8009     		lsrs	r0, r0, #6
 3708 0030 FFF7FEFF 		bl	CySysTickSetReload
 3709              	.LVL223:
2600:.\Generated_Source\PSoC5/CyLib.c ****         CyIntEnable(CY_INT_SYSTICK_IRQN);
 3710              		.loc 1 2600 0
 3711 0034 FFF7FEFF 		bl	CySysTickClear
 3712              	.LVL224:
2601:.\Generated_Source\PSoC5/CyLib.c ****     }
 3713              		.loc 1 2601 0
 3714 0038 4FF40042 		mov	r2, #32768
 3715 003c 054B     		ldr	r3, .L372+16
 3716 003e 1A60     		str	r2, [r3]
 3717 0040 08BD     		pop	{r3, pc}
 3718              	.L373:
 3719 0042 00BF     		.align	2
 3720              	.L372:
 3721 0044 00000000 		.word	.LANCHOR1
 3722 0048 00000000 		.word	CySysTickServiceCallbacks
 3723 004c 00000000 		.word	.LANCHOR0
 3724 0050 D34D6210 		.word	274877907
 3725 0054 00E100E0 		.word	-536813312
ARM GAS  C:\Users\student\AppData\Local\Temp\ccmWIiPR.s 			page 121


 3726              		.cfi_endproc
 3727              	.LFE65:
 3728              		.size	CySysTickInit, .-CySysTickInit
 3729              		.section	.text.CySysTickStart,"ax",%progbits
 3730              		.align	2
 3731              		.global	CySysTickStart
 3732              		.thumb
 3733              		.thumb_func
 3734              		.type	CySysTickStart, %function
 3735              	CySysTickStart:
 3736              	.LFB64:
2560:.\Generated_Source\PSoC5/CyLib.c ****         if (0u == CySysTickInitVar)
 3737              		.loc 1 2560 0
 3738              		.cfi_startproc
 3739              		@ args = 0, pretend = 0, frame = 0
 3740              		@ frame_needed = 0, uses_anonymous_args = 0
 3741 0000 08B5     		push	{r3, lr}
 3742              		.cfi_def_cfa_offset 8
 3743              		.cfi_offset 3, -8
 3744              		.cfi_offset 14, -4
2561:.\Generated_Source\PSoC5/CyLib.c ****         {
 3745              		.loc 1 2561 0
 3746 0002 054B     		ldr	r3, .L377
 3747 0004 9B69     		ldr	r3, [r3, #24]
 3748 0006 23B9     		cbnz	r3, .L375
2563:.\Generated_Source\PSoC5/CyLib.c ****             CySysTickInitVar = 1u;
 3749              		.loc 1 2563 0
 3750 0008 FFF7FEFF 		bl	CySysTickInit
 3751              	.LVL225:
2564:.\Generated_Source\PSoC5/CyLib.c ****         }
 3752              		.loc 1 2564 0
 3753 000c 0122     		movs	r2, #1
 3754 000e 024B     		ldr	r3, .L377
 3755 0010 9A61     		str	r2, [r3, #24]
 3756              	.L375:
2567:.\Generated_Source\PSoC5/CyLib.c ****     }
 3757              		.loc 1 2567 0
 3758 0012 FFF7FEFF 		bl	CySysTickEnable
 3759              	.LVL226:
 3760 0016 08BD     		pop	{r3, pc}
 3761              	.L378:
 3762              		.align	2
 3763              	.L377:
 3764 0018 00000000 		.word	.LANCHOR1
 3765              		.cfi_endproc
 3766              	.LFE64:
 3767              		.size	CySysTickStart, .-CySysTickStart
 3768              		.section	.text.CySysTickSetCallback,"ax",%progbits
 3769              		.align	2
 3770              		.global	CySysTickSetCallback
 3771              		.thumb
 3772              		.thumb_func
 3773              		.type	CySysTickSetCallback, %function
 3774              	CySysTickSetCallback:
 3775              	.LFB76:
2816:.\Generated_Source\PSoC5/CyLib.c ****         cySysTickCallback retVal;
 3776              		.loc 1 2816 0
ARM GAS  C:\Users\student\AppData\Local\Temp\ccmWIiPR.s 			page 122


 3777              		.cfi_startproc
 3778              		@ args = 0, pretend = 0, frame = 0
 3779              		@ frame_needed = 0, uses_anonymous_args = 0
 3780              		@ link register save eliminated.
 3781              	.LVL227:
2819:.\Generated_Source\PSoC5/CyLib.c ****         CySysTickCallbacks[number] = function;
 3782              		.loc 1 2819 0
 3783 0000 024B     		ldr	r3, .L380
 3784 0002 03EB8003 		add	r3, r3, r0, lsl #2
 3785 0006 5868     		ldr	r0, [r3, #4]
 3786              	.LVL228:
2820:.\Generated_Source\PSoC5/CyLib.c ****         return (retVal);
 3787              		.loc 1 2820 0
 3788 0008 5960     		str	r1, [r3, #4]
2822:.\Generated_Source\PSoC5/CyLib.c **** 
 3789              		.loc 1 2822 0
 3790 000a 7047     		bx	lr
 3791              	.L381:
 3792              		.align	2
 3793              	.L380:
 3794 000c 00000000 		.word	.LANCHOR1
 3795              		.cfi_endproc
 3796              	.LFE76:
 3797              		.size	CySysTickSetCallback, .-CySysTickSetCallback
 3798              		.section	.text.CySysTickGetCallback,"ax",%progbits
 3799              		.align	2
 3800              		.global	CySysTickGetCallback
 3801              		.thumb
 3802              		.thumb_func
 3803              		.type	CySysTickGetCallback, %function
 3804              	CySysTickGetCallback:
 3805              	.LFB77:
2840:.\Generated_Source\PSoC5/CyLib.c ****         return ((cySysTickCallback) CySysTickCallbacks[number]);
 3806              		.loc 1 2840 0
 3807              		.cfi_startproc
 3808              		@ args = 0, pretend = 0, frame = 0
 3809              		@ frame_needed = 0, uses_anonymous_args = 0
 3810              		@ link register save eliminated.
 3811              	.LVL229:
2841:.\Generated_Source\PSoC5/CyLib.c ****     }
 3812              		.loc 1 2841 0
 3813 0000 024B     		ldr	r3, .L383
 3814 0002 03EB8000 		add	r0, r3, r0, lsl #2
 3815              	.LVL230:
2842:.\Generated_Source\PSoC5/CyLib.c **** 
 3816              		.loc 1 2842 0
 3817 0006 4068     		ldr	r0, [r0, #4]
 3818 0008 7047     		bx	lr
 3819              	.L384:
 3820 000a 00BF     		.align	2
 3821              	.L383:
 3822 000c 00000000 		.word	.LANCHOR1
 3823              		.cfi_endproc
 3824              	.LFE77:
 3825              		.size	CySysTickGetCallback, .-CySysTickGetCallback
 3826              		.section	.text.CyGetUniqueId,"ax",%progbits
 3827              		.align	2
ARM GAS  C:\Users\student\AppData\Local\Temp\ccmWIiPR.s 			page 123


 3828              		.global	CyGetUniqueId
 3829              		.thumb
 3830              		.thumb_func
 3831              		.type	CyGetUniqueId, %function
 3832              	CyGetUniqueId:
 3833              	.LFB79:
2864:.\Generated_Source\PSoC5/CyLib.c ****                 }
2865:.\Generated_Source\PSoC5/CyLib.c ****             }
2866:.\Generated_Source\PSoC5/CyLib.c ****         }
2867:.\Generated_Source\PSoC5/CyLib.c ****     }
2868:.\Generated_Source\PSoC5/CyLib.c **** #endif /* (CY_PSOC5) */
2869:.\Generated_Source\PSoC5/CyLib.c **** 
2870:.\Generated_Source\PSoC5/CyLib.c **** 
2871:.\Generated_Source\PSoC5/CyLib.c **** /*******************************************************************************
2872:.\Generated_Source\PSoC5/CyLib.c **** * Function Name: CyGetUniqueId
2873:.\Generated_Source\PSoC5/CyLib.c **** ****************************************************************************//**
2874:.\Generated_Source\PSoC5/CyLib.c **** *
2875:.\Generated_Source\PSoC5/CyLib.c **** *  Returns the 64-bit unique ID of the device. The uniqueness of the number is
2876:.\Generated_Source\PSoC5/CyLib.c **** *  guaranteed for 10 years due to the die lot number having a cycle life of 10
2877:.\Generated_Source\PSoC5/CyLib.c **** *  years and even after 10 years, the probability of getting two identical
2878:.\Generated_Source\PSoC5/CyLib.c **** *  numbers is very small.
2879:.\Generated_Source\PSoC5/CyLib.c **** *
2880:.\Generated_Source\PSoC5/CyLib.c **** *  \param uniqueId: The pointer to a two element 32-bit unsigned integer array. Returns
2881:.\Generated_Source\PSoC5/CyLib.c **** *  the 64-bit unique ID of the device by loading them into the integer array
2882:.\Generated_Source\PSoC5/CyLib.c **** *  pointed to by uniqueId.
2883:.\Generated_Source\PSoC5/CyLib.c **** *
2884:.\Generated_Source\PSoC5/CyLib.c **** *******************************************************************************/
2885:.\Generated_Source\PSoC5/CyLib.c **** void CyGetUniqueId(uint32* uniqueId)
2886:.\Generated_Source\PSoC5/CyLib.c **** {
 3834              		.loc 1 2886 0
 3835              		.cfi_startproc
 3836              		@ args = 0, pretend = 0, frame = 0
 3837              		@ frame_needed = 0, uses_anonymous_args = 0
 3838              		@ link register save eliminated.
 3839              	.LVL231:
2887:.\Generated_Source\PSoC5/CyLib.c **** #if(CY_PSOC4)
2888:.\Generated_Source\PSoC5/CyLib.c ****     uniqueId[0u]  =  (uint32)(* (reg8 *) CYREG_SFLASH_DIE_LOT0  );
2889:.\Generated_Source\PSoC5/CyLib.c ****     uniqueId[0u] |= ((uint32)(* (reg8 *) CYREG_SFLASH_DIE_LOT1  ) <<  8u);
2890:.\Generated_Source\PSoC5/CyLib.c ****     uniqueId[0u] |= ((uint32)(* (reg8 *) CYREG_SFLASH_DIE_LOT2  ) << 16u);
2891:.\Generated_Source\PSoC5/CyLib.c ****     uniqueId[0u] |= ((uint32)(* (reg8 *) CYREG_SFLASH_DIE_WAFER ) << 24u);
2892:.\Generated_Source\PSoC5/CyLib.c **** 
2893:.\Generated_Source\PSoC5/CyLib.c ****     uniqueId[1u]  =  (uint32)(* (reg8 *) CYREG_SFLASH_DIE_X     );
2894:.\Generated_Source\PSoC5/CyLib.c ****     uniqueId[1u] |= ((uint32)(* (reg8 *) CYREG_SFLASH_DIE_Y     ) <<  8u);
2895:.\Generated_Source\PSoC5/CyLib.c ****     uniqueId[1u] |= ((uint32)(* (reg8 *) CYREG_SFLASH_DIE_SORT  ) << 16u);
2896:.\Generated_Source\PSoC5/CyLib.c ****     uniqueId[1u] |= ((uint32)(* (reg8 *) CYREG_SFLASH_DIE_MINOR ) << 24u);
2897:.\Generated_Source\PSoC5/CyLib.c **** #else
2898:.\Generated_Source\PSoC5/CyLib.c ****     uniqueId[0u]  =  (uint32) CY_GET_XTND_REG8((void CYFAR *) (CYREG_FLSHID_CUST_TABLES_LOT_LSB   )
 3840              		.loc 1 2898 0
 3841 0000 134B     		ldr	r3, .L386
 3842 0002 1B78     		ldrb	r3, [r3]	@ zero_extendqisi2
 3843 0004 DBB2     		uxtb	r3, r3
 3844 0006 0360     		str	r3, [r0]
2899:.\Generated_Source\PSoC5/CyLib.c ****     uniqueId[0u] |= ((uint32) CY_GET_XTND_REG8((void CYFAR *) (CYREG_FLSHID_CUST_TABLES_LOT_MSB   )
 3845              		.loc 1 2899 0
 3846 0008 124A     		ldr	r2, .L386+4
 3847 000a 1278     		ldrb	r2, [r2]	@ zero_extendqisi2
 3848 000c 43EA0223 		orr	r3, r3, r2, lsl #8
ARM GAS  C:\Users\student\AppData\Local\Temp\ccmWIiPR.s 			page 124


 3849 0010 0360     		str	r3, [r0]
2900:.\Generated_Source\PSoC5/CyLib.c ****     uniqueId[0u] |= ((uint32) CY_GET_XTND_REG8((void CYFAR *) (CYREG_MLOGIC_REV_ID                )
 3850              		.loc 1 2900 0
 3851 0012 114A     		ldr	r2, .L386+8
 3852 0014 1278     		ldrb	r2, [r2]	@ zero_extendqisi2
 3853 0016 43EA0243 		orr	r3, r3, r2, lsl #16
 3854 001a 0360     		str	r3, [r0]
2901:.\Generated_Source\PSoC5/CyLib.c ****     uniqueId[0u] |= ((uint32) CY_GET_XTND_REG8((void CYFAR *) (CYREG_FLSHID_CUST_TABLES_WAFER_NUM )
 3855              		.loc 1 2901 0
 3856 001c 0F4A     		ldr	r2, .L386+12
 3857 001e 1278     		ldrb	r2, [r2]	@ zero_extendqisi2
 3858 0020 43EA0263 		orr	r3, r3, r2, lsl #24
 3859 0024 0360     		str	r3, [r0]
2902:.\Generated_Source\PSoC5/CyLib.c **** 
2903:.\Generated_Source\PSoC5/CyLib.c ****     uniqueId[1u]  =  (uint32) CY_GET_XTND_REG8((void CYFAR *) (CYREG_FLSHID_CUST_TABLES_X_LOC     )
 3860              		.loc 1 2903 0
 3861 0026 0E4B     		ldr	r3, .L386+16
 3862 0028 1B78     		ldrb	r3, [r3]	@ zero_extendqisi2
 3863 002a DBB2     		uxtb	r3, r3
 3864 002c 4360     		str	r3, [r0, #4]
2904:.\Generated_Source\PSoC5/CyLib.c ****     uniqueId[1u] |= ((uint32) CY_GET_XTND_REG8((void CYFAR *) (CYREG_FLSHID_CUST_TABLES_Y_LOC     )
 3865              		.loc 1 2904 0
 3866 002e 0D4A     		ldr	r2, .L386+20
 3867 0030 1278     		ldrb	r2, [r2]	@ zero_extendqisi2
 3868 0032 43EA0223 		orr	r3, r3, r2, lsl #8
 3869 0036 4360     		str	r3, [r0, #4]
2905:.\Generated_Source\PSoC5/CyLib.c ****     uniqueId[1u] |= ((uint32) CY_GET_XTND_REG8((void CYFAR *) (CYREG_FLSHID_CUST_TABLES_WRK_WK    )
 3870              		.loc 1 2905 0
 3871 0038 0B4A     		ldr	r2, .L386+24
 3872 003a 1278     		ldrb	r2, [r2]	@ zero_extendqisi2
 3873 003c 43EA0243 		orr	r3, r3, r2, lsl #16
 3874 0040 4360     		str	r3, [r0, #4]
2906:.\Generated_Source\PSoC5/CyLib.c ****     uniqueId[1u] |= ((uint32) CY_GET_XTND_REG8((void CYFAR *) (CYREG_FLSHID_CUST_TABLES_FAB_YR    )
 3875              		.loc 1 2906 0
 3876 0042 0A4A     		ldr	r2, .L386+28
 3877 0044 1278     		ldrb	r2, [r2]	@ zero_extendqisi2
 3878 0046 43EA0263 		orr	r3, r3, r2, lsl #24
 3879 004a 4360     		str	r3, [r0, #4]
 3880 004c 7047     		bx	lr
 3881              	.L387:
 3882 004e 00BF     		.align	2
 3883              	.L386:
 3884 0050 03010049 		.word	1224737027
 3885 0054 04010049 		.word	1224737028
 3886 0058 EC460040 		.word	1073759980
 3887 005c 02010049 		.word	1224737026
 3888 0060 01010049 		.word	1224737025
 3889 0064 00010049 		.word	1224737024
 3890 0068 05010049 		.word	1224737029
 3891 006c 06010049 		.word	1224737030
 3892              		.cfi_endproc
 3893              	.LFE79:
 3894              		.size	CyGetUniqueId, .-CyGetUniqueId
 3895              		.global	CySysTickInitVar
 3896              		.global	cydelay_32k_ms
 3897              		.global	cydelay_freq_mhz
 3898              		.global	cydelay_freq_khz
ARM GAS  C:\Users\student\AppData\Local\Temp\ccmWIiPR.s 			page 125


 3899              		.global	cydelay_freq_hz
 3900              		.global	CyResetStatus
 3901              		.data
 3902              		.align	2
 3903              		.set	.LANCHOR0,. + 0
 3904              		.type	cydelay_32k_ms, %object
 3905              		.size	cydelay_32k_ms, 4
 3906              	cydelay_32k_ms:
 3907 0000 0000E02E 		.word	786432000
 3908              		.type	cydelay_freq_khz, %object
 3909              		.size	cydelay_freq_khz, 4
 3910              	cydelay_freq_khz:
 3911 0004 C05D0000 		.word	24000
 3912              		.type	cydelay_freq_mhz, %object
 3913              		.size	cydelay_freq_mhz, 1
 3914              	cydelay_freq_mhz:
 3915 0008 18       		.byte	24
 3916 0009 000000   		.space	3
 3917              		.type	cydelay_freq_hz, %object
 3918              		.size	cydelay_freq_hz, 4
 3919              	cydelay_freq_hz:
 3920 000c 00366E01 		.word	24000000
 3921              		.section	.noinit,"aw",%progbits
 3922              		.type	CyResetStatus, %object
 3923              		.size	CyResetStatus, 1
 3924              	CyResetStatus:
 3925 0000 00       		.space	1
 3926              		.bss
 3927              		.align	2
 3928              		.set	.LANCHOR1,. + 0
 3929              		.type	interruptStatus.5078, %object
 3930              		.size	interruptStatus.5078, 1
 3931              	interruptStatus.5078:
 3932 0000 00       		.space	1
 3933 0001 000000   		.space	3
 3934              		.type	CySysTickCallbacks, %object
 3935              		.size	CySysTickCallbacks, 20
 3936              	CySysTickCallbacks:
 3937 0004 00000000 		.space	20
 3937      00000000 
 3937      00000000 
 3937      00000000 
 3937      00000000 
 3938              		.type	CySysTickInitVar, %object
 3939              		.size	CySysTickInitVar, 4
 3940              	CySysTickInitVar:
 3941 0018 00000000 		.space	4
 3942              		.text
 3943              	.Letext0:
 3944              		.file 2 ".\\Generated_Source\\PSoC5\\cytypes.h"
 3945              		.file 3 ".\\Generated_Source\\PSoC5\\CyLib.h"
 3946              		.file 4 ".\\Generated_Source\\PSoC5\\cyPm.h"
 3947              		.section	.debug_info,"",%progbits
 3948              	.Ldebug_info0:
 3949 0000 72130000 		.4byte	0x1372
 3950 0004 0400     		.2byte	0x4
 3951 0006 00000000 		.4byte	.Ldebug_abbrev0
ARM GAS  C:\Users\student\AppData\Local\Temp\ccmWIiPR.s 			page 126


 3952 000a 04       		.byte	0x4
 3953 000b 01       		.uleb128 0x1
 3954 000c 31020000 		.4byte	.LASF163
 3955 0010 01       		.byte	0x1
 3956 0011 E8070000 		.4byte	.LASF164
 3957 0015 C3000000 		.4byte	.LASF165
 3958 0019 00000000 		.4byte	.Ldebug_ranges0+0
 3959 001d 00000000 		.4byte	0
 3960 0021 00000000 		.4byte	.Ldebug_line0
 3961 0025 02       		.uleb128 0x2
 3962 0026 04       		.byte	0x4
 3963 0027 05       		.byte	0x5
 3964 0028 696E7400 		.ascii	"int\000"
 3965 002c 03       		.uleb128 0x3
 3966 002d 04       		.byte	0x4
 3967 002e 07       		.byte	0x7
 3968 002f 1A010000 		.4byte	.LASF0
 3969 0033 03       		.uleb128 0x3
 3970 0034 08       		.byte	0x8
 3971 0035 05       		.byte	0x5
 3972 0036 77050000 		.4byte	.LASF1
 3973 003a 03       		.uleb128 0x3
 3974 003b 08       		.byte	0x8
 3975 003c 04       		.byte	0x4
 3976 003d E8060000 		.4byte	.LASF2
 3977 0041 03       		.uleb128 0x3
 3978 0042 01       		.byte	0x1
 3979 0043 06       		.byte	0x6
 3980 0044 86090000 		.4byte	.LASF3
 3981 0048 03       		.uleb128 0x3
 3982 0049 01       		.byte	0x1
 3983 004a 08       		.byte	0x8
 3984 004b A8080000 		.4byte	.LASF4
 3985 004f 03       		.uleb128 0x3
 3986 0050 02       		.byte	0x2
 3987 0051 05       		.byte	0x5
 3988 0052 53070000 		.4byte	.LASF5
 3989 0056 03       		.uleb128 0x3
 3990 0057 02       		.byte	0x2
 3991 0058 07       		.byte	0x7
 3992 0059 92090000 		.4byte	.LASF6
 3993 005d 03       		.uleb128 0x3
 3994 005e 04       		.byte	0x4
 3995 005f 05       		.byte	0x5
 3996 0060 65070000 		.4byte	.LASF7
 3997 0064 03       		.uleb128 0x3
 3998 0065 04       		.byte	0x4
 3999 0066 07       		.byte	0x7
 4000 0067 39080000 		.4byte	.LASF8
 4001 006b 03       		.uleb128 0x3
 4002 006c 08       		.byte	0x8
 4003 006d 07       		.byte	0x7
 4004 006e 56030000 		.4byte	.LASF9
 4005 0072 03       		.uleb128 0x3
 4006 0073 04       		.byte	0x4
 4007 0074 07       		.byte	0x7
 4008 0075 30080000 		.4byte	.LASF10
ARM GAS  C:\Users\student\AppData\Local\Temp\ccmWIiPR.s 			page 127


 4009 0079 04       		.uleb128 0x4
 4010 007a 04       		.byte	0x4
 4011 007b 7F000000 		.4byte	0x7f
 4012 007f 05       		.uleb128 0x5
 4013 0080 03       		.uleb128 0x3
 4014 0081 01       		.byte	0x1
 4015 0082 08       		.byte	0x8
 4016 0083 BA040000 		.4byte	.LASF11
 4017 0087 06       		.uleb128 0x6
 4018 0088 E3090000 		.4byte	.LASF12
 4019 008c 02       		.byte	0x2
 4020 008d 9201     		.2byte	0x192
 4021 008f 48000000 		.4byte	0x48
 4022 0093 06       		.uleb128 0x6
 4023 0094 0B050000 		.4byte	.LASF13
 4024 0098 02       		.byte	0x2
 4025 0099 9301     		.2byte	0x193
 4026 009b 56000000 		.4byte	0x56
 4027 009f 06       		.uleb128 0x6
 4028 00a0 25060000 		.4byte	.LASF14
 4029 00a4 02       		.byte	0x2
 4030 00a5 9401     		.2byte	0x194
 4031 00a7 64000000 		.4byte	0x64
 4032 00ab 03       		.uleb128 0x3
 4033 00ac 04       		.byte	0x4
 4034 00ad 04       		.byte	0x4
 4035 00ae F6020000 		.4byte	.LASF15
 4036 00b2 03       		.uleb128 0x3
 4037 00b3 08       		.byte	0x8
 4038 00b4 04       		.byte	0x4
 4039 00b5 E9090000 		.4byte	.LASF16
 4040 00b9 06       		.uleb128 0x6
 4041 00ba 8B080000 		.4byte	.LASF17
 4042 00be 02       		.byte	0x2
 4043 00bf 3402     		.2byte	0x234
 4044 00c1 64000000 		.4byte	0x64
 4045 00c5 06       		.uleb128 0x6
 4046 00c6 6E010000 		.4byte	.LASF18
 4047 00ca 02       		.byte	0x2
 4048 00cb 3C02     		.2byte	0x23c
 4049 00cd D1000000 		.4byte	0xd1
 4050 00d1 07       		.uleb128 0x7
 4051 00d2 87000000 		.4byte	0x87
 4052 00d6 06       		.uleb128 0x6
 4053 00d7 85050000 		.4byte	.LASF19
 4054 00db 02       		.byte	0x2
 4055 00dc 3D02     		.2byte	0x23d
 4056 00de E2000000 		.4byte	0xe2
 4057 00e2 07       		.uleb128 0x7
 4058 00e3 93000000 		.4byte	0x93
 4059 00e7 06       		.uleb128 0x6
 4060 00e8 0F070000 		.4byte	.LASF20
 4061 00ec 02       		.byte	0x2
 4062 00ed 3E02     		.2byte	0x23e
 4063 00ef F3000000 		.4byte	0xf3
 4064 00f3 07       		.uleb128 0x7
 4065 00f4 9F000000 		.4byte	0x9f
ARM GAS  C:\Users\student\AppData\Local\Temp\ccmWIiPR.s 			page 128


 4066 00f8 06       		.uleb128 0x6
 4067 00f9 01060000 		.4byte	.LASF21
 4068 00fd 02       		.byte	0x2
 4069 00fe 4E02     		.2byte	0x24e
 4070 0100 79000000 		.4byte	0x79
 4071 0104 08       		.uleb128 0x8
 4072 0105 A8040000 		.4byte	.LASF22
 4073 0109 03       		.byte	0x3
 4074 010a AC       		.byte	0xac
 4075 010b 79000000 		.4byte	0x79
 4076 010f 09       		.uleb128 0x9
 4077 0110 70040000 		.4byte	.LASF166
 4078 0114 01       		.byte	0x1
 4079 0115 5501     		.2byte	0x155
 4080 0117 87000000 		.4byte	0x87
 4081 011b 00000000 		.4byte	.LFB6
 4082 011f 48000000 		.4byte	.LFE6-.LFB6
 4083 0123 01       		.uleb128 0x1
 4084 0124 9C       		.byte	0x9c
 4085 0125 3A010000 		.4byte	0x13a
 4086 0129 0A       		.uleb128 0xa
 4087 012a 12050000 		.4byte	.LASF32
 4088 012e 01       		.byte	0x1
 4089 012f 5701     		.2byte	0x157
 4090 0131 87000000 		.4byte	0x87
 4091 0135 00000000 		.4byte	.LLST0
 4092 0139 00       		.byte	0
 4093 013a 0B       		.uleb128 0xb
 4094 013b C7030000 		.4byte	.LASF81
 4095 013f 01       		.byte	0x1
 4096 0140 DC02     		.2byte	0x2dc
 4097 0142 00000000 		.4byte	.LFB14
 4098 0146 48000000 		.4byte	.LFE14-.LFB14
 4099 014a 01       		.uleb128 0x1
 4100 014b 9C       		.byte	0x9c
 4101 014c 61010000 		.4byte	0x161
 4102 0150 0C       		.uleb128 0xc
 4103 0151 5D070000 		.4byte	.LASF27
 4104 0155 01       		.byte	0x1
 4105 0156 DC02     		.2byte	0x2dc
 4106 0158 93000000 		.4byte	0x93
 4107 015c 1F000000 		.4byte	.LLST1
 4108 0160 00       		.byte	0
 4109 0161 0D       		.uleb128 0xd
 4110 0162 13030000 		.4byte	.LASF23
 4111 0166 01       		.byte	0x1
 4112 0167 9A       		.byte	0x9a
 4113 0168 00000000 		.4byte	.LFB1
 4114 016c 10000000 		.4byte	.LFE1-.LFB1
 4115 0170 01       		.uleb128 0x1
 4116 0171 9C       		.byte	0x9c
 4117 0172 0E       		.uleb128 0xe
 4118 0173 00040000 		.4byte	.LASF24
 4119 0177 01       		.byte	0x1
 4120 0178 4401     		.2byte	0x144
 4121 017a 00000000 		.4byte	.LFB5
 4122 017e 1C000000 		.4byte	.LFE5-.LFB5
ARM GAS  C:\Users\student\AppData\Local\Temp\ccmWIiPR.s 			page 129


 4123 0182 01       		.uleb128 0x1
 4124 0183 9C       		.byte	0x9c
 4125 0184 0E       		.uleb128 0xe
 4126 0185 BB010000 		.4byte	.LASF25
 4127 0189 01       		.byte	0x1
 4128 018a 8102     		.2byte	0x281
 4129 018c 00000000 		.4byte	.LFB10
 4130 0190 10000000 		.4byte	.LFE10-.LFB10
 4131 0194 01       		.uleb128 0x1
 4132 0195 9C       		.byte	0x9c
 4133 0196 0E       		.uleb128 0xe
 4134 0197 05010000 		.4byte	.LASF26
 4135 019b 01       		.byte	0x1
 4136 019c 8F02     		.2byte	0x28f
 4137 019e 00000000 		.4byte	.LFB11
 4138 01a2 10000000 		.4byte	.LFE11-.LFB11
 4139 01a6 01       		.uleb128 0x1
 4140 01a7 9C       		.byte	0x9c
 4141 01a8 0F       		.uleb128 0xf
 4142 01a9 B9060000 		.4byte	.LASF29
 4143 01ad 01       		.byte	0x1
 4144 01ae AD02     		.2byte	0x2ad
 4145 01b0 00000000 		.4byte	.LFB12
 4146 01b4 18000000 		.4byte	.LFE12-.LFB12
 4147 01b8 01       		.uleb128 0x1
 4148 01b9 9C       		.byte	0x9c
 4149 01ba CF010000 		.4byte	0x1cf
 4150 01be 0C       		.uleb128 0xc
 4151 01bf 14080000 		.4byte	.LASF28
 4152 01c3 01       		.byte	0x1
 4153 01c4 AD02     		.2byte	0x2ad
 4154 01c6 87000000 		.4byte	0x87
 4155 01ca 40000000 		.4byte	.LLST2
 4156 01ce 00       		.byte	0
 4157 01cf 0F       		.uleb128 0xf
 4158 01d0 FC020000 		.4byte	.LASF30
 4159 01d4 01       		.byte	0x1
 4160 01d5 CB02     		.2byte	0x2cb
 4161 01d7 00000000 		.4byte	.LFB13
 4162 01db 0C000000 		.4byte	.LFE13-.LFB13
 4163 01df 01       		.uleb128 0x1
 4164 01e0 9C       		.byte	0x9c
 4165 01e1 F4010000 		.4byte	0x1f4
 4166 01e5 10       		.uleb128 0x10
 4167 01e6 5D070000 		.4byte	.LASF27
 4168 01ea 01       		.byte	0x1
 4169 01eb CB02     		.2byte	0x2cb
 4170 01ed 87000000 		.4byte	0x87
 4171 01f1 01       		.uleb128 0x1
 4172 01f2 50       		.byte	0x50
 4173 01f3 00       		.byte	0
 4174 01f4 0F       		.uleb128 0xf
 4175 01f5 94080000 		.4byte	.LASF31
 4176 01f9 01       		.byte	0x1
 4177 01fa 0603     		.2byte	0x306
 4178 01fc 00000000 		.4byte	.LFB15
 4179 0200 70000000 		.4byte	.LFE15-.LFB15
ARM GAS  C:\Users\student\AppData\Local\Temp\ccmWIiPR.s 			page 130


 4180 0204 01       		.uleb128 0x1
 4181 0205 9C       		.byte	0x9c
 4182 0206 C7020000 		.4byte	0x2c7
 4183 020a 0C       		.uleb128 0xc
 4184 020b 5D070000 		.4byte	.LASF27
 4185 020f 01       		.byte	0x1
 4186 0210 0603     		.2byte	0x306
 4187 0212 93000000 		.4byte	0x93
 4188 0216 61000000 		.4byte	.LLST3
 4189 021a 0A       		.uleb128 0xa
 4190 021b 27010000 		.4byte	.LASF33
 4191 021f 01       		.byte	0x1
 4192 0220 0803     		.2byte	0x308
 4193 0222 87000000 		.4byte	0x87
 4194 0226 82000000 		.4byte	.LLST4
 4195 022a 0A       		.uleb128 0xa
 4196 022b 3A040000 		.4byte	.LASF34
 4197 022f 01       		.byte	0x1
 4198 0230 0903     		.2byte	0x309
 4199 0232 93000000 		.4byte	0x93
 4200 0236 95000000 		.4byte	.LLST5
 4201 023a 0A       		.uleb128 0xa
 4202 023b 5F010000 		.4byte	.LASF35
 4203 023f 01       		.byte	0x1
 4204 0240 0A03     		.2byte	0x30a
 4205 0242 87000000 		.4byte	0x87
 4206 0246 C2000000 		.4byte	.LLST6
 4207 024a 11       		.uleb128 0x11
 4208 024b 08000000 		.4byte	.LVL8
 4209 024f 26130000 		.4byte	0x1326
 4210 0253 12       		.uleb128 0x12
 4211 0254 2A000000 		.4byte	.LVL14
 4212 0258 CF010000 		.4byte	0x1cf
 4213 025c 66020000 		.4byte	0x266
 4214 0260 13       		.uleb128 0x13
 4215 0261 01       		.uleb128 0x1
 4216 0262 50       		.byte	0x50
 4217 0263 01       		.uleb128 0x1
 4218 0264 37       		.byte	0x37
 4219 0265 00       		.byte	0
 4220 0266 12       		.uleb128 0x12
 4221 0267 3C000000 		.4byte	.LVL15
 4222 026b 3A010000 		.4byte	0x13a
 4223 026f 7A020000 		.4byte	0x27a
 4224 0273 13       		.uleb128 0x13
 4225 0274 01       		.uleb128 0x1
 4226 0275 50       		.byte	0x50
 4227 0276 02       		.uleb128 0x2
 4228 0277 75       		.byte	0x75
 4229 0278 00       		.sleb128 0
 4230 0279 00       		.byte	0
 4231 027a 12       		.uleb128 0x12
 4232 027b 44000000 		.4byte	.LVL16
 4233 027f 3A010000 		.4byte	0x13a
 4234 0283 8E020000 		.4byte	0x28e
 4235 0287 13       		.uleb128 0x13
 4236 0288 01       		.uleb128 0x1
ARM GAS  C:\Users\student\AppData\Local\Temp\ccmWIiPR.s 			page 131


 4237 0289 50       		.byte	0x50
 4238 028a 02       		.uleb128 0x2
 4239 028b 75       		.byte	0x75
 4240 028c 00       		.sleb128 0
 4241 028d 00       		.byte	0
 4242 028e 12       		.uleb128 0x12
 4243 028f 54000000 		.4byte	.LVL17
 4244 0293 CF010000 		.4byte	0x1cf
 4245 0297 A2020000 		.4byte	0x2a2
 4246 029b 13       		.uleb128 0x13
 4247 029c 01       		.uleb128 0x1
 4248 029d 50       		.byte	0x50
 4249 029e 02       		.uleb128 0x2
 4250 029f 74       		.byte	0x74
 4251 02a0 00       		.sleb128 0
 4252 02a1 00       		.byte	0
 4253 02a2 12       		.uleb128 0x12
 4254 02a3 5C000000 		.4byte	.LVL19
 4255 02a7 3A010000 		.4byte	0x13a
 4256 02ab B6020000 		.4byte	0x2b6
 4257 02af 13       		.uleb128 0x13
 4258 02b0 01       		.uleb128 0x1
 4259 02b1 50       		.byte	0x50
 4260 02b2 02       		.uleb128 0x2
 4261 02b3 75       		.byte	0x75
 4262 02b4 00       		.sleb128 0
 4263 02b5 00       		.byte	0
 4264 02b6 14       		.uleb128 0x14
 4265 02b7 62000000 		.4byte	.LVL20
 4266 02bb 31130000 		.4byte	0x1331
 4267 02bf 13       		.uleb128 0x13
 4268 02c0 01       		.uleb128 0x1
 4269 02c1 50       		.byte	0x50
 4270 02c2 02       		.uleb128 0x2
 4271 02c3 76       		.byte	0x76
 4272 02c4 00       		.sleb128 0
 4273 02c5 00       		.byte	0
 4274 02c6 00       		.byte	0
 4275 02c7 0F       		.uleb128 0xf
 4276 02c8 F1080000 		.4byte	.LASF36
 4277 02cc 01       		.byte	0x1
 4278 02cd 6003     		.2byte	0x360
 4279 02cf 00000000 		.4byte	.LFB16
 4280 02d3 18000000 		.4byte	.LFE16-.LFB16
 4281 02d7 01       		.uleb128 0x1
 4282 02d8 9C       		.byte	0x9c
 4283 02d9 EE020000 		.4byte	0x2ee
 4284 02dd 0C       		.uleb128 0xc
 4285 02de 14080000 		.4byte	.LASF28
 4286 02e2 01       		.byte	0x1
 4287 02e3 6003     		.2byte	0x360
 4288 02e5 87000000 		.4byte	0x87
 4289 02e9 D5000000 		.4byte	.LLST7
 4290 02ed 00       		.byte	0
 4291 02ee 0E       		.uleb128 0xe
 4292 02ef 5D040000 		.4byte	.LASF37
 4293 02f3 01       		.byte	0x1
ARM GAS  C:\Users\student\AppData\Local\Temp\ccmWIiPR.s 			page 132


 4294 02f4 7203     		.2byte	0x372
 4295 02f6 00000000 		.4byte	.LFB17
 4296 02fa 10000000 		.4byte	.LFE17-.LFB17
 4297 02fe 01       		.uleb128 0x1
 4298 02ff 9C       		.byte	0x9c
 4299 0300 0E       		.uleb128 0xe
 4300 0301 85010000 		.4byte	.LASF38
 4301 0305 01       		.byte	0x1
 4302 0306 8703     		.2byte	0x387
 4303 0308 00000000 		.4byte	.LFB18
 4304 030c 10000000 		.4byte	.LFE18-.LFB18
 4305 0310 01       		.uleb128 0x1
 4306 0311 9C       		.byte	0x9c
 4307 0312 0E       		.uleb128 0xe
 4308 0313 CF060000 		.4byte	.LASF39
 4309 0317 01       		.byte	0x1
 4310 0318 9503     		.2byte	0x395
 4311 031a 00000000 		.4byte	.LFB19
 4312 031e 10000000 		.4byte	.LFE19-.LFB19
 4313 0322 01       		.uleb128 0x1
 4314 0323 9C       		.byte	0x9c
 4315 0324 0E       		.uleb128 0xe
 4316 0325 27090000 		.4byte	.LASF40
 4317 0329 01       		.byte	0x1
 4318 032a A203     		.2byte	0x3a2
 4319 032c 00000000 		.4byte	.LFB20
 4320 0330 10000000 		.4byte	.LFE20-.LFB20
 4321 0334 01       		.uleb128 0x1
 4322 0335 9C       		.byte	0x9c
 4323 0336 15       		.uleb128 0x15
 4324 0337 E3040000 		.4byte	.LASF53
 4325 033b 01       		.byte	0x1
 4326 033c 61       		.byte	0x61
 4327 033d B9000000 		.4byte	0xb9
 4328 0341 00000000 		.4byte	.LFB0
 4329 0345 78000000 		.4byte	.LFE0-.LFB0
 4330 0349 01       		.uleb128 0x1
 4331 034a 9C       		.byte	0x9c
 4332 034b CA030000 		.4byte	0x3ca
 4333 034f 16       		.uleb128 0x16
 4334 0350 A2060000 		.4byte	.LASF41
 4335 0354 01       		.byte	0x1
 4336 0355 61       		.byte	0x61
 4337 0356 87000000 		.4byte	0x87
 4338 035a F6000000 		.4byte	.LLST8
 4339 035e 17       		.uleb128 0x17
 4340 035f 2B050000 		.4byte	.LASF42
 4341 0363 01       		.byte	0x1
 4342 0364 63       		.byte	0x63
 4343 0365 B9000000 		.4byte	0xb9
 4344 0369 30010000 		.4byte	.LLST9
 4345 036d 17       		.uleb128 0x17
 4346 036e F0090000 		.4byte	.LASF43
 4347 0372 01       		.byte	0x1
 4348 0373 65       		.byte	0x65
 4349 0374 87000000 		.4byte	0x87
 4350 0378 7D010000 		.4byte	.LLST10
ARM GAS  C:\Users\student\AppData\Local\Temp\ccmWIiPR.s 			page 133


 4351 037c 17       		.uleb128 0x17
 4352 037d F3050000 		.4byte	.LASF44
 4353 0381 01       		.byte	0x1
 4354 0382 66       		.byte	0x66
 4355 0383 87000000 		.4byte	0x87
 4356 0387 90010000 		.4byte	.LLST11
 4357 038b 17       		.uleb128 0x17
 4358 038c C6070000 		.4byte	.LASF45
 4359 0390 01       		.byte	0x1
 4360 0391 67       		.byte	0x67
 4361 0392 87000000 		.4byte	0x87
 4362 0396 A3010000 		.4byte	.LLST12
 4363 039a 12       		.uleb128 0x12
 4364 039b 2A000000 		.4byte	.LVL30
 4365 039f 42130000 		.4byte	0x1342
 4366 03a3 AD030000 		.4byte	0x3ad
 4367 03a7 13       		.uleb128 0x13
 4368 03a8 01       		.uleb128 0x1
 4369 03a9 50       		.byte	0x50
 4370 03aa 01       		.uleb128 0x1
 4371 03ab 48       		.byte	0x48
 4372 03ac 00       		.byte	0
 4373 03ad 12       		.uleb128 0x12
 4374 03ae 46000000 		.4byte	.LVL31
 4375 03b2 53130000 		.4byte	0x1353
 4376 03b6 C0030000 		.4byte	0x3c0
 4377 03ba 13       		.uleb128 0x13
 4378 03bb 01       		.uleb128 0x1
 4379 03bc 50       		.byte	0x50
 4380 03bd 01       		.uleb128 0x1
 4381 03be 31       		.byte	0x31
 4382 03bf 00       		.byte	0
 4383 03c0 11       		.uleb128 0x11
 4384 03c1 58000000 		.4byte	.LVL33
 4385 03c5 24030000 		.4byte	0x324
 4386 03c9 00       		.byte	0
 4387 03ca 0F       		.uleb128 0xf
 4388 03cb AF050000 		.4byte	.LASF46
 4389 03cf 01       		.byte	0x1
 4390 03d0 1A01     		.2byte	0x11a
 4391 03d2 00000000 		.4byte	.LFB4
 4392 03d6 60000000 		.4byte	.LFE4-.LFB4
 4393 03da 01       		.uleb128 0x1
 4394 03db 9C       		.byte	0x9c
 4395 03dc 50040000 		.4byte	0x450
 4396 03e0 0C       		.uleb128 0xc
 4397 03e1 A2060000 		.4byte	.LASF41
 4398 03e5 01       		.byte	0x1
 4399 03e6 1A01     		.2byte	0x11a
 4400 03e8 87000000 		.4byte	0x87
 4401 03ec B6010000 		.4byte	.LLST13
 4402 03f0 0A       		.uleb128 0xa
 4403 03f1 190A0000 		.4byte	.LASF47
 4404 03f5 01       		.byte	0x1
 4405 03f6 1C01     		.2byte	0x11c
 4406 03f8 87000000 		.4byte	0x87
 4407 03fc E2010000 		.4byte	.LLST14
ARM GAS  C:\Users\student\AppData\Local\Temp\ccmWIiPR.s 			page 134


 4408 0400 0A       		.uleb128 0xa
 4409 0401 A5090000 		.4byte	.LASF48
 4410 0405 01       		.byte	0x1
 4411 0406 1D01     		.2byte	0x11d
 4412 0408 87000000 		.4byte	0x87
 4413 040c F5010000 		.4byte	.LLST15
 4414 0410 0A       		.uleb128 0xa
 4415 0411 6B080000 		.4byte	.LASF49
 4416 0415 01       		.byte	0x1
 4417 0416 1E01     		.2byte	0x11e
 4418 0418 87000000 		.4byte	0x87
 4419 041c 08020000 		.4byte	.LLST16
 4420 0420 12       		.uleb128 0x12
 4421 0421 34000000 		.4byte	.LVL42
 4422 0425 42130000 		.4byte	0x1342
 4423 0429 33040000 		.4byte	0x433
 4424 042d 13       		.uleb128 0x13
 4425 042e 01       		.uleb128 0x1
 4426 042f 50       		.byte	0x50
 4427 0430 01       		.uleb128 0x1
 4428 0431 30       		.byte	0x30
 4429 0432 00       		.byte	0
 4430 0433 12       		.uleb128 0x12
 4431 0434 3A000000 		.4byte	.LVL43
 4432 0438 53130000 		.4byte	0x1353
 4433 043c 46040000 		.4byte	0x446
 4434 0440 13       		.uleb128 0x13
 4435 0441 01       		.uleb128 0x1
 4436 0442 50       		.byte	0x50
 4437 0443 01       		.uleb128 0x1
 4438 0444 31       		.byte	0x31
 4439 0445 00       		.byte	0
 4440 0446 11       		.uleb128 0x11
 4441 0447 46000000 		.4byte	.LVL44
 4442 044b 24030000 		.4byte	0x324
 4443 044f 00       		.byte	0
 4444 0450 0E       		.uleb128 0xe
 4445 0451 D3090000 		.4byte	.LASF50
 4446 0455 01       		.byte	0x1
 4447 0456 B203     		.2byte	0x3b2
 4448 0458 00000000 		.4byte	.LFB21
 4449 045c 10000000 		.4byte	.LFE21-.LFB21
 4450 0460 01       		.uleb128 0x1
 4451 0461 9C       		.byte	0x9c
 4452 0462 0E       		.uleb128 0xe
 4453 0463 96000000 		.4byte	.LASF51
 4454 0467 01       		.byte	0x1
 4455 0468 C303     		.2byte	0x3c3
 4456 046a 00000000 		.4byte	.LFB22
 4457 046e 10000000 		.4byte	.LFE22-.LFB22
 4458 0472 01       		.uleb128 0x1
 4459 0473 9C       		.byte	0x9c
 4460 0474 0F       		.uleb128 0xf
 4461 0475 67050000 		.4byte	.LASF52
 4462 0479 01       		.byte	0x1
 4463 047a D603     		.2byte	0x3d6
 4464 047c 00000000 		.4byte	.LFB23
ARM GAS  C:\Users\student\AppData\Local\Temp\ccmWIiPR.s 			page 135


 4465 0480 16000000 		.4byte	.LFE23-.LFB23
 4466 0484 01       		.uleb128 0x1
 4467 0485 9C       		.byte	0x9c
 4468 0486 9B040000 		.4byte	0x49b
 4469 048a 0C       		.uleb128 0xc
 4470 048b 14080000 		.4byte	.LASF28
 4471 048f 01       		.byte	0x1
 4472 0490 D603     		.2byte	0x3d6
 4473 0492 87000000 		.4byte	0x87
 4474 0496 1B020000 		.4byte	.LLST17
 4475 049a 00       		.byte	0
 4476 049b 18       		.uleb128 0x18
 4477 049c BB050000 		.4byte	.LASF54
 4478 04a0 01       		.byte	0x1
 4479 04a1 EB03     		.2byte	0x3eb
 4480 04a3 87000000 		.4byte	0x87
 4481 04a7 00000000 		.4byte	.LFB24
 4482 04ab 24000000 		.4byte	.LFE24-.LFB24
 4483 04af 01       		.uleb128 0x1
 4484 04b0 9C       		.byte	0x9c
 4485 04b1 D4040000 		.4byte	0x4d4
 4486 04b5 0C       		.uleb128 0xc
 4487 04b6 A5010000 		.4byte	.LASF55
 4488 04ba 01       		.byte	0x1
 4489 04bb EB03     		.2byte	0x3eb
 4490 04bd 87000000 		.4byte	0x87
 4491 04c1 3C020000 		.4byte	.LLST18
 4492 04c5 19       		.uleb128 0x19
 4493 04c6 04090000 		.4byte	.LASF56
 4494 04ca 01       		.byte	0x1
 4495 04cb ED03     		.2byte	0x3ed
 4496 04cd 87000000 		.4byte	0x87
 4497 04d1 01       		.uleb128 0x1
 4498 04d2 53       		.byte	0x53
 4499 04d3 00       		.byte	0
 4500 04d4 0E       		.uleb128 0xe
 4501 04d5 A7060000 		.4byte	.LASF57
 4502 04d9 01       		.byte	0x1
 4503 04da 2D04     		.2byte	0x42d
 4504 04dc 00000000 		.4byte	.LFB26
 4505 04e0 30000000 		.4byte	.LFE26-.LFB26
 4506 04e4 01       		.uleb128 0x1
 4507 04e5 9C       		.byte	0x9c
 4508 04e6 1A       		.uleb128 0x1a
 4509 04e7 67060000 		.4byte	.LASF66
 4510 04eb 01       		.byte	0x1
 4511 04ec 4804     		.2byte	0x448
 4512 04ee 87000000 		.4byte	0x87
 4513 04f2 00000000 		.4byte	.LFB27
 4514 04f6 10000000 		.4byte	.LFE27-.LFB27
 4515 04fa 01       		.uleb128 0x1
 4516 04fb 9C       		.byte	0x9c
 4517 04fc 18       		.uleb128 0x18
 4518 04fd 87030000 		.4byte	.LASF58
 4519 0501 01       		.byte	0x1
 4520 0502 9E04     		.2byte	0x49e
 4521 0504 B9000000 		.4byte	0xb9
ARM GAS  C:\Users\student\AppData\Local\Temp\ccmWIiPR.s 			page 136


 4522 0508 00000000 		.4byte	.LFB29
 4523 050c AC000000 		.4byte	.LFE29-.LFB29
 4524 0510 01       		.uleb128 0x1
 4525 0511 9C       		.byte	0x9c
 4526 0512 B4050000 		.4byte	0x5b4
 4527 0516 0C       		.uleb128 0xc
 4528 0517 A2060000 		.4byte	.LASF41
 4529 051b 01       		.byte	0x1
 4530 051c 9E04     		.2byte	0x49e
 4531 051e 87000000 		.4byte	0x87
 4532 0522 5D020000 		.4byte	.LLST19
 4533 0526 0A       		.uleb128 0xa
 4534 0527 2B050000 		.4byte	.LASF42
 4535 052b 01       		.byte	0x1
 4536 052c A004     		.2byte	0x4a0
 4537 052e B9000000 		.4byte	0xb9
 4538 0532 97020000 		.4byte	.LLST20
 4539 0536 19       		.uleb128 0x19
 4540 0537 DC080000 		.4byte	.LASF59
 4541 053b 01       		.byte	0x1
 4542 053c A104     		.2byte	0x4a1
 4543 053e D1000000 		.4byte	0xd1
 4544 0542 02       		.uleb128 0x2
 4545 0543 91       		.byte	0x91
 4546 0544 67       		.sleb128 -25
 4547 0545 19       		.uleb128 0x19
 4548 0546 35030000 		.4byte	.LASF60
 4549 054a 01       		.byte	0x1
 4550 054b A204     		.2byte	0x4a2
 4551 054d D1000000 		.4byte	0xd1
 4552 0551 02       		.uleb128 0x2
 4553 0552 91       		.byte	0x91
 4554 0553 66       		.sleb128 -26
 4555 0554 0A       		.uleb128 0xa
 4556 0555 F0090000 		.4byte	.LASF43
 4557 0559 01       		.byte	0x1
 4558 055a A304     		.2byte	0x4a3
 4559 055c 87000000 		.4byte	0x87
 4560 0560 E4020000 		.4byte	.LLST21
 4561 0564 0A       		.uleb128 0xa
 4562 0565 B7000000 		.4byte	.LASF61
 4563 0569 01       		.byte	0x1
 4564 056a A404     		.2byte	0x4a4
 4565 056c 87000000 		.4byte	0x87
 4566 0570 F7020000 		.4byte	.LLST22
 4567 0574 0A       		.uleb128 0xa
 4568 0575 EA020000 		.4byte	.LASF62
 4569 0579 01       		.byte	0x1
 4570 057a A504     		.2byte	0x4a5
 4571 057c 87000000 		.4byte	0x87
 4572 0580 0A030000 		.4byte	.LLST23
 4573 0584 12       		.uleb128 0x12
 4574 0585 2E000000 		.4byte	.LVL57
 4575 0589 42130000 		.4byte	0x1342
 4576 058d 97050000 		.4byte	0x597
 4577 0591 13       		.uleb128 0x13
 4578 0592 01       		.uleb128 0x1
ARM GAS  C:\Users\student\AppData\Local\Temp\ccmWIiPR.s 			page 137


 4579 0593 50       		.byte	0x50
 4580 0594 01       		.uleb128 0x1
 4581 0595 48       		.byte	0x48
 4582 0596 00       		.byte	0
 4583 0597 12       		.uleb128 0x12
 4584 0598 42000000 		.4byte	.LVL58
 4585 059c 53130000 		.4byte	0x1353
 4586 05a0 AA050000 		.4byte	0x5aa
 4587 05a4 13       		.uleb128 0x13
 4588 05a5 01       		.uleb128 0x1
 4589 05a6 50       		.byte	0x50
 4590 05a7 01       		.uleb128 0x1
 4591 05a8 31       		.byte	0x31
 4592 05a9 00       		.byte	0
 4593 05aa 11       		.uleb128 0x11
 4594 05ab 8E000000 		.4byte	.LVL60
 4595 05af 24030000 		.4byte	0x324
 4596 05b3 00       		.byte	0
 4597 05b4 0E       		.uleb128 0xe
 4598 05b5 FC010000 		.4byte	.LASF63
 4599 05b9 01       		.byte	0x1
 4600 05ba E704     		.2byte	0x4e7
 4601 05bc 00000000 		.4byte	.LFB30
 4602 05c0 10000000 		.4byte	.LFE30-.LFB30
 4603 05c4 01       		.uleb128 0x1
 4604 05c5 9C       		.byte	0x9c
 4605 05c6 0E       		.uleb128 0xe
 4606 05c7 0E060000 		.4byte	.LASF64
 4607 05cb 01       		.byte	0x1
 4608 05cc F604     		.2byte	0x4f6
 4609 05ce 00000000 		.4byte	.LFB31
 4610 05d2 10000000 		.4byte	.LFE31-.LFB31
 4611 05d6 01       		.uleb128 0x1
 4612 05d7 9C       		.byte	0x9c
 4613 05d8 0E       		.uleb128 0xe
 4614 05d9 34010000 		.4byte	.LASF65
 4615 05dd 01       		.byte	0x1
 4616 05de 0505     		.2byte	0x505
 4617 05e0 00000000 		.4byte	.LFB32
 4618 05e4 10000000 		.4byte	.LFE32-.LFB32
 4619 05e8 01       		.uleb128 0x1
 4620 05e9 9C       		.byte	0x9c
 4621 05ea 1A       		.uleb128 0x1a
 4622 05eb 4A000000 		.4byte	.LASF67
 4623 05ef 01       		.byte	0x1
 4624 05f0 1905     		.2byte	0x519
 4625 05f2 87000000 		.4byte	0x87
 4626 05f6 00000000 		.4byte	.LFB33
 4627 05fa 18000000 		.4byte	.LFE33-.LFB33
 4628 05fe 01       		.uleb128 0x1
 4629 05ff 9C       		.byte	0x9c
 4630 0600 0E       		.uleb128 0xe
 4631 0601 36090000 		.4byte	.LASF68
 4632 0605 01       		.byte	0x1
 4633 0606 2D05     		.2byte	0x52d
 4634 0608 00000000 		.4byte	.LFB34
 4635 060c 10000000 		.4byte	.LFE34-.LFB34
ARM GAS  C:\Users\student\AppData\Local\Temp\ccmWIiPR.s 			page 138


 4636 0610 01       		.uleb128 0x1
 4637 0611 9C       		.byte	0x9c
 4638 0612 0E       		.uleb128 0xe
 4639 0613 15020000 		.4byte	.LASF69
 4640 0617 01       		.byte	0x1
 4641 0618 3C05     		.2byte	0x53c
 4642 061a 00000000 		.4byte	.LFB35
 4643 061e 10000000 		.4byte	.LFE35-.LFB35
 4644 0622 01       		.uleb128 0x1
 4645 0623 9C       		.byte	0x9c
 4646 0624 0F       		.uleb128 0xf
 4647 0625 73010000 		.4byte	.LASF70
 4648 0629 01       		.byte	0x1
 4649 062a 5105     		.2byte	0x551
 4650 062c 00000000 		.4byte	.LFB36
 4651 0630 18000000 		.4byte	.LFE36-.LFB36
 4652 0634 01       		.uleb128 0x1
 4653 0635 9C       		.byte	0x9c
 4654 0636 4B060000 		.4byte	0x64b
 4655 063a 0C       		.uleb128 0xc
 4656 063b E2020000 		.4byte	.LASF71
 4657 063f 01       		.byte	0x1
 4658 0640 5105     		.2byte	0x551
 4659 0642 87000000 		.4byte	0x87
 4660 0646 1D030000 		.4byte	.LLST24
 4661 064a 00       		.byte	0
 4662 064b 0F       		.uleb128 0xf
 4663 064c 51090000 		.4byte	.LASF72
 4664 0650 01       		.byte	0x1
 4665 0651 6405     		.2byte	0x564
 4666 0653 00000000 		.4byte	.LFB37
 4667 0657 18000000 		.4byte	.LFE37-.LFB37
 4668 065b 01       		.uleb128 0x1
 4669 065c 9C       		.byte	0x9c
 4670 065d 72060000 		.4byte	0x672
 4671 0661 0C       		.uleb128 0xc
 4672 0662 E2020000 		.4byte	.LASF71
 4673 0666 01       		.byte	0x1
 4674 0667 6405     		.2byte	0x564
 4675 0669 87000000 		.4byte	0x87
 4676 066d 3E030000 		.4byte	.LLST25
 4677 0671 00       		.byte	0
 4678 0672 0F       		.uleb128 0xf
 4679 0673 9B050000 		.4byte	.LASF73
 4680 0677 01       		.byte	0x1
 4681 0678 7605     		.2byte	0x576
 4682 067a 00000000 		.4byte	.LFB38
 4683 067e 18000000 		.4byte	.LFE38-.LFB38
 4684 0682 01       		.uleb128 0x1
 4685 0683 9C       		.byte	0x9c
 4686 0684 99060000 		.4byte	0x699
 4687 0688 0C       		.uleb128 0xc
 4688 0689 E2020000 		.4byte	.LASF71
 4689 068d 01       		.byte	0x1
 4690 068e 7605     		.2byte	0x576
 4691 0690 87000000 		.4byte	0x87
 4692 0694 5F030000 		.4byte	.LLST26
ARM GAS  C:\Users\student\AppData\Local\Temp\ccmWIiPR.s 			page 139


 4693 0698 00       		.byte	0
 4694 0699 0F       		.uleb128 0xf
 4695 069a 58010000 		.4byte	.LASF74
 4696 069e 01       		.byte	0x1
 4697 069f 8605     		.2byte	0x586
 4698 06a1 00000000 		.4byte	.LFB39
 4699 06a5 04000000 		.4byte	.LFE39-.LFB39
 4700 06a9 01       		.uleb128 0x1
 4701 06aa 9C       		.byte	0x9c
 4702 06ab BE060000 		.4byte	0x6be
 4703 06af 10       		.uleb128 0x10
 4704 06b0 6D030000 		.4byte	.LASF75
 4705 06b4 01       		.byte	0x1
 4706 06b5 8605     		.2byte	0x586
 4707 06b7 87000000 		.4byte	0x87
 4708 06bb 01       		.uleb128 0x1
 4709 06bc 50       		.byte	0x50
 4710 06bd 00       		.byte	0
 4711 06be 1B       		.uleb128 0x1b
 4712 06bf A7000000 		.4byte	.LASF76
 4713 06c3 01       		.byte	0x1
 4714 06c4 BB       		.byte	0xbb
 4715 06c5 00000000 		.4byte	.LFB2
 4716 06c9 60000000 		.4byte	.LFE2-.LFB2
 4717 06cd 01       		.uleb128 0x1
 4718 06ce 9C       		.byte	0x9c
 4719 06cf 23070000 		.4byte	0x723
 4720 06d3 16       		.uleb128 0x16
 4721 06d4 CF010000 		.4byte	.LASF77
 4722 06d8 01       		.byte	0x1
 4723 06d9 BB       		.byte	0xbb
 4724 06da 87000000 		.4byte	0x87
 4725 06de 80030000 		.4byte	.LLST27
 4726 06e2 16       		.uleb128 0x16
 4727 06e3 09080000 		.4byte	.LASF78
 4728 06e7 01       		.byte	0x1
 4729 06e8 BB       		.byte	0xbb
 4730 06e9 87000000 		.4byte	0x87
 4731 06ed A1030000 		.4byte	.LLST28
 4732 06f1 16       		.uleb128 0x16
 4733 06f2 CB090000 		.4byte	.LASF79
 4734 06f6 01       		.byte	0x1
 4735 06f7 BB       		.byte	0xbb
 4736 06f8 87000000 		.4byte	0x87
 4737 06fc C2030000 		.4byte	.LLST29
 4738 0700 12       		.uleb128 0x12
 4739 0701 18000000 		.4byte	.LVL73
 4740 0705 99060000 		.4byte	0x699
 4741 0709 13070000 		.4byte	0x713
 4742 070d 13       		.uleb128 0x13
 4743 070e 01       		.uleb128 0x1
 4744 070f 50       		.byte	0x50
 4745 0710 01       		.uleb128 0x1
 4746 0711 30       		.byte	0x30
 4747 0712 00       		.byte	0
 4748 0713 14       		.uleb128 0x14
 4749 0714 50000000 		.4byte	.LVL74
ARM GAS  C:\Users\student\AppData\Local\Temp\ccmWIiPR.s 			page 140


 4750 0718 99060000 		.4byte	0x699
 4751 071c 13       		.uleb128 0x13
 4752 071d 01       		.uleb128 0x1
 4753 071e 50       		.byte	0x50
 4754 071f 01       		.uleb128 0x1
 4755 0720 30       		.byte	0x30
 4756 0721 00       		.byte	0
 4757 0722 00       		.byte	0
 4758 0723 1B       		.uleb128 0x1b
 4759 0724 2C070000 		.4byte	.LASF80
 4760 0728 01       		.byte	0x1
 4761 0729 ED       		.byte	0xed
 4762 072a 00000000 		.4byte	.LFB3
 4763 072e 34000000 		.4byte	.LFE3-.LFB3
 4764 0732 01       		.uleb128 0x1
 4765 0733 9C       		.byte	0x9c
 4766 0734 6A070000 		.4byte	0x76a
 4767 0738 16       		.uleb128 0x16
 4768 0739 14080000 		.4byte	.LASF28
 4769 073d 01       		.byte	0x1
 4770 073e ED       		.byte	0xed
 4771 073f 87000000 		.4byte	0x87
 4772 0743 E3030000 		.4byte	.LLST30
 4773 0747 12       		.uleb128 0x12
 4774 0748 14000000 		.4byte	.LVL77
 4775 074c 99060000 		.4byte	0x699
 4776 0750 5A070000 		.4byte	0x75a
 4777 0754 13       		.uleb128 0x13
 4778 0755 01       		.uleb128 0x1
 4779 0756 50       		.byte	0x50
 4780 0757 01       		.uleb128 0x1
 4781 0758 30       		.byte	0x30
 4782 0759 00       		.byte	0
 4783 075a 14       		.uleb128 0x14
 4784 075b 2E000000 		.4byte	.LVL78
 4785 075f 99060000 		.4byte	0x699
 4786 0763 13       		.uleb128 0x13
 4787 0764 01       		.uleb128 0x1
 4788 0765 50       		.byte	0x50
 4789 0766 01       		.uleb128 0x1
 4790 0767 30       		.byte	0x30
 4791 0768 00       		.byte	0
 4792 0769 00       		.byte	0
 4793 076a 0B       		.uleb128 0xb
 4794 076b 37000000 		.4byte	.LASF82
 4795 076f 01       		.byte	0x1
 4796 0770 6F01     		.2byte	0x16f
 4797 0772 00000000 		.4byte	.LFB7
 4798 0776 CC000000 		.4byte	.LFE7-.LFB7
 4799 077a 01       		.uleb128 0x1
 4800 077b 9C       		.byte	0x9c
 4801 077c B9070000 		.4byte	0x7b9
 4802 0780 0C       		.uleb128 0xc
 4803 0781 6B040000 		.4byte	.LASF83
 4804 0785 01       		.byte	0x1
 4805 0786 6F01     		.2byte	0x16f
 4806 0788 87000000 		.4byte	0x87
ARM GAS  C:\Users\student\AppData\Local\Temp\ccmWIiPR.s 			page 141


 4807 078c 04040000 		.4byte	.LLST31
 4808 0790 0A       		.uleb128 0xa
 4809 0791 21070000 		.4byte	.LASF84
 4810 0795 01       		.byte	0x1
 4811 0796 7101     		.2byte	0x171
 4812 0798 87000000 		.4byte	0x87
 4813 079c 25040000 		.4byte	.LLST32
 4814 07a0 11       		.uleb128 0x11
 4815 07a1 08000000 		.4byte	.LVL80
 4816 07a5 0F010000 		.4byte	0x10f
 4817 07a9 14       		.uleb128 0x14
 4818 07aa A0000000 		.4byte	.LVL82
 4819 07ae 99060000 		.4byte	0x699
 4820 07b2 13       		.uleb128 0x13
 4821 07b3 01       		.uleb128 0x1
 4822 07b4 50       		.byte	0x50
 4823 07b5 01       		.uleb128 0x1
 4824 07b6 30       		.byte	0x30
 4825 07b7 00       		.byte	0
 4826 07b8 00       		.byte	0
 4827 07b9 0F       		.uleb128 0xf
 4828 07ba D4020000 		.4byte	.LASF85
 4829 07be 01       		.byte	0x1
 4830 07bf C901     		.2byte	0x1c9
 4831 07c1 00000000 		.4byte	.LFB8
 4832 07c5 F4000000 		.4byte	.LFE8-.LFB8
 4833 07c9 01       		.uleb128 0x1
 4834 07ca 9C       		.byte	0x9c
 4835 07cb 5C080000 		.4byte	0x85c
 4836 07cf 0C       		.uleb128 0xc
 4837 07d0 6B040000 		.4byte	.LASF83
 4838 07d4 01       		.byte	0x1
 4839 07d5 C901     		.2byte	0x1c9
 4840 07d7 87000000 		.4byte	0x87
 4841 07db 38040000 		.4byte	.LLST33
 4842 07df 0A       		.uleb128 0xa
 4843 07e0 44040000 		.4byte	.LASF86
 4844 07e4 01       		.byte	0x1
 4845 07e5 CB01     		.2byte	0x1cb
 4846 07e7 87000000 		.4byte	0x87
 4847 07eb 59040000 		.4byte	.LLST34
 4848 07ef 0A       		.uleb128 0xa
 4849 07f0 DF060000 		.4byte	.LASF87
 4850 07f4 01       		.byte	0x1
 4851 07f5 CC01     		.2byte	0x1cc
 4852 07f7 87000000 		.4byte	0x87
 4853 07fb 8F040000 		.4byte	.LLST35
 4854 07ff 12       		.uleb128 0x12
 4855 0800 38000000 		.4byte	.LVL91
 4856 0804 99060000 		.4byte	0x699
 4857 0808 12080000 		.4byte	0x812
 4858 080c 13       		.uleb128 0x13
 4859 080d 01       		.uleb128 0x1
 4860 080e 50       		.byte	0x50
 4861 080f 01       		.uleb128 0x1
 4862 0810 30       		.byte	0x30
 4863 0811 00       		.byte	0
ARM GAS  C:\Users\student\AppData\Local\Temp\ccmWIiPR.s 			page 142


 4864 0812 12       		.uleb128 0x12
 4865 0813 42000000 		.4byte	.LVL92
 4866 0817 6A070000 		.4byte	0x76a
 4867 081b 26080000 		.4byte	0x826
 4868 081f 13       		.uleb128 0x13
 4869 0820 01       		.uleb128 0x1
 4870 0821 50       		.byte	0x50
 4871 0822 02       		.uleb128 0x2
 4872 0823 76       		.byte	0x76
 4873 0824 00       		.sleb128 0
 4874 0825 00       		.byte	0
 4875 0826 12       		.uleb128 0x12
 4876 0827 D6000000 		.4byte	.LVL93
 4877 082b 99060000 		.4byte	0x699
 4878 082f 39080000 		.4byte	0x839
 4879 0833 13       		.uleb128 0x13
 4880 0834 01       		.uleb128 0x1
 4881 0835 50       		.byte	0x50
 4882 0836 01       		.uleb128 0x1
 4883 0837 30       		.byte	0x30
 4884 0838 00       		.byte	0
 4885 0839 11       		.uleb128 0x11
 4886 083a DE000000 		.4byte	.LVL94
 4887 083e 84010000 		.4byte	0x184
 4888 0842 11       		.uleb128 0x11
 4889 0843 E4000000 		.4byte	.LVL95
 4890 0847 96010000 		.4byte	0x196
 4891 084b 14       		.uleb128 0x14
 4892 084c EE000000 		.4byte	.LVL96
 4893 0850 6A070000 		.4byte	0x76a
 4894 0854 13       		.uleb128 0x13
 4895 0855 01       		.uleb128 0x1
 4896 0856 50       		.byte	0x50
 4897 0857 02       		.uleb128 0x2
 4898 0858 76       		.byte	0x76
 4899 0859 00       		.sleb128 0
 4900 085a 00       		.byte	0
 4901 085b 00       		.byte	0
 4902 085c 0F       		.uleb128 0xf
 4903 085d B2090000 		.4byte	.LASF88
 4904 0861 01       		.byte	0x1
 4905 0862 5F02     		.2byte	0x25f
 4906 0864 00000000 		.4byte	.LFB9
 4907 0868 58000000 		.4byte	.LFE9-.LFB9
 4908 086c 01       		.uleb128 0x1
 4909 086d 9C       		.byte	0x9c
 4910 086e 92080000 		.4byte	0x892
 4911 0872 0C       		.uleb128 0xc
 4912 0873 14080000 		.4byte	.LASF28
 4913 0877 01       		.byte	0x1
 4914 0878 5F02     		.2byte	0x25f
 4915 087a 87000000 		.4byte	0x87
 4916 087e A2040000 		.4byte	.LLST36
 4917 0882 14       		.uleb128 0x14
 4918 0883 52000000 		.4byte	.LVL100
 4919 0887 99060000 		.4byte	0x699
 4920 088b 13       		.uleb128 0x13
ARM GAS  C:\Users\student\AppData\Local\Temp\ccmWIiPR.s 			page 143


 4921 088c 01       		.uleb128 0x1
 4922 088d 50       		.byte	0x50
 4923 088e 01       		.uleb128 0x1
 4924 088f 30       		.byte	0x30
 4925 0890 00       		.byte	0
 4926 0891 00       		.byte	0
 4927 0892 0E       		.uleb128 0xe
 4928 0893 7B080000 		.4byte	.LASF89
 4929 0897 01       		.byte	0x1
 4930 0898 9E05     		.2byte	0x59e
 4931 089a 00000000 		.4byte	.LFB40
 4932 089e 10000000 		.4byte	.LFE40-.LFB40
 4933 08a2 01       		.uleb128 0x1
 4934 08a3 9C       		.byte	0x9c
 4935 08a4 0F       		.uleb128 0xf
 4936 08a5 1E000000 		.4byte	.LASF90
 4937 08a9 01       		.byte	0x1
 4938 08aa B305     		.2byte	0x5b3
 4939 08ac 00000000 		.4byte	.LFB41
 4940 08b0 2C000000 		.4byte	.LFE41-.LFB41
 4941 08b4 01       		.uleb128 0x1
 4942 08b5 9C       		.byte	0x9c
 4943 08b6 DD080000 		.4byte	0x8dd
 4944 08ba 0C       		.uleb128 0xc
 4945 08bb 89000000 		.4byte	.LASF91
 4946 08bf 01       		.byte	0x1
 4947 08c0 B305     		.2byte	0x5b3
 4948 08c2 9F000000 		.4byte	0x9f
 4949 08c6 C3040000 		.4byte	.LLST37
 4950 08ca 11       		.uleb128 0x11
 4951 08cb 0E000000 		.4byte	.LVL103
 4952 08cf 68130000 		.4byte	0x1368
 4953 08d3 11       		.uleb128 0x11
 4954 08d4 24000000 		.4byte	.LVL105
 4955 08d8 68130000 		.4byte	0x1368
 4956 08dc 00       		.byte	0
 4957 08dd 0F       		.uleb128 0xf
 4958 08de 4C030000 		.4byte	.LASF92
 4959 08e2 01       		.byte	0x1
 4960 08e3 DF05     		.2byte	0x5df
 4961 08e5 00000000 		.4byte	.LFB42
 4962 08e9 14000000 		.4byte	.LFE42-.LFB42
 4963 08ed 01       		.uleb128 0x1
 4964 08ee 9C       		.byte	0x9c
 4965 08ef 0D090000 		.4byte	0x90d
 4966 08f3 0C       		.uleb128 0xc
 4967 08f4 E4080000 		.4byte	.LASF93
 4968 08f8 01       		.byte	0x1
 4969 08f9 DF05     		.2byte	0x5df
 4970 08fb 93000000 		.4byte	0x93
 4971 08ff E1040000 		.4byte	.LLST38
 4972 0903 11       		.uleb128 0x11
 4973 0904 0E000000 		.4byte	.LVL109
 4974 0908 68130000 		.4byte	0x1368
 4975 090c 00       		.byte	0
 4976 090d 18       		.uleb128 0x18
 4977 090e 94030000 		.4byte	.LASF94
ARM GAS  C:\Users\student\AppData\Local\Temp\ccmWIiPR.s 			page 144


 4978 0912 01       		.byte	0x1
 4979 0913 5E04     		.2byte	0x45e
 4980 0915 87000000 		.4byte	0x87
 4981 0919 00000000 		.4byte	.LFB28
 4982 091d 84000000 		.4byte	.LFE28-.LFB28
 4983 0921 01       		.uleb128 0x1
 4984 0922 9C       		.byte	0x9c
 4985 0923 7D090000 		.4byte	0x97d
 4986 0927 0C       		.uleb128 0xc
 4987 0928 A5010000 		.4byte	.LASF55
 4988 092c 01       		.byte	0x1
 4989 092d 5E04     		.2byte	0x45e
 4990 092f 87000000 		.4byte	0x87
 4991 0933 02050000 		.4byte	.LLST39
 4992 0937 0A       		.uleb128 0xa
 4993 0938 04090000 		.4byte	.LASF56
 4994 093c 01       		.byte	0x1
 4995 093d 6004     		.2byte	0x460
 4996 093f 87000000 		.4byte	0x87
 4997 0943 3C050000 		.4byte	.LLST40
 4998 0947 12       		.uleb128 0x12
 4999 0948 2A000000 		.4byte	.LVL113
 5000 094c DD080000 		.4byte	0x8dd
 5001 0950 5A090000 		.4byte	0x95a
 5002 0954 13       		.uleb128 0x13
 5003 0955 01       		.uleb128 0x1
 5004 0956 50       		.byte	0x50
 5005 0957 01       		.uleb128 0x1
 5006 0958 3A       		.byte	0x3a
 5007 0959 00       		.byte	0
 5008 095a 12       		.uleb128 0x12
 5009 095b 3E000000 		.4byte	.LVL114
 5010 095f DD080000 		.4byte	0x8dd
 5011 0963 6D090000 		.4byte	0x96d
 5012 0967 13       		.uleb128 0x13
 5013 0968 01       		.uleb128 0x1
 5014 0969 50       		.byte	0x50
 5015 096a 01       		.uleb128 0x1
 5016 096b 44       		.byte	0x44
 5017 096c 00       		.byte	0
 5018 096d 14       		.uleb128 0x14
 5019 096e 56000000 		.4byte	.LVL117
 5020 0972 DD080000 		.4byte	0x8dd
 5021 0976 13       		.uleb128 0x13
 5022 0977 01       		.uleb128 0x1
 5023 0978 50       		.byte	0x50
 5024 0979 01       		.uleb128 0x1
 5025 097a 3A       		.byte	0x3a
 5026 097b 00       		.byte	0
 5027 097c 00       		.byte	0
 5028 097d 0F       		.uleb128 0xf
 5029 097e 74030000 		.4byte	.LASF95
 5030 0982 01       		.byte	0x1
 5031 0983 0804     		.2byte	0x408
 5032 0985 00000000 		.4byte	.LFB25
 5033 0989 70000000 		.4byte	.LFE25-.LFB25
 5034 098d 01       		.uleb128 0x1
ARM GAS  C:\Users\student\AppData\Local\Temp\ccmWIiPR.s 			page 145


 5035 098e 9C       		.byte	0x9c
 5036 098f CC090000 		.4byte	0x9cc
 5037 0993 1C       		.uleb128 0x1c
 5038 0994 6900     		.ascii	"i\000"
 5039 0996 01       		.byte	0x1
 5040 0997 0A04     		.2byte	0x40a
 5041 0999 E2000000 		.4byte	0xe2
 5042 099d 02       		.uleb128 0x2
 5043 099e 91       		.byte	0x91
 5044 099f 76       		.sleb128 -10
 5045 09a0 11       		.uleb128 0x11
 5046 09a1 38000000 		.4byte	.LVL119
 5047 09a5 E6040000 		.4byte	0x4e6
 5048 09a9 12       		.uleb128 0x12
 5049 09aa 44000000 		.4byte	.LVL120
 5050 09ae 0D090000 		.4byte	0x90d
 5051 09b2 BC090000 		.4byte	0x9bc
 5052 09b6 13       		.uleb128 0x13
 5053 09b7 01       		.uleb128 0x1
 5054 09b8 50       		.byte	0x50
 5055 09b9 01       		.uleb128 0x1
 5056 09ba 30       		.byte	0x30
 5057 09bb 00       		.byte	0
 5058 09bc 14       		.uleb128 0x14
 5059 09bd 4C000000 		.4byte	.LVL121
 5060 09c1 DD080000 		.4byte	0x8dd
 5061 09c5 13       		.uleb128 0x13
 5062 09c6 01       		.uleb128 0x1
 5063 09c7 50       		.byte	0x50
 5064 09c8 01       		.uleb128 0x1
 5065 09c9 31       		.byte	0x31
 5066 09ca 00       		.byte	0
 5067 09cb 00       		.byte	0
 5068 09cc 0F       		.uleb128 0xf
 5069 09cd 6E070000 		.4byte	.LASF96
 5070 09d1 01       		.byte	0x1
 5071 09d2 F005     		.2byte	0x5f0
 5072 09d4 00000000 		.4byte	.LFB43
 5073 09d8 4C000000 		.4byte	.LFE43-.LFB43
 5074 09dc 01       		.uleb128 0x1
 5075 09dd 9C       		.byte	0x9c
 5076 09de F3090000 		.4byte	0x9f3
 5077 09e2 0C       		.uleb128 0xc
 5078 09e3 6B040000 		.4byte	.LASF83
 5079 09e7 01       		.byte	0x1
 5080 09e8 F005     		.2byte	0x5f0
 5081 09ea 9F000000 		.4byte	0x9f
 5082 09ee 4F050000 		.4byte	.LLST41
 5083 09f2 00       		.byte	0
 5084 09f3 0F       		.uleb128 0xf
 5085 09f4 97060000 		.4byte	.LASF97
 5086 09f8 01       		.byte	0x1
 5087 09f9 2A06     		.2byte	0x62a
 5088 09fb 00000000 		.4byte	.LFB44
 5089 09ff 40000000 		.4byte	.LFE44-.LFB44
 5090 0a03 01       		.uleb128 0x1
 5091 0a04 9C       		.byte	0x9c
ARM GAS  C:\Users\student\AppData\Local\Temp\ccmWIiPR.s 			page 146


 5092 0a05 2A0A0000 		.4byte	0xa2a
 5093 0a09 0C       		.uleb128 0xc
 5094 0a0a A2040000 		.4byte	.LASF98
 5095 0a0e 01       		.byte	0x1
 5096 0a0f 2A06     		.2byte	0x62a
 5097 0a11 87000000 		.4byte	0x87
 5098 0a15 70050000 		.4byte	.LLST42
 5099 0a19 0C       		.uleb128 0xc
 5100 0a1a 51010000 		.4byte	.LASF99
 5101 0a1e 01       		.byte	0x1
 5102 0a1f 2A06     		.2byte	0x62a
 5103 0a21 87000000 		.4byte	0x87
 5104 0a25 91050000 		.4byte	.LLST43
 5105 0a29 00       		.byte	0
 5106 0a2a 0E       		.uleb128 0xe
 5107 0a2b 6D000000 		.4byte	.LASF100
 5108 0a2f 01       		.byte	0x1
 5109 0a30 4306     		.2byte	0x643
 5110 0a32 00000000 		.4byte	.LFB45
 5111 0a36 0C000000 		.4byte	.LFE45-.LFB45
 5112 0a3a 01       		.uleb128 0x1
 5113 0a3b 9C       		.byte	0x9c
 5114 0a3c 18       		.uleb128 0x18
 5115 0a3d 5A080000 		.4byte	.LASF101
 5116 0a41 01       		.byte	0x1
 5117 0a42 7507     		.2byte	0x775
 5118 0a44 87000000 		.4byte	0x87
 5119 0a48 00000000 		.4byte	.LFB52
 5120 0a4c 2C000000 		.4byte	.LFE52-.LFB52
 5121 0a50 01       		.uleb128 0x1
 5122 0a51 9C       		.byte	0x9c
 5123 0a52 AB0A0000 		.4byte	0xaab
 5124 0a56 0C       		.uleb128 0xc
 5125 0a57 4C010000 		.4byte	.LASF102
 5126 0a5b 01       		.byte	0x1
 5127 0a5c 7507     		.2byte	0x775
 5128 0a5e 87000000 		.4byte	0x87
 5129 0a62 B2050000 		.4byte	.LLST44
 5130 0a66 19       		.uleb128 0x19
 5131 0a67 83040000 		.4byte	.LASF103
 5132 0a6b 01       		.byte	0x1
 5133 0a6c 7707     		.2byte	0x777
 5134 0a6e 87000000 		.4byte	0x87
 5135 0a72 05       		.uleb128 0x5
 5136 0a73 03       		.byte	0x3
 5137 0a74 00000000 		.4byte	interruptStatus.5078
 5138 0a78 0A       		.uleb128 0xa
 5139 0a79 5F010000 		.4byte	.LASF35
 5140 0a7d 01       		.byte	0x1
 5141 0a7e 7807     		.2byte	0x778
 5142 0a80 87000000 		.4byte	0x87
 5143 0a84 D3050000 		.4byte	.LLST45
 5144 0a88 0A       		.uleb128 0xa
 5145 0a89 1D090000 		.4byte	.LASF104
 5146 0a8d 01       		.byte	0x1
 5147 0a8e 7907     		.2byte	0x779
 5148 0a90 87000000 		.4byte	0x87
ARM GAS  C:\Users\student\AppData\Local\Temp\ccmWIiPR.s 			page 147


 5149 0a94 E6050000 		.4byte	.LLST46
 5150 0a98 11       		.uleb128 0x11
 5151 0a99 08000000 		.4byte	.LVL128
 5152 0a9d 26130000 		.4byte	0x1326
 5153 0aa1 11       		.uleb128 0x11
 5154 0aa2 20000000 		.4byte	.LVL130
 5155 0aa6 31130000 		.4byte	0x1331
 5156 0aaa 00       		.byte	0
 5157 0aab 0F       		.uleb128 0xf
 5158 0aac 32050000 		.4byte	.LASF105
 5159 0ab0 01       		.byte	0x1
 5160 0ab1 6F06     		.2byte	0x66f
 5161 0ab3 00000000 		.4byte	.LFB46
 5162 0ab7 84000000 		.4byte	.LFE46-.LFB46
 5163 0abb 01       		.uleb128 0x1
 5164 0abc 9C       		.byte	0x9c
 5165 0abd 430B0000 		.4byte	0xb43
 5166 0ac1 0C       		.uleb128 0xc
 5167 0ac2 0E080000 		.4byte	.LASF106
 5168 0ac6 01       		.byte	0x1
 5169 0ac7 6F06     		.2byte	0x66f
 5170 0ac9 87000000 		.4byte	0x87
 5171 0acd 04060000 		.4byte	.LLST47
 5172 0ad1 0C       		.uleb128 0xc
 5173 0ad2 65090000 		.4byte	.LASF107
 5174 0ad6 01       		.byte	0x1
 5175 0ad7 6F06     		.2byte	0x66f
 5176 0ad9 87000000 		.4byte	0x87
 5177 0add 25060000 		.4byte	.LLST48
 5178 0ae1 0A       		.uleb128 0xa
 5179 0ae2 CA020000 		.4byte	.LASF108
 5180 0ae6 01       		.byte	0x1
 5181 0ae7 7106     		.2byte	0x671
 5182 0ae9 9F000000 		.4byte	0x9f
 5183 0aed 46060000 		.4byte	.LLST49
 5184 0af1 0A       		.uleb128 0xa
 5185 0af2 5F010000 		.4byte	.LASF35
 5186 0af6 01       		.byte	0x1
 5187 0af7 7206     		.2byte	0x672
 5188 0af9 87000000 		.4byte	0x87
 5189 0afd 59060000 		.4byte	.LLST50
 5190 0b01 11       		.uleb128 0x11
 5191 0b02 0C000000 		.4byte	.LVL133
 5192 0b06 26130000 		.4byte	0x1326
 5193 0b0a 12       		.uleb128 0x12
 5194 0b0b 44000000 		.4byte	.LVL136
 5195 0b0f DD080000 		.4byte	0x8dd
 5196 0b13 1E0B0000 		.4byte	0xb1e
 5197 0b17 13       		.uleb128 0x13
 5198 0b18 01       		.uleb128 0x1
 5199 0b19 50       		.byte	0x50
 5200 0b1a 02       		.uleb128 0x2
 5201 0b1b 75       		.byte	0x75
 5202 0b1c 00       		.sleb128 0
 5203 0b1d 00       		.byte	0
 5204 0b1e 12       		.uleb128 0x12
 5205 0b1f 4A000000 		.4byte	.LVL137
ARM GAS  C:\Users\student\AppData\Local\Temp\ccmWIiPR.s 			page 148


 5206 0b23 3C0A0000 		.4byte	0xa3c
 5207 0b27 320B0000 		.4byte	0xb32
 5208 0b2b 13       		.uleb128 0x13
 5209 0b2c 01       		.uleb128 0x1
 5210 0b2d 50       		.byte	0x50
 5211 0b2e 02       		.uleb128 0x2
 5212 0b2f 75       		.byte	0x75
 5213 0b30 00       		.sleb128 0
 5214 0b31 00       		.byte	0
 5215 0b32 14       		.uleb128 0x14
 5216 0b33 74000000 		.4byte	.LVL138
 5217 0b37 31130000 		.4byte	0x1331
 5218 0b3b 13       		.uleb128 0x13
 5219 0b3c 01       		.uleb128 0x1
 5220 0b3d 50       		.byte	0x50
 5221 0b3e 02       		.uleb128 0x2
 5222 0b3f 76       		.byte	0x76
 5223 0b40 00       		.sleb128 0
 5224 0b41 00       		.byte	0
 5225 0b42 00       		.byte	0
 5226 0b43 0F       		.uleb128 0xf
 5227 0b44 20040000 		.4byte	.LASF109
 5228 0b48 01       		.byte	0x1
 5229 0b49 BF06     		.2byte	0x6bf
 5230 0b4b 00000000 		.4byte	.LFB47
 5231 0b4f 80000000 		.4byte	.LFE47-.LFB47
 5232 0b53 01       		.uleb128 0x1
 5233 0b54 9C       		.byte	0x9c
 5234 0b55 D90B0000 		.4byte	0xbd9
 5235 0b59 0C       		.uleb128 0xc
 5236 0b5a 0E080000 		.4byte	.LASF106
 5237 0b5e 01       		.byte	0x1
 5238 0b5f BF06     		.2byte	0x6bf
 5239 0b61 87000000 		.4byte	0x87
 5240 0b65 6C060000 		.4byte	.LLST51
 5241 0b69 0C       		.uleb128 0xc
 5242 0b6a 65090000 		.4byte	.LASF107
 5243 0b6e 01       		.byte	0x1
 5244 0b6f BF06     		.2byte	0x6bf
 5245 0b71 87000000 		.4byte	0x87
 5246 0b75 8D060000 		.4byte	.LLST52
 5247 0b79 0A       		.uleb128 0xa
 5248 0b7a CA020000 		.4byte	.LASF108
 5249 0b7e 01       		.byte	0x1
 5250 0b7f C106     		.2byte	0x6c1
 5251 0b81 9F000000 		.4byte	0x9f
 5252 0b85 AE060000 		.4byte	.LLST53
 5253 0b89 0A       		.uleb128 0xa
 5254 0b8a 5F010000 		.4byte	.LASF35
 5255 0b8e 01       		.byte	0x1
 5256 0b8f C206     		.2byte	0x6c2
 5257 0b91 87000000 		.4byte	0x87
 5258 0b95 C1060000 		.4byte	.LLST54
 5259 0b99 11       		.uleb128 0x11
 5260 0b9a 0A000000 		.4byte	.LVL141
 5261 0b9e 26130000 		.4byte	0x1326
 5262 0ba2 12       		.uleb128 0x12
ARM GAS  C:\Users\student\AppData\Local\Temp\ccmWIiPR.s 			page 149


 5263 0ba3 42000000 		.4byte	.LVL144
 5264 0ba7 DD080000 		.4byte	0x8dd
 5265 0bab B50B0000 		.4byte	0xbb5
 5266 0baf 13       		.uleb128 0x13
 5267 0bb0 01       		.uleb128 0x1
 5268 0bb1 50       		.byte	0x50
 5269 0bb2 01       		.uleb128 0x1
 5270 0bb3 31       		.byte	0x31
 5271 0bb4 00       		.byte	0
 5272 0bb5 12       		.uleb128 0x12
 5273 0bb6 48000000 		.4byte	.LVL145
 5274 0bba 3C0A0000 		.4byte	0xa3c
 5275 0bbe C80B0000 		.4byte	0xbc8
 5276 0bc2 13       		.uleb128 0x13
 5277 0bc3 01       		.uleb128 0x1
 5278 0bc4 50       		.byte	0x50
 5279 0bc5 01       		.uleb128 0x1
 5280 0bc6 32       		.byte	0x32
 5281 0bc7 00       		.byte	0
 5282 0bc8 14       		.uleb128 0x14
 5283 0bc9 72000000 		.4byte	.LVL146
 5284 0bcd 31130000 		.4byte	0x1331
 5285 0bd1 13       		.uleb128 0x13
 5286 0bd2 01       		.uleb128 0x1
 5287 0bd3 50       		.byte	0x50
 5288 0bd4 02       		.uleb128 0x2
 5289 0bd5 76       		.byte	0x76
 5290 0bd6 00       		.sleb128 0
 5291 0bd7 00       		.byte	0
 5292 0bd8 00       		.byte	0
 5293 0bd9 0F       		.uleb128 0xf
 5294 0bda E9010000 		.4byte	.LASF110
 5295 0bde 01       		.byte	0x1
 5296 0bdf F506     		.2byte	0x6f5
 5297 0be1 00000000 		.4byte	.LFB48
 5298 0be5 30000000 		.4byte	.LFE48-.LFB48
 5299 0be9 01       		.uleb128 0x1
 5300 0bea 9C       		.byte	0x9c
 5301 0beb 120C0000 		.4byte	0xc12
 5302 0bef 12       		.uleb128 0x12
 5303 0bf0 1C000000 		.4byte	.LVL148
 5304 0bf4 3C0A0000 		.4byte	0xa3c
 5305 0bf8 020C0000 		.4byte	0xc02
 5306 0bfc 13       		.uleb128 0x13
 5307 0bfd 01       		.uleb128 0x1
 5308 0bfe 50       		.byte	0x50
 5309 0bff 01       		.uleb128 0x1
 5310 0c00 31       		.byte	0x31
 5311 0c01 00       		.byte	0
 5312 0c02 14       		.uleb128 0x14
 5313 0c03 22000000 		.4byte	.LVL149
 5314 0c07 3C0A0000 		.4byte	0xa3c
 5315 0c0b 13       		.uleb128 0x13
 5316 0c0c 01       		.uleb128 0x1
 5317 0c0d 50       		.byte	0x50
 5318 0c0e 01       		.uleb128 0x1
 5319 0c0f 31       		.byte	0x31
ARM GAS  C:\Users\student\AppData\Local\Temp\ccmWIiPR.s 			page 150


 5320 0c10 00       		.byte	0
 5321 0c11 00       		.byte	0
 5322 0c12 0F       		.uleb128 0xf
 5323 0c13 D4070000 		.4byte	.LASF111
 5324 0c17 01       		.byte	0x1
 5325 0c18 0E07     		.2byte	0x70e
 5326 0c1a 00000000 		.4byte	.LFB49
 5327 0c1e 28000000 		.4byte	.LFE49-.LFB49
 5328 0c22 01       		.uleb128 0x1
 5329 0c23 9C       		.byte	0x9c
 5330 0c24 380C0000 		.4byte	0xc38
 5331 0c28 14       		.uleb128 0x14
 5332 0c29 1C000000 		.4byte	.LVL150
 5333 0c2d 3C0A0000 		.4byte	0xa3c
 5334 0c31 13       		.uleb128 0x13
 5335 0c32 01       		.uleb128 0x1
 5336 0c33 50       		.byte	0x50
 5337 0c34 01       		.uleb128 0x1
 5338 0c35 32       		.byte	0x32
 5339 0c36 00       		.byte	0
 5340 0c37 00       		.byte	0
 5341 0c38 0F       		.uleb128 0xf
 5342 0c39 54050000 		.4byte	.LASF112
 5343 0c3d 01       		.byte	0x1
 5344 0c3e 2507     		.2byte	0x725
 5345 0c40 00000000 		.4byte	.LFB50
 5346 0c44 54000000 		.4byte	.LFE50-.LFB50
 5347 0c48 01       		.uleb128 0x1
 5348 0c49 9C       		.byte	0x9c
 5349 0c4a AF0C0000 		.4byte	0xcaf
 5350 0c4e 0A       		.uleb128 0xa
 5351 0c4f CA020000 		.4byte	.LASF108
 5352 0c53 01       		.byte	0x1
 5353 0c54 2707     		.2byte	0x727
 5354 0c56 9F000000 		.4byte	0x9f
 5355 0c5a D4060000 		.4byte	.LLST55
 5356 0c5e 0A       		.uleb128 0xa
 5357 0c5f 5F010000 		.4byte	.LASF35
 5358 0c63 01       		.byte	0x1
 5359 0c64 2807     		.2byte	0x728
 5360 0c66 87000000 		.4byte	0x87
 5361 0c6a E7060000 		.4byte	.LLST56
 5362 0c6e 11       		.uleb128 0x11
 5363 0c6f 06000000 		.4byte	.LVL151
 5364 0c73 26130000 		.4byte	0x1326
 5365 0c77 12       		.uleb128 0x12
 5366 0c78 30000000 		.4byte	.LVL154
 5367 0c7c DD080000 		.4byte	0x8dd
 5368 0c80 8B0C0000 		.4byte	0xc8b
 5369 0c84 13       		.uleb128 0x13
 5370 0c85 01       		.uleb128 0x1
 5371 0c86 50       		.byte	0x50
 5372 0c87 02       		.uleb128 0x2
 5373 0c88 75       		.byte	0x75
 5374 0c89 00       		.sleb128 0
 5375 0c8a 00       		.byte	0
 5376 0c8b 12       		.uleb128 0x12
ARM GAS  C:\Users\student\AppData\Local\Temp\ccmWIiPR.s 			page 151


 5377 0c8c 36000000 		.4byte	.LVL155
 5378 0c90 3C0A0000 		.4byte	0xa3c
 5379 0c94 9E0C0000 		.4byte	0xc9e
 5380 0c98 13       		.uleb128 0x13
 5381 0c99 01       		.uleb128 0x1
 5382 0c9a 50       		.byte	0x50
 5383 0c9b 01       		.uleb128 0x1
 5384 0c9c 34       		.byte	0x34
 5385 0c9d 00       		.byte	0
 5386 0c9e 14       		.uleb128 0x14
 5387 0c9f 42000000 		.4byte	.LVL156
 5388 0ca3 31130000 		.4byte	0x1331
 5389 0ca7 13       		.uleb128 0x13
 5390 0ca8 01       		.uleb128 0x1
 5391 0ca9 50       		.byte	0x50
 5392 0caa 02       		.uleb128 0x2
 5393 0cab 77       		.byte	0x77
 5394 0cac 00       		.sleb128 0
 5395 0cad 00       		.byte	0
 5396 0cae 00       		.byte	0
 5397 0caf 0F       		.uleb128 0xf
 5398 0cb0 050A0000 		.4byte	.LASF113
 5399 0cb4 01       		.byte	0x1
 5400 0cb5 5107     		.2byte	0x751
 5401 0cb7 00000000 		.4byte	.LFB51
 5402 0cbb 20000000 		.4byte	.LFE51-.LFB51
 5403 0cbf 01       		.uleb128 0x1
 5404 0cc0 9C       		.byte	0x9c
 5405 0cc1 D50C0000 		.4byte	0xcd5
 5406 0cc5 14       		.uleb128 0x14
 5407 0cc6 12000000 		.4byte	.LVL158
 5408 0cca 3C0A0000 		.4byte	0xa3c
 5409 0cce 13       		.uleb128 0x13
 5410 0ccf 01       		.uleb128 0x1
 5411 0cd0 50       		.byte	0x50
 5412 0cd1 01       		.uleb128 0x1
 5413 0cd2 34       		.byte	0x34
 5414 0cd3 00       		.byte	0
 5415 0cd4 00       		.byte	0
 5416 0cd5 18       		.uleb128 0x18
 5417 0cd6 0A090000 		.4byte	.LASF114
 5418 0cda 01       		.byte	0x1
 5419 0cdb 9D07     		.2byte	0x79d
 5420 0cdd 87000000 		.4byte	0x87
 5421 0ce1 00000000 		.4byte	.LFB53
 5422 0ce5 1C000000 		.4byte	.LFE53-.LFB53
 5423 0ce9 01       		.uleb128 0x1
 5424 0cea 9C       		.byte	0x9c
 5425 0ceb 220D0000 		.4byte	0xd22
 5426 0cef 0A       		.uleb128 0xa
 5427 0cf0 5F010000 		.4byte	.LASF35
 5428 0cf4 01       		.byte	0x1
 5429 0cf5 9F07     		.2byte	0x79f
 5430 0cf7 87000000 		.4byte	0x87
 5431 0cfb FA060000 		.4byte	.LLST57
 5432 0cff 0A       		.uleb128 0xa
 5433 0d00 50040000 		.4byte	.LASF115
ARM GAS  C:\Users\student\AppData\Local\Temp\ccmWIiPR.s 			page 152


 5434 0d04 01       		.byte	0x1
 5435 0d05 A007     		.2byte	0x7a0
 5436 0d07 87000000 		.4byte	0x87
 5437 0d0b 0D070000 		.4byte	.LLST58
 5438 0d0f 11       		.uleb128 0x11
 5439 0d10 06000000 		.4byte	.LVL159
 5440 0d14 26130000 		.4byte	0x1326
 5441 0d18 11       		.uleb128 0x11
 5442 0d19 12000000 		.4byte	.LVL161
 5443 0d1d 31130000 		.4byte	0x1331
 5444 0d21 00       		.byte	0
 5445 0d22 18       		.uleb128 0x18
 5446 0d23 01070000 		.4byte	.LASF116
 5447 0d27 01       		.byte	0x1
 5448 0d28 B407     		.2byte	0x7b4
 5449 0d2a 9F000000 		.4byte	0x9f
 5450 0d2e 00000000 		.4byte	.LFB54
 5451 0d32 1C000000 		.4byte	.LFE54-.LFB54
 5452 0d36 01       		.uleb128 0x1
 5453 0d37 9C       		.byte	0x9c
 5454 0d38 6F0D0000 		.4byte	0xd6f
 5455 0d3c 0A       		.uleb128 0xa
 5456 0d3d 02050000 		.4byte	.LASF117
 5457 0d41 01       		.byte	0x1
 5458 0d42 B607     		.2byte	0x7b6
 5459 0d44 9F000000 		.4byte	0x9f
 5460 0d48 2B070000 		.4byte	.LLST59
 5461 0d4c 0A       		.uleb128 0xa
 5462 0d4d 5F010000 		.4byte	.LASF35
 5463 0d51 01       		.byte	0x1
 5464 0d52 B707     		.2byte	0x7b7
 5465 0d54 87000000 		.4byte	0x87
 5466 0d58 49070000 		.4byte	.LLST60
 5467 0d5c 11       		.uleb128 0x11
 5468 0d5d 06000000 		.4byte	.LVL163
 5469 0d61 26130000 		.4byte	0x1326
 5470 0d65 11       		.uleb128 0x11
 5471 0d66 14000000 		.4byte	.LVL165
 5472 0d6a 31130000 		.4byte	0x1331
 5473 0d6e 00       		.byte	0
 5474 0d6f 0F       		.uleb128 0xf
 5475 0d70 08020000 		.4byte	.LASF118
 5476 0d74 01       		.byte	0x1
 5477 0d75 E307     		.2byte	0x7e3
 5478 0d77 00000000 		.4byte	.LFB55
 5479 0d7b 18000000 		.4byte	.LFE55-.LFB55
 5480 0d7f 01       		.uleb128 0x1
 5481 0d80 9C       		.byte	0x9c
 5482 0d81 B80D0000 		.4byte	0xdb8
 5483 0d85 0C       		.uleb128 0xc
 5484 0d86 4C010000 		.4byte	.LASF102
 5485 0d8a 01       		.byte	0x1
 5486 0d8b E307     		.2byte	0x7e3
 5487 0d8d 9F000000 		.4byte	0x9f
 5488 0d91 5C070000 		.4byte	.LLST61
 5489 0d95 0A       		.uleb128 0xa
 5490 0d96 5F010000 		.4byte	.LASF35
ARM GAS  C:\Users\student\AppData\Local\Temp\ccmWIiPR.s 			page 153


 5491 0d9a 01       		.byte	0x1
 5492 0d9b E607     		.2byte	0x7e6
 5493 0d9d 87000000 		.4byte	0x87
 5494 0da1 88070000 		.4byte	.LLST62
 5495 0da5 11       		.uleb128 0x11
 5496 0da6 08000000 		.4byte	.LVL168
 5497 0daa 26130000 		.4byte	0x1326
 5498 0dae 11       		.uleb128 0x11
 5499 0daf 10000000 		.4byte	.LVL169
 5500 0db3 31130000 		.4byte	0x1331
 5501 0db7 00       		.byte	0
 5502 0db8 0F       		.uleb128 0xf
 5503 0db9 F4060000 		.4byte	.LASF119
 5504 0dbd 01       		.byte	0x1
 5505 0dbe 0C08     		.2byte	0x80c
 5506 0dc0 00000000 		.4byte	.LFB56
 5507 0dc4 44000000 		.4byte	.LFE56-.LFB56
 5508 0dc8 01       		.uleb128 0x1
 5509 0dc9 9C       		.byte	0x9c
 5510 0dca F10D0000 		.4byte	0xdf1
 5511 0dce 0A       		.uleb128 0xa
 5512 0dcf 5F010000 		.4byte	.LASF35
 5513 0dd3 01       		.byte	0x1
 5514 0dd4 0E08     		.2byte	0x80e
 5515 0dd6 87000000 		.4byte	0x87
 5516 0dda 9B070000 		.4byte	.LLST63
 5517 0dde 11       		.uleb128 0x11
 5518 0ddf 06000000 		.4byte	.LVL171
 5519 0de3 26130000 		.4byte	0x1326
 5520 0de7 11       		.uleb128 0x11
 5521 0de8 3C000000 		.4byte	.LVL172
 5522 0dec 31130000 		.4byte	0x1331
 5523 0df0 00       		.byte	0
 5524 0df1 18       		.uleb128 0x18
 5525 0df2 83070000 		.4byte	.LASF120
 5526 0df6 01       		.byte	0x1
 5527 0df7 4B08     		.2byte	0x84b
 5528 0df9 F8000000 		.4byte	0xf8
 5529 0dfd 00000000 		.4byte	.LFB57
 5530 0e01 28000000 		.4byte	.LFE57-.LFB57
 5531 0e05 01       		.uleb128 0x1
 5532 0e06 9C       		.byte	0x9c
 5533 0e07 590E0000 		.4byte	0xe59
 5534 0e0b 0C       		.uleb128 0xc
 5535 0e0c 1B080000 		.4byte	.LASF121
 5536 0e10 01       		.byte	0x1
 5537 0e11 4B08     		.2byte	0x84b
 5538 0e13 87000000 		.4byte	0x87
 5539 0e17 AE070000 		.4byte	.LLST64
 5540 0e1b 0C       		.uleb128 0xc
 5541 0e1c 52080000 		.4byte	.LASF122
 5542 0e20 01       		.byte	0x1
 5543 0e21 4B08     		.2byte	0x84b
 5544 0e23 F8000000 		.4byte	0xf8
 5545 0e27 CF070000 		.4byte	.LLST65
 5546 0e2b 19       		.uleb128 0x19
 5547 0e2c 33040000 		.4byte	.LASF123
ARM GAS  C:\Users\student\AppData\Local\Temp\ccmWIiPR.s 			page 154


 5548 0e30 01       		.byte	0x1
 5549 0e31 4D08     		.2byte	0x84d
 5550 0e33 F8000000 		.4byte	0xf8
 5551 0e37 01       		.uleb128 0x1
 5552 0e38 50       		.byte	0x50
 5553 0e39 0A       		.uleb128 0xa
 5554 0e3a B6080000 		.4byte	.LASF124
 5555 0e3e 01       		.byte	0x1
 5556 0e3f 4E08     		.2byte	0x84e
 5557 0e41 590E0000 		.4byte	0xe59
 5558 0e45 FB070000 		.4byte	.LLST66
 5559 0e49 14       		.uleb128 0x14
 5560 0e4a 14000000 		.4byte	.LVL176
 5561 0e4e 99060000 		.4byte	0x699
 5562 0e52 13       		.uleb128 0x13
 5563 0e53 01       		.uleb128 0x1
 5564 0e54 50       		.byte	0x50
 5565 0e55 01       		.uleb128 0x1
 5566 0e56 30       		.byte	0x30
 5567 0e57 00       		.byte	0
 5568 0e58 00       		.byte	0
 5569 0e59 04       		.uleb128 0x4
 5570 0e5a 04       		.byte	0x4
 5571 0e5b F8000000 		.4byte	0xf8
 5572 0e5f 18       		.uleb128 0x18
 5573 0e60 CE050000 		.4byte	.LASF125
 5574 0e64 01       		.byte	0x1
 5575 0e65 7308     		.2byte	0x873
 5576 0e67 F8000000 		.4byte	0xf8
 5577 0e6b 00000000 		.4byte	.LFB58
 5578 0e6f 20000000 		.4byte	.LFE58-.LFB58
 5579 0e73 01       		.uleb128 0x1
 5580 0e74 9C       		.byte	0x9c
 5581 0e75 A90E0000 		.4byte	0xea9
 5582 0e79 0C       		.uleb128 0xc
 5583 0e7a 1B080000 		.4byte	.LASF121
 5584 0e7e 01       		.byte	0x1
 5585 0e7f 7308     		.2byte	0x873
 5586 0e81 87000000 		.4byte	0x87
 5587 0e85 0E080000 		.4byte	.LLST67
 5588 0e89 0A       		.uleb128 0xa
 5589 0e8a B6080000 		.4byte	.LASF124
 5590 0e8e 01       		.byte	0x1
 5591 0e8f 7508     		.2byte	0x875
 5592 0e91 590E0000 		.4byte	0xe59
 5593 0e95 2F080000 		.4byte	.LLST68
 5594 0e99 14       		.uleb128 0x14
 5595 0e9a 12000000 		.4byte	.LVL182
 5596 0e9e 99060000 		.4byte	0x699
 5597 0ea2 13       		.uleb128 0x13
 5598 0ea3 01       		.uleb128 0x1
 5599 0ea4 50       		.byte	0x50
 5600 0ea5 01       		.uleb128 0x1
 5601 0ea6 30       		.byte	0x30
 5602 0ea7 00       		.byte	0
 5603 0ea8 00       		.byte	0
 5604 0ea9 18       		.uleb128 0x18
ARM GAS  C:\Users\student\AppData\Local\Temp\ccmWIiPR.s 			page 155


 5605 0eaa 1C050000 		.4byte	.LASF126
 5606 0eae 01       		.byte	0x1
 5607 0eaf 8908     		.2byte	0x889
 5608 0eb1 F8000000 		.4byte	0xf8
 5609 0eb5 00000000 		.4byte	.LFB59
 5610 0eb9 28000000 		.4byte	.LFE59-.LFB59
 5611 0ebd 01       		.uleb128 0x1
 5612 0ebe 9C       		.byte	0x9c
 5613 0ebf 110F0000 		.4byte	0xf11
 5614 0ec3 0C       		.uleb128 0xc
 5615 0ec4 1B080000 		.4byte	.LASF121
 5616 0ec8 01       		.byte	0x1
 5617 0ec9 8908     		.2byte	0x889
 5618 0ecb 87000000 		.4byte	0x87
 5619 0ecf 42080000 		.4byte	.LLST69
 5620 0ed3 0C       		.uleb128 0xc
 5621 0ed4 52080000 		.4byte	.LASF122
 5622 0ed8 01       		.byte	0x1
 5623 0ed9 8908     		.2byte	0x889
 5624 0edb F8000000 		.4byte	0xf8
 5625 0edf 63080000 		.4byte	.LLST70
 5626 0ee3 19       		.uleb128 0x19
 5627 0ee4 33040000 		.4byte	.LASF123
 5628 0ee8 01       		.byte	0x1
 5629 0ee9 8B08     		.2byte	0x88b
 5630 0eeb F8000000 		.4byte	0xf8
 5631 0eef 01       		.uleb128 0x1
 5632 0ef0 50       		.byte	0x50
 5633 0ef1 0A       		.uleb128 0xa
 5634 0ef2 B6080000 		.4byte	.LASF124
 5635 0ef6 01       		.byte	0x1
 5636 0ef7 8C08     		.2byte	0x88c
 5637 0ef9 590E0000 		.4byte	0xe59
 5638 0efd 8F080000 		.4byte	.LLST71
 5639 0f01 14       		.uleb128 0x14
 5640 0f02 14000000 		.4byte	.LVL187
 5641 0f06 99060000 		.4byte	0x699
 5642 0f0a 13       		.uleb128 0x13
 5643 0f0b 01       		.uleb128 0x1
 5644 0f0c 50       		.byte	0x50
 5645 0f0d 01       		.uleb128 0x1
 5646 0f0e 30       		.byte	0x30
 5647 0f0f 00       		.byte	0
 5648 0f10 00       		.byte	0
 5649 0f11 18       		.uleb128 0x18
 5650 0f12 00000000 		.4byte	.LASF127
 5651 0f16 01       		.byte	0x1
 5652 0f17 A608     		.2byte	0x8a6
 5653 0f19 F8000000 		.4byte	0xf8
 5654 0f1d 00000000 		.4byte	.LFB60
 5655 0f21 24000000 		.4byte	.LFE60-.LFB60
 5656 0f25 01       		.uleb128 0x1
 5657 0f26 9C       		.byte	0x9c
 5658 0f27 5B0F0000 		.4byte	0xf5b
 5659 0f2b 0C       		.uleb128 0xc
 5660 0f2c 1B080000 		.4byte	.LASF121
 5661 0f30 01       		.byte	0x1
ARM GAS  C:\Users\student\AppData\Local\Temp\ccmWIiPR.s 			page 156


 5662 0f31 A608     		.2byte	0x8a6
 5663 0f33 87000000 		.4byte	0x87
 5664 0f37 A2080000 		.4byte	.LLST72
 5665 0f3b 0A       		.uleb128 0xa
 5666 0f3c B6080000 		.4byte	.LASF124
 5667 0f40 01       		.byte	0x1
 5668 0f41 A808     		.2byte	0x8a8
 5669 0f43 590E0000 		.4byte	0xe59
 5670 0f47 C3080000 		.4byte	.LLST73
 5671 0f4b 14       		.uleb128 0x14
 5672 0f4c 12000000 		.4byte	.LVL193
 5673 0f50 99060000 		.4byte	0x699
 5674 0f54 13       		.uleb128 0x13
 5675 0f55 01       		.uleb128 0x1
 5676 0f56 50       		.byte	0x50
 5677 0f57 01       		.uleb128 0x1
 5678 0f58 30       		.byte	0x30
 5679 0f59 00       		.byte	0
 5680 0f5a 00       		.byte	0
 5681 0f5b 0F       		.uleb128 0xf
 5682 0f5c 26000000 		.4byte	.LASF128
 5683 0f60 01       		.byte	0x1
 5684 0f61 B908     		.2byte	0x8b9
 5685 0f63 00000000 		.4byte	.LFB61
 5686 0f67 2E000000 		.4byte	.LFE61-.LFB61
 5687 0f6b 01       		.uleb128 0x1
 5688 0f6c 9C       		.byte	0x9c
 5689 0f6d B40F0000 		.4byte	0xfb4
 5690 0f71 0C       		.uleb128 0xc
 5691 0f72 1B080000 		.4byte	.LASF121
 5692 0f76 01       		.byte	0x1
 5693 0f77 B908     		.2byte	0x8b9
 5694 0f79 87000000 		.4byte	0x87
 5695 0f7d D6080000 		.4byte	.LLST74
 5696 0f81 0C       		.uleb128 0xc
 5697 0f82 95070000 		.4byte	.LASF129
 5698 0f86 01       		.byte	0x1
 5699 0f87 B908     		.2byte	0x8b9
 5700 0f89 87000000 		.4byte	0x87
 5701 0f8d F7080000 		.4byte	.LLST75
 5702 0f91 12       		.uleb128 0x12
 5703 0f92 10000000 		.4byte	.LVL197
 5704 0f96 99060000 		.4byte	0x699
 5705 0f9a A40F0000 		.4byte	0xfa4
 5706 0f9e 13       		.uleb128 0x13
 5707 0f9f 01       		.uleb128 0x1
 5708 0fa0 50       		.byte	0x50
 5709 0fa1 01       		.uleb128 0x1
 5710 0fa2 30       		.byte	0x30
 5711 0fa3 00       		.byte	0
 5712 0fa4 14       		.uleb128 0x14
 5713 0fa5 1A000000 		.4byte	.LVL198
 5714 0fa9 99060000 		.4byte	0x699
 5715 0fad 13       		.uleb128 0x13
 5716 0fae 01       		.uleb128 0x1
 5717 0faf 50       		.byte	0x50
 5718 0fb0 01       		.uleb128 0x1
ARM GAS  C:\Users\student\AppData\Local\Temp\ccmWIiPR.s 			page 157


 5719 0fb1 30       		.byte	0x30
 5720 0fb2 00       		.byte	0
 5721 0fb3 00       		.byte	0
 5722 0fb4 18       		.uleb128 0x18
 5723 0fb5 5C000000 		.4byte	.LASF130
 5724 0fb9 01       		.byte	0x1
 5725 0fba CD08     		.2byte	0x8cd
 5726 0fbc 87000000 		.4byte	0x87
 5727 0fc0 00000000 		.4byte	.LFB62
 5728 0fc4 20000000 		.4byte	.LFE62-.LFB62
 5729 0fc8 01       		.uleb128 0x1
 5730 0fc9 9C       		.byte	0x9c
 5731 0fca FE0F0000 		.4byte	0xffe
 5732 0fce 0C       		.uleb128 0xc
 5733 0fcf 1B080000 		.4byte	.LASF121
 5734 0fd3 01       		.byte	0x1
 5735 0fd4 CD08     		.2byte	0x8cd
 5736 0fd6 87000000 		.4byte	0x87
 5737 0fda 18090000 		.4byte	.LLST76
 5738 0fde 0A       		.uleb128 0xa
 5739 0fdf 95070000 		.4byte	.LASF129
 5740 0fe3 01       		.byte	0x1
 5741 0fe4 CF08     		.2byte	0x8cf
 5742 0fe6 87000000 		.4byte	0x87
 5743 0fea 39090000 		.4byte	.LLST77
 5744 0fee 14       		.uleb128 0x14
 5745 0fef 0E000000 		.4byte	.LVL201
 5746 0ff3 99060000 		.4byte	0x699
 5747 0ff7 13       		.uleb128 0x13
 5748 0ff8 01       		.uleb128 0x1
 5749 0ff9 50       		.byte	0x50
 5750 0ffa 01       		.uleb128 0x1
 5751 0ffb 30       		.byte	0x30
 5752 0ffc 00       		.byte	0
 5753 0ffd 00       		.byte	0
 5754 0ffe 18       		.uleb128 0x18
 5755 0fff F2030000 		.4byte	.LASF131
 5756 1003 01       		.byte	0x1
 5757 1004 E508     		.2byte	0x8e5
 5758 1006 87000000 		.4byte	0x87
 5759 100a 00000000 		.4byte	.LFB63
 5760 100e 24000000 		.4byte	.LFE63-.LFB63
 5761 1012 01       		.uleb128 0x1
 5762 1013 9C       		.byte	0x9c
 5763 1014 49100000 		.4byte	0x1049
 5764 1018 0C       		.uleb128 0xc
 5765 1019 1B080000 		.4byte	.LASF121
 5766 101d 01       		.byte	0x1
 5767 101e E508     		.2byte	0x8e5
 5768 1020 87000000 		.4byte	0x87
 5769 1024 50090000 		.4byte	.LLST78
 5770 1028 1D       		.uleb128 0x1d
 5771 1029 7A070000 		.4byte	.LASF132
 5772 102d 01       		.byte	0x1
 5773 102e E708     		.2byte	0x8e7
 5774 1030 49100000 		.4byte	0x1049
 5775 1034 80C28380 		.sleb128 -536813312
ARM GAS  C:\Users\student\AppData\Local\Temp\ccmWIiPR.s 			page 158


 5775      7E
 5776 1039 14       		.uleb128 0x14
 5777 103a 0E000000 		.4byte	.LVL206
 5778 103e 99060000 		.4byte	0x699
 5779 1042 13       		.uleb128 0x13
 5780 1043 01       		.uleb128 0x1
 5781 1044 50       		.byte	0x50
 5782 1045 01       		.uleb128 0x1
 5783 1046 30       		.byte	0x30
 5784 1047 00       		.byte	0
 5785 1048 00       		.byte	0
 5786 1049 04       		.uleb128 0x4
 5787 104a 04       		.byte	0x4
 5788 104b E7000000 		.4byte	0xe7
 5789 104f 0E       		.uleb128 0xe
 5790 1050 E4030000 		.4byte	.LASF133
 5791 1054 01       		.byte	0x1
 5792 1055 480A     		.2byte	0xa48
 5793 1057 00000000 		.4byte	.LFB67
 5794 105b 10000000 		.4byte	.LFE67-.LFB67
 5795 105f 01       		.uleb128 0x1
 5796 1060 9C       		.byte	0x9c
 5797 1061 0E       		.uleb128 0xe
 5798 1062 AE030000 		.4byte	.LASF134
 5799 1066 01       		.byte	0x1
 5800 1067 580A     		.2byte	0xa58
 5801 1069 00000000 		.4byte	.LFB68
 5802 106d 10000000 		.4byte	.LFE68-.LFB68
 5803 1071 01       		.uleb128 0x1
 5804 1072 9C       		.byte	0x9c
 5805 1073 0F       		.uleb128 0xf
 5806 1074 8B050000 		.4byte	.LASF135
 5807 1078 01       		.byte	0x1
 5808 1079 370A     		.2byte	0xa37
 5809 107b 00000000 		.4byte	.LFB66
 5810 107f 18000000 		.4byte	.LFE66-.LFB66
 5811 1083 01       		.uleb128 0x1
 5812 1084 9C       		.byte	0x9c
 5813 1085 93100000 		.4byte	0x1093
 5814 1089 11       		.uleb128 0x11
 5815 108a 06000000 		.4byte	.LVL207
 5816 108e 61100000 		.4byte	0x1061
 5817 1092 00       		.byte	0
 5818 1093 0E       		.uleb128 0xe
 5819 1094 AC070000 		.4byte	.LASF136
 5820 1098 01       		.byte	0x1
 5821 1099 680A     		.2byte	0xa68
 5822 109b 00000000 		.4byte	.LFB69
 5823 109f 10000000 		.4byte	.LFE69-.LFB69
 5824 10a3 01       		.uleb128 0x1
 5825 10a4 9C       		.byte	0x9c
 5826 10a5 0F       		.uleb128 0xf
 5827 10a6 40070000 		.4byte	.LASF137
 5828 10aa 01       		.byte	0x1
 5829 10ab 790A     		.2byte	0xa79
 5830 10ad 00000000 		.4byte	.LFB70
 5831 10b1 10000000 		.4byte	.LFE70-.LFB70
ARM GAS  C:\Users\student\AppData\Local\Temp\ccmWIiPR.s 			page 159


 5832 10b5 01       		.uleb128 0x1
 5833 10b6 9C       		.byte	0x9c
 5834 10b7 CC100000 		.4byte	0x10cc
 5835 10bb 0C       		.uleb128 0xc
 5836 10bc FF090000 		.4byte	.LASF138
 5837 10c0 01       		.byte	0x1
 5838 10c1 790A     		.2byte	0xa79
 5839 10c3 9F000000 		.4byte	0x9f
 5840 10c7 71090000 		.4byte	.LLST79
 5841 10cb 00       		.byte	0
 5842 10cc 1A       		.uleb128 0x1a
 5843 10cd 22030000 		.4byte	.LASF139
 5844 10d1 01       		.byte	0x1
 5845 10d2 890A     		.2byte	0xa89
 5846 10d4 9F000000 		.4byte	0x9f
 5847 10d8 00000000 		.4byte	.LFB71
 5848 10dc 10000000 		.4byte	.LFE71-.LFB71
 5849 10e0 01       		.uleb128 0x1
 5850 10e1 9C       		.byte	0x9c
 5851 10e2 1A       		.uleb128 0x1a
 5852 10e3 2C060000 		.4byte	.LASF140
 5853 10e7 01       		.byte	0x1
 5854 10e8 990A     		.2byte	0xa99
 5855 10ea 9F000000 		.4byte	0x9f
 5856 10ee 00000000 		.4byte	.LFB72
 5857 10f2 10000000 		.4byte	.LFE72-.LFB72
 5858 10f6 01       		.uleb128 0x1
 5859 10f7 9C       		.byte	0x9c
 5860 10f8 0F       		.uleb128 0xf
 5861 10f9 7F060000 		.4byte	.LASF141
 5862 10fd 01       		.byte	0x1
 5863 10fe B30A     		.2byte	0xab3
 5864 1100 00000000 		.4byte	.LFB73
 5865 1104 20000000 		.4byte	.LFE73-.LFB73
 5866 1108 01       		.uleb128 0x1
 5867 1109 9C       		.byte	0x9c
 5868 110a 1D110000 		.4byte	0x111d
 5869 110e 10       		.uleb128 0x10
 5870 110f 15070000 		.4byte	.LASF142
 5871 1113 01       		.byte	0x1
 5872 1114 B30A     		.2byte	0xab3
 5873 1116 9F000000 		.4byte	0x9f
 5874 111a 01       		.uleb128 0x1
 5875 111b 50       		.byte	0x50
 5876 111c 00       		.byte	0
 5877 111d 1A       		.uleb128 0x1a
 5878 111e BF040000 		.4byte	.LASF143
 5879 1122 01       		.byte	0x1
 5880 1123 CF0A     		.2byte	0xacf
 5881 1125 9F000000 		.4byte	0x9f
 5882 1129 00000000 		.4byte	.LFB74
 5883 112d 10000000 		.4byte	.LFE74-.LFB74
 5884 1131 01       		.uleb128 0x1
 5885 1132 9C       		.byte	0x9c
 5886 1133 1E       		.uleb128 0x1e
 5887 1134 4D060000 		.4byte	.LASF144
 5888 1138 01       		.byte	0x1
ARM GAS  C:\Users\student\AppData\Local\Temp\ccmWIiPR.s 			page 160


 5889 1139 240B     		.2byte	0xb24
 5890 113b 00000000 		.4byte	.LFB78
 5891 113f 28000000 		.4byte	.LFE78-.LFB78
 5892 1143 01       		.uleb128 0x1
 5893 1144 9C       		.byte	0x9c
 5894 1145 61110000 		.4byte	0x1161
 5895 1149 1F       		.uleb128 0x1f
 5896 114a 6900     		.ascii	"i\000"
 5897 114c 01       		.byte	0x1
 5898 114d 260B     		.2byte	0xb26
 5899 114f 9F000000 		.4byte	0x9f
 5900 1153 92090000 		.4byte	.LLST80
 5901 1157 11       		.uleb128 0x11
 5902 1158 06000000 		.4byte	.LVL211
 5903 115c 1D110000 		.4byte	0x111d
 5904 1160 00       		.byte	0
 5905 1161 0E       		.uleb128 0xe
 5906 1162 0F000000 		.4byte	.LASF145
 5907 1166 01       		.byte	0x1
 5908 1167 DC0A     		.2byte	0xadc
 5909 1169 00000000 		.4byte	.LFB75
 5910 116d 0C000000 		.4byte	.LFE75-.LFB75
 5911 1171 01       		.uleb128 0x1
 5912 1172 9C       		.byte	0x9c
 5913 1173 0F       		.uleb128 0xf
 5914 1174 22080000 		.4byte	.LASF146
 5915 1178 01       		.byte	0x1
 5916 1179 1C0A     		.2byte	0xa1c
 5917 117b 00000000 		.4byte	.LFB65
 5918 117f 58000000 		.4byte	.LFE65-.LFB65
 5919 1183 01       		.uleb128 0x1
 5920 1184 9C       		.byte	0x9c
 5921 1185 D9110000 		.4byte	0x11d9
 5922 1189 1F       		.uleb128 0x1f
 5923 118a 6900     		.ascii	"i\000"
 5924 118c 01       		.byte	0x1
 5925 118d 1E0A     		.2byte	0xa1e
 5926 118f 9F000000 		.4byte	0x9f
 5927 1193 B0090000 		.4byte	.LLST81
 5928 1197 12       		.uleb128 0x12
 5929 1198 1E000000 		.4byte	.LVL221
 5930 119c F10D0000 		.4byte	0xdf1
 5931 11a0 B3110000 		.4byte	0x11b3
 5932 11a4 13       		.uleb128 0x13
 5933 11a5 01       		.uleb128 0x1
 5934 11a6 51       		.byte	0x51
 5935 11a7 05       		.uleb128 0x5
 5936 11a8 03       		.byte	0x3
 5937 11a9 00000000 		.4byte	CySysTickServiceCallbacks
 5938 11ad 13       		.uleb128 0x13
 5939 11ae 01       		.uleb128 0x1
 5940 11af 50       		.byte	0x50
 5941 11b0 01       		.uleb128 0x1
 5942 11b1 3F       		.byte	0x3f
 5943 11b2 00       		.byte	0
 5944 11b3 12       		.uleb128 0x12
 5945 11b4 24000000 		.4byte	.LVL222
ARM GAS  C:\Users\student\AppData\Local\Temp\ccmWIiPR.s 			page 161


 5946 11b8 F8100000 		.4byte	0x10f8
 5947 11bc C6110000 		.4byte	0x11c6
 5948 11c0 13       		.uleb128 0x13
 5949 11c1 01       		.uleb128 0x1
 5950 11c2 50       		.byte	0x50
 5951 11c3 01       		.uleb128 0x1
 5952 11c4 31       		.byte	0x31
 5953 11c5 00       		.byte	0
 5954 11c6 11       		.uleb128 0x11
 5955 11c7 34000000 		.4byte	.LVL223
 5956 11cb A5100000 		.4byte	0x10a5
 5957 11cf 11       		.uleb128 0x11
 5958 11d0 38000000 		.4byte	.LVL224
 5959 11d4 61110000 		.4byte	0x1161
 5960 11d8 00       		.byte	0
 5961 11d9 0F       		.uleb128 0xf
 5962 11da 3E060000 		.4byte	.LASF147
 5963 11de 01       		.byte	0x1
 5964 11df FF09     		.2byte	0x9ff
 5965 11e1 00000000 		.4byte	.LFB64
 5966 11e5 1C000000 		.4byte	.LFE64-.LFB64
 5967 11e9 01       		.uleb128 0x1
 5968 11ea 9C       		.byte	0x9c
 5969 11eb 02120000 		.4byte	0x1202
 5970 11ef 11       		.uleb128 0x11
 5971 11f0 0C000000 		.4byte	.LVL225
 5972 11f4 73110000 		.4byte	0x1173
 5973 11f8 11       		.uleb128 0x11
 5974 11f9 16000000 		.4byte	.LVL226
 5975 11fd 73100000 		.4byte	0x1073
 5976 1201 00       		.byte	0
 5977 1202 18       		.uleb128 0x18
 5978 1203 D4010000 		.4byte	.LASF148
 5979 1207 01       		.byte	0x1
 5980 1208 FF0A     		.2byte	0xaff
 5981 120a 04010000 		.4byte	0x104
 5982 120e 00000000 		.4byte	.LFB76
 5983 1212 10000000 		.4byte	.LFE76-.LFB76
 5984 1216 01       		.uleb128 0x1
 5985 1217 9C       		.byte	0x9c
 5986 1218 49120000 		.4byte	0x1249
 5987 121c 0C       		.uleb128 0xc
 5988 121d 1B080000 		.4byte	.LASF121
 5989 1221 01       		.byte	0x1
 5990 1222 FF0A     		.2byte	0xaff
 5991 1224 9F000000 		.4byte	0x9f
 5992 1228 CF090000 		.4byte	.LLST82
 5993 122c 10       		.uleb128 0x10
 5994 122d D3080000 		.4byte	.LASF149
 5995 1231 01       		.byte	0x1
 5996 1232 FF0A     		.2byte	0xaff
 5997 1234 04010000 		.4byte	0x104
 5998 1238 01       		.uleb128 0x1
 5999 1239 51       		.byte	0x51
 6000 123a 19       		.uleb128 0x19
 6001 123b 4B080000 		.4byte	.LASF150
 6002 123f 01       		.byte	0x1
ARM GAS  C:\Users\student\AppData\Local\Temp\ccmWIiPR.s 			page 162


 6003 1240 010B     		.2byte	0xb01
 6004 1242 04010000 		.4byte	0x104
 6005 1246 01       		.uleb128 0x1
 6006 1247 50       		.byte	0x50
 6007 1248 00       		.byte	0
 6008 1249 18       		.uleb128 0x18
 6009 124a 0B040000 		.4byte	.LASF151
 6010 124e 01       		.byte	0x1
 6011 124f 170B     		.2byte	0xb17
 6012 1251 04010000 		.4byte	0x104
 6013 1255 00000000 		.4byte	.LFB77
 6014 1259 10000000 		.4byte	.LFE77-.LFB77
 6015 125d 01       		.uleb128 0x1
 6016 125e 9C       		.byte	0x9c
 6017 125f 74120000 		.4byte	0x1274
 6018 1263 0C       		.uleb128 0xc
 6019 1264 1B080000 		.4byte	.LASF121
 6020 1268 01       		.byte	0x1
 6021 1269 170B     		.2byte	0xb17
 6022 126b 9F000000 		.4byte	0x9f
 6023 126f F0090000 		.4byte	.LLST83
 6024 1273 00       		.byte	0
 6025 1274 0F       		.uleb128 0xf
 6026 1275 C5080000 		.4byte	.LASF152
 6027 1279 01       		.byte	0x1
 6028 127a 450B     		.2byte	0xb45
 6029 127c 00000000 		.4byte	.LFB79
 6030 1280 70000000 		.4byte	.LFE79-.LFB79
 6031 1284 01       		.uleb128 0x1
 6032 1285 9C       		.byte	0x9c
 6033 1286 99120000 		.4byte	0x1299
 6034 128a 10       		.uleb128 0x10
 6035 128b C2090000 		.4byte	.LASF153
 6036 128f 01       		.byte	0x1
 6037 1290 450B     		.2byte	0xb45
 6038 1292 99120000 		.4byte	0x1299
 6039 1296 01       		.uleb128 0x1
 6040 1297 50       		.byte	0x50
 6041 1298 00       		.byte	0
 6042 1299 04       		.uleb128 0x4
 6043 129a 04       		.byte	0x4
 6044 129b 9F000000 		.4byte	0x9f
 6045 129f 20       		.uleb128 0x20
 6046 12a0 04010000 		.4byte	0x104
 6047 12a4 AF120000 		.4byte	0x12af
 6048 12a8 21       		.uleb128 0x21
 6049 12a9 72000000 		.4byte	0x72
 6050 12ad 04       		.byte	0x4
 6051 12ae 00       		.byte	0
 6052 12af 22       		.uleb128 0x22
 6053 12b0 E0050000 		.4byte	.LASF154
 6054 12b4 01       		.byte	0x1
 6055 12b5 34       		.byte	0x34
 6056 12b6 9F120000 		.4byte	0x129f
 6057 12ba 05       		.uleb128 0x5
 6058 12bb 03       		.byte	0x3
 6059 12bc 04000000 		.4byte	CySysTickCallbacks
ARM GAS  C:\Users\student\AppData\Local\Temp\ccmWIiPR.s 			page 163


 6060 12c0 23       		.uleb128 0x23
 6061 12c1 9E070000 		.4byte	.LASF155
 6062 12c5 01       		.byte	0x1
 6063 12c6 1C       		.byte	0x1c
 6064 12c7 87000000 		.4byte	0x87
 6065 12cb 05       		.uleb128 0x5
 6066 12cc 03       		.byte	0x3
 6067 12cd 00000000 		.4byte	CyResetStatus
 6068 12d1 23       		.uleb128 0x23
 6069 12d2 44050000 		.4byte	.LASF156
 6070 12d6 01       		.byte	0x1
 6071 12d7 28       		.byte	0x28
 6072 12d8 9F000000 		.4byte	0x9f
 6073 12dc 05       		.uleb128 0x5
 6074 12dd 03       		.byte	0x3
 6075 12de 00000000 		.4byte	cydelay_freq_hz
 6076 12e2 23       		.uleb128 0x23
 6077 12e3 3B030000 		.4byte	.LASF157
 6078 12e7 01       		.byte	0x1
 6079 12e8 29       		.byte	0x29
 6080 12e9 9F000000 		.4byte	0x9f
 6081 12ed 05       		.uleb128 0x5
 6082 12ee 03       		.byte	0x3
 6083 12ef 00000000 		.4byte	cydelay_freq_khz
 6084 12f3 23       		.uleb128 0x23
 6085 12f4 78000000 		.4byte	.LASF158
 6086 12f8 01       		.byte	0x1
 6087 12f9 2A       		.byte	0x2a
 6088 12fa 87000000 		.4byte	0x87
 6089 12fe 05       		.uleb128 0x5
 6090 12ff 03       		.byte	0x3
 6091 1300 00000000 		.4byte	cydelay_freq_mhz
 6092 1304 23       		.uleb128 0x23
 6093 1305 93040000 		.4byte	.LASF159
 6094 1309 01       		.byte	0x1
 6095 130a 2B       		.byte	0x2b
 6096 130b 9F000000 		.4byte	0x9f
 6097 130f 05       		.uleb128 0x5
 6098 1310 03       		.byte	0x3
 6099 1311 00000000 		.4byte	cydelay_32k_ms
 6100 1315 23       		.uleb128 0x23
 6101 1316 AA010000 		.4byte	.LASF160
 6102 131a 01       		.byte	0x1
 6103 131b 36       		.byte	0x36
 6104 131c 9F000000 		.4byte	0x9f
 6105 1320 05       		.uleb128 0x5
 6106 1321 03       		.byte	0x3
 6107 1322 00000000 		.4byte	CySysTickInitVar
 6108 1326 24       		.uleb128 0x24
 6109 1327 6F090000 		.4byte	.LASF167
 6110 132b 03       		.byte	0x3
 6111 132c 7D       		.byte	0x7d
 6112 132d 87000000 		.4byte	0x87
 6113 1331 25       		.uleb128 0x25
 6114 1332 EF000000 		.4byte	.LASF161
 6115 1336 03       		.byte	0x3
 6116 1337 7E       		.byte	0x7e
ARM GAS  C:\Users\student\AppData\Local\Temp\ccmWIiPR.s 			page 164


 6117 1338 42130000 		.4byte	0x1342
 6118 133c 26       		.uleb128 0x26
 6119 133d 87000000 		.4byte	0x87
 6120 1341 00       		.byte	0
 6121 1342 25       		.uleb128 0x25
 6122 1343 92010000 		.4byte	.LASF162
 6123 1347 04       		.byte	0x4
 6124 1348 2A       		.byte	0x2a
 6125 1349 53130000 		.4byte	0x1353
 6126 134d 26       		.uleb128 0x26
 6127 134e 87000000 		.4byte	0x87
 6128 1352 00       		.byte	0
 6129 1353 27       		.uleb128 0x27
 6130 1354 F3040000 		.4byte	.LASF168
 6131 1358 04       		.byte	0x4
 6132 1359 26       		.byte	0x26
 6133 135a 87000000 		.4byte	0x87
 6134 135e 68130000 		.4byte	0x1368
 6135 1362 26       		.uleb128 0x26
 6136 1363 87000000 		.4byte	0x87
 6137 1367 00       		.byte	0
 6138 1368 28       		.uleb128 0x28
 6139 1369 D5040000 		.4byte	.LASF169
 6140 136d 03       		.byte	0x3
 6141 136e 79       		.byte	0x79
 6142 136f 26       		.uleb128 0x26
 6143 1370 9F000000 		.4byte	0x9f
 6144 1374 00       		.byte	0
 6145 1375 00       		.byte	0
 6146              		.section	.debug_abbrev,"",%progbits
 6147              	.Ldebug_abbrev0:
 6148 0000 01       		.uleb128 0x1
 6149 0001 11       		.uleb128 0x11
 6150 0002 01       		.byte	0x1
 6151 0003 25       		.uleb128 0x25
 6152 0004 0E       		.uleb128 0xe
 6153 0005 13       		.uleb128 0x13
 6154 0006 0B       		.uleb128 0xb
 6155 0007 03       		.uleb128 0x3
 6156 0008 0E       		.uleb128 0xe
 6157 0009 1B       		.uleb128 0x1b
 6158 000a 0E       		.uleb128 0xe
 6159 000b 55       		.uleb128 0x55
 6160 000c 17       		.uleb128 0x17
 6161 000d 11       		.uleb128 0x11
 6162 000e 01       		.uleb128 0x1
 6163 000f 10       		.uleb128 0x10
 6164 0010 17       		.uleb128 0x17
 6165 0011 00       		.byte	0
 6166 0012 00       		.byte	0
 6167 0013 02       		.uleb128 0x2
 6168 0014 24       		.uleb128 0x24
 6169 0015 00       		.byte	0
 6170 0016 0B       		.uleb128 0xb
 6171 0017 0B       		.uleb128 0xb
 6172 0018 3E       		.uleb128 0x3e
 6173 0019 0B       		.uleb128 0xb
ARM GAS  C:\Users\student\AppData\Local\Temp\ccmWIiPR.s 			page 165


 6174 001a 03       		.uleb128 0x3
 6175 001b 08       		.uleb128 0x8
 6176 001c 00       		.byte	0
 6177 001d 00       		.byte	0
 6178 001e 03       		.uleb128 0x3
 6179 001f 24       		.uleb128 0x24
 6180 0020 00       		.byte	0
 6181 0021 0B       		.uleb128 0xb
 6182 0022 0B       		.uleb128 0xb
 6183 0023 3E       		.uleb128 0x3e
 6184 0024 0B       		.uleb128 0xb
 6185 0025 03       		.uleb128 0x3
 6186 0026 0E       		.uleb128 0xe
 6187 0027 00       		.byte	0
 6188 0028 00       		.byte	0
 6189 0029 04       		.uleb128 0x4
 6190 002a 0F       		.uleb128 0xf
 6191 002b 00       		.byte	0
 6192 002c 0B       		.uleb128 0xb
 6193 002d 0B       		.uleb128 0xb
 6194 002e 49       		.uleb128 0x49
 6195 002f 13       		.uleb128 0x13
 6196 0030 00       		.byte	0
 6197 0031 00       		.byte	0
 6198 0032 05       		.uleb128 0x5
 6199 0033 15       		.uleb128 0x15
 6200 0034 00       		.byte	0
 6201 0035 27       		.uleb128 0x27
 6202 0036 19       		.uleb128 0x19
 6203 0037 00       		.byte	0
 6204 0038 00       		.byte	0
 6205 0039 06       		.uleb128 0x6
 6206 003a 16       		.uleb128 0x16
 6207 003b 00       		.byte	0
 6208 003c 03       		.uleb128 0x3
 6209 003d 0E       		.uleb128 0xe
 6210 003e 3A       		.uleb128 0x3a
 6211 003f 0B       		.uleb128 0xb
 6212 0040 3B       		.uleb128 0x3b
 6213 0041 05       		.uleb128 0x5
 6214 0042 49       		.uleb128 0x49
 6215 0043 13       		.uleb128 0x13
 6216 0044 00       		.byte	0
 6217 0045 00       		.byte	0
 6218 0046 07       		.uleb128 0x7
 6219 0047 35       		.uleb128 0x35
 6220 0048 00       		.byte	0
 6221 0049 49       		.uleb128 0x49
 6222 004a 13       		.uleb128 0x13
 6223 004b 00       		.byte	0
 6224 004c 00       		.byte	0
 6225 004d 08       		.uleb128 0x8
 6226 004e 16       		.uleb128 0x16
 6227 004f 00       		.byte	0
 6228 0050 03       		.uleb128 0x3
 6229 0051 0E       		.uleb128 0xe
 6230 0052 3A       		.uleb128 0x3a
ARM GAS  C:\Users\student\AppData\Local\Temp\ccmWIiPR.s 			page 166


 6231 0053 0B       		.uleb128 0xb
 6232 0054 3B       		.uleb128 0x3b
 6233 0055 0B       		.uleb128 0xb
 6234 0056 49       		.uleb128 0x49
 6235 0057 13       		.uleb128 0x13
 6236 0058 00       		.byte	0
 6237 0059 00       		.byte	0
 6238 005a 09       		.uleb128 0x9
 6239 005b 2E       		.uleb128 0x2e
 6240 005c 01       		.byte	0x1
 6241 005d 03       		.uleb128 0x3
 6242 005e 0E       		.uleb128 0xe
 6243 005f 3A       		.uleb128 0x3a
 6244 0060 0B       		.uleb128 0xb
 6245 0061 3B       		.uleb128 0x3b
 6246 0062 05       		.uleb128 0x5
 6247 0063 27       		.uleb128 0x27
 6248 0064 19       		.uleb128 0x19
 6249 0065 49       		.uleb128 0x49
 6250 0066 13       		.uleb128 0x13
 6251 0067 11       		.uleb128 0x11
 6252 0068 01       		.uleb128 0x1
 6253 0069 12       		.uleb128 0x12
 6254 006a 06       		.uleb128 0x6
 6255 006b 40       		.uleb128 0x40
 6256 006c 18       		.uleb128 0x18
 6257 006d 9742     		.uleb128 0x2117
 6258 006f 19       		.uleb128 0x19
 6259 0070 01       		.uleb128 0x1
 6260 0071 13       		.uleb128 0x13
 6261 0072 00       		.byte	0
 6262 0073 00       		.byte	0
 6263 0074 0A       		.uleb128 0xa
 6264 0075 34       		.uleb128 0x34
 6265 0076 00       		.byte	0
 6266 0077 03       		.uleb128 0x3
 6267 0078 0E       		.uleb128 0xe
 6268 0079 3A       		.uleb128 0x3a
 6269 007a 0B       		.uleb128 0xb
 6270 007b 3B       		.uleb128 0x3b
 6271 007c 05       		.uleb128 0x5
 6272 007d 49       		.uleb128 0x49
 6273 007e 13       		.uleb128 0x13
 6274 007f 02       		.uleb128 0x2
 6275 0080 17       		.uleb128 0x17
 6276 0081 00       		.byte	0
 6277 0082 00       		.byte	0
 6278 0083 0B       		.uleb128 0xb
 6279 0084 2E       		.uleb128 0x2e
 6280 0085 01       		.byte	0x1
 6281 0086 03       		.uleb128 0x3
 6282 0087 0E       		.uleb128 0xe
 6283 0088 3A       		.uleb128 0x3a
 6284 0089 0B       		.uleb128 0xb
 6285 008a 3B       		.uleb128 0x3b
 6286 008b 05       		.uleb128 0x5
 6287 008c 27       		.uleb128 0x27
ARM GAS  C:\Users\student\AppData\Local\Temp\ccmWIiPR.s 			page 167


 6288 008d 19       		.uleb128 0x19
 6289 008e 11       		.uleb128 0x11
 6290 008f 01       		.uleb128 0x1
 6291 0090 12       		.uleb128 0x12
 6292 0091 06       		.uleb128 0x6
 6293 0092 40       		.uleb128 0x40
 6294 0093 18       		.uleb128 0x18
 6295 0094 9742     		.uleb128 0x2117
 6296 0096 19       		.uleb128 0x19
 6297 0097 01       		.uleb128 0x1
 6298 0098 13       		.uleb128 0x13
 6299 0099 00       		.byte	0
 6300 009a 00       		.byte	0
 6301 009b 0C       		.uleb128 0xc
 6302 009c 05       		.uleb128 0x5
 6303 009d 00       		.byte	0
 6304 009e 03       		.uleb128 0x3
 6305 009f 0E       		.uleb128 0xe
 6306 00a0 3A       		.uleb128 0x3a
 6307 00a1 0B       		.uleb128 0xb
 6308 00a2 3B       		.uleb128 0x3b
 6309 00a3 05       		.uleb128 0x5
 6310 00a4 49       		.uleb128 0x49
 6311 00a5 13       		.uleb128 0x13
 6312 00a6 02       		.uleb128 0x2
 6313 00a7 17       		.uleb128 0x17
 6314 00a8 00       		.byte	0
 6315 00a9 00       		.byte	0
 6316 00aa 0D       		.uleb128 0xd
 6317 00ab 2E       		.uleb128 0x2e
 6318 00ac 00       		.byte	0
 6319 00ad 3F       		.uleb128 0x3f
 6320 00ae 19       		.uleb128 0x19
 6321 00af 03       		.uleb128 0x3
 6322 00b0 0E       		.uleb128 0xe
 6323 00b1 3A       		.uleb128 0x3a
 6324 00b2 0B       		.uleb128 0xb
 6325 00b3 3B       		.uleb128 0x3b
 6326 00b4 0B       		.uleb128 0xb
 6327 00b5 27       		.uleb128 0x27
 6328 00b6 19       		.uleb128 0x19
 6329 00b7 11       		.uleb128 0x11
 6330 00b8 01       		.uleb128 0x1
 6331 00b9 12       		.uleb128 0x12
 6332 00ba 06       		.uleb128 0x6
 6333 00bb 40       		.uleb128 0x40
 6334 00bc 18       		.uleb128 0x18
 6335 00bd 9742     		.uleb128 0x2117
 6336 00bf 19       		.uleb128 0x19
 6337 00c0 00       		.byte	0
 6338 00c1 00       		.byte	0
 6339 00c2 0E       		.uleb128 0xe
 6340 00c3 2E       		.uleb128 0x2e
 6341 00c4 00       		.byte	0
 6342 00c5 3F       		.uleb128 0x3f
 6343 00c6 19       		.uleb128 0x19
 6344 00c7 03       		.uleb128 0x3
ARM GAS  C:\Users\student\AppData\Local\Temp\ccmWIiPR.s 			page 168


 6345 00c8 0E       		.uleb128 0xe
 6346 00c9 3A       		.uleb128 0x3a
 6347 00ca 0B       		.uleb128 0xb
 6348 00cb 3B       		.uleb128 0x3b
 6349 00cc 05       		.uleb128 0x5
 6350 00cd 27       		.uleb128 0x27
 6351 00ce 19       		.uleb128 0x19
 6352 00cf 11       		.uleb128 0x11
 6353 00d0 01       		.uleb128 0x1
 6354 00d1 12       		.uleb128 0x12
 6355 00d2 06       		.uleb128 0x6
 6356 00d3 40       		.uleb128 0x40
 6357 00d4 18       		.uleb128 0x18
 6358 00d5 9742     		.uleb128 0x2117
 6359 00d7 19       		.uleb128 0x19
 6360 00d8 00       		.byte	0
 6361 00d9 00       		.byte	0
 6362 00da 0F       		.uleb128 0xf
 6363 00db 2E       		.uleb128 0x2e
 6364 00dc 01       		.byte	0x1
 6365 00dd 3F       		.uleb128 0x3f
 6366 00de 19       		.uleb128 0x19
 6367 00df 03       		.uleb128 0x3
 6368 00e0 0E       		.uleb128 0xe
 6369 00e1 3A       		.uleb128 0x3a
 6370 00e2 0B       		.uleb128 0xb
 6371 00e3 3B       		.uleb128 0x3b
 6372 00e4 05       		.uleb128 0x5
 6373 00e5 27       		.uleb128 0x27
 6374 00e6 19       		.uleb128 0x19
 6375 00e7 11       		.uleb128 0x11
 6376 00e8 01       		.uleb128 0x1
 6377 00e9 12       		.uleb128 0x12
 6378 00ea 06       		.uleb128 0x6
 6379 00eb 40       		.uleb128 0x40
 6380 00ec 18       		.uleb128 0x18
 6381 00ed 9742     		.uleb128 0x2117
 6382 00ef 19       		.uleb128 0x19
 6383 00f0 01       		.uleb128 0x1
 6384 00f1 13       		.uleb128 0x13
 6385 00f2 00       		.byte	0
 6386 00f3 00       		.byte	0
 6387 00f4 10       		.uleb128 0x10
 6388 00f5 05       		.uleb128 0x5
 6389 00f6 00       		.byte	0
 6390 00f7 03       		.uleb128 0x3
 6391 00f8 0E       		.uleb128 0xe
 6392 00f9 3A       		.uleb128 0x3a
 6393 00fa 0B       		.uleb128 0xb
 6394 00fb 3B       		.uleb128 0x3b
 6395 00fc 05       		.uleb128 0x5
 6396 00fd 49       		.uleb128 0x49
 6397 00fe 13       		.uleb128 0x13
 6398 00ff 02       		.uleb128 0x2
 6399 0100 18       		.uleb128 0x18
 6400 0101 00       		.byte	0
 6401 0102 00       		.byte	0
ARM GAS  C:\Users\student\AppData\Local\Temp\ccmWIiPR.s 			page 169


 6402 0103 11       		.uleb128 0x11
 6403 0104 898201   		.uleb128 0x4109
 6404 0107 00       		.byte	0
 6405 0108 11       		.uleb128 0x11
 6406 0109 01       		.uleb128 0x1
 6407 010a 31       		.uleb128 0x31
 6408 010b 13       		.uleb128 0x13
 6409 010c 00       		.byte	0
 6410 010d 00       		.byte	0
 6411 010e 12       		.uleb128 0x12
 6412 010f 898201   		.uleb128 0x4109
 6413 0112 01       		.byte	0x1
 6414 0113 11       		.uleb128 0x11
 6415 0114 01       		.uleb128 0x1
 6416 0115 31       		.uleb128 0x31
 6417 0116 13       		.uleb128 0x13
 6418 0117 01       		.uleb128 0x1
 6419 0118 13       		.uleb128 0x13
 6420 0119 00       		.byte	0
 6421 011a 00       		.byte	0
 6422 011b 13       		.uleb128 0x13
 6423 011c 8A8201   		.uleb128 0x410a
 6424 011f 00       		.byte	0
 6425 0120 02       		.uleb128 0x2
 6426 0121 18       		.uleb128 0x18
 6427 0122 9142     		.uleb128 0x2111
 6428 0124 18       		.uleb128 0x18
 6429 0125 00       		.byte	0
 6430 0126 00       		.byte	0
 6431 0127 14       		.uleb128 0x14
 6432 0128 898201   		.uleb128 0x4109
 6433 012b 01       		.byte	0x1
 6434 012c 11       		.uleb128 0x11
 6435 012d 01       		.uleb128 0x1
 6436 012e 31       		.uleb128 0x31
 6437 012f 13       		.uleb128 0x13
 6438 0130 00       		.byte	0
 6439 0131 00       		.byte	0
 6440 0132 15       		.uleb128 0x15
 6441 0133 2E       		.uleb128 0x2e
 6442 0134 01       		.byte	0x1
 6443 0135 3F       		.uleb128 0x3f
 6444 0136 19       		.uleb128 0x19
 6445 0137 03       		.uleb128 0x3
 6446 0138 0E       		.uleb128 0xe
 6447 0139 3A       		.uleb128 0x3a
 6448 013a 0B       		.uleb128 0xb
 6449 013b 3B       		.uleb128 0x3b
 6450 013c 0B       		.uleb128 0xb
 6451 013d 27       		.uleb128 0x27
 6452 013e 19       		.uleb128 0x19
 6453 013f 49       		.uleb128 0x49
 6454 0140 13       		.uleb128 0x13
 6455 0141 11       		.uleb128 0x11
 6456 0142 01       		.uleb128 0x1
 6457 0143 12       		.uleb128 0x12
 6458 0144 06       		.uleb128 0x6
ARM GAS  C:\Users\student\AppData\Local\Temp\ccmWIiPR.s 			page 170


 6459 0145 40       		.uleb128 0x40
 6460 0146 18       		.uleb128 0x18
 6461 0147 9742     		.uleb128 0x2117
 6462 0149 19       		.uleb128 0x19
 6463 014a 01       		.uleb128 0x1
 6464 014b 13       		.uleb128 0x13
 6465 014c 00       		.byte	0
 6466 014d 00       		.byte	0
 6467 014e 16       		.uleb128 0x16
 6468 014f 05       		.uleb128 0x5
 6469 0150 00       		.byte	0
 6470 0151 03       		.uleb128 0x3
 6471 0152 0E       		.uleb128 0xe
 6472 0153 3A       		.uleb128 0x3a
 6473 0154 0B       		.uleb128 0xb
 6474 0155 3B       		.uleb128 0x3b
 6475 0156 0B       		.uleb128 0xb
 6476 0157 49       		.uleb128 0x49
 6477 0158 13       		.uleb128 0x13
 6478 0159 02       		.uleb128 0x2
 6479 015a 17       		.uleb128 0x17
 6480 015b 00       		.byte	0
 6481 015c 00       		.byte	0
 6482 015d 17       		.uleb128 0x17
 6483 015e 34       		.uleb128 0x34
 6484 015f 00       		.byte	0
 6485 0160 03       		.uleb128 0x3
 6486 0161 0E       		.uleb128 0xe
 6487 0162 3A       		.uleb128 0x3a
 6488 0163 0B       		.uleb128 0xb
 6489 0164 3B       		.uleb128 0x3b
 6490 0165 0B       		.uleb128 0xb
 6491 0166 49       		.uleb128 0x49
 6492 0167 13       		.uleb128 0x13
 6493 0168 02       		.uleb128 0x2
 6494 0169 17       		.uleb128 0x17
 6495 016a 00       		.byte	0
 6496 016b 00       		.byte	0
 6497 016c 18       		.uleb128 0x18
 6498 016d 2E       		.uleb128 0x2e
 6499 016e 01       		.byte	0x1
 6500 016f 3F       		.uleb128 0x3f
 6501 0170 19       		.uleb128 0x19
 6502 0171 03       		.uleb128 0x3
 6503 0172 0E       		.uleb128 0xe
 6504 0173 3A       		.uleb128 0x3a
 6505 0174 0B       		.uleb128 0xb
 6506 0175 3B       		.uleb128 0x3b
 6507 0176 05       		.uleb128 0x5
 6508 0177 27       		.uleb128 0x27
 6509 0178 19       		.uleb128 0x19
 6510 0179 49       		.uleb128 0x49
 6511 017a 13       		.uleb128 0x13
 6512 017b 11       		.uleb128 0x11
 6513 017c 01       		.uleb128 0x1
 6514 017d 12       		.uleb128 0x12
 6515 017e 06       		.uleb128 0x6
ARM GAS  C:\Users\student\AppData\Local\Temp\ccmWIiPR.s 			page 171


 6516 017f 40       		.uleb128 0x40
 6517 0180 18       		.uleb128 0x18
 6518 0181 9742     		.uleb128 0x2117
 6519 0183 19       		.uleb128 0x19
 6520 0184 01       		.uleb128 0x1
 6521 0185 13       		.uleb128 0x13
 6522 0186 00       		.byte	0
 6523 0187 00       		.byte	0
 6524 0188 19       		.uleb128 0x19
 6525 0189 34       		.uleb128 0x34
 6526 018a 00       		.byte	0
 6527 018b 03       		.uleb128 0x3
 6528 018c 0E       		.uleb128 0xe
 6529 018d 3A       		.uleb128 0x3a
 6530 018e 0B       		.uleb128 0xb
 6531 018f 3B       		.uleb128 0x3b
 6532 0190 05       		.uleb128 0x5
 6533 0191 49       		.uleb128 0x49
 6534 0192 13       		.uleb128 0x13
 6535 0193 02       		.uleb128 0x2
 6536 0194 18       		.uleb128 0x18
 6537 0195 00       		.byte	0
 6538 0196 00       		.byte	0
 6539 0197 1A       		.uleb128 0x1a
 6540 0198 2E       		.uleb128 0x2e
 6541 0199 00       		.byte	0
 6542 019a 3F       		.uleb128 0x3f
 6543 019b 19       		.uleb128 0x19
 6544 019c 03       		.uleb128 0x3
 6545 019d 0E       		.uleb128 0xe
 6546 019e 3A       		.uleb128 0x3a
 6547 019f 0B       		.uleb128 0xb
 6548 01a0 3B       		.uleb128 0x3b
 6549 01a1 05       		.uleb128 0x5
 6550 01a2 27       		.uleb128 0x27
 6551 01a3 19       		.uleb128 0x19
 6552 01a4 49       		.uleb128 0x49
 6553 01a5 13       		.uleb128 0x13
 6554 01a6 11       		.uleb128 0x11
 6555 01a7 01       		.uleb128 0x1
 6556 01a8 12       		.uleb128 0x12
 6557 01a9 06       		.uleb128 0x6
 6558 01aa 40       		.uleb128 0x40
 6559 01ab 18       		.uleb128 0x18
 6560 01ac 9742     		.uleb128 0x2117
 6561 01ae 19       		.uleb128 0x19
 6562 01af 00       		.byte	0
 6563 01b0 00       		.byte	0
 6564 01b1 1B       		.uleb128 0x1b
 6565 01b2 2E       		.uleb128 0x2e
 6566 01b3 01       		.byte	0x1
 6567 01b4 3F       		.uleb128 0x3f
 6568 01b5 19       		.uleb128 0x19
 6569 01b6 03       		.uleb128 0x3
 6570 01b7 0E       		.uleb128 0xe
 6571 01b8 3A       		.uleb128 0x3a
 6572 01b9 0B       		.uleb128 0xb
ARM GAS  C:\Users\student\AppData\Local\Temp\ccmWIiPR.s 			page 172


 6573 01ba 3B       		.uleb128 0x3b
 6574 01bb 0B       		.uleb128 0xb
 6575 01bc 27       		.uleb128 0x27
 6576 01bd 19       		.uleb128 0x19
 6577 01be 11       		.uleb128 0x11
 6578 01bf 01       		.uleb128 0x1
 6579 01c0 12       		.uleb128 0x12
 6580 01c1 06       		.uleb128 0x6
 6581 01c2 40       		.uleb128 0x40
 6582 01c3 18       		.uleb128 0x18
 6583 01c4 9742     		.uleb128 0x2117
 6584 01c6 19       		.uleb128 0x19
 6585 01c7 01       		.uleb128 0x1
 6586 01c8 13       		.uleb128 0x13
 6587 01c9 00       		.byte	0
 6588 01ca 00       		.byte	0
 6589 01cb 1C       		.uleb128 0x1c
 6590 01cc 34       		.uleb128 0x34
 6591 01cd 00       		.byte	0
 6592 01ce 03       		.uleb128 0x3
 6593 01cf 08       		.uleb128 0x8
 6594 01d0 3A       		.uleb128 0x3a
 6595 01d1 0B       		.uleb128 0xb
 6596 01d2 3B       		.uleb128 0x3b
 6597 01d3 05       		.uleb128 0x5
 6598 01d4 49       		.uleb128 0x49
 6599 01d5 13       		.uleb128 0x13
 6600 01d6 02       		.uleb128 0x2
 6601 01d7 18       		.uleb128 0x18
 6602 01d8 00       		.byte	0
 6603 01d9 00       		.byte	0
 6604 01da 1D       		.uleb128 0x1d
 6605 01db 34       		.uleb128 0x34
 6606 01dc 00       		.byte	0
 6607 01dd 03       		.uleb128 0x3
 6608 01de 0E       		.uleb128 0xe
 6609 01df 3A       		.uleb128 0x3a
 6610 01e0 0B       		.uleb128 0xb
 6611 01e1 3B       		.uleb128 0x3b
 6612 01e2 05       		.uleb128 0x5
 6613 01e3 49       		.uleb128 0x49
 6614 01e4 13       		.uleb128 0x13
 6615 01e5 1C       		.uleb128 0x1c
 6616 01e6 0D       		.uleb128 0xd
 6617 01e7 00       		.byte	0
 6618 01e8 00       		.byte	0
 6619 01e9 1E       		.uleb128 0x1e
 6620 01ea 2E       		.uleb128 0x2e
 6621 01eb 01       		.byte	0x1
 6622 01ec 03       		.uleb128 0x3
 6623 01ed 0E       		.uleb128 0xe
 6624 01ee 3A       		.uleb128 0x3a
 6625 01ef 0B       		.uleb128 0xb
 6626 01f0 3B       		.uleb128 0x3b
 6627 01f1 05       		.uleb128 0x5
 6628 01f2 27       		.uleb128 0x27
 6629 01f3 19       		.uleb128 0x19
ARM GAS  C:\Users\student\AppData\Local\Temp\ccmWIiPR.s 			page 173


 6630 01f4 11       		.uleb128 0x11
 6631 01f5 01       		.uleb128 0x1
 6632 01f6 12       		.uleb128 0x12
 6633 01f7 06       		.uleb128 0x6
 6634 01f8 40       		.uleb128 0x40
 6635 01f9 18       		.uleb128 0x18
 6636 01fa 9642     		.uleb128 0x2116
 6637 01fc 19       		.uleb128 0x19
 6638 01fd 01       		.uleb128 0x1
 6639 01fe 13       		.uleb128 0x13
 6640 01ff 00       		.byte	0
 6641 0200 00       		.byte	0
 6642 0201 1F       		.uleb128 0x1f
 6643 0202 34       		.uleb128 0x34
 6644 0203 00       		.byte	0
 6645 0204 03       		.uleb128 0x3
 6646 0205 08       		.uleb128 0x8
 6647 0206 3A       		.uleb128 0x3a
 6648 0207 0B       		.uleb128 0xb
 6649 0208 3B       		.uleb128 0x3b
 6650 0209 05       		.uleb128 0x5
 6651 020a 49       		.uleb128 0x49
 6652 020b 13       		.uleb128 0x13
 6653 020c 02       		.uleb128 0x2
 6654 020d 17       		.uleb128 0x17
 6655 020e 00       		.byte	0
 6656 020f 00       		.byte	0
 6657 0210 20       		.uleb128 0x20
 6658 0211 01       		.uleb128 0x1
 6659 0212 01       		.byte	0x1
 6660 0213 49       		.uleb128 0x49
 6661 0214 13       		.uleb128 0x13
 6662 0215 01       		.uleb128 0x1
 6663 0216 13       		.uleb128 0x13
 6664 0217 00       		.byte	0
 6665 0218 00       		.byte	0
 6666 0219 21       		.uleb128 0x21
 6667 021a 21       		.uleb128 0x21
 6668 021b 00       		.byte	0
 6669 021c 49       		.uleb128 0x49
 6670 021d 13       		.uleb128 0x13
 6671 021e 2F       		.uleb128 0x2f
 6672 021f 0B       		.uleb128 0xb
 6673 0220 00       		.byte	0
 6674 0221 00       		.byte	0
 6675 0222 22       		.uleb128 0x22
 6676 0223 34       		.uleb128 0x34
 6677 0224 00       		.byte	0
 6678 0225 03       		.uleb128 0x3
 6679 0226 0E       		.uleb128 0xe
 6680 0227 3A       		.uleb128 0x3a
 6681 0228 0B       		.uleb128 0xb
 6682 0229 3B       		.uleb128 0x3b
 6683 022a 0B       		.uleb128 0xb
 6684 022b 49       		.uleb128 0x49
 6685 022c 13       		.uleb128 0x13
 6686 022d 02       		.uleb128 0x2
ARM GAS  C:\Users\student\AppData\Local\Temp\ccmWIiPR.s 			page 174


 6687 022e 18       		.uleb128 0x18
 6688 022f 00       		.byte	0
 6689 0230 00       		.byte	0
 6690 0231 23       		.uleb128 0x23
 6691 0232 34       		.uleb128 0x34
 6692 0233 00       		.byte	0
 6693 0234 03       		.uleb128 0x3
 6694 0235 0E       		.uleb128 0xe
 6695 0236 3A       		.uleb128 0x3a
 6696 0237 0B       		.uleb128 0xb
 6697 0238 3B       		.uleb128 0x3b
 6698 0239 0B       		.uleb128 0xb
 6699 023a 49       		.uleb128 0x49
 6700 023b 13       		.uleb128 0x13
 6701 023c 3F       		.uleb128 0x3f
 6702 023d 19       		.uleb128 0x19
 6703 023e 02       		.uleb128 0x2
 6704 023f 18       		.uleb128 0x18
 6705 0240 00       		.byte	0
 6706 0241 00       		.byte	0
 6707 0242 24       		.uleb128 0x24
 6708 0243 2E       		.uleb128 0x2e
 6709 0244 00       		.byte	0
 6710 0245 3F       		.uleb128 0x3f
 6711 0246 19       		.uleb128 0x19
 6712 0247 03       		.uleb128 0x3
 6713 0248 0E       		.uleb128 0xe
 6714 0249 3A       		.uleb128 0x3a
 6715 024a 0B       		.uleb128 0xb
 6716 024b 3B       		.uleb128 0x3b
 6717 024c 0B       		.uleb128 0xb
 6718 024d 27       		.uleb128 0x27
 6719 024e 19       		.uleb128 0x19
 6720 024f 49       		.uleb128 0x49
 6721 0250 13       		.uleb128 0x13
 6722 0251 3C       		.uleb128 0x3c
 6723 0252 19       		.uleb128 0x19
 6724 0253 00       		.byte	0
 6725 0254 00       		.byte	0
 6726 0255 25       		.uleb128 0x25
 6727 0256 2E       		.uleb128 0x2e
 6728 0257 01       		.byte	0x1
 6729 0258 3F       		.uleb128 0x3f
 6730 0259 19       		.uleb128 0x19
 6731 025a 03       		.uleb128 0x3
 6732 025b 0E       		.uleb128 0xe
 6733 025c 3A       		.uleb128 0x3a
 6734 025d 0B       		.uleb128 0xb
 6735 025e 3B       		.uleb128 0x3b
 6736 025f 0B       		.uleb128 0xb
 6737 0260 27       		.uleb128 0x27
 6738 0261 19       		.uleb128 0x19
 6739 0262 3C       		.uleb128 0x3c
 6740 0263 19       		.uleb128 0x19
 6741 0264 01       		.uleb128 0x1
 6742 0265 13       		.uleb128 0x13
 6743 0266 00       		.byte	0
ARM GAS  C:\Users\student\AppData\Local\Temp\ccmWIiPR.s 			page 175


 6744 0267 00       		.byte	0
 6745 0268 26       		.uleb128 0x26
 6746 0269 05       		.uleb128 0x5
 6747 026a 00       		.byte	0
 6748 026b 49       		.uleb128 0x49
 6749 026c 13       		.uleb128 0x13
 6750 026d 00       		.byte	0
 6751 026e 00       		.byte	0
 6752 026f 27       		.uleb128 0x27
 6753 0270 2E       		.uleb128 0x2e
 6754 0271 01       		.byte	0x1
 6755 0272 3F       		.uleb128 0x3f
 6756 0273 19       		.uleb128 0x19
 6757 0274 03       		.uleb128 0x3
 6758 0275 0E       		.uleb128 0xe
 6759 0276 3A       		.uleb128 0x3a
 6760 0277 0B       		.uleb128 0xb
 6761 0278 3B       		.uleb128 0x3b
 6762 0279 0B       		.uleb128 0xb
 6763 027a 27       		.uleb128 0x27
 6764 027b 19       		.uleb128 0x19
 6765 027c 49       		.uleb128 0x49
 6766 027d 13       		.uleb128 0x13
 6767 027e 3C       		.uleb128 0x3c
 6768 027f 19       		.uleb128 0x19
 6769 0280 01       		.uleb128 0x1
 6770 0281 13       		.uleb128 0x13
 6771 0282 00       		.byte	0
 6772 0283 00       		.byte	0
 6773 0284 28       		.uleb128 0x28
 6774 0285 2E       		.uleb128 0x2e
 6775 0286 01       		.byte	0x1
 6776 0287 3F       		.uleb128 0x3f
 6777 0288 19       		.uleb128 0x19
 6778 0289 03       		.uleb128 0x3
 6779 028a 0E       		.uleb128 0xe
 6780 028b 3A       		.uleb128 0x3a
 6781 028c 0B       		.uleb128 0xb
 6782 028d 3B       		.uleb128 0x3b
 6783 028e 0B       		.uleb128 0xb
 6784 028f 27       		.uleb128 0x27
 6785 0290 19       		.uleb128 0x19
 6786 0291 3C       		.uleb128 0x3c
 6787 0292 19       		.uleb128 0x19
 6788 0293 00       		.byte	0
 6789 0294 00       		.byte	0
 6790 0295 00       		.byte	0
 6791              		.section	.debug_loc,"",%progbits
 6792              	.Ldebug_loc0:
 6793              	.LLST0:
 6794 0000 00000000 		.4byte	.LVL0
 6795 0004 38000000 		.4byte	.LVL1
 6796 0008 0200     		.2byte	0x2
 6797 000a 30       		.byte	0x30
 6798 000b 9F       		.byte	0x9f
 6799 000c 38000000 		.4byte	.LVL1
 6800 0010 48000000 		.4byte	.LFE6
ARM GAS  C:\Users\student\AppData\Local\Temp\ccmWIiPR.s 			page 176


 6801 0014 0100     		.2byte	0x1
 6802 0016 50       		.byte	0x50
 6803 0017 00000000 		.4byte	0
 6804 001b 00000000 		.4byte	0
 6805              	.LLST1:
 6806 001f 00000000 		.4byte	.LVL2
 6807 0023 22000000 		.4byte	.LVL3
 6808 0027 0100     		.2byte	0x1
 6809 0029 50       		.byte	0x50
 6810 002a 22000000 		.4byte	.LVL3
 6811 002e 48000000 		.4byte	.LFE14
 6812 0032 0400     		.2byte	0x4
 6813 0034 F3       		.byte	0xf3
 6814 0035 01       		.uleb128 0x1
 6815 0036 50       		.byte	0x50
 6816 0037 9F       		.byte	0x9f
 6817 0038 00000000 		.4byte	0
 6818 003c 00000000 		.4byte	0
 6819              	.LLST2:
 6820 0040 00000000 		.4byte	.LVL4
 6821 0044 0C000000 		.4byte	.LVL5
 6822 0048 0100     		.2byte	0x1
 6823 004a 50       		.byte	0x50
 6824 004b 0C000000 		.4byte	.LVL5
 6825 004f 18000000 		.4byte	.LFE12
 6826 0053 0400     		.2byte	0x4
 6827 0055 F3       		.byte	0xf3
 6828 0056 01       		.uleb128 0x1
 6829 0057 50       		.byte	0x50
 6830 0058 9F       		.byte	0x9f
 6831 0059 00000000 		.4byte	0
 6832 005d 00000000 		.4byte	0
 6833              	.LLST3:
 6834 0061 00000000 		.4byte	.LVL7
 6835 0065 07000000 		.4byte	.LVL8-1
 6836 0069 0100     		.2byte	0x1
 6837 006b 50       		.byte	0x50
 6838 006c 07000000 		.4byte	.LVL8-1
 6839 0070 70000000 		.4byte	.LFE15
 6840 0074 0400     		.2byte	0x4
 6841 0076 F3       		.byte	0xf3
 6842 0077 01       		.uleb128 0x1
 6843 0078 50       		.byte	0x50
 6844 0079 9F       		.byte	0x9f
 6845 007a 00000000 		.4byte	0
 6846 007e 00000000 		.4byte	0
 6847              	.LLST4:
 6848 0082 20000000 		.4byte	.LVL13
 6849 0086 56000000 		.4byte	.LVL18
 6850 008a 0100     		.2byte	0x1
 6851 008c 54       		.byte	0x54
 6852 008d 00000000 		.4byte	0
 6853 0091 00000000 		.4byte	0
 6854              	.LLST5:
 6855 0095 0E000000 		.4byte	.LVL10
 6856 0099 16000000 		.4byte	.LVL11
 6857 009d 0500     		.2byte	0x5
ARM GAS  C:\Users\student\AppData\Local\Temp\ccmWIiPR.s 			page 177


 6858 009f 72       		.byte	0x72
 6859 00a0 00       		.sleb128 0
 6860 00a1 38       		.byte	0x38
 6861 00a2 24       		.byte	0x24
 6862 00a3 9F       		.byte	0x9f
 6863 00a4 16000000 		.4byte	.LVL11
 6864 00a8 1C000000 		.4byte	.LVL12
 6865 00ac 0100     		.2byte	0x1
 6866 00ae 53       		.byte	0x53
 6867 00af 56000000 		.4byte	.LVL18
 6868 00b3 5B000000 		.4byte	.LVL19-1
 6869 00b7 0100     		.2byte	0x1
 6870 00b9 53       		.byte	0x53
 6871 00ba 00000000 		.4byte	0
 6872 00be 00000000 		.4byte	0
 6873              	.LLST6:
 6874 00c2 0A000000 		.4byte	.LVL9
 6875 00c6 64000000 		.4byte	.LVL21
 6876 00ca 0100     		.2byte	0x1
 6877 00cc 56       		.byte	0x56
 6878 00cd 00000000 		.4byte	0
 6879 00d1 00000000 		.4byte	0
 6880              	.LLST7:
 6881 00d5 00000000 		.4byte	.LVL22
 6882 00d9 0C000000 		.4byte	.LVL23
 6883 00dd 0100     		.2byte	0x1
 6884 00df 50       		.byte	0x50
 6885 00e0 0C000000 		.4byte	.LVL23
 6886 00e4 18000000 		.4byte	.LFE16
 6887 00e8 0400     		.2byte	0x4
 6888 00ea F3       		.byte	0xf3
 6889 00eb 01       		.uleb128 0x1
 6890 00ec 50       		.byte	0x50
 6891 00ed 9F       		.byte	0x9f
 6892 00ee 00000000 		.4byte	0
 6893 00f2 00000000 		.4byte	0
 6894              	.LLST8:
 6895 00f6 00000000 		.4byte	.LVL24
 6896 00fa 26000000 		.4byte	.LVL29
 6897 00fe 0100     		.2byte	0x1
 6898 0100 50       		.byte	0x50
 6899 0101 26000000 		.4byte	.LVL29
 6900 0105 62000000 		.4byte	.LVL34
 6901 0109 0400     		.2byte	0x4
 6902 010b F3       		.byte	0xf3
 6903 010c 01       		.uleb128 0x1
 6904 010d 50       		.byte	0x50
 6905 010e 9F       		.byte	0x9f
 6906 010f 62000000 		.4byte	.LVL34
 6907 0113 64000000 		.4byte	.LVL35
 6908 0117 0100     		.2byte	0x1
 6909 0119 50       		.byte	0x50
 6910 011a 64000000 		.4byte	.LVL35
 6911 011e 78000000 		.4byte	.LFE0
 6912 0122 0400     		.2byte	0x4
 6913 0124 F3       		.byte	0xf3
 6914 0125 01       		.uleb128 0x1
ARM GAS  C:\Users\student\AppData\Local\Temp\ccmWIiPR.s 			page 178


 6915 0126 50       		.byte	0x50
 6916 0127 9F       		.byte	0x9f
 6917 0128 00000000 		.4byte	0
 6918 012c 00000000 		.4byte	0
 6919              	.LLST9:
 6920 0130 02000000 		.4byte	.LVL25
 6921 0134 2A000000 		.4byte	.LVL30
 6922 0138 0200     		.2byte	0x2
 6923 013a 30       		.byte	0x30
 6924 013b 9F       		.byte	0x9f
 6925 013c 2A000000 		.4byte	.LVL30
 6926 0140 52000000 		.4byte	.LVL32
 6927 0144 0200     		.2byte	0x2
 6928 0146 40       		.byte	0x40
 6929 0147 9F       		.byte	0x9f
 6930 0148 52000000 		.4byte	.LVL32
 6931 014c 62000000 		.4byte	.LVL34
 6932 0150 0100     		.2byte	0x1
 6933 0152 55       		.byte	0x55
 6934 0153 62000000 		.4byte	.LVL34
 6935 0157 64000000 		.4byte	.LVL35
 6936 015b 0200     		.2byte	0x2
 6937 015d 30       		.byte	0x30
 6938 015e 9F       		.byte	0x9f
 6939 015f 64000000 		.4byte	.LVL35
 6940 0163 68000000 		.4byte	.LVL36
 6941 0167 0100     		.2byte	0x1
 6942 0169 55       		.byte	0x55
 6943 016a 68000000 		.4byte	.LVL36
 6944 016e 78000000 		.4byte	.LFE0
 6945 0172 0100     		.2byte	0x1
 6946 0174 50       		.byte	0x50
 6947 0175 00000000 		.4byte	0
 6948 0179 00000000 		.4byte	0
 6949              	.LLST10:
 6950 017d 18000000 		.4byte	.LVL26
 6951 0181 62000000 		.4byte	.LVL34
 6952 0185 0100     		.2byte	0x1
 6953 0187 54       		.byte	0x54
 6954 0188 00000000 		.4byte	0
 6955 018c 00000000 		.4byte	0
 6956              	.LLST11:
 6957 0190 1E000000 		.4byte	.LVL27
 6958 0194 62000000 		.4byte	.LVL34
 6959 0198 0100     		.2byte	0x1
 6960 019a 57       		.byte	0x57
 6961 019b 00000000 		.4byte	0
 6962 019f 00000000 		.4byte	0
 6963              	.LLST12:
 6964 01a3 24000000 		.4byte	.LVL28
 6965 01a7 62000000 		.4byte	.LVL34
 6966 01ab 0100     		.2byte	0x1
 6967 01ad 56       		.byte	0x56
 6968 01ae 00000000 		.4byte	0
 6969 01b2 00000000 		.4byte	0
 6970              	.LLST13:
 6971 01b6 00000000 		.4byte	.LVL37
ARM GAS  C:\Users\student\AppData\Local\Temp\ccmWIiPR.s 			page 179


 6972 01ba 30000000 		.4byte	.LVL41
 6973 01be 0100     		.2byte	0x1
 6974 01c0 50       		.byte	0x50
 6975 01c1 30000000 		.4byte	.LVL41
 6976 01c5 50000000 		.4byte	.LVL45
 6977 01c9 0400     		.2byte	0x4
 6978 01cb F3       		.byte	0xf3
 6979 01cc 01       		.uleb128 0x1
 6980 01cd 50       		.byte	0x50
 6981 01ce 9F       		.byte	0x9f
 6982 01cf 50000000 		.4byte	.LVL45
 6983 01d3 60000000 		.4byte	.LFE4
 6984 01d7 0100     		.2byte	0x1
 6985 01d9 50       		.byte	0x50
 6986 01da 00000000 		.4byte	0
 6987 01de 00000000 		.4byte	0
 6988              	.LLST14:
 6989 01e2 2E000000 		.4byte	.LVL40
 6990 01e6 50000000 		.4byte	.LVL45
 6991 01ea 0100     		.2byte	0x1
 6992 01ec 55       		.byte	0x55
 6993 01ed 00000000 		.4byte	0
 6994 01f1 00000000 		.4byte	0
 6995              	.LLST15:
 6996 01f5 28000000 		.4byte	.LVL39
 6997 01f9 50000000 		.4byte	.LVL45
 6998 01fd 0100     		.2byte	0x1
 6999 01ff 56       		.byte	0x56
 7000 0200 00000000 		.4byte	0
 7001 0204 00000000 		.4byte	0
 7002              	.LLST16:
 7003 0208 22000000 		.4byte	.LVL38
 7004 020c 50000000 		.4byte	.LVL45
 7005 0210 0100     		.2byte	0x1
 7006 0212 54       		.byte	0x54
 7007 0213 00000000 		.4byte	0
 7008 0217 00000000 		.4byte	0
 7009              	.LLST17:
 7010 021b 00000000 		.4byte	.LVL46
 7011 021f 08000000 		.4byte	.LVL47
 7012 0223 0100     		.2byte	0x1
 7013 0225 50       		.byte	0x50
 7014 0226 08000000 		.4byte	.LVL47
 7015 022a 16000000 		.4byte	.LFE23
 7016 022e 0400     		.2byte	0x4
 7017 0230 F3       		.byte	0xf3
 7018 0231 01       		.uleb128 0x1
 7019 0232 50       		.byte	0x50
 7020 0233 9F       		.byte	0x9f
 7021 0234 00000000 		.4byte	0
 7022 0238 00000000 		.4byte	0
 7023              	.LLST18:
 7024 023c 00000000 		.4byte	.LVL48
 7025 0240 1E000000 		.4byte	.LVL50
 7026 0244 0100     		.2byte	0x1
 7027 0246 50       		.byte	0x50
 7028 0247 1E000000 		.4byte	.LVL50
ARM GAS  C:\Users\student\AppData\Local\Temp\ccmWIiPR.s 			page 180


 7029 024b 24000000 		.4byte	.LFE24
 7030 024f 0400     		.2byte	0x4
 7031 0251 F3       		.byte	0xf3
 7032 0252 01       		.uleb128 0x1
 7033 0253 50       		.byte	0x50
 7034 0254 9F       		.byte	0x9f
 7035 0255 00000000 		.4byte	0
 7036 0259 00000000 		.4byte	0
 7037              	.LLST19:
 7038 025d 00000000 		.4byte	.LVL51
 7039 0261 2A000000 		.4byte	.LVL56
 7040 0265 0100     		.2byte	0x1
 7041 0267 50       		.byte	0x50
 7042 0268 2A000000 		.4byte	.LVL56
 7043 026c 98000000 		.4byte	.LVL61
 7044 0270 0400     		.2byte	0x4
 7045 0272 F3       		.byte	0xf3
 7046 0273 01       		.uleb128 0x1
 7047 0274 50       		.byte	0x50
 7048 0275 9F       		.byte	0x9f
 7049 0276 98000000 		.4byte	.LVL61
 7050 027a 9A000000 		.4byte	.LVL62
 7051 027e 0100     		.2byte	0x1
 7052 0280 50       		.byte	0x50
 7053 0281 9A000000 		.4byte	.LVL62
 7054 0285 AC000000 		.4byte	.LFE29
 7055 0289 0400     		.2byte	0x4
 7056 028b F3       		.byte	0xf3
 7057 028c 01       		.uleb128 0x1
 7058 028d 50       		.byte	0x50
 7059 028e 9F       		.byte	0x9f
 7060 028f 00000000 		.4byte	0
 7061 0293 00000000 		.4byte	0
 7062              	.LLST20:
 7063 0297 04000000 		.4byte	.LVL52
 7064 029b 2E000000 		.4byte	.LVL57
 7065 029f 0200     		.2byte	0x2
 7066 02a1 30       		.byte	0x30
 7067 02a2 9F       		.byte	0x9f
 7068 02a3 2E000000 		.4byte	.LVL57
 7069 02a7 84000000 		.4byte	.LVL59
 7070 02ab 0200     		.2byte	0x2
 7071 02ad 40       		.byte	0x40
 7072 02ae 9F       		.byte	0x9f
 7073 02af 84000000 		.4byte	.LVL59
 7074 02b3 98000000 		.4byte	.LVL61
 7075 02b7 0100     		.2byte	0x1
 7076 02b9 57       		.byte	0x57
 7077 02ba 98000000 		.4byte	.LVL61
 7078 02be 9A000000 		.4byte	.LVL62
 7079 02c2 0200     		.2byte	0x2
 7080 02c4 30       		.byte	0x30
 7081 02c5 9F       		.byte	0x9f
 7082 02c6 9A000000 		.4byte	.LVL62
 7083 02ca A0000000 		.4byte	.LVL63
 7084 02ce 0100     		.2byte	0x1
 7085 02d0 57       		.byte	0x57
ARM GAS  C:\Users\student\AppData\Local\Temp\ccmWIiPR.s 			page 181


 7086 02d1 A0000000 		.4byte	.LVL63
 7087 02d5 AC000000 		.4byte	.LFE29
 7088 02d9 0100     		.2byte	0x1
 7089 02db 50       		.byte	0x50
 7090 02dc 00000000 		.4byte	0
 7091 02e0 00000000 		.4byte	0
 7092              	.LLST21:
 7093 02e4 1C000000 		.4byte	.LVL53
 7094 02e8 98000000 		.4byte	.LVL61
 7095 02ec 0100     		.2byte	0x1
 7096 02ee 56       		.byte	0x56
 7097 02ef 00000000 		.4byte	0
 7098 02f3 00000000 		.4byte	0
 7099              	.LLST22:
 7100 02f7 22000000 		.4byte	.LVL54
 7101 02fb 98000000 		.4byte	.LVL61
 7102 02ff 0100     		.2byte	0x1
 7103 0301 55       		.byte	0x55
 7104 0302 00000000 		.4byte	0
 7105 0306 00000000 		.4byte	0
 7106              	.LLST23:
 7107 030a 28000000 		.4byte	.LVL55
 7108 030e 98000000 		.4byte	.LVL61
 7109 0312 0100     		.2byte	0x1
 7110 0314 54       		.byte	0x54
 7111 0315 00000000 		.4byte	0
 7112 0319 00000000 		.4byte	0
 7113              	.LLST24:
 7114 031d 00000000 		.4byte	.LVL64
 7115 0321 0C000000 		.4byte	.LVL65
 7116 0325 0100     		.2byte	0x1
 7117 0327 50       		.byte	0x50
 7118 0328 0C000000 		.4byte	.LVL65
 7119 032c 18000000 		.4byte	.LFE36
 7120 0330 0400     		.2byte	0x4
 7121 0332 F3       		.byte	0xf3
 7122 0333 01       		.uleb128 0x1
 7123 0334 50       		.byte	0x50
 7124 0335 9F       		.byte	0x9f
 7125 0336 00000000 		.4byte	0
 7126 033a 00000000 		.4byte	0
 7127              	.LLST25:
 7128 033e 00000000 		.4byte	.LVL66
 7129 0342 0C000000 		.4byte	.LVL67
 7130 0346 0100     		.2byte	0x1
 7131 0348 50       		.byte	0x50
 7132 0349 0C000000 		.4byte	.LVL67
 7133 034d 18000000 		.4byte	.LFE37
 7134 0351 0400     		.2byte	0x4
 7135 0353 F3       		.byte	0xf3
 7136 0354 01       		.uleb128 0x1
 7137 0355 50       		.byte	0x50
 7138 0356 9F       		.byte	0x9f
 7139 0357 00000000 		.4byte	0
 7140 035b 00000000 		.4byte	0
 7141              	.LLST26:
 7142 035f 00000000 		.4byte	.LVL68
ARM GAS  C:\Users\student\AppData\Local\Temp\ccmWIiPR.s 			page 182


 7143 0363 06000000 		.4byte	.LVL69
 7144 0367 0100     		.2byte	0x1
 7145 0369 50       		.byte	0x50
 7146 036a 06000000 		.4byte	.LVL69
 7147 036e 18000000 		.4byte	.LFE38
 7148 0372 0400     		.2byte	0x4
 7149 0374 F3       		.byte	0xf3
 7150 0375 01       		.uleb128 0x1
 7151 0376 50       		.byte	0x50
 7152 0377 9F       		.byte	0x9f
 7153 0378 00000000 		.4byte	0
 7154 037c 00000000 		.4byte	0
 7155              	.LLST27:
 7156 0380 00000000 		.4byte	.LVL71
 7157 0384 14000000 		.4byte	.LVL72
 7158 0388 0100     		.2byte	0x1
 7159 038a 50       		.byte	0x50
 7160 038b 14000000 		.4byte	.LVL72
 7161 038f 60000000 		.4byte	.LFE2
 7162 0393 0400     		.2byte	0x4
 7163 0395 F3       		.byte	0xf3
 7164 0396 01       		.uleb128 0x1
 7165 0397 50       		.byte	0x50
 7166 0398 9F       		.byte	0x9f
 7167 0399 00000000 		.4byte	0
 7168 039d 00000000 		.4byte	0
 7169              	.LLST28:
 7170 03a1 00000000 		.4byte	.LVL71
 7171 03a5 17000000 		.4byte	.LVL73-1
 7172 03a9 0100     		.2byte	0x1
 7173 03ab 51       		.byte	0x51
 7174 03ac 17000000 		.4byte	.LVL73-1
 7175 03b0 60000000 		.4byte	.LFE2
 7176 03b4 0400     		.2byte	0x4
 7177 03b6 F3       		.byte	0xf3
 7178 03b7 01       		.uleb128 0x1
 7179 03b8 51       		.byte	0x51
 7180 03b9 9F       		.byte	0x9f
 7181 03ba 00000000 		.4byte	0
 7182 03be 00000000 		.4byte	0
 7183              	.LLST29:
 7184 03c2 00000000 		.4byte	.LVL71
 7185 03c6 17000000 		.4byte	.LVL73-1
 7186 03ca 0100     		.2byte	0x1
 7187 03cc 52       		.byte	0x52
 7188 03cd 17000000 		.4byte	.LVL73-1
 7189 03d1 60000000 		.4byte	.LFE2
 7190 03d5 0400     		.2byte	0x4
 7191 03d7 F3       		.byte	0xf3
 7192 03d8 01       		.uleb128 0x1
 7193 03d9 52       		.byte	0x52
 7194 03da 9F       		.byte	0x9f
 7195 03db 00000000 		.4byte	0
 7196 03df 00000000 		.4byte	0
 7197              	.LLST30:
 7198 03e3 00000000 		.4byte	.LVL75
 7199 03e7 10000000 		.4byte	.LVL76
ARM GAS  C:\Users\student\AppData\Local\Temp\ccmWIiPR.s 			page 183


 7200 03eb 0100     		.2byte	0x1
 7201 03ed 50       		.byte	0x50
 7202 03ee 10000000 		.4byte	.LVL76
 7203 03f2 34000000 		.4byte	.LFE3
 7204 03f6 0400     		.2byte	0x4
 7205 03f8 F3       		.byte	0xf3
 7206 03f9 01       		.uleb128 0x1
 7207 03fa 50       		.byte	0x50
 7208 03fb 9F       		.byte	0x9f
 7209 03fc 00000000 		.4byte	0
 7210 0400 00000000 		.4byte	0
 7211              	.LLST31:
 7212 0404 00000000 		.4byte	.LVL79
 7213 0408 07000000 		.4byte	.LVL80-1
 7214 040c 0100     		.2byte	0x1
 7215 040e 50       		.byte	0x50
 7216 040f 07000000 		.4byte	.LVL80-1
 7217 0413 CC000000 		.4byte	.LFE7
 7218 0417 0400     		.2byte	0x4
 7219 0419 F3       		.byte	0xf3
 7220 041a 01       		.uleb128 0x1
 7221 041b 50       		.byte	0x50
 7222 041c 9F       		.byte	0x9f
 7223 041d 00000000 		.4byte	0
 7224 0421 00000000 		.4byte	0
 7225              	.LLST32:
 7226 0425 08000000 		.4byte	.LVL80
 7227 0429 9C000000 		.4byte	.LVL81
 7228 042d 0100     		.2byte	0x1
 7229 042f 50       		.byte	0x50
 7230 0430 00000000 		.4byte	0
 7231 0434 00000000 		.4byte	0
 7232              	.LLST33:
 7233 0438 00000000 		.4byte	.LVL83
 7234 043c 34000000 		.4byte	.LVL90
 7235 0440 0100     		.2byte	0x1
 7236 0442 50       		.byte	0x50
 7237 0443 34000000 		.4byte	.LVL90
 7238 0447 F4000000 		.4byte	.LFE8
 7239 044b 0400     		.2byte	0x4
 7240 044d F3       		.byte	0xf3
 7241 044e 01       		.uleb128 0x1
 7242 044f 50       		.byte	0x50
 7243 0450 9F       		.byte	0x9f
 7244 0451 00000000 		.4byte	0
 7245 0455 00000000 		.4byte	0
 7246              	.LLST34:
 7247 0459 0C000000 		.4byte	.LVL84
 7248 045d 28000000 		.4byte	.LVL86
 7249 0461 0100     		.2byte	0x1
 7250 0463 54       		.byte	0x54
 7251 0464 2A000000 		.4byte	.LVL87
 7252 0468 2E000000 		.4byte	.LVL88
 7253 046c 0200     		.2byte	0x2
 7254 046e 33       		.byte	0x33
 7255 046f 9F       		.byte	0x9f
 7256 0470 2E000000 		.4byte	.LVL88
ARM GAS  C:\Users\student\AppData\Local\Temp\ccmWIiPR.s 			page 184


 7257 0474 32000000 		.4byte	.LVL89
 7258 0478 0200     		.2byte	0x2
 7259 047a 30       		.byte	0x30
 7260 047b 9F       		.byte	0x9f
 7261 047c 32000000 		.4byte	.LVL89
 7262 0480 F0000000 		.4byte	.LVL97
 7263 0484 0100     		.2byte	0x1
 7264 0486 54       		.byte	0x54
 7265 0487 00000000 		.4byte	0
 7266 048b 00000000 		.4byte	0
 7267              	.LLST35:
 7268 048f 16000000 		.4byte	.LVL85
 7269 0493 F0000000 		.4byte	.LVL97
 7270 0497 0100     		.2byte	0x1
 7271 0499 55       		.byte	0x55
 7272 049a 00000000 		.4byte	0
 7273 049e 00000000 		.4byte	0
 7274              	.LLST36:
 7275 04a2 00000000 		.4byte	.LVL98
 7276 04a6 4E000000 		.4byte	.LVL99
 7277 04aa 0100     		.2byte	0x1
 7278 04ac 50       		.byte	0x50
 7279 04ad 4E000000 		.4byte	.LVL99
 7280 04b1 58000000 		.4byte	.LFE9
 7281 04b5 0400     		.2byte	0x4
 7282 04b7 F3       		.byte	0xf3
 7283 04b8 01       		.uleb128 0x1
 7284 04b9 50       		.byte	0x50
 7285 04ba 9F       		.byte	0x9f
 7286 04bb 00000000 		.4byte	0
 7287 04bf 00000000 		.4byte	0
 7288              	.LLST37:
 7289 04c3 00000000 		.4byte	.LVL101
 7290 04c7 06000000 		.4byte	.LVL102
 7291 04cb 0100     		.2byte	0x1
 7292 04cd 50       		.byte	0x50
 7293 04ce 06000000 		.4byte	.LVL102
 7294 04d2 26000000 		.4byte	.LVL106
 7295 04d6 0100     		.2byte	0x1
 7296 04d8 54       		.byte	0x54
 7297 04d9 00000000 		.4byte	0
 7298 04dd 00000000 		.4byte	0
 7299              	.LLST38:
 7300 04e1 00000000 		.4byte	.LVL107
 7301 04e5 0A000000 		.4byte	.LVL108
 7302 04e9 0100     		.2byte	0x1
 7303 04eb 50       		.byte	0x50
 7304 04ec 0A000000 		.4byte	.LVL108
 7305 04f0 14000000 		.4byte	.LFE42
 7306 04f4 0400     		.2byte	0x4
 7307 04f6 F3       		.byte	0xf3
 7308 04f7 01       		.uleb128 0x1
 7309 04f8 50       		.byte	0x50
 7310 04f9 9F       		.byte	0x9f
 7311 04fa 00000000 		.4byte	0
 7312 04fe 00000000 		.4byte	0
 7313              	.LLST39:
ARM GAS  C:\Users\student\AppData\Local\Temp\ccmWIiPR.s 			page 185


 7314 0502 00000000 		.4byte	.LVL110
 7315 0506 26000000 		.4byte	.LVL112
 7316 050a 0100     		.2byte	0x1
 7317 050c 50       		.byte	0x50
 7318 050d 26000000 		.4byte	.LVL112
 7319 0511 4A000000 		.4byte	.LVL115
 7320 0515 0400     		.2byte	0x4
 7321 0517 F3       		.byte	0xf3
 7322 0518 01       		.uleb128 0x1
 7323 0519 50       		.byte	0x50
 7324 051a 9F       		.byte	0x9f
 7325 051b 4A000000 		.4byte	.LVL115
 7326 051f 52000000 		.4byte	.LVL116
 7327 0523 0100     		.2byte	0x1
 7328 0525 50       		.byte	0x50
 7329 0526 52000000 		.4byte	.LVL116
 7330 052a 84000000 		.4byte	.LFE28
 7331 052e 0400     		.2byte	0x4
 7332 0530 F3       		.byte	0xf3
 7333 0531 01       		.uleb128 0x1
 7334 0532 50       		.byte	0x50
 7335 0533 9F       		.byte	0x9f
 7336 0534 00000000 		.4byte	0
 7337 0538 00000000 		.4byte	0
 7338              	.LLST40:
 7339 053c 12000000 		.4byte	.LVL111
 7340 0540 72000000 		.4byte	.LVL118
 7341 0544 0100     		.2byte	0x1
 7342 0546 54       		.byte	0x54
 7343 0547 00000000 		.4byte	0
 7344 054b 00000000 		.4byte	0
 7345              	.LLST41:
 7346 054f 00000000 		.4byte	.LVL122
 7347 0553 1C000000 		.4byte	.LVL123
 7348 0557 0100     		.2byte	0x1
 7349 0559 50       		.byte	0x50
 7350 055a 1C000000 		.4byte	.LVL123
 7351 055e 4C000000 		.4byte	.LFE43
 7352 0562 0400     		.2byte	0x4
 7353 0564 F3       		.byte	0xf3
 7354 0565 01       		.uleb128 0x1
 7355 0566 50       		.byte	0x50
 7356 0567 9F       		.byte	0x9f
 7357 0568 00000000 		.4byte	0
 7358 056c 00000000 		.4byte	0
 7359              	.LLST42:
 7360 0570 00000000 		.4byte	.LVL124
 7361 0574 0C000000 		.4byte	.LVL125
 7362 0578 0100     		.2byte	0x1
 7363 057a 50       		.byte	0x50
 7364 057b 0C000000 		.4byte	.LVL125
 7365 057f 40000000 		.4byte	.LFE44
 7366 0583 0400     		.2byte	0x4
 7367 0585 F3       		.byte	0xf3
 7368 0586 01       		.uleb128 0x1
 7369 0587 50       		.byte	0x50
 7370 0588 9F       		.byte	0x9f
ARM GAS  C:\Users\student\AppData\Local\Temp\ccmWIiPR.s 			page 186


 7371 0589 00000000 		.4byte	0
 7372 058d 00000000 		.4byte	0
 7373              	.LLST43:
 7374 0591 00000000 		.4byte	.LVL124
 7375 0595 22000000 		.4byte	.LVL126
 7376 0599 0100     		.2byte	0x1
 7377 059b 51       		.byte	0x51
 7378 059c 22000000 		.4byte	.LVL126
 7379 05a0 40000000 		.4byte	.LFE44
 7380 05a4 0400     		.2byte	0x4
 7381 05a6 F3       		.byte	0xf3
 7382 05a7 01       		.uleb128 0x1
 7383 05a8 51       		.byte	0x51
 7384 05a9 9F       		.byte	0x9f
 7385 05aa 00000000 		.4byte	0
 7386 05ae 00000000 		.4byte	0
 7387              	.LLST44:
 7388 05b2 00000000 		.4byte	.LVL127
 7389 05b6 07000000 		.4byte	.LVL128-1
 7390 05ba 0100     		.2byte	0x1
 7391 05bc 50       		.byte	0x50
 7392 05bd 07000000 		.4byte	.LVL128-1
 7393 05c1 2C000000 		.4byte	.LFE52
 7394 05c5 0400     		.2byte	0x4
 7395 05c7 F3       		.byte	0xf3
 7396 05c8 01       		.uleb128 0x1
 7397 05c9 50       		.byte	0x50
 7398 05ca 9F       		.byte	0x9f
 7399 05cb 00000000 		.4byte	0
 7400 05cf 00000000 		.4byte	0
 7401              	.LLST45:
 7402 05d3 08000000 		.4byte	.LVL128
 7403 05d7 1F000000 		.4byte	.LVL130-1
 7404 05db 0100     		.2byte	0x1
 7405 05dd 50       		.byte	0x50
 7406 05de 00000000 		.4byte	0
 7407 05e2 00000000 		.4byte	0
 7408              	.LLST46:
 7409 05e6 16000000 		.4byte	.LVL129
 7410 05ea 24000000 		.4byte	.LVL131
 7411 05ee 0100     		.2byte	0x1
 7412 05f0 54       		.byte	0x54
 7413 05f1 24000000 		.4byte	.LVL131
 7414 05f5 2C000000 		.4byte	.LFE52
 7415 05f9 0100     		.2byte	0x1
 7416 05fb 50       		.byte	0x50
 7417 05fc 00000000 		.4byte	0
 7418 0600 00000000 		.4byte	0
 7419              	.LLST47:
 7420 0604 00000000 		.4byte	.LVL132
 7421 0608 0B000000 		.4byte	.LVL133-1
 7422 060c 0100     		.2byte	0x1
 7423 060e 50       		.byte	0x50
 7424 060f 0B000000 		.4byte	.LVL133-1
 7425 0613 84000000 		.4byte	.LFE46
 7426 0617 0400     		.2byte	0x4
 7427 0619 F3       		.byte	0xf3
ARM GAS  C:\Users\student\AppData\Local\Temp\ccmWIiPR.s 			page 187


 7428 061a 01       		.uleb128 0x1
 7429 061b 50       		.byte	0x50
 7430 061c 9F       		.byte	0x9f
 7431 061d 00000000 		.4byte	0
 7432 0621 00000000 		.4byte	0
 7433              	.LLST48:
 7434 0625 00000000 		.4byte	.LVL132
 7435 0629 0B000000 		.4byte	.LVL133-1
 7436 062d 0100     		.2byte	0x1
 7437 062f 51       		.byte	0x51
 7438 0630 0B000000 		.4byte	.LVL133-1
 7439 0634 84000000 		.4byte	.LFE46
 7440 0638 0400     		.2byte	0x4
 7441 063a F3       		.byte	0xf3
 7442 063b 01       		.uleb128 0x1
 7443 063c 51       		.byte	0x51
 7444 063d 9F       		.byte	0x9f
 7445 063e 00000000 		.4byte	0
 7446 0642 00000000 		.4byte	0
 7447              	.LLST49:
 7448 0646 16000000 		.4byte	.LVL135
 7449 064a 78000000 		.4byte	.LVL139
 7450 064e 0100     		.2byte	0x1
 7451 0650 54       		.byte	0x54
 7452 0651 00000000 		.4byte	0
 7453 0655 00000000 		.4byte	0
 7454              	.LLST50:
 7455 0659 0E000000 		.4byte	.LVL134
 7456 065d 78000000 		.4byte	.LVL139
 7457 0661 0100     		.2byte	0x1
 7458 0663 56       		.byte	0x56
 7459 0664 00000000 		.4byte	0
 7460 0668 00000000 		.4byte	0
 7461              	.LLST51:
 7462 066c 00000000 		.4byte	.LVL140
 7463 0670 09000000 		.4byte	.LVL141-1
 7464 0674 0100     		.2byte	0x1
 7465 0676 50       		.byte	0x50
 7466 0677 09000000 		.4byte	.LVL141-1
 7467 067b 80000000 		.4byte	.LFE47
 7468 067f 0400     		.2byte	0x4
 7469 0681 F3       		.byte	0xf3
 7470 0682 01       		.uleb128 0x1
 7471 0683 50       		.byte	0x50
 7472 0684 9F       		.byte	0x9f
 7473 0685 00000000 		.4byte	0
 7474 0689 00000000 		.4byte	0
 7475              	.LLST52:
 7476 068d 00000000 		.4byte	.LVL140
 7477 0691 09000000 		.4byte	.LVL141-1
 7478 0695 0100     		.2byte	0x1
 7479 0697 51       		.byte	0x51
 7480 0698 09000000 		.4byte	.LVL141-1
 7481 069c 80000000 		.4byte	.LFE47
 7482 06a0 0400     		.2byte	0x4
 7483 06a2 F3       		.byte	0xf3
 7484 06a3 01       		.uleb128 0x1
ARM GAS  C:\Users\student\AppData\Local\Temp\ccmWIiPR.s 			page 188


 7485 06a4 51       		.byte	0x51
 7486 06a5 9F       		.byte	0x9f
 7487 06a6 00000000 		.4byte	0
 7488 06aa 00000000 		.4byte	0
 7489              	.LLST53:
 7490 06ae 14000000 		.4byte	.LVL143
 7491 06b2 74000000 		.4byte	.LVL147
 7492 06b6 0100     		.2byte	0x1
 7493 06b8 55       		.byte	0x55
 7494 06b9 00000000 		.4byte	0
 7495 06bd 00000000 		.4byte	0
 7496              	.LLST54:
 7497 06c1 0C000000 		.4byte	.LVL142
 7498 06c5 74000000 		.4byte	.LVL147
 7499 06c9 0100     		.2byte	0x1
 7500 06cb 56       		.byte	0x56
 7501 06cc 00000000 		.4byte	0
 7502 06d0 00000000 		.4byte	0
 7503              	.LLST55:
 7504 06d4 10000000 		.4byte	.LVL153
 7505 06d8 44000000 		.4byte	.LVL157
 7506 06dc 0100     		.2byte	0x1
 7507 06de 54       		.byte	0x54
 7508 06df 00000000 		.4byte	0
 7509 06e3 00000000 		.4byte	0
 7510              	.LLST56:
 7511 06e7 08000000 		.4byte	.LVL152
 7512 06eb 44000000 		.4byte	.LVL157
 7513 06ef 0100     		.2byte	0x1
 7514 06f1 57       		.byte	0x57
 7515 06f2 00000000 		.4byte	0
 7516 06f6 00000000 		.4byte	0
 7517              	.LLST57:
 7518 06fa 06000000 		.4byte	.LVL159
 7519 06fe 11000000 		.4byte	.LVL161-1
 7520 0702 0100     		.2byte	0x1
 7521 0704 50       		.byte	0x50
 7522 0705 00000000 		.4byte	0
 7523 0709 00000000 		.4byte	0
 7524              	.LLST58:
 7525 070d 0E000000 		.4byte	.LVL160
 7526 0711 16000000 		.4byte	.LVL162
 7527 0715 0100     		.2byte	0x1
 7528 0717 54       		.byte	0x54
 7529 0718 16000000 		.4byte	.LVL162
 7530 071c 1C000000 		.4byte	.LFE53
 7531 0720 0100     		.2byte	0x1
 7532 0722 50       		.byte	0x50
 7533 0723 00000000 		.4byte	0
 7534 0727 00000000 		.4byte	0
 7535              	.LLST59:
 7536 072b 0A000000 		.4byte	.LVL164
 7537 072f 18000000 		.4byte	.LVL166
 7538 0733 0100     		.2byte	0x1
 7539 0735 54       		.byte	0x54
 7540 0736 18000000 		.4byte	.LVL166
 7541 073a 1C000000 		.4byte	.LFE54
ARM GAS  C:\Users\student\AppData\Local\Temp\ccmWIiPR.s 			page 189


 7542 073e 0100     		.2byte	0x1
 7543 0740 50       		.byte	0x50
 7544 0741 00000000 		.4byte	0
 7545 0745 00000000 		.4byte	0
 7546              	.LLST60:
 7547 0749 06000000 		.4byte	.LVL163
 7548 074d 13000000 		.4byte	.LVL165-1
 7549 0751 0100     		.2byte	0x1
 7550 0753 50       		.byte	0x50
 7551 0754 00000000 		.4byte	0
 7552 0758 00000000 		.4byte	0
 7553              	.LLST61:
 7554 075c 00000000 		.4byte	.LVL167
 7555 0760 07000000 		.4byte	.LVL168-1
 7556 0764 0100     		.2byte	0x1
 7557 0766 50       		.byte	0x50
 7558 0767 07000000 		.4byte	.LVL168-1
 7559 076b 12000000 		.4byte	.LVL170
 7560 076f 0100     		.2byte	0x1
 7561 0771 54       		.byte	0x54
 7562 0772 12000000 		.4byte	.LVL170
 7563 0776 18000000 		.4byte	.LFE55
 7564 077a 0400     		.2byte	0x4
 7565 077c F3       		.byte	0xf3
 7566 077d 01       		.uleb128 0x1
 7567 077e 50       		.byte	0x50
 7568 077f 9F       		.byte	0x9f
 7569 0780 00000000 		.4byte	0
 7570 0784 00000000 		.4byte	0
 7571              	.LLST62:
 7572 0788 08000000 		.4byte	.LVL168
 7573 078c 0F000000 		.4byte	.LVL169-1
 7574 0790 0100     		.2byte	0x1
 7575 0792 50       		.byte	0x50
 7576 0793 00000000 		.4byte	0
 7577 0797 00000000 		.4byte	0
 7578              	.LLST63:
 7579 079b 06000000 		.4byte	.LVL171
 7580 079f 3B000000 		.4byte	.LVL172-1
 7581 07a3 0100     		.2byte	0x1
 7582 07a5 50       		.byte	0x50
 7583 07a6 00000000 		.4byte	0
 7584 07aa 00000000 		.4byte	0
 7585              	.LLST64:
 7586 07ae 00000000 		.4byte	.LVL173
 7587 07b2 10000000 		.4byte	.LVL175
 7588 07b6 0100     		.2byte	0x1
 7589 07b8 50       		.byte	0x50
 7590 07b9 10000000 		.4byte	.LVL175
 7591 07bd 28000000 		.4byte	.LFE57
 7592 07c1 0400     		.2byte	0x4
 7593 07c3 F3       		.byte	0xf3
 7594 07c4 01       		.uleb128 0x1
 7595 07c5 50       		.byte	0x50
 7596 07c6 9F       		.byte	0x9f
 7597 07c7 00000000 		.4byte	0
 7598 07cb 00000000 		.4byte	0
ARM GAS  C:\Users\student\AppData\Local\Temp\ccmWIiPR.s 			page 190


 7599              	.LLST65:
 7600 07cf 00000000 		.4byte	.LVL173
 7601 07d3 13000000 		.4byte	.LVL176-1
 7602 07d7 0100     		.2byte	0x1
 7603 07d9 51       		.byte	0x51
 7604 07da 13000000 		.4byte	.LVL176-1
 7605 07de 22000000 		.4byte	.LVL178
 7606 07e2 0100     		.2byte	0x1
 7607 07e4 56       		.byte	0x56
 7608 07e5 22000000 		.4byte	.LVL178
 7609 07e9 28000000 		.4byte	.LFE57
 7610 07ed 0400     		.2byte	0x4
 7611 07ef F3       		.byte	0xf3
 7612 07f0 01       		.uleb128 0x1
 7613 07f1 51       		.byte	0x51
 7614 07f2 9F       		.byte	0x9f
 7615 07f3 00000000 		.4byte	0
 7616 07f7 00000000 		.4byte	0
 7617              	.LLST66:
 7618 07fb 0A000000 		.4byte	.LVL174
 7619 07ff 22000000 		.4byte	.LVL178
 7620 0803 0100     		.2byte	0x1
 7621 0805 55       		.byte	0x55
 7622 0806 00000000 		.4byte	0
 7623 080a 00000000 		.4byte	0
 7624              	.LLST67:
 7625 080e 00000000 		.4byte	.LVL179
 7626 0812 0E000000 		.4byte	.LVL181
 7627 0816 0100     		.2byte	0x1
 7628 0818 50       		.byte	0x50
 7629 0819 0E000000 		.4byte	.LVL181
 7630 081d 20000000 		.4byte	.LFE58
 7631 0821 0400     		.2byte	0x4
 7632 0823 F3       		.byte	0xf3
 7633 0824 01       		.uleb128 0x1
 7634 0825 50       		.byte	0x50
 7635 0826 9F       		.byte	0x9f
 7636 0827 00000000 		.4byte	0
 7637 082b 00000000 		.4byte	0
 7638              	.LLST68:
 7639 082f 08000000 		.4byte	.LVL180
 7640 0833 1C000000 		.4byte	.LVL183
 7641 0837 0100     		.2byte	0x1
 7642 0839 55       		.byte	0x55
 7643 083a 00000000 		.4byte	0
 7644 083e 00000000 		.4byte	0
 7645              	.LLST69:
 7646 0842 00000000 		.4byte	.LVL184
 7647 0846 10000000 		.4byte	.LVL186
 7648 084a 0100     		.2byte	0x1
 7649 084c 50       		.byte	0x50
 7650 084d 10000000 		.4byte	.LVL186
 7651 0851 28000000 		.4byte	.LFE59
 7652 0855 0400     		.2byte	0x4
 7653 0857 F3       		.byte	0xf3
 7654 0858 01       		.uleb128 0x1
 7655 0859 50       		.byte	0x50
ARM GAS  C:\Users\student\AppData\Local\Temp\ccmWIiPR.s 			page 191


 7656 085a 9F       		.byte	0x9f
 7657 085b 00000000 		.4byte	0
 7658 085f 00000000 		.4byte	0
 7659              	.LLST70:
 7660 0863 00000000 		.4byte	.LVL184
 7661 0867 13000000 		.4byte	.LVL187-1
 7662 086b 0100     		.2byte	0x1
 7663 086d 51       		.byte	0x51
 7664 086e 13000000 		.4byte	.LVL187-1
 7665 0872 24000000 		.4byte	.LVL189
 7666 0876 0100     		.2byte	0x1
 7667 0878 56       		.byte	0x56
 7668 0879 24000000 		.4byte	.LVL189
 7669 087d 28000000 		.4byte	.LFE59
 7670 0881 0400     		.2byte	0x4
 7671 0883 F3       		.byte	0xf3
 7672 0884 01       		.uleb128 0x1
 7673 0885 51       		.byte	0x51
 7674 0886 9F       		.byte	0x9f
 7675 0887 00000000 		.4byte	0
 7676 088b 00000000 		.4byte	0
 7677              	.LLST71:
 7678 088f 0A000000 		.4byte	.LVL185
 7679 0893 24000000 		.4byte	.LVL189
 7680 0897 0100     		.2byte	0x1
 7681 0899 55       		.byte	0x55
 7682 089a 00000000 		.4byte	0
 7683 089e 00000000 		.4byte	0
 7684              	.LLST72:
 7685 08a2 00000000 		.4byte	.LVL190
 7686 08a6 0E000000 		.4byte	.LVL192
 7687 08aa 0100     		.2byte	0x1
 7688 08ac 50       		.byte	0x50
 7689 08ad 0E000000 		.4byte	.LVL192
 7690 08b1 24000000 		.4byte	.LFE60
 7691 08b5 0400     		.2byte	0x4
 7692 08b7 F3       		.byte	0xf3
 7693 08b8 01       		.uleb128 0x1
 7694 08b9 50       		.byte	0x50
 7695 08ba 9F       		.byte	0x9f
 7696 08bb 00000000 		.4byte	0
 7697 08bf 00000000 		.4byte	0
 7698              	.LLST73:
 7699 08c3 08000000 		.4byte	.LVL191
 7700 08c7 1E000000 		.4byte	.LVL194
 7701 08cb 0100     		.2byte	0x1
 7702 08cd 55       		.byte	0x55
 7703 08ce 00000000 		.4byte	0
 7704 08d2 00000000 		.4byte	0
 7705              	.LLST74:
 7706 08d6 00000000 		.4byte	.LVL195
 7707 08da 0C000000 		.4byte	.LVL196
 7708 08de 0100     		.2byte	0x1
 7709 08e0 50       		.byte	0x50
 7710 08e1 0C000000 		.4byte	.LVL196
 7711 08e5 2E000000 		.4byte	.LFE61
 7712 08e9 0400     		.2byte	0x4
ARM GAS  C:\Users\student\AppData\Local\Temp\ccmWIiPR.s 			page 192


 7713 08eb F3       		.byte	0xf3
 7714 08ec 01       		.uleb128 0x1
 7715 08ed 50       		.byte	0x50
 7716 08ee 9F       		.byte	0x9f
 7717 08ef 00000000 		.4byte	0
 7718 08f3 00000000 		.4byte	0
 7719              	.LLST75:
 7720 08f7 00000000 		.4byte	.LVL195
 7721 08fb 0F000000 		.4byte	.LVL197-1
 7722 08ff 0100     		.2byte	0x1
 7723 0901 51       		.byte	0x51
 7724 0902 0F000000 		.4byte	.LVL197-1
 7725 0906 2E000000 		.4byte	.LFE61
 7726 090a 0400     		.2byte	0x4
 7727 090c F3       		.byte	0xf3
 7728 090d 01       		.uleb128 0x1
 7729 090e 51       		.byte	0x51
 7730 090f 9F       		.byte	0x9f
 7731 0910 00000000 		.4byte	0
 7732 0914 00000000 		.4byte	0
 7733              	.LLST76:
 7734 0918 00000000 		.4byte	.LVL199
 7735 091c 0A000000 		.4byte	.LVL200
 7736 0920 0100     		.2byte	0x1
 7737 0922 50       		.byte	0x50
 7738 0923 0A000000 		.4byte	.LVL200
 7739 0927 20000000 		.4byte	.LFE62
 7740 092b 0400     		.2byte	0x4
 7741 092d F3       		.byte	0xf3
 7742 092e 01       		.uleb128 0x1
 7743 092f 50       		.byte	0x50
 7744 0930 9F       		.byte	0x9f
 7745 0931 00000000 		.4byte	0
 7746 0935 00000000 		.4byte	0
 7747              	.LLST77:
 7748 0939 1C000000 		.4byte	.LVL202
 7749 093d 1E000000 		.4byte	.LVL203
 7750 0941 0500     		.2byte	0x5
 7751 0943 70       		.byte	0x70
 7752 0944 00       		.sleb128 0
 7753 0945 35       		.byte	0x35
 7754 0946 25       		.byte	0x25
 7755 0947 9F       		.byte	0x9f
 7756 0948 00000000 		.4byte	0
 7757 094c 00000000 		.4byte	0
 7758              	.LLST78:
 7759 0950 00000000 		.4byte	.LVL204
 7760 0954 0A000000 		.4byte	.LVL205
 7761 0958 0100     		.2byte	0x1
 7762 095a 50       		.byte	0x50
 7763 095b 0A000000 		.4byte	.LVL205
 7764 095f 24000000 		.4byte	.LFE63
 7765 0963 0400     		.2byte	0x4
 7766 0965 F3       		.byte	0xf3
 7767 0966 01       		.uleb128 0x1
 7768 0967 50       		.byte	0x50
 7769 0968 9F       		.byte	0x9f
ARM GAS  C:\Users\student\AppData\Local\Temp\ccmWIiPR.s 			page 193


 7770 0969 00000000 		.4byte	0
 7771 096d 00000000 		.4byte	0
 7772              	.LLST79:
 7773 0971 00000000 		.4byte	.LVL208
 7774 0975 04000000 		.4byte	.LVL209
 7775 0979 0100     		.2byte	0x1
 7776 097b 50       		.byte	0x50
 7777 097c 04000000 		.4byte	.LVL209
 7778 0980 10000000 		.4byte	.LFE70
 7779 0984 0400     		.2byte	0x4
 7780 0986 F3       		.byte	0xf3
 7781 0987 01       		.uleb128 0x1
 7782 0988 50       		.byte	0x50
 7783 0989 9F       		.byte	0x9f
 7784 098a 00000000 		.4byte	0
 7785 098e 00000000 		.4byte	0
 7786              	.LLST80:
 7787 0992 0C000000 		.4byte	.LVL212
 7788 0996 1C000000 		.4byte	.LVL215
 7789 099a 0100     		.2byte	0x1
 7790 099c 54       		.byte	0x54
 7791 099d 1E000000 		.4byte	.LVL216
 7792 09a1 22000000 		.4byte	.LVL217
 7793 09a5 0100     		.2byte	0x1
 7794 09a7 54       		.byte	0x54
 7795 09a8 00000000 		.4byte	0
 7796 09ac 00000000 		.4byte	0
 7797              	.LLST81:
 7798 09b0 02000000 		.4byte	.LVL218
 7799 09b4 06000000 		.4byte	.LVL219
 7800 09b8 0200     		.2byte	0x2
 7801 09ba 30       		.byte	0x30
 7802 09bb 9F       		.byte	0x9f
 7803 09bc 06000000 		.4byte	.LVL219
 7804 09c0 1D000000 		.4byte	.LVL221-1
 7805 09c4 0100     		.2byte	0x1
 7806 09c6 53       		.byte	0x53
 7807 09c7 00000000 		.4byte	0
 7808 09cb 00000000 		.4byte	0
 7809              	.LLST82:
 7810 09cf 00000000 		.4byte	.LVL227
 7811 09d3 08000000 		.4byte	.LVL228
 7812 09d7 0100     		.2byte	0x1
 7813 09d9 50       		.byte	0x50
 7814 09da 08000000 		.4byte	.LVL228
 7815 09de 10000000 		.4byte	.LFE76
 7816 09e2 0400     		.2byte	0x4
 7817 09e4 F3       		.byte	0xf3
 7818 09e5 01       		.uleb128 0x1
 7819 09e6 50       		.byte	0x50
 7820 09e7 9F       		.byte	0x9f
 7821 09e8 00000000 		.4byte	0
 7822 09ec 00000000 		.4byte	0
 7823              	.LLST83:
 7824 09f0 00000000 		.4byte	.LVL229
 7825 09f4 06000000 		.4byte	.LVL230
 7826 09f8 0100     		.2byte	0x1
ARM GAS  C:\Users\student\AppData\Local\Temp\ccmWIiPR.s 			page 194


 7827 09fa 50       		.byte	0x50
 7828 09fb 06000000 		.4byte	.LVL230
 7829 09ff 10000000 		.4byte	.LFE77
 7830 0a03 0400     		.2byte	0x4
 7831 0a05 F3       		.byte	0xf3
 7832 0a06 01       		.uleb128 0x1
 7833 0a07 50       		.byte	0x50
 7834 0a08 9F       		.byte	0x9f
 7835 0a09 00000000 		.4byte	0
 7836 0a0d 00000000 		.4byte	0
 7837              		.section	.debug_aranges,"",%progbits
 7838 0000 94020000 		.4byte	0x294
 7839 0004 0200     		.2byte	0x2
 7840 0006 00000000 		.4byte	.Ldebug_info0
 7841 000a 04       		.byte	0x4
 7842 000b 00       		.byte	0
 7843 000c 0000     		.2byte	0
 7844 000e 0000     		.2byte	0
 7845 0010 00000000 		.4byte	.LFB6
 7846 0014 48000000 		.4byte	.LFE6-.LFB6
 7847 0018 00000000 		.4byte	.LFB14
 7848 001c 48000000 		.4byte	.LFE14-.LFB14
 7849 0020 00000000 		.4byte	.LFB1
 7850 0024 10000000 		.4byte	.LFE1-.LFB1
 7851 0028 00000000 		.4byte	.LFB5
 7852 002c 1C000000 		.4byte	.LFE5-.LFB5
 7853 0030 00000000 		.4byte	.LFB10
 7854 0034 10000000 		.4byte	.LFE10-.LFB10
 7855 0038 00000000 		.4byte	.LFB11
 7856 003c 10000000 		.4byte	.LFE11-.LFB11
 7857 0040 00000000 		.4byte	.LFB12
 7858 0044 18000000 		.4byte	.LFE12-.LFB12
 7859 0048 00000000 		.4byte	.LFB13
 7860 004c 0C000000 		.4byte	.LFE13-.LFB13
 7861 0050 00000000 		.4byte	.LFB15
 7862 0054 70000000 		.4byte	.LFE15-.LFB15
 7863 0058 00000000 		.4byte	.LFB16
 7864 005c 18000000 		.4byte	.LFE16-.LFB16
 7865 0060 00000000 		.4byte	.LFB17
 7866 0064 10000000 		.4byte	.LFE17-.LFB17
 7867 0068 00000000 		.4byte	.LFB18
 7868 006c 10000000 		.4byte	.LFE18-.LFB18
 7869 0070 00000000 		.4byte	.LFB19
 7870 0074 10000000 		.4byte	.LFE19-.LFB19
 7871 0078 00000000 		.4byte	.LFB20
 7872 007c 10000000 		.4byte	.LFE20-.LFB20
 7873 0080 00000000 		.4byte	.LFB0
 7874 0084 78000000 		.4byte	.LFE0-.LFB0
 7875 0088 00000000 		.4byte	.LFB4
 7876 008c 60000000 		.4byte	.LFE4-.LFB4
 7877 0090 00000000 		.4byte	.LFB21
 7878 0094 10000000 		.4byte	.LFE21-.LFB21
 7879 0098 00000000 		.4byte	.LFB22
 7880 009c 10000000 		.4byte	.LFE22-.LFB22
 7881 00a0 00000000 		.4byte	.LFB23
 7882 00a4 16000000 		.4byte	.LFE23-.LFB23
 7883 00a8 00000000 		.4byte	.LFB24
ARM GAS  C:\Users\student\AppData\Local\Temp\ccmWIiPR.s 			page 195


 7884 00ac 24000000 		.4byte	.LFE24-.LFB24
 7885 00b0 00000000 		.4byte	.LFB26
 7886 00b4 30000000 		.4byte	.LFE26-.LFB26
 7887 00b8 00000000 		.4byte	.LFB27
 7888 00bc 10000000 		.4byte	.LFE27-.LFB27
 7889 00c0 00000000 		.4byte	.LFB29
 7890 00c4 AC000000 		.4byte	.LFE29-.LFB29
 7891 00c8 00000000 		.4byte	.LFB30
 7892 00cc 10000000 		.4byte	.LFE30-.LFB30
 7893 00d0 00000000 		.4byte	.LFB31
 7894 00d4 10000000 		.4byte	.LFE31-.LFB31
 7895 00d8 00000000 		.4byte	.LFB32
 7896 00dc 10000000 		.4byte	.LFE32-.LFB32
 7897 00e0 00000000 		.4byte	.LFB33
 7898 00e4 18000000 		.4byte	.LFE33-.LFB33
 7899 00e8 00000000 		.4byte	.LFB34
 7900 00ec 10000000 		.4byte	.LFE34-.LFB34
 7901 00f0 00000000 		.4byte	.LFB35
 7902 00f4 10000000 		.4byte	.LFE35-.LFB35
 7903 00f8 00000000 		.4byte	.LFB36
 7904 00fc 18000000 		.4byte	.LFE36-.LFB36
 7905 0100 00000000 		.4byte	.LFB37
 7906 0104 18000000 		.4byte	.LFE37-.LFB37
 7907 0108 00000000 		.4byte	.LFB38
 7908 010c 18000000 		.4byte	.LFE38-.LFB38
 7909 0110 00000000 		.4byte	.LFB39
 7910 0114 04000000 		.4byte	.LFE39-.LFB39
 7911 0118 00000000 		.4byte	.LFB2
 7912 011c 60000000 		.4byte	.LFE2-.LFB2
 7913 0120 00000000 		.4byte	.LFB3
 7914 0124 34000000 		.4byte	.LFE3-.LFB3
 7915 0128 00000000 		.4byte	.LFB7
 7916 012c CC000000 		.4byte	.LFE7-.LFB7
 7917 0130 00000000 		.4byte	.LFB8
 7918 0134 F4000000 		.4byte	.LFE8-.LFB8
 7919 0138 00000000 		.4byte	.LFB9
 7920 013c 58000000 		.4byte	.LFE9-.LFB9
 7921 0140 00000000 		.4byte	.LFB40
 7922 0144 10000000 		.4byte	.LFE40-.LFB40
 7923 0148 00000000 		.4byte	.LFB41
 7924 014c 2C000000 		.4byte	.LFE41-.LFB41
 7925 0150 00000000 		.4byte	.LFB42
 7926 0154 14000000 		.4byte	.LFE42-.LFB42
 7927 0158 00000000 		.4byte	.LFB28
 7928 015c 84000000 		.4byte	.LFE28-.LFB28
 7929 0160 00000000 		.4byte	.LFB25
 7930 0164 70000000 		.4byte	.LFE25-.LFB25
 7931 0168 00000000 		.4byte	.LFB43
 7932 016c 4C000000 		.4byte	.LFE43-.LFB43
 7933 0170 00000000 		.4byte	.LFB44
 7934 0174 40000000 		.4byte	.LFE44-.LFB44
 7935 0178 00000000 		.4byte	.LFB45
 7936 017c 0C000000 		.4byte	.LFE45-.LFB45
 7937 0180 00000000 		.4byte	.LFB52
 7938 0184 2C000000 		.4byte	.LFE52-.LFB52
 7939 0188 00000000 		.4byte	.LFB46
 7940 018c 84000000 		.4byte	.LFE46-.LFB46
ARM GAS  C:\Users\student\AppData\Local\Temp\ccmWIiPR.s 			page 196


 7941 0190 00000000 		.4byte	.LFB47
 7942 0194 80000000 		.4byte	.LFE47-.LFB47
 7943 0198 00000000 		.4byte	.LFB48
 7944 019c 30000000 		.4byte	.LFE48-.LFB48
 7945 01a0 00000000 		.4byte	.LFB49
 7946 01a4 28000000 		.4byte	.LFE49-.LFB49
 7947 01a8 00000000 		.4byte	.LFB50
 7948 01ac 54000000 		.4byte	.LFE50-.LFB50
 7949 01b0 00000000 		.4byte	.LFB51
 7950 01b4 20000000 		.4byte	.LFE51-.LFB51
 7951 01b8 00000000 		.4byte	.LFB53
 7952 01bc 1C000000 		.4byte	.LFE53-.LFB53
 7953 01c0 00000000 		.4byte	.LFB54
 7954 01c4 1C000000 		.4byte	.LFE54-.LFB54
 7955 01c8 00000000 		.4byte	.LFB55
 7956 01cc 18000000 		.4byte	.LFE55-.LFB55
 7957 01d0 00000000 		.4byte	.LFB56
 7958 01d4 44000000 		.4byte	.LFE56-.LFB56
 7959 01d8 00000000 		.4byte	.LFB57
 7960 01dc 28000000 		.4byte	.LFE57-.LFB57
 7961 01e0 00000000 		.4byte	.LFB58
 7962 01e4 20000000 		.4byte	.LFE58-.LFB58
 7963 01e8 00000000 		.4byte	.LFB59
 7964 01ec 28000000 		.4byte	.LFE59-.LFB59
 7965 01f0 00000000 		.4byte	.LFB60
 7966 01f4 24000000 		.4byte	.LFE60-.LFB60
 7967 01f8 00000000 		.4byte	.LFB61
 7968 01fc 2E000000 		.4byte	.LFE61-.LFB61
 7969 0200 00000000 		.4byte	.LFB62
 7970 0204 20000000 		.4byte	.LFE62-.LFB62
 7971 0208 00000000 		.4byte	.LFB63
 7972 020c 24000000 		.4byte	.LFE63-.LFB63
 7973 0210 00000000 		.4byte	.LFB67
 7974 0214 10000000 		.4byte	.LFE67-.LFB67
 7975 0218 00000000 		.4byte	.LFB68
 7976 021c 10000000 		.4byte	.LFE68-.LFB68
 7977 0220 00000000 		.4byte	.LFB66
 7978 0224 18000000 		.4byte	.LFE66-.LFB66
 7979 0228 00000000 		.4byte	.LFB69
 7980 022c 10000000 		.4byte	.LFE69-.LFB69
 7981 0230 00000000 		.4byte	.LFB70
 7982 0234 10000000 		.4byte	.LFE70-.LFB70
 7983 0238 00000000 		.4byte	.LFB71
 7984 023c 10000000 		.4byte	.LFE71-.LFB71
 7985 0240 00000000 		.4byte	.LFB72
 7986 0244 10000000 		.4byte	.LFE72-.LFB72
 7987 0248 00000000 		.4byte	.LFB73
 7988 024c 20000000 		.4byte	.LFE73-.LFB73
 7989 0250 00000000 		.4byte	.LFB74
 7990 0254 10000000 		.4byte	.LFE74-.LFB74
 7991 0258 00000000 		.4byte	.LFB78
 7992 025c 28000000 		.4byte	.LFE78-.LFB78
 7993 0260 00000000 		.4byte	.LFB75
 7994 0264 0C000000 		.4byte	.LFE75-.LFB75
 7995 0268 00000000 		.4byte	.LFB65
 7996 026c 58000000 		.4byte	.LFE65-.LFB65
 7997 0270 00000000 		.4byte	.LFB64
ARM GAS  C:\Users\student\AppData\Local\Temp\ccmWIiPR.s 			page 197


 7998 0274 1C000000 		.4byte	.LFE64-.LFB64
 7999 0278 00000000 		.4byte	.LFB76
 8000 027c 10000000 		.4byte	.LFE76-.LFB76
 8001 0280 00000000 		.4byte	.LFB77
 8002 0284 10000000 		.4byte	.LFE77-.LFB77
 8003 0288 00000000 		.4byte	.LFB79
 8004 028c 70000000 		.4byte	.LFE79-.LFB79
 8005 0290 00000000 		.4byte	0
 8006 0294 00000000 		.4byte	0
 8007              		.section	.debug_ranges,"",%progbits
 8008              	.Ldebug_ranges0:
 8009 0000 00000000 		.4byte	.LFB6
 8010 0004 48000000 		.4byte	.LFE6
 8011 0008 00000000 		.4byte	.LFB14
 8012 000c 48000000 		.4byte	.LFE14
 8013 0010 00000000 		.4byte	.LFB1
 8014 0014 10000000 		.4byte	.LFE1
 8015 0018 00000000 		.4byte	.LFB5
 8016 001c 1C000000 		.4byte	.LFE5
 8017 0020 00000000 		.4byte	.LFB10
 8018 0024 10000000 		.4byte	.LFE10
 8019 0028 00000000 		.4byte	.LFB11
 8020 002c 10000000 		.4byte	.LFE11
 8021 0030 00000000 		.4byte	.LFB12
 8022 0034 18000000 		.4byte	.LFE12
 8023 0038 00000000 		.4byte	.LFB13
 8024 003c 0C000000 		.4byte	.LFE13
 8025 0040 00000000 		.4byte	.LFB15
 8026 0044 70000000 		.4byte	.LFE15
 8027 0048 00000000 		.4byte	.LFB16
 8028 004c 18000000 		.4byte	.LFE16
 8029 0050 00000000 		.4byte	.LFB17
 8030 0054 10000000 		.4byte	.LFE17
 8031 0058 00000000 		.4byte	.LFB18
 8032 005c 10000000 		.4byte	.LFE18
 8033 0060 00000000 		.4byte	.LFB19
 8034 0064 10000000 		.4byte	.LFE19
 8035 0068 00000000 		.4byte	.LFB20
 8036 006c 10000000 		.4byte	.LFE20
 8037 0070 00000000 		.4byte	.LFB0
 8038 0074 78000000 		.4byte	.LFE0
 8039 0078 00000000 		.4byte	.LFB4
 8040 007c 60000000 		.4byte	.LFE4
 8041 0080 00000000 		.4byte	.LFB21
 8042 0084 10000000 		.4byte	.LFE21
 8043 0088 00000000 		.4byte	.LFB22
 8044 008c 10000000 		.4byte	.LFE22
 8045 0090 00000000 		.4byte	.LFB23
 8046 0094 16000000 		.4byte	.LFE23
 8047 0098 00000000 		.4byte	.LFB24
 8048 009c 24000000 		.4byte	.LFE24
 8049 00a0 00000000 		.4byte	.LFB26
 8050 00a4 30000000 		.4byte	.LFE26
 8051 00a8 00000000 		.4byte	.LFB27
 8052 00ac 10000000 		.4byte	.LFE27
 8053 00b0 00000000 		.4byte	.LFB29
 8054 00b4 AC000000 		.4byte	.LFE29
ARM GAS  C:\Users\student\AppData\Local\Temp\ccmWIiPR.s 			page 198


 8055 00b8 00000000 		.4byte	.LFB30
 8056 00bc 10000000 		.4byte	.LFE30
 8057 00c0 00000000 		.4byte	.LFB31
 8058 00c4 10000000 		.4byte	.LFE31
 8059 00c8 00000000 		.4byte	.LFB32
 8060 00cc 10000000 		.4byte	.LFE32
 8061 00d0 00000000 		.4byte	.LFB33
 8062 00d4 18000000 		.4byte	.LFE33
 8063 00d8 00000000 		.4byte	.LFB34
 8064 00dc 10000000 		.4byte	.LFE34
 8065 00e0 00000000 		.4byte	.LFB35
 8066 00e4 10000000 		.4byte	.LFE35
 8067 00e8 00000000 		.4byte	.LFB36
 8068 00ec 18000000 		.4byte	.LFE36
 8069 00f0 00000000 		.4byte	.LFB37
 8070 00f4 18000000 		.4byte	.LFE37
 8071 00f8 00000000 		.4byte	.LFB38
 8072 00fc 18000000 		.4byte	.LFE38
 8073 0100 00000000 		.4byte	.LFB39
 8074 0104 04000000 		.4byte	.LFE39
 8075 0108 00000000 		.4byte	.LFB2
 8076 010c 60000000 		.4byte	.LFE2
 8077 0110 00000000 		.4byte	.LFB3
 8078 0114 34000000 		.4byte	.LFE3
 8079 0118 00000000 		.4byte	.LFB7
 8080 011c CC000000 		.4byte	.LFE7
 8081 0120 00000000 		.4byte	.LFB8
 8082 0124 F4000000 		.4byte	.LFE8
 8083 0128 00000000 		.4byte	.LFB9
 8084 012c 58000000 		.4byte	.LFE9
 8085 0130 00000000 		.4byte	.LFB40
 8086 0134 10000000 		.4byte	.LFE40
 8087 0138 00000000 		.4byte	.LFB41
 8088 013c 2C000000 		.4byte	.LFE41
 8089 0140 00000000 		.4byte	.LFB42
 8090 0144 14000000 		.4byte	.LFE42
 8091 0148 00000000 		.4byte	.LFB28
 8092 014c 84000000 		.4byte	.LFE28
 8093 0150 00000000 		.4byte	.LFB25
 8094 0154 70000000 		.4byte	.LFE25
 8095 0158 00000000 		.4byte	.LFB43
 8096 015c 4C000000 		.4byte	.LFE43
 8097 0160 00000000 		.4byte	.LFB44
 8098 0164 40000000 		.4byte	.LFE44
 8099 0168 00000000 		.4byte	.LFB45
 8100 016c 0C000000 		.4byte	.LFE45
 8101 0170 00000000 		.4byte	.LFB52
 8102 0174 2C000000 		.4byte	.LFE52
 8103 0178 00000000 		.4byte	.LFB46
 8104 017c 84000000 		.4byte	.LFE46
 8105 0180 00000000 		.4byte	.LFB47
 8106 0184 80000000 		.4byte	.LFE47
 8107 0188 00000000 		.4byte	.LFB48
 8108 018c 30000000 		.4byte	.LFE48
 8109 0190 00000000 		.4byte	.LFB49
 8110 0194 28000000 		.4byte	.LFE49
 8111 0198 00000000 		.4byte	.LFB50
ARM GAS  C:\Users\student\AppData\Local\Temp\ccmWIiPR.s 			page 199


 8112 019c 54000000 		.4byte	.LFE50
 8113 01a0 00000000 		.4byte	.LFB51
 8114 01a4 20000000 		.4byte	.LFE51
 8115 01a8 00000000 		.4byte	.LFB53
 8116 01ac 1C000000 		.4byte	.LFE53
 8117 01b0 00000000 		.4byte	.LFB54
 8118 01b4 1C000000 		.4byte	.LFE54
 8119 01b8 00000000 		.4byte	.LFB55
 8120 01bc 18000000 		.4byte	.LFE55
 8121 01c0 00000000 		.4byte	.LFB56
 8122 01c4 44000000 		.4byte	.LFE56
 8123 01c8 00000000 		.4byte	.LFB57
 8124 01cc 28000000 		.4byte	.LFE57
 8125 01d0 00000000 		.4byte	.LFB58
 8126 01d4 20000000 		.4byte	.LFE58
 8127 01d8 00000000 		.4byte	.LFB59
 8128 01dc 28000000 		.4byte	.LFE59
 8129 01e0 00000000 		.4byte	.LFB60
 8130 01e4 24000000 		.4byte	.LFE60
 8131 01e8 00000000 		.4byte	.LFB61
 8132 01ec 2E000000 		.4byte	.LFE61
 8133 01f0 00000000 		.4byte	.LFB62
 8134 01f4 20000000 		.4byte	.LFE62
 8135 01f8 00000000 		.4byte	.LFB63
 8136 01fc 24000000 		.4byte	.LFE63
 8137 0200 00000000 		.4byte	.LFB67
 8138 0204 10000000 		.4byte	.LFE67
 8139 0208 00000000 		.4byte	.LFB68
 8140 020c 10000000 		.4byte	.LFE68
 8141 0210 00000000 		.4byte	.LFB66
 8142 0214 18000000 		.4byte	.LFE66
 8143 0218 00000000 		.4byte	.LFB69
 8144 021c 10000000 		.4byte	.LFE69
 8145 0220 00000000 		.4byte	.LFB70
 8146 0224 10000000 		.4byte	.LFE70
 8147 0228 00000000 		.4byte	.LFB71
 8148 022c 10000000 		.4byte	.LFE71
 8149 0230 00000000 		.4byte	.LFB72
 8150 0234 10000000 		.4byte	.LFE72
 8151 0238 00000000 		.4byte	.LFB73
 8152 023c 20000000 		.4byte	.LFE73
 8153 0240 00000000 		.4byte	.LFB74
 8154 0244 10000000 		.4byte	.LFE74
 8155 0248 00000000 		.4byte	.LFB78
 8156 024c 28000000 		.4byte	.LFE78
 8157 0250 00000000 		.4byte	.LFB75
 8158 0254 0C000000 		.4byte	.LFE75
 8159 0258 00000000 		.4byte	.LFB65
 8160 025c 58000000 		.4byte	.LFE65
 8161 0260 00000000 		.4byte	.LFB64
 8162 0264 1C000000 		.4byte	.LFE64
 8163 0268 00000000 		.4byte	.LFB76
 8164 026c 10000000 		.4byte	.LFE76
 8165 0270 00000000 		.4byte	.LFB77
 8166 0274 10000000 		.4byte	.LFE77
 8167 0278 00000000 		.4byte	.LFB79
 8168 027c 70000000 		.4byte	.LFE79
ARM GAS  C:\Users\student\AppData\Local\Temp\ccmWIiPR.s 			page 200


 8169 0280 00000000 		.4byte	0
 8170 0284 00000000 		.4byte	0
 8171              		.section	.debug_line,"",%progbits
 8172              	.Ldebug_line0:
 8173 0000 02080000 		.section	.debug_str,"MS",%progbits,1
 8173      02005900 
 8173      00000201 
 8173      FB0E0D00 
 8173      01010101 
 8174              	.LASF127:
 8175 0000 4379496E 		.ascii	"CyIntGetVector\000"
 8175      74476574 
 8175      56656374 
 8175      6F7200
 8176              	.LASF145:
 8177 000f 43795379 		.ascii	"CySysTickClear\000"
 8177      73546963 
 8177      6B436C65 
 8177      617200
 8178              	.LASF90:
 8179 001e 43794465 		.ascii	"CyDelay\000"
 8179      6C617900 
 8180              	.LASF128:
 8181 0026 4379496E 		.ascii	"CyIntSetPriority\000"
 8181      74536574 
 8181      5072696F 
 8181      72697479 
 8181      00
 8182              	.LASF82:
 8183 0037 4379494D 		.ascii	"CyIMO_SetTrimValue\000"
 8183      4F5F5365 
 8183      74547269 
 8183      6D56616C 
 8183      756500
 8184              	.LASF67:
 8185 004a 43795854 		.ascii	"CyXTAL_ReadStatus\000"
 8185      414C5F52 
 8185      65616453 
 8185      74617475 
 8185      7300
 8186              	.LASF130:
 8187 005c 4379496E 		.ascii	"CyIntGetPriority\000"
 8187      74476574 
 8187      5072696F 
 8187      72697479 
 8187      00
 8188              	.LASF100:
 8189 006d 43795764 		.ascii	"CyWdtClear\000"
 8189      74436C65 
 8189      617200
 8190              	.LASF158:
 8191 0078 63796465 		.ascii	"cydelay_freq_mhz\000"
 8191      6C61795F 
 8191      66726571 
 8191      5F6D687A 
 8191      00
 8192              	.LASF91:
ARM GAS  C:\Users\student\AppData\Local\Temp\ccmWIiPR.s 			page 201


 8193 0089 6D696C6C 		.ascii	"milliseconds\000"
 8193      69736563 
 8193      6F6E6473 
 8193      00
 8194              	.LASF51:
 8195 0096 4379494C 		.ascii	"CyILO_Disable33K\000"
 8195      4F5F4469 
 8195      7361626C 
 8195      6533334B 
 8195      00
 8196              	.LASF76:
 8197 00a7 4379504C 		.ascii	"CyPLL_OUT_SetPQ\000"
 8197      4C5F4F55 
 8197      545F5365 
 8197      74505100 
 8198              	.LASF61:
 8199 00b7 706D5477 		.ascii	"pmTwCfg0Tmp\000"
 8199      43666730 
 8199      546D7000 
 8200              	.LASF165:
 8201 00c3 443A5C72 		.ascii	"D:\\rbeattie_final_project\\ConnectFour.cydsn\000"
 8201      62656174 
 8201      7469655F 
 8201      66696E61 
 8201      6C5F7072 
 8202              	.LASF161:
 8203 00ef 43794578 		.ascii	"CyExitCriticalSection\000"
 8203      69744372 
 8203      69746963 
 8203      616C5365 
 8203      6374696F 
 8204              	.LASF26:
 8205 0105 4379494D 		.ascii	"CyIMO_DisableDoubler\000"
 8205      4F5F4469 
 8205      7361626C 
 8205      65446F75 
 8205      626C6572 
 8206              	.LASF0:
 8207 011a 756E7369 		.ascii	"unsigned int\000"
 8207      676E6564 
 8207      20696E74 
 8207      00
 8208              	.LASF33:
 8209 0127 6D617374 		.ascii	"masterClkDiv\000"
 8209      6572436C 
 8209      6B446976 
 8209      00
 8210              	.LASF65:
 8211 0134 43795854 		.ascii	"CyXTAL_DisableErrStatus\000"
 8211      414C5F44 
 8211      69736162 
 8211      6C654572 
 8211      72537461 
 8212              	.LASF102:
 8213 014c 6D61736B 		.ascii	"mask\000"
 8213      00
 8214              	.LASF99:
ARM GAS  C:\Users\student\AppData\Local\Temp\ccmWIiPR.s 			page 202


 8215 0151 6C704D6F 		.ascii	"lpMode\000"
 8215      646500
 8216              	.LASF74:
 8217 0158 43794861 		.ascii	"CyHalt\000"
 8217      6C7400
 8218              	.LASF35:
 8219 015f 696E7465 		.ascii	"interruptState\000"
 8219      72727570 
 8219      74537461 
 8219      746500
 8220              	.LASF18:
 8221 016e 72656738 		.ascii	"reg8\000"
 8221      00
 8222              	.LASF70:
 8223 0173 43795854 		.ascii	"CyXTAL_SetStartup\000"
 8223      414C5F53 
 8223      65745374 
 8223      61727475 
 8223      7000
 8224              	.LASF38:
 8225 0185 4379494C 		.ascii	"CyILO_Stop1K\000"
 8225      4F5F5374 
 8225      6F70314B 
 8225      00
 8226              	.LASF162:
 8227 0192 4379506D 		.ascii	"CyPmFtwSetInterval\000"
 8227      46747753 
 8227      6574496E 
 8227      74657276 
 8227      616C00
 8228              	.LASF55:
 8229 01a5 6D6F6465 		.ascii	"mode\000"
 8229      00
 8230              	.LASF160:
 8231 01aa 43795379 		.ascii	"CySysTickInitVar\000"
 8231      73546963 
 8231      6B496E69 
 8231      74566172 
 8231      00
 8232              	.LASF25:
 8233 01bb 4379494D 		.ascii	"CyIMO_EnableDoubler\000"
 8233      4F5F456E 
 8233      61626C65 
 8233      446F7562 
 8233      6C657200 
 8234              	.LASF77:
 8235 01cf 70446976 		.ascii	"pDiv\000"
 8235      00
 8236              	.LASF148:
 8237 01d4 43795379 		.ascii	"CySysTickSetCallback\000"
 8237      73546963 
 8237      6B536574 
 8237      43616C6C 
 8237      6261636B 
 8238              	.LASF110:
 8239 01e9 43795664 		.ascii	"CyVdLvDigitDisable\000"
 8239      4C764469 
ARM GAS  C:\Users\student\AppData\Local\Temp\ccmWIiPR.s 			page 203


 8239      67697444 
 8239      69736162 
 8239      6C6500
 8240              	.LASF63:
 8241 01fc 43795854 		.ascii	"CyXTAL_Stop\000"
 8241      414C5F53 
 8241      746F7000 
 8242              	.LASF118:
 8243 0208 4379456E 		.ascii	"CyEnableInts\000"
 8243      61626C65 
 8243      496E7473 
 8243      00
 8244              	.LASF69:
 8245 0215 43795854 		.ascii	"CyXTAL_DisableFaultRecovery\000"
 8245      414C5F44 
 8245      69736162 
 8245      6C654661 
 8245      756C7452 
 8246              	.LASF163:
 8247 0231 474E5520 		.ascii	"GNU C 4.9.3 20150303 (release) [ARM/embedded-4_9-br"
 8247      4320342E 
 8247      392E3320 
 8247      32303135 
 8247      30333033 
 8248 0264 616E6368 		.ascii	"anch revision 221220] -mcpu=cortex-m3 -mthumb -g -O"
 8248      20726576 
 8248      6973696F 
 8248      6E203232 
 8248      31323230 
 8249 0297 67202D73 		.ascii	"g -std=gnu11 -ffunction-sections -ffat-lto-objects\000"
 8249      74643D67 
 8249      6E753131 
 8249      202D6666 
 8249      756E6374 
 8250              	.LASF108:
 8251 02ca 696E7452 		.ascii	"intRegTmp\000"
 8251      6567546D 
 8251      7000
 8252              	.LASF85:
 8253 02d4 4379494D 		.ascii	"CyIMO_SetFreq\000"
 8253      4F5F5365 
 8253      74467265 
 8253      7100
 8254              	.LASF71:
 8255 02e2 73657474 		.ascii	"setting\000"
 8255      696E6700 
 8256              	.LASF62:
 8257 02ea 706D5477 		.ascii	"pmTwCfg2Tmp\000"
 8257      43666732 
 8257      546D7000 
 8258              	.LASF15:
 8259 02f6 666C6F61 		.ascii	"float\000"
 8259      7400
 8260              	.LASF30:
 8261 02fc 43794D61 		.ascii	"CyMasterClk_SetDivider\000"
 8261      73746572 
 8261      436C6B5F 
ARM GAS  C:\Users\student\AppData\Local\Temp\ccmWIiPR.s 			page 204


 8261      53657444 
 8261      69766964 
 8262              	.LASF23:
 8263 0313 4379504C 		.ascii	"CyPLL_OUT_Stop\000"
 8263      4C5F4F55 
 8263      545F5374 
 8263      6F7000
 8264              	.LASF139:
 8265 0322 43795379 		.ascii	"CySysTickGetReload\000"
 8265      73546963 
 8265      6B476574 
 8265      52656C6F 
 8265      616400
 8266              	.LASF60:
 8267 0335 636F756E 		.ascii	"count\000"
 8267      7400
 8268              	.LASF157:
 8269 033b 63796465 		.ascii	"cydelay_freq_khz\000"
 8269      6C61795F 
 8269      66726571 
 8269      5F6B687A 
 8269      00
 8270              	.LASF92:
 8271 034c 43794465 		.ascii	"CyDelayUs\000"
 8271      6C617955 
 8271      7300
 8272              	.LASF9:
 8273 0356 6C6F6E67 		.ascii	"long long unsigned int\000"
 8273      206C6F6E 
 8273      6720756E 
 8273      7369676E 
 8273      65642069 
 8274              	.LASF75:
 8275 036d 72656173 		.ascii	"reason\000"
 8275      6F6E00
 8276              	.LASF95:
 8277 0374 43795854 		.ascii	"CyXTAL_32KHZ_Start\000"
 8277      414C5F33 
 8277      324B485A 
 8277      5F537461 
 8277      727400
 8278              	.LASF58:
 8279 0387 43795854 		.ascii	"CyXTAL_Start\000"
 8279      414C5F53 
 8279      74617274 
 8279      00
 8280              	.LASF94:
 8281 0394 43795854 		.ascii	"CyXTAL_32KHZ_SetPowerMode\000"
 8281      414C5F33 
 8281      324B485A 
 8281      5F536574 
 8281      506F7765 
 8282              	.LASF134:
 8283 03ae 43795379 		.ascii	"CySysTickEnableInterrupt\000"
 8283      73546963 
 8283      6B456E61 
 8283      626C6549 
ARM GAS  C:\Users\student\AppData\Local\Temp\ccmWIiPR.s 			page 205


 8283      6E746572 
 8284              	.LASF81:
 8285 03c7 43794275 		.ascii	"CyBusClk_Internal_SetDivider\000"
 8285      73436C6B 
 8285      5F496E74 
 8285      65726E61 
 8285      6C5F5365 
 8286              	.LASF133:
 8287 03e4 43795379 		.ascii	"CySysTickStop\000"
 8287      73546963 
 8287      6B53746F 
 8287      7000
 8288              	.LASF131:
 8289 03f2 4379496E 		.ascii	"CyIntGetState\000"
 8289      74476574 
 8289      53746174 
 8289      6500
 8290              	.LASF24:
 8291 0400 4379494D 		.ascii	"CyIMO_Stop\000"
 8291      4F5F5374 
 8291      6F7000
 8292              	.LASF151:
 8293 040b 43795379 		.ascii	"CySysTickGetCallback\000"
 8293      73546963 
 8293      6B476574 
 8293      43616C6C 
 8293      6261636B 
 8294              	.LASF109:
 8295 0420 43795664 		.ascii	"CyVdLvAnalogEnable\000"
 8295      4C76416E 
 8295      616C6F67 
 8295      456E6162 
 8295      6C6500
 8296              	.LASF123:
 8297 0433 6F6C6449 		.ascii	"oldIsr\000"
 8297      737200
 8298              	.LASF34:
 8299 043a 62757343 		.ascii	"busClkDiv\000"
 8299      6C6B4469 
 8299      7600
 8300              	.LASF86:
 8301 0444 63757272 		.ascii	"currentFreq\000"
 8301      656E7446 
 8301      72657100 
 8302              	.LASF115:
 8303 0450 7664466C 		.ascii	"vdFlagsState\000"
 8303      61677353 
 8303      74617465 
 8303      00
 8304              	.LASF37:
 8305 045d 4379494C 		.ascii	"CyILO_Start1K\000"
 8305      4F5F5374 
 8305      61727431 
 8305      4B00
 8306              	.LASF83:
 8307 046b 66726571 		.ascii	"freq\000"
 8307      00
ARM GAS  C:\Users\student\AppData\Local\Temp\ccmWIiPR.s 			page 206


 8308              	.LASF166:
 8309 0470 43795553 		.ascii	"CyUSB_PowerOnCheck\000"
 8309      425F506F 
 8309      7765724F 
 8309      6E436865 
 8309      636B00
 8310              	.LASF103:
 8311 0483 696E7465 		.ascii	"interruptStatus\000"
 8311      72727570 
 8311      74537461 
 8311      74757300 
 8312              	.LASF159:
 8313 0493 63796465 		.ascii	"cydelay_32k_ms\000"
 8313      6C61795F 
 8313      33326B5F 
 8313      6D7300
 8314              	.LASF98:
 8315 04a2 7469636B 		.ascii	"ticks\000"
 8315      7300
 8316              	.LASF22:
 8317 04a8 63795379 		.ascii	"cySysTickCallback\000"
 8317      73546963 
 8317      6B43616C 
 8317      6C626163 
 8317      6B00
 8318              	.LASF11:
 8319 04ba 63686172 		.ascii	"char\000"
 8319      00
 8320              	.LASF143:
 8321 04bf 43795379 		.ascii	"CySysTickGetCountFlag\000"
 8321      73546963 
 8321      6B476574 
 8321      436F756E 
 8321      74466C61 
 8322              	.LASF169:
 8323 04d5 43794465 		.ascii	"CyDelayCycles\000"
 8323      6C617943 
 8323      79636C65 
 8323      7300
 8324              	.LASF53:
 8325 04e3 4379504C 		.ascii	"CyPLL_OUT_Start\000"
 8325      4C5F4F55 
 8325      545F5374 
 8325      61727400 
 8326              	.LASF168:
 8327 04f3 4379506D 		.ascii	"CyPmReadStatus\000"
 8327      52656164 
 8327      53746174 
 8327      757300
 8328              	.LASF117:
 8329 0502 696E7453 		.ascii	"intState\000"
 8329      74617465 
 8329      00
 8330              	.LASF13:
 8331 050b 75696E74 		.ascii	"uint16\000"
 8331      313600
 8332              	.LASF32:
ARM GAS  C:\Users\student\AppData\Local\Temp\ccmWIiPR.s 			page 207


 8333 0512 706F7765 		.ascii	"poweredOn\000"
 8333      7265644F 
 8333      6E00
 8334              	.LASF126:
 8335 051c 4379496E 		.ascii	"CyIntSetVector\000"
 8335      74536574 
 8335      56656374 
 8335      6F7200
 8336              	.LASF42:
 8337 052b 73746174 		.ascii	"status\000"
 8337      757300
 8338              	.LASF105:
 8339 0532 43795664 		.ascii	"CyVdLvDigitEnable\000"
 8339      4C764469 
 8339      67697445 
 8339      6E61626C 
 8339      6500
 8340              	.LASF156:
 8341 0544 63796465 		.ascii	"cydelay_freq_hz\000"
 8341      6C61795F 
 8341      66726571 
 8341      5F687A00 
 8342              	.LASF112:
 8343 0554 43795664 		.ascii	"CyVdHvAnalogEnable\000"
 8343      4876416E 
 8343      616C6F67 
 8343      456E6162 
 8343      6C6500
 8344              	.LASF52:
 8345 0567 4379494C 		.ascii	"CyILO_SetSource\000"
 8345      4F5F5365 
 8345      74536F75 
 8345      72636500 
 8346              	.LASF1:
 8347 0577 6C6F6E67 		.ascii	"long long int\000"
 8347      206C6F6E 
 8347      6720696E 
 8347      7400
 8348              	.LASF19:
 8349 0585 72656731 		.ascii	"reg16\000"
 8349      3600
 8350              	.LASF135:
 8351 058b 43795379 		.ascii	"CySysTickEnable\000"
 8351      73546963 
 8351      6B456E61 
 8351      626C6500 
 8352              	.LASF73:
 8353 059b 43795854 		.ascii	"CyXTAL_SetWdVoltage\000"
 8353      414C5F53 
 8353      65745764 
 8353      566F6C74 
 8353      61676500 
 8354              	.LASF46:
 8355 05af 4379494D 		.ascii	"CyIMO_Start\000"
 8355      4F5F5374 
 8355      61727400 
 8356              	.LASF54:
ARM GAS  C:\Users\student\AppData\Local\Temp\ccmWIiPR.s 			page 208


 8357 05bb 4379494C 		.ascii	"CyILO_SetPowerMode\000"
 8357      4F5F5365 
 8357      74506F77 
 8357      65724D6F 
 8357      646500
 8358              	.LASF125:
 8359 05ce 4379496E 		.ascii	"CyIntGetSysVector\000"
 8359      74476574 
 8359      53797356 
 8359      6563746F 
 8359      7200
 8360              	.LASF154:
 8361 05e0 43795379 		.ascii	"CySysTickCallbacks\000"
 8361      73546963 
 8361      6B43616C 
 8361      6C626163 
 8361      6B7300
 8362              	.LASF44:
 8363 05f3 706D5477 		.ascii	"pmTwCfg0State\000"
 8363      43666730 
 8363      53746174 
 8363      6500
 8364              	.LASF21:
 8365 0601 63796973 		.ascii	"cyisraddress\000"
 8365      72616464 
 8365      72657373 
 8365      00
 8366              	.LASF64:
 8367 060e 43795854 		.ascii	"CyXTAL_EnableErrStatus\000"
 8367      414C5F45 
 8367      6E61626C 
 8367      65457272 
 8367      53746174 
 8368              	.LASF14:
 8369 0625 75696E74 		.ascii	"uint32\000"
 8369      333200
 8370              	.LASF140:
 8371 062c 43795379 		.ascii	"CySysTickGetValue\000"
 8371      73546963 
 8371      6B476574 
 8371      56616C75 
 8371      6500
 8372              	.LASF147:
 8373 063e 43795379 		.ascii	"CySysTickStart\000"
 8373      73546963 
 8373      6B537461 
 8373      727400
 8374              	.LASF144:
 8375 064d 43795379 		.ascii	"CySysTickServiceCallbacks\000"
 8375      73546963 
 8375      6B536572 
 8375      76696365 
 8375      43616C6C 
 8376              	.LASF66:
 8377 0667 43795854 		.ascii	"CyXTAL_32KHZ_ReadStatus\000"
 8377      414C5F33 
 8377      324B485A 
ARM GAS  C:\Users\student\AppData\Local\Temp\ccmWIiPR.s 			page 209


 8377      5F526561 
 8377      64537461 
 8378              	.LASF141:
 8379 067f 43795379 		.ascii	"CySysTickSetClockSource\000"
 8379      73546963 
 8379      6B536574 
 8379      436C6F63 
 8379      6B536F75 
 8380              	.LASF97:
 8381 0697 43795764 		.ascii	"CyWdtStart\000"
 8381      74537461 
 8381      727400
 8382              	.LASF41:
 8383 06a2 77616974 		.ascii	"wait\000"
 8383      00
 8384              	.LASF57:
 8385 06a7 43795854 		.ascii	"CyXTAL_32KHZ_Stop\000"
 8385      414C5F33 
 8385      324B485A 
 8385      5F53746F 
 8385      7000
 8386              	.LASF29:
 8387 06b9 43794D61 		.ascii	"CyMasterClk_SetSource\000"
 8387      73746572 
 8387      436C6B5F 
 8387      53657453 
 8387      6F757263 
 8388              	.LASF39:
 8389 06cf 4379494C 		.ascii	"CyILO_Start100K\000"
 8389      4F5F5374 
 8389      61727431 
 8389      30304B00 
 8390              	.LASF87:
 8391 06df 6E657874 		.ascii	"nextFreq\000"
 8391      46726571 
 8391      00
 8392              	.LASF2:
 8393 06e8 6C6F6E67 		.ascii	"long double\000"
 8393      20646F75 
 8393      626C6500 
 8394              	.LASF119:
 8395 06f4 4379466C 		.ascii	"CyFlushCache\000"
 8395      75736843 
 8395      61636865 
 8395      00
 8396              	.LASF116:
 8397 0701 43794469 		.ascii	"CyDisableInts\000"
 8397      7361626C 
 8397      65496E74 
 8397      7300
 8398              	.LASF20:
 8399 070f 72656733 		.ascii	"reg32\000"
 8399      3200
 8400              	.LASF142:
 8401 0715 636C6F63 		.ascii	"clockSource\000"
 8401      6B536F75 
 8401      72636500 
ARM GAS  C:\Users\student\AppData\Local\Temp\ccmWIiPR.s 			page 210


 8402              	.LASF84:
 8403 0721 75736250 		.ascii	"usbPowerOn\000"
 8403      6F776572 
 8403      4F6E00
 8404              	.LASF80:
 8405 072c 4379504C 		.ascii	"CyPLL_OUT_SetSource\000"
 8405      4C5F4F55 
 8405      545F5365 
 8405      74536F75 
 8405      72636500 
 8406              	.LASF137:
 8407 0740 43795379 		.ascii	"CySysTickSetReload\000"
 8407      73546963 
 8407      6B536574 
 8407      52656C6F 
 8407      616400
 8408              	.LASF5:
 8409 0753 73686F72 		.ascii	"short int\000"
 8409      7420696E 
 8409      7400
 8410              	.LASF27:
 8411 075d 64697669 		.ascii	"divider\000"
 8411      64657200 
 8412              	.LASF7:
 8413 0765 6C6F6E67 		.ascii	"long int\000"
 8413      20696E74 
 8413      00
 8414              	.LASF96:
 8415 076e 43794465 		.ascii	"CyDelayFreq\000"
 8415      6C617946 
 8415      72657100 
 8416              	.LASF132:
 8417 077a 73746174 		.ascii	"stateReg\000"
 8417      65526567 
 8417      00
 8418              	.LASF120:
 8419 0783 4379496E 		.ascii	"CyIntSetSysVector\000"
 8419      74536574 
 8419      53797356 
 8419      6563746F 
 8419      7200
 8420              	.LASF129:
 8421 0795 7072696F 		.ascii	"priority\000"
 8421      72697479 
 8421      00
 8422              	.LASF155:
 8423 079e 43795265 		.ascii	"CyResetStatus\000"
 8423      73657453 
 8423      74617475 
 8423      7300
 8424              	.LASF136:
 8425 07ac 43795379 		.ascii	"CySysTickDisableInterrupt\000"
 8425      73546963 
 8425      6B446973 
 8425      61626C65 
 8425      496E7465 
 8426              	.LASF45:
ARM GAS  C:\Users\student\AppData\Local\Temp\ccmWIiPR.s 			page 211


 8427 07c6 706D5477 		.ascii	"pmTwCfg2State\000"
 8427      43666732 
 8427      53746174 
 8427      6500
 8428              	.LASF111:
 8429 07d4 43795664 		.ascii	"CyVdLvAnalogDisable\000"
 8429      4C76416E 
 8429      616C6F67 
 8429      44697361 
 8429      626C6500 
 8430              	.LASF164:
 8431 07e8 2E5C4765 		.ascii	".\\Generated_Source\\PSoC5\\CyLib.c\000"
 8431      6E657261 
 8431      7465645F 
 8431      536F7572 
 8431      63655C50 
 8432              	.LASF78:
 8433 0809 71446976 		.ascii	"qDiv\000"
 8433      00
 8434              	.LASF106:
 8435 080e 72657365 		.ascii	"reset\000"
 8435      7400
 8436              	.LASF28:
 8437 0814 736F7572 		.ascii	"source\000"
 8437      636500
 8438              	.LASF121:
 8439 081b 6E756D62 		.ascii	"number\000"
 8439      657200
 8440              	.LASF146:
 8441 0822 43795379 		.ascii	"CySysTickInit\000"
 8441      73546963 
 8441      6B496E69 
 8441      7400
 8442              	.LASF10:
 8443 0830 73697A65 		.ascii	"sizetype\000"
 8443      74797065 
 8443      00
 8444              	.LASF8:
 8445 0839 6C6F6E67 		.ascii	"long unsigned int\000"
 8445      20756E73 
 8445      69676E65 
 8445      6420696E 
 8445      7400
 8446              	.LASF150:
 8447 084b 72657456 		.ascii	"retVal\000"
 8447      616C00
 8448              	.LASF122:
 8449 0852 61646472 		.ascii	"address\000"
 8449      65737300 
 8450              	.LASF101:
 8451 085a 43795664 		.ascii	"CyVdStickyStatus\000"
 8451      53746963 
 8451      6B795374 
 8451      61747573 
 8451      00
 8452              	.LASF49:
 8453 086b 696C6F31 		.ascii	"ilo100KhzEnable\000"
ARM GAS  C:\Users\student\AppData\Local\Temp\ccmWIiPR.s 			page 212


 8453      30304B68 
 8453      7A456E61 
 8453      626C6500 
 8454              	.LASF89:
 8455 087b 4379536F 		.ascii	"CySoftwareReset\000"
 8455      66747761 
 8455      72655265 
 8455      73657400 
 8456              	.LASF17:
 8457 088b 63797374 		.ascii	"cystatus\000"
 8457      61747573 
 8457      00
 8458              	.LASF31:
 8459 0894 43794275 		.ascii	"CyBusClk_SetDivider\000"
 8459      73436C6B 
 8459      5F536574 
 8459      44697669 
 8459      64657200 
 8460              	.LASF4:
 8461 08a8 756E7369 		.ascii	"unsigned char\000"
 8461      676E6564 
 8461      20636861 
 8461      7200
 8462              	.LASF124:
 8463 08b6 72616D56 		.ascii	"ramVectorTable\000"
 8463      6563746F 
 8463      72546162 
 8463      6C6500
 8464              	.LASF152:
 8465 08c5 43794765 		.ascii	"CyGetUniqueId\000"
 8465      74556E69 
 8465      71756549 
 8465      6400
 8466              	.LASF149:
 8467 08d3 66756E63 		.ascii	"function\000"
 8467      74696F6E 
 8467      00
 8468              	.LASF59:
 8469 08dc 74696D65 		.ascii	"timeout\000"
 8469      6F757400 
 8470              	.LASF93:
 8471 08e4 6D696372 		.ascii	"microseconds\000"
 8471      6F736563 
 8471      6F6E6473 
 8471      00
 8472              	.LASF36:
 8473 08f1 43795573 		.ascii	"CyUsbClk_SetSource\000"
 8473      62436C6B 
 8473      5F536574 
 8473      536F7572 
 8473      636500
 8474              	.LASF56:
 8475 0904 73746174 		.ascii	"state\000"
 8475      6500
 8476              	.LASF114:
 8477 090a 43795664 		.ascii	"CyVdRealTimeStatus\000"
 8477      5265616C 
ARM GAS  C:\Users\student\AppData\Local\Temp\ccmWIiPR.s 			page 213


 8477      54696D65 
 8477      53746174 
 8477      757300
 8478              	.LASF104:
 8479 091d 746D7053 		.ascii	"tmpStatus\000"
 8479      74617475 
 8479      7300
 8480              	.LASF40:
 8481 0927 4379494C 		.ascii	"CyILO_Stop100K\000"
 8481      4F5F5374 
 8481      6F703130 
 8481      304B00
 8482              	.LASF68:
 8483 0936 43795854 		.ascii	"CyXTAL_EnableFaultRecovery\000"
 8483      414C5F45 
 8483      6E61626C 
 8483      65466175 
 8483      6C745265 
 8484              	.LASF72:
 8485 0951 43795854 		.ascii	"CyXTAL_SetFbVoltage\000"
 8485      414C5F53 
 8485      65744662 
 8485      566F6C74 
 8485      61676500 
 8486              	.LASF107:
 8487 0965 74687265 		.ascii	"threshold\000"
 8487      73686F6C 
 8487      6400
 8488              	.LASF167:
 8489 096f 4379456E 		.ascii	"CyEnterCriticalSection\000"
 8489      74657243 
 8489      72697469 
 8489      63616C53 
 8489      65637469 
 8490              	.LASF3:
 8491 0986 7369676E 		.ascii	"signed char\000"
 8491      65642063 
 8491      68617200 
 8492              	.LASF6:
 8493 0992 73686F72 		.ascii	"short unsigned int\000"
 8493      7420756E 
 8493      7369676E 
 8493      65642069 
 8493      6E7400
 8494              	.LASF48:
 8495 09a5 706D4674 		.ascii	"pmFtwCfg0Reg\000"
 8495      77436667 
 8495      30526567 
 8495      00
 8496              	.LASF88:
 8497 09b2 4379494D 		.ascii	"CyIMO_SetSource\000"
 8497      4F5F5365 
 8497      74536F75 
 8497      72636500 
 8498              	.LASF153:
 8499 09c2 756E6971 		.ascii	"uniqueId\000"
 8499      75654964 
ARM GAS  C:\Users\student\AppData\Local\Temp\ccmWIiPR.s 			page 214


 8499      00
 8500              	.LASF79:
 8501 09cb 63757272 		.ascii	"current\000"
 8501      656E7400 
 8502              	.LASF50:
 8503 09d3 4379494C 		.ascii	"CyILO_Enable33K\000"
 8503      4F5F456E 
 8503      61626C65 
 8503      33334B00 
 8504              	.LASF12:
 8505 09e3 75696E74 		.ascii	"uint8\000"
 8505      3800
 8506              	.LASF16:
 8507 09e9 646F7562 		.ascii	"double\000"
 8507      6C6500
 8508              	.LASF43:
 8509 09f0 696C6F45 		.ascii	"iloEnableState\000"
 8509      6E61626C 
 8509      65537461 
 8509      746500
 8510              	.LASF138:
 8511 09ff 76616C75 		.ascii	"value\000"
 8511      6500
 8512              	.LASF113:
 8513 0a05 43795664 		.ascii	"CyVdHvAnalogDisable\000"
 8513      4876416E 
 8513      616C6F67 
 8513      44697361 
 8513      626C6500 
 8514              	.LASF47:
 8515 0a19 706D4674 		.ascii	"pmFtwCfg2Reg\000"
 8515      77436667 
 8515      32526567 
 8515      00
 8516              		.ident	"GCC: (GNU Tools for ARM Embedded Processors) 4.9.3 20150303 (release) [ARM/embedded-4_9-br
