ARM GAS  C:\Users\student\AppData\Local\Temp\ccqZlBkQ.s 			page 1


   1              		.syntax unified
   2              		.cpu cortex-m3
   3              		.fpu softvfp
   4              		.eabi_attribute 20, 1
   5              		.eabi_attribute 21, 1
   6              		.eabi_attribute 23, 3
   7              		.eabi_attribute 24, 1
   8              		.eabi_attribute 25, 1
   9              		.eabi_attribute 26, 1
  10              		.eabi_attribute 30, 1
  11              		.eabi_attribute 34, 1
  12              		.eabi_attribute 18, 4
  13              		.thumb
  14              		.file	"LCDConf.c"
  15              		.text
  16              	.Ltext0:
  17              		.cfi_sections	.debug_frame
  18              		.section	.text._InitController,"ax",%progbits
  19              		.align	2
  20              		.thumb
  21              		.thumb_func
  22              		.type	_InitController, %function
  23              	_InitController:
  24              	.LFB63:
  25              		.file 1 ".\\LCDConf.c"
   1:.\LCDConf.c   **** /*********************************************************************
   2:.\LCDConf.c   **** *                SEGGER Microcontroller GmbH & Co. KG                *
   3:.\LCDConf.c   **** *        Solutions for real time microcontroller applications        *
   4:.\LCDConf.c   **** **********************************************************************
   5:.\LCDConf.c   **** *                                                                    *
   6:.\LCDConf.c   **** *        (c) 1996 - 2017  SEGGER Microcontroller GmbH & Co. KG       *
   7:.\LCDConf.c   **** *                                                                    *
   8:.\LCDConf.c   **** *        Internet: www.segger.com    Support:  support@segger.com    *
   9:.\LCDConf.c   **** *                                                                    *
  10:.\LCDConf.c   **** **********************************************************************
  11:.\LCDConf.c   **** 
  12:.\LCDConf.c   **** ** emWin V5.46 - Graphical user interface for embedded applications **
  13:.\LCDConf.c   **** All  Intellectual Property rights  in the Software belongs to  SEGGER.
  14:.\LCDConf.c   **** emWin is protected by  international copyright laws.  Knowledge of the
  15:.\LCDConf.c   **** source code may not be used to write a similar product.  This file may
  16:.\LCDConf.c   **** only be used in accordance with the following terms:
  17:.\LCDConf.c   **** 
  18:.\LCDConf.c   **** The software  has been licensed to  Cypress Semiconductor Corporation,
  19:.\LCDConf.c   **** whose registered  office is situated  at 198 Champion Ct. San Jose, CA 
  20:.\LCDConf.c   **** 95134 USA  solely for the  purposes of creating  libraries for Cypress
  21:.\LCDConf.c   **** PSoC3 and  PSoC5 processor-based devices,  sublicensed and distributed
  22:.\LCDConf.c   **** under  the  terms  and  conditions  of  the  Cypress  End User License
  23:.\LCDConf.c   **** Agreement.
  24:.\LCDConf.c   **** Full source code is available at: www.segger.com
  25:.\LCDConf.c   **** 
  26:.\LCDConf.c   **** We appreciate your understanding and fairness.
  27:.\LCDConf.c   **** ----------------------------------------------------------------------
  28:.\LCDConf.c   **** Licensing information
  29:.\LCDConf.c   **** Licensor:                 SEGGER Microcontroller Systems LLC
  30:.\LCDConf.c   **** Licensed to:              Cypress Semiconductor Corp, 198 Champion Ct., San Jose, CA 95134, USA
  31:.\LCDConf.c   **** Licensed SEGGER software: emWin
  32:.\LCDConf.c   **** License number:           GUI-00319
ARM GAS  C:\Users\student\AppData\Local\Temp\ccqZlBkQ.s 			page 2


  33:.\LCDConf.c   **** License model:            Services and License Agreement, signed June 10th, 2009
  34:.\LCDConf.c   **** Licensed platform:        Any Cypress platform (Initial targets are: PSoC3, PSoC5)
  35:.\LCDConf.c   **** ----------------------------------------------------------------------
  36:.\LCDConf.c   **** Support and Update Agreement (SUA)
  37:.\LCDConf.c   **** SUA period:               2009-06-12 - 2022-07-27
  38:.\LCDConf.c   **** Contact to extend SUA:    sales@segger.com
  39:.\LCDConf.c   **** ----------------------------------------------------------------------
  40:.\LCDConf.c   **** File        : LCDConf.c
  41:.\LCDConf.c   **** Purpose     : Display controller configuration (single layer)
  42:.\LCDConf.c   **** ---------------------------END-OF-HEADER------------------------------
  43:.\LCDConf.c   **** */
  44:.\LCDConf.c   **** 
  45:.\LCDConf.c   **** #include "project.h" 
  46:.\LCDConf.c   **** 
  47:.\LCDConf.c   **** #include "GUI.h"
  48:.\LCDConf.c   **** #include "GUIDRV_FlexColor.h"
  49:.\LCDConf.c   **** #include "GUITDRV_ADS7846.h"
  50:.\LCDConf.c   **** #include "defs.h"
  51:.\LCDConf.c   **** 
  52:.\LCDConf.c   **** #include "tft.h"
  53:.\LCDConf.c   **** 
  54:.\LCDConf.c   **** /*********************************************************************
  55:.\LCDConf.c   **** *
  56:.\LCDConf.c   **** *       Layer configuration (to be modified)
  57:.\LCDConf.c   **** *
  58:.\LCDConf.c   **** **********************************************************************
  59:.\LCDConf.c   **** */
  60:.\LCDConf.c   **** //
  61:.\LCDConf.c   **** // Physical display size
  62:.\LCDConf.c   **** //   The display size should be adapted in order to match the size of
  63:.\LCDConf.c   **** //   the target display.
  64:.\LCDConf.c   **** //
  65:.\LCDConf.c   **** #define LCD_CONTROLLER GUIDRV_FLEXCOLOR_F66709
  66:.\LCDConf.c   **** 
  67:.\LCDConf.c   **** 
  68:.\LCDConf.c   **** 
  69:.\LCDConf.c   **** //
  70:.\LCDConf.c   **** // Color conversion
  71:.\LCDConf.c   **** //   The color conversion functions should be selected according to
  72:.\LCDConf.c   **** //   the color mode of the target display. Details can be found in
  73:.\LCDConf.c   **** //   the chapter "Colors" in the emWin user manual.
  74:.\LCDConf.c   **** //
  75:.\LCDConf.c   **** #define COLOR_CONVERSION GUICC_565
  76:.\LCDConf.c   **** 
  77:.\LCDConf.c   **** //
  78:.\LCDConf.c   **** // Display driver
  79:.\LCDConf.c   **** //
  80:.\LCDConf.c   **** #define DISPLAY_DRIVER GUIDRV_FLEXCOLOR
  81:.\LCDConf.c   **** 
  82:.\LCDConf.c   **** /*********************************************************************
  83:.\LCDConf.c   **** *
  84:.\LCDConf.c   **** *       Configuration checking
  85:.\LCDConf.c   **** *
  86:.\LCDConf.c   **** **********************************************************************
  87:.\LCDConf.c   **** */
  88:.\LCDConf.c   **** #ifndef   VXSIZE_PHYS
  89:.\LCDConf.c   ****   #define VXSIZE_PHYS XSIZE_PHYS
ARM GAS  C:\Users\student\AppData\Local\Temp\ccqZlBkQ.s 			page 3


  90:.\LCDConf.c   **** #endif
  91:.\LCDConf.c   **** #ifndef   VYSIZE_PHYS
  92:.\LCDConf.c   ****   #define VYSIZE_PHYS YSIZE_PHYS
  93:.\LCDConf.c   **** #endif
  94:.\LCDConf.c   **** #ifndef   XSIZE_PHYS
  95:.\LCDConf.c   ****   #error Physical X size of display is not defined!
  96:.\LCDConf.c   **** #endif
  97:.\LCDConf.c   **** #ifndef   YSIZE_PHYS
  98:.\LCDConf.c   ****   #error Physical Y size of display is not defined!
  99:.\LCDConf.c   **** #endif
 100:.\LCDConf.c   **** #ifndef   COLOR_CONVERSION
 101:.\LCDConf.c   ****   #error Color conversion not defined!
 102:.\LCDConf.c   **** #endif
 103:.\LCDConf.c   **** #ifndef   DISPLAY_DRIVER
 104:.\LCDConf.c   ****   #error No display driver defined!
 105:.\LCDConf.c   **** #endif
 106:.\LCDConf.c   **** 
 107:.\LCDConf.c   **** /********************************************************************
 108:.\LCDConf.c   **** *
 109:.\LCDConf.c   **** *       _InitController
 110:.\LCDConf.c   **** *
 111:.\LCDConf.c   **** * Purpose:
 112:.\LCDConf.c   **** *   Initializes the LCD controller
 113:.\LCDConf.c   **** *
 114:.\LCDConf.c   **** */
 115:.\LCDConf.c   **** static void _InitController(void) {
  26              		.loc 1 115 0
  27              		.cfi_startproc
  28              		@ args = 0, pretend = 0, frame = 0
  29              		@ frame_needed = 0, uses_anonymous_args = 0
  30 0000 08B5     		push	{r3, lr}
  31              		.cfi_def_cfa_offset 8
  32              		.cfi_offset 3, -8
  33              		.cfi_offset 14, -4
 116:.\LCDConf.c   ****   /* Set up the display controller and put it into operation. If the 
 117:.\LCDConf.c   ****   *  display controller is not initialized by any external routine 
 118:.\LCDConf.c   ****   *  this needs to be adapted by the customer.
 119:.\LCDConf.c   ****   */
 120:.\LCDConf.c   ****     tftStart();
  34              		.loc 1 120 0
  35 0002 FFF7FEFF 		bl	tftStart
  36              	.LVL0:
  37 0006 08BD     		pop	{r3, pc}
  38              		.cfi_endproc
  39              	.LFE63:
  40              		.size	_InitController, .-_InitController
  41              		.section	.text.LCD_X_Config,"ax",%progbits
  42              		.align	2
  43              		.global	LCD_X_Config
  44              		.thumb
  45              		.thumb_func
  46              		.type	LCD_X_Config, %function
  47              	LCD_X_Config:
  48              	.LFB64:
 121:.\LCDConf.c   **** }
 122:.\LCDConf.c   **** 
 123:.\LCDConf.c   **** /*********************************************************************
ARM GAS  C:\Users\student\AppData\Local\Temp\ccqZlBkQ.s 			page 4


 124:.\LCDConf.c   **** *
 125:.\LCDConf.c   **** *       Public code
 126:.\LCDConf.c   **** *
 127:.\LCDConf.c   **** **********************************************************************
 128:.\LCDConf.c   **** */
 129:.\LCDConf.c   **** /*********************************************************************
 130:.\LCDConf.c   **** *
 131:.\LCDConf.c   **** *       LCD_X_Config
 132:.\LCDConf.c   **** *
 133:.\LCDConf.c   **** * Function description
 134:.\LCDConf.c   **** *   Called during the initialization process in order to set up the
 135:.\LCDConf.c   **** *   display driver configuration.
 136:.\LCDConf.c   **** */
 137:.\LCDConf.c   **** void LCD_X_Config(void) {
  49              		.loc 1 137 0
  50              		.cfi_startproc
  51              		@ args = 0, pretend = 0, frame = 128
  52              		@ frame_needed = 0, uses_anonymous_args = 0
  53 0000 30B5     		push	{r4, r5, lr}
  54              		.cfi_def_cfa_offset 12
  55              		.cfi_offset 4, -12
  56              		.cfi_offset 5, -8
  57              		.cfi_offset 14, -4
  58 0002 A1B0     		sub	sp, sp, #132
  59              		.cfi_def_cfa_offset 144
 138:.\LCDConf.c   ****  
 139:.\LCDConf.c   ****   GUI_DEVICE * pDevice;
 140:.\LCDConf.c   ****   CONFIG_FLEXCOLOR Config = {0};
  60              		.loc 1 140 0
  61 0004 0024     		movs	r4, #0
  62 0006 1B94     		str	r4, [sp, #108]
  63 0008 1C94     		str	r4, [sp, #112]
  64 000a 1D94     		str	r4, [sp, #116]
  65 000c 1E94     		str	r4, [sp, #120]
  66 000e 1F94     		str	r4, [sp, #124]
 141:.\LCDConf.c   ****   GUI_PORT_API PortAPI = {0};
  67              		.loc 1 141 0
  68 0010 01A8     		add	r0, sp, #4
  69 0012 2146     		mov	r1, r4
  70 0014 6822     		movs	r2, #104
  71 0016 FFF7FEFF 		bl	memset
  72              	.LVL1:
 142:.\LCDConf.c   **** 
 143:.\LCDConf.c   ****   //
 144:.\LCDConf.c   ****   // Set the display driver and color conversion
 145:.\LCDConf.c   ****   //
 146:.\LCDConf.c   ****   pDevice = GUI_DEVICE_CreateAndLink(DISPLAY_DRIVER, COLOR_CONVERSION, 0, 0);
  73              		.loc 1 146 0
  74 001a 1548     		ldr	r0, .L5
  75 001c 1549     		ldr	r1, .L5+4
  76 001e 2246     		mov	r2, r4
  77 0020 2346     		mov	r3, r4
  78 0022 FFF7FEFF 		bl	GUI_DEVICE_CreateAndLink
  79              	.LVL2:
  80 0026 0546     		mov	r5, r0
  81              	.LVL3:
 147:.\LCDConf.c   ****   //
ARM GAS  C:\Users\student\AppData\Local\Temp\ccqZlBkQ.s 			page 5


 148:.\LCDConf.c   ****   // Display driver configuration
 149:.\LCDConf.c   ****   //
 150:.\LCDConf.c   ****   LCD_SetSizeEx    (0, XSIZE_PHYS,   YSIZE_PHYS);
  82              		.loc 1 150 0
  83 0028 2046     		mov	r0, r4
  84              	.LVL4:
  85 002a F021     		movs	r1, #240
  86 002c 4FF4A072 		mov	r2, #320
  87 0030 FFF7FEFF 		bl	LCD_SetSizeEx
  88              	.LVL5:
 151:.\LCDConf.c   ****   LCD_SetVSizeEx   (0, VXSIZE_PHYS,  VYSIZE_PHYS);
  89              		.loc 1 151 0
  90 0034 2046     		mov	r0, r4
  91 0036 F021     		movs	r1, #240
  92 0038 4FF4A072 		mov	r2, #320
  93 003c FFF7FEFF 		bl	LCD_SetVSizeEx
  94              	.LVL6:
 152:.\LCDConf.c   **** 
 153:.\LCDConf.c   ****   //
 154:.\LCDConf.c   ****   // Orientation
 155:.\LCDConf.c   ****   //
 156:.\LCDConf.c   ****   Config.Orientation = GUI_SWAP_XY;
  95              		.loc 1 156 0
  96 0040 0423     		movs	r3, #4
  97 0042 1D93     		str	r3, [sp, #116]
 157:.\LCDConf.c   **** 
 158:.\LCDConf.c   ****   GUIDRV_FlexColor_Config(pDevice, &Config);
  98              		.loc 1 158 0
  99 0044 2846     		mov	r0, r5
 100 0046 1BA9     		add	r1, sp, #108
 101 0048 FFF7FEFF 		bl	GUIDRV_FlexColor_Config
 102              	.LVL7:
 159:.\LCDConf.c   ****   //
 160:.\LCDConf.c   ****   // Set controller and operation mode
 161:.\LCDConf.c   ****   //
 162:.\LCDConf.c   ****   PortAPI.pfWrite8_A0 = write8_a0;
 103              		.loc 1 162 0
 104 004c 0A4B     		ldr	r3, .L5+8
 105 004e 0193     		str	r3, [sp, #4]
 163:.\LCDConf.c   ****   PortAPI.pfWrite8_A1 = write8_a1;
 106              		.loc 1 163 0
 107 0050 0A4B     		ldr	r3, .L5+12
 108 0052 0293     		str	r3, [sp, #8]
 164:.\LCDConf.c   ****   PortAPI.pfWriteM8_A1 = writeM8_a1;
 109              		.loc 1 164 0
 110 0054 0A4B     		ldr	r3, .L5+16
 111 0056 0493     		str	r3, [sp, #16]
 165:.\LCDConf.c   ****   PortAPI.pfRead8_A1 = read8_a1;
 112              		.loc 1 165 0
 113 0058 0A4B     		ldr	r3, .L5+20
 114 005a 0693     		str	r3, [sp, #24]
 166:.\LCDConf.c   ****   PortAPI.pfReadM8_A1 = readM8_a1;
 115              		.loc 1 166 0
 116 005c 0A4B     		ldr	r3, .L5+24
 117 005e 0893     		str	r3, [sp, #32]
 167:.\LCDConf.c   **** 
 168:.\LCDConf.c   ****   GUIDRV_FlexColor_SetFunc(pDevice, &PortAPI, LCD_CONTROLLER, GUIDRV_FLEXCOLOR_M16C0B8);
ARM GAS  C:\Users\student\AppData\Local\Temp\ccqZlBkQ.s 			page 6


 118              		.loc 1 168 0
 119 0060 2846     		mov	r0, r5
 120 0062 01A9     		add	r1, sp, #4
 121 0064 094A     		ldr	r2, .L5+28
 122 0066 0A4B     		ldr	r3, .L5+32
 123 0068 FFF7FEFF 		bl	GUIDRV_FlexColor_SetFunc
 124              	.LVL8:
 169:.\LCDConf.c   ****     
 170:.\LCDConf.c   **** }
 125              		.loc 1 170 0
 126 006c 21B0     		add	sp, sp, #132
 127              		.cfi_def_cfa_offset 12
 128              		@ sp needed
 129 006e 30BD     		pop	{r4, r5, pc}
 130              	.LVL9:
 131              	.L6:
 132              		.align	2
 133              	.L5:
 134 0070 00000000 		.word	GUIDRV_FlexColor_API
 135 0074 00000000 		.word	LCD_API_ColorConv_565
 136 0078 00000000 		.word	write8_a0
 137 007c 00000000 		.word	write8_a1
 138 0080 00000000 		.word	writeM8_a1
 139 0084 00000000 		.word	read8_a1
 140 0088 00000000 		.word	readM8_a1
 141 008c 00000000 		.word	GUIDRV_FlexColor_SetFunc66709
 142 0090 00000000 		.word	GUIDRV_FlexColor_SetMode16bppC0B8
 143              		.cfi_endproc
 144              	.LFE64:
 145              		.size	LCD_X_Config, .-LCD_X_Config
 146              		.section	.text.LCD_X_DisplayDriver,"ax",%progbits
 147              		.align	2
 148              		.global	LCD_X_DisplayDriver
 149              		.thumb
 150              		.thumb_func
 151              		.type	LCD_X_DisplayDriver, %function
 152              	LCD_X_DisplayDriver:
 153              	.LFB65:
 171:.\LCDConf.c   **** 
 172:.\LCDConf.c   **** /*********************************************************************
 173:.\LCDConf.c   **** *
 174:.\LCDConf.c   **** *       LCD_X_DisplayDriver
 175:.\LCDConf.c   **** *
 176:.\LCDConf.c   **** * Purpose:
 177:.\LCDConf.c   **** *   This function is called by the display driver for several purposes.
 178:.\LCDConf.c   **** *   To support the according task, the routine needs to be adapted to
 179:.\LCDConf.c   **** *   the display controller. Note that the commands marked
 180:.\LCDConf.c   **** *   "optional" are not cogently required and should only be adapted if 
 181:.\LCDConf.c   **** *   the display controller supports these features.
 182:.\LCDConf.c   **** *
 183:.\LCDConf.c   **** * Parameter:
 184:.\LCDConf.c   **** *   LayerIndex - Zero based layer index
 185:.\LCDConf.c   **** *   Cmd        - Command to be executed
 186:.\LCDConf.c   **** *   pData      - Pointer to a data structure.
 187:.\LCDConf.c   **** * 
 188:.\LCDConf.c   **** * Return Value:
 189:.\LCDConf.c   **** *   < -1 - Error
ARM GAS  C:\Users\student\AppData\Local\Temp\ccqZlBkQ.s 			page 7


 190:.\LCDConf.c   **** *     -1 - The command is not handled.
 191:.\LCDConf.c   **** *      0 - OK.
 192:.\LCDConf.c   **** */
 193:.\LCDConf.c   **** int LCD_X_DisplayDriver(unsigned LayerIndex, unsigned Cmd, void * pData) {
 154              		.loc 1 193 0
 155              		.cfi_startproc
 156              		@ args = 0, pretend = 0, frame = 0
 157              		@ frame_needed = 0, uses_anonymous_args = 0
 158              	.LVL10:
 194:.\LCDConf.c   ****   int r;
 195:.\LCDConf.c   ****   
 196:.\LCDConf.c   ****   GUI_USE_PARA(LayerIndex);
 197:.\LCDConf.c   ****   GUI_USE_PARA(pData);
 198:.\LCDConf.c   ****   
 199:.\LCDConf.c   ****   switch (Cmd) {
 159              		.loc 1 199 0
 160 0000 0129     		cmp	r1, #1
 161 0002 04D1     		bne	.L11
 193:.\LCDConf.c   ****   int r;
 162              		.loc 1 193 0
 163 0004 08B5     		push	{r3, lr}
 164              		.cfi_def_cfa_offset 8
 165              		.cfi_offset 3, -8
 166              		.cfi_offset 14, -4
 200:.\LCDConf.c   ****   case LCD_X_INITCONTROLLER: {
 201:.\LCDConf.c   ****     //
 202:.\LCDConf.c   ****     // Called during the initialization process in order to set up the
 203:.\LCDConf.c   ****     // display controller and put it into operation. If the display
 204:.\LCDConf.c   ****     // controller is not initialized by any external routine, this needs
 205:.\LCDConf.c   ****     // to be adapted by the customer...
 206:.\LCDConf.c   ****     //
 207:.\LCDConf.c   ****     // ...
 208:.\LCDConf.c   ****     _InitController();
 167              		.loc 1 208 0
 168 0006 FFF7FEFF 		bl	_InitController
 169              	.LVL11:
 209:.\LCDConf.c   ****     return 0;
 170              		.loc 1 209 0
 171 000a 0020     		movs	r0, #0
 172 000c 08BD     		pop	{r3, pc}
 173              	.LVL12:
 174              	.L11:
 175              		.cfi_def_cfa_offset 0
 176              		.cfi_restore 3
 177              		.cfi_restore 14
 210:.\LCDConf.c   ****   }
 211:.\LCDConf.c   ****   default:
 212:.\LCDConf.c   ****     r = -1;
 213:.\LCDConf.c   ****   }
 214:.\LCDConf.c   ****   return r;
 178              		.loc 1 214 0
 179 000e 4FF0FF30 		mov	r0, #-1
 180              	.LVL13:
 181 0012 7047     		bx	lr
 182              		.cfi_endproc
 183              	.LFE65:
 184              		.size	LCD_X_DisplayDriver, .-LCD_X_DisplayDriver
ARM GAS  C:\Users\student\AppData\Local\Temp\ccqZlBkQ.s 			page 8


 185              		.text
 186              	.Letext0:
 187              		.file 2 "c:\\program files (x86)\\cypress\\psoc creator\\3.3\\psoc creator\\import\\gnu\\arm\\4.9.
 188              		.file 3 "c:\\program files (x86)\\cypress\\psoc creator\\3.3\\psoc creator\\import\\gnu\\arm\\4.9.
 189              		.file 4 "..\\emWinGraphics_v5_46\\Code\\Include\\PSoC4_5/LCD.h"
 190              		.file 5 "..\\emWinGraphics_v5_46\\Code\\Include\\PSoC4_5/GUI.h"
 191              		.file 6 "..\\emWinGraphics_v5_46\\Code\\Include\\PSoC4_5/GUI_Type.h"
 192              		.file 7 ".\\GUIDRV_FlexColor.h"
 193              		.file 8 "Generated_Source\\PSoC5/core_cm3.h"
 194              		.file 9 ".\\tft.h"