ARM GAS  C:\Users\student\AppData\Local\Temp\ccN12VMx.s 			page 1


   1              		.syntax unified
   2              		.cpu cortex-m3
   3              		.fpu softvfp
   4              		.eabi_attribute 20, 1
   5              		.eabi_attribute 21, 1
   6              		.eabi_attribute 23, 3
   7              		.eabi_attribute 24, 1
   8              		.eabi_attribute 25, 1
   9              		.eabi_attribute 26, 1
  10              		.eabi_attribute 30, 1
  11              		.eabi_attribute 34, 1
  12              		.eabi_attribute 18, 4
  13              		.thumb
  14              		.file	"main.c"
  15              		.text
  16              	.Ltext0:
  17              		.cfi_sections	.debug_frame
  18              		.section	.text.VdacDmaDone,"ax",%progbits
  19              		.align	2
  20              		.global	VdacDmaDone
  21              		.thumb
  22              		.thumb_func
  23              		.type	VdacDmaDone, %function
  24              	VdacDmaDone:
  25              	.LFB64:
  26              		.file 1 ".\\main.c"
   1:.\main.c      **** /* ========================================
   2:.\main.c      ****  *
   3:.\main.c      ****  * Copyright YOUR COMPANY, THE YEAR
   4:.\main.c      ****  * All Rights Reserved
   5:.\main.c      ****  * UNPUBLISHED, LICENSED SOFTWARE.
   6:.\main.c      ****  *
   7:.\main.c      ****  * CONFIDENTIAL AND PROPRIETARY INFORMATION
   8:.\main.c      ****  * WHICH IS THE PROPERTY OF your company.
   9:.\main.c      ****  *
  10:.\main.c      ****  * ========================================
  11:.\main.c      **** */
  12:.\main.c      **** #include <project.h>
  13:.\main.c      **** //#include "tft.h"
  14:.\main.c      **** //#include "GUI.h"
  15:.\main.c      **** //#include "Connect4Board.h"
  16:.\main.c      **** //#include "XPT2046.h"
  17:.\main.c      **** //#include <stdlib.h>
  18:.\main.c      **** //#include "defs.h"
  19:.\main.c      **** //#include "Connect4.h"
  20:.\main.c      **** //#include "Robot.h"
  21:.\main.c      **** //#include "Tick.h"
  22:.\main.c      **** //#include "FS.h"
  23:.\main.c      **** //#include "stdio.h"
  24:.\main.c      **** 
  25:.\main.c      **** /* UBSFS device constants. */
  26:.\main.c      **** #define USBFS_AUDIO_DEVICE  (0u)
  27:.\main.c      **** #define AUDIO_INTERFACE     (1u)
  28:.\main.c      **** #define OUT_EP_NUM          (2u)
  29:.\main.c      **** 
  30:.\main.c      **** /* Audio buffer constants. */
  31:.\main.c      **** #define TRANSFER_SIZE   (32u)
ARM GAS  C:\Users\student\AppData\Local\Temp\ccN12VMx.s 			page 2


  32:.\main.c      **** #define NUM_OF_BUFFERS  (10u)
  33:.\main.c      **** #define BUFFER_SIZE     (TRANSFER_SIZE * NUM_OF_BUFFERS)
  34:.\main.c      **** 
  35:.\main.c      **** /* Circular buffer for audio stream. */
  36:.\main.c      **** uint8 soundBuffer[BUFFER_SIZE];
  37:.\main.c      **** volatile uint16 outIndex = 0u;
  38:.\main.c      **** volatile uint16 inIndex  = 0u;
  39:.\main.c      **** 
  40:.\main.c      **** /* Variables used to manage DMA. */
  41:.\main.c      **** volatile uint8 syncDma = 0u;
  42:.\main.c      **** volatile uint8 syncDmaCounter = 0u;
  43:.\main.c      **** 
  44:.\main.c      **** /* Variable declarations for VDACoutDMA. */
  45:.\main.c      **** uint8 VdacOutDmaCh;
  46:.\main.c      **** uint8 VdacOutDmaTd[NUM_OF_BUFFERS];
  47:.\main.c      **** 
  48:.\main.c      **** /* DMA Configuration for VDACoutDMA (Memory to VDAC) */
  49:.\main.c      **** #define VDAC_DMA_BYTES_PER_BURST    (1u)
  50:.\main.c      **** #define VDAC_DMA_REQUEST_PER_BURST  (1u)
  51:.\main.c      **** #define VDAC_DMA_TD_TERMOUT_EN      (VDAC_DMA__TD_TERMOUT_EN)
  52:.\main.c      **** #define VDAC_DMA_DST_BASE           (CYDEV_PERIPH_BASE)
  53:.\main.c      **** #define VDAC_DMA_SRC_BASE           (CY_PSOC5LP) ? ((uint32) soundBuffer) : (CYDEV_SRAM_BASE)
  54:.\main.c      **** #define VDAC_DMA_ENABLE_PRESERVE_TD (1u)
  55:.\main.c      **** 
  56:.\main.c      **** CY_ISR_PROTO(VdacDmaDone);
  57:.\main.c      **** 
  58:.\main.c      **** /*******************************************************************************
  59:.\main.c      **** * Function Name: main
  60:.\main.c      **** ********************************************************************************
  61:.\main.c      **** *
  62:.\main.c      **** * Summary:
  63:.\main.c      **** *
  64:.\main.c      **** *  The main function performs the following actions:
  65:.\main.c      **** *   1. Initializes LCD and VDAC components.
  66:.\main.c      **** *   2. Configures the DMA channel and transfers the descriptors.
  67:.\main.c      **** *      The source is souundBuffer (SRAM) and the destination is the VDAC data register.
  68:.\main.c      **** *   3. Starts the USBFS component and waits until the device is got enumerated
  69:.\main.c      **** *      by the host.
  70:.\main.c      **** *   4. When the PC starts streaming, the DMA starts copying data into the VDAC with
  71:.\main.c      **** *      the 32-kHz frequency. None of the synchronization methods is implemented:
  72:.\main.c      **** *      If the PC (source) transfers data faster than the device (sink), transfers it  ????
  73:.\main.c      **** *      to VDAC the extra samples are dropped.
  74:.\main.c      **** *      If the PC (source) transfers data slower than the device (sink), transfers it  ????
  75:.\main.c      **** *      to VDAC the transfer is stopped and starts after the buffer is half-full.
  76:.\main.c      **** *
  77:.\main.c      **** * Parameters:
  78:.\main.c      **** *  None.
  79:.\main.c      **** *
  80:.\main.c      **** * Return:
  81:.\main.c      **** *  None.
  82:.\main.c      **** *
  83:.\main.c      **** *******************************************************************************/
  84:.\main.c      **** int main()
  85:.\main.c      **** {
  86:.\main.c      ****     uint8 i;
  87:.\main.c      ****     uint8 skipNextOut = 0u;
  88:.\main.c      **** 
ARM GAS  C:\Users\student\AppData\Local\Temp\ccN12VMx.s 			page 3


  89:.\main.c      ****     /* Start VDAC8 to generate output wave. */
  90:.\main.c      ****     VDAC8_Start();
  91:.\main.c      **** 
  92:.\main.c      ****     /* Initialize DMA channel. */
  93:.\main.c      ****     VdacOutDmaCh = VDAC_DMA_DmaInitialize(VDAC_DMA_BYTES_PER_BURST, VDAC_DMA_REQUEST_PER_BURST,
  94:.\main.c      ****                                             HI16(VDAC_DMA_SRC_BASE), HI16(VDAC_DMA_DST_BASE));
  95:.\main.c      **** 
  96:.\main.c      ****     /* Allocate transfer descriptors for each buffer chunk. */
  97:.\main.c      ****     for (i = 0u; i < NUM_OF_BUFFERS; ++i)
  98:.\main.c      ****     {
  99:.\main.c      ****         VdacOutDmaTd[i] = CyDmaTdAllocate();
 100:.\main.c      ****     }
 101:.\main.c      **** 
 102:.\main.c      ****     /* Configure DMA transfer descriptors. */
 103:.\main.c      ****     for (i = 0u; i < (NUM_OF_BUFFERS - 1u); ++i)
 104:.\main.c      ****     {
 105:.\main.c      ****         /* Chain current and next DMA transfer descriptors to be in row. */
 106:.\main.c      ****         CyDmaTdSetConfiguration(VdacOutDmaTd[i], TRANSFER_SIZE, VdacOutDmaTd[i + 1u],
 107:.\main.c      ****                                 (TD_INC_SRC_ADR | VDAC_DMA_TD_TERMOUT_EN));
 108:.\main.c      ****     }
 109:.\main.c      ****     /* Chain last and 1st DMA transfer descriptors to make cyclic buffer. */
 110:.\main.c      ****     CyDmaTdSetConfiguration(VdacOutDmaTd[NUM_OF_BUFFERS - 1u], TRANSFER_SIZE, VdacOutDmaTd[0u],
 111:.\main.c      ****                                 (TD_INC_SRC_ADR | VDAC_DMA_TD_TERMOUT_EN));
 112:.\main.c      **** 
 113:.\main.c      **** 
 114:.\main.c      ****     for (i = 0u; i < NUM_OF_BUFFERS; i++)
 115:.\main.c      ****     {
 116:.\main.c      ****         /* Set source and destination addresses. */
 117:.\main.c      ****         CyDmaTdSetAddress(VdacOutDmaTd[i], LO16((uint32) &soundBuffer[i * TRANSFER_SIZE]),
 118:.\main.c      ****                                            LO16((uint32) VDAC8_Data_PTR));
 119:.\main.c      ****     }
 120:.\main.c      **** 
 121:.\main.c      ****     /* Set 1st transfer descriptor to execute. */
 122:.\main.c      ****     CyDmaChSetInitialTd(VdacOutDmaCh, VdacOutDmaTd[0u]);
 123:.\main.c      **** 
 124:.\main.c      ****     /* Start DMA completion interrupt. */
 125:.\main.c      ****     DmaDone_StartEx(&VdacDmaDone);
 126:.\main.c      **** 
 127:.\main.c      ****     CyGlobalIntEnable;
 128:.\main.c      **** 
 129:.\main.c      ****     /* Start USBFS Operation with 5V operation. */
 130:.\main.c      ****     USBFS_Start(USBFS_AUDIO_DEVICE, USBFS_5V_OPERATION);
 131:.\main.c      **** 
 132:.\main.c      ****     /* Wait for device enumeration. */
 133:.\main.c      ****     while (0u == USBFS_GetConfiguration())
 134:.\main.c      ****     {
 135:.\main.c      ****     }
 136:.\main.c      **** 
 137:.\main.c      ****     for(;;)
 138:.\main.c      ****     {
 139:.\main.c      ****         /* Check if configuration or interface settings are changed. */
 140:.\main.c      ****         if (0u != USBFS_IsConfigurationChanged())
 141:.\main.c      ****         {
 142:.\main.c      ****             /* Check active alternate setting. */
 143:.\main.c      ****             if ((0u != USBFS_GetConfiguration()) &&
 144:.\main.c      ****                 (0u != USBFS_GetInterfaceSetting(AUDIO_INTERFACE)))
 145:.\main.c      ****             {
ARM GAS  C:\Users\student\AppData\Local\Temp\ccN12VMx.s 			page 4


 146:.\main.c      ****                 /* Alternate settings 1: Audio is streaming. */
 147:.\main.c      **** 
 148:.\main.c      ****                 /* Reset variables. */
 149:.\main.c      ****                 inIndex  = 0u;
 150:.\main.c      ****                 outIndex = 0u;
 151:.\main.c      ****                 syncDma  = 0u;
 152:.\main.c      ****                 skipNextOut = 0u;
 153:.\main.c      ****                 syncDmaCounter = 0u;
 154:.\main.c      **** 
 155:.\main.c      ****                 /* Enable OUT endpoint to receive audio stream. */
 156:.\main.c      ****                 USBFS_EnableOutEP(OUT_EP_NUM);
 157:.\main.c      **** 
 158:.\main.c      ****             }
 159:.\main.c      ****             else
 160:.\main.c      ****             {
 161:.\main.c      ****                 /* Alternate settings 0: Audio is not streaming (mute). */
 162:.\main.c      ****             }
 163:.\main.c      ****         }
 164:.\main.c      **** 
 165:.\main.c      ****         if (USBFS_OUT_BUFFER_FULL == USBFS_GetEPState(OUT_EP_NUM))
 166:.\main.c      ****         {
 167:.\main.c      ****             if (0u == skipNextOut)
 168:.\main.c      ****             {
 169:.\main.c      ****                 /* Trigger DMA to copy data from OUT endpoint buffer. */
 170:.\main.c      ****                 USBFS_ReadOutEP(OUT_EP_NUM, &soundBuffer[inIndex * TRANSFER_SIZE],
 171:.\main.c      ****                                             TRANSFER_SIZE);
 172:.\main.c      **** 
 173:.\main.c      ****                 /* Wait until DMA completes copying data from OUT endpoint buffer. */
 174:.\main.c      ****                 while (USBFS_OUT_BUFFER_FULL == USBFS_GetEPState(OUT_EP_NUM))
 175:.\main.c      ****                 {
 176:.\main.c      ****                 }
 177:.\main.c      **** 
 178:.\main.c      ****                 /* Move to the next buffer location and adjust to be within
 179:.\main.c      ****                 * buffer size. Lock from DmaDone interruption.
 180:.\main.c      ****                 */
 181:.\main.c      ****                 DmaDone_Disable();
 182:.\main.c      ****                 ++inIndex;
 183:.\main.c      ****                 inIndex = (inIndex >= NUM_OF_BUFFERS) ? 0u : inIndex;
 184:.\main.c      ****                 DmaDone_Enable();
 185:.\main.c      ****                 ++syncDmaCounter;
 186:.\main.c      **** 
 187:.\main.c      ****                 /* Enable OUT endpoint to receive data from host. */
 188:.\main.c      ****                 USBFS_EnableOutEP(OUT_EP_NUM);
 189:.\main.c      ****             }
 190:.\main.c      ****             else
 191:.\main.c      ****             {
 192:.\main.c      ****                 /* Ignore received data from host and arm OUT endpoint
 193:.\main.c      ****                 * without reading if overflow is detected.
 194:.\main.c      ****                 */
 195:.\main.c      ****                 USBFS_EnableOutEP(OUT_EP_NUM);
 196:.\main.c      ****                 skipNextOut = 0u;
 197:.\main.c      ****             }
 198:.\main.c      **** 
 199:.\main.c      ****             /* When internal 32-kHz clock is slower, compare to PC traffic
 200:.\main.c      ****             * then skip next transfer from PC.
 201:.\main.c      ****             */
 202:.\main.c      ****             if (outIndex == inIndex)
ARM GAS  C:\Users\student\AppData\Local\Temp\ccN12VMx.s 			page 5


 203:.\main.c      ****             {
 204:.\main.c      ****                 skipNextOut = 1u;
 205:.\main.c      ****             }
 206:.\main.c      ****         }
 207:.\main.c      **** 
 208:.\main.c      ****         /* Enable DMA transfers when sound buffer is half-full. */
 209:.\main.c      ****         if ((0u == syncDma) && (syncDmaCounter == (NUM_OF_BUFFERS / 2u)))
 210:.\main.c      ****         {
 211:.\main.c      ****             /* Start DMA operation. */
 212:.\main.c      ****             CyDmaChEnable(VdacOutDmaCh, VDAC_DMA_ENABLE_PRESERVE_TD);
 213:.\main.c      **** 
 214:.\main.c      ****             /* Disable underflow delayed start. */
 215:.\main.c      ****             syncDma = 1u;
 216:.\main.c      ****         }
 217:.\main.c      ****     }
 218:.\main.c      **** }
 219:.\main.c      **** 
 220:.\main.c      **** 
 221:.\main.c      **** /*******************************************************************************
 222:.\main.c      **** * Function Name: VdacDmaDone
 223:.\main.c      **** ********************************************************************************
 224:.\main.c      **** *
 225:.\main.c      **** * Summary:
 226:.\main.c      **** *  The Interrupt Service Routine for a DMA transfer completion event. The DMA is
 227:.\main.c      **** *  stopped when there is no data to send.
 228:.\main.c      **** *
 229:.\main.c      **** * Parameters:
 230:.\main.c      **** *  None.
 231:.\main.c      **** *
 232:.\main.c      **** * Return:
 233:.\main.c      **** *  None.
 234:.\main.c      **** *
 235:.\main.c      **** *******************************************************************************/
 236:.\main.c      **** CY_ISR(VdacDmaDone)
 237:.\main.c      **** {
  27              		.loc 1 237 0
  28              		.cfi_startproc
  29              		@ args = 0, pretend = 0, frame = 0
  30              		@ frame_needed = 0, uses_anonymous_args = 0
  31 0000 08B5     		push	{r3, lr}
  32              		.cfi_def_cfa_offset 8
  33              		.cfi_offset 3, -8
  34              		.cfi_offset 14, -4
 238:.\main.c      ****     /* Move to next buffer location and adjust to be within buffer size. */
 239:.\main.c      ****     ++outIndex;
  35              		.loc 1 239 0
  36 0002 0F4A     		ldr	r2, .L6
  37 0004 1388     		ldrh	r3, [r2]
  38 0006 0133     		adds	r3, r3, #1
  39 0008 9BB2     		uxth	r3, r3
  40 000a 1380     		strh	r3, [r2]	@ movhi
 240:.\main.c      ****     outIndex = (outIndex >= NUM_OF_BUFFERS) ? 0u : outIndex;
  41              		.loc 1 240 0
  42 000c 1388     		ldrh	r3, [r2]
  43 000e 9BB2     		uxth	r3, r3
  44 0010 092B     		cmp	r3, #9
  45 0012 02D8     		bhi	.L4
ARM GAS  C:\Users\student\AppData\Local\Temp\ccN12VMx.s 			page 6


  46              		.loc 1 240 0 is_stmt 0 discriminator 1
  47 0014 1288     		ldrh	r2, [r2]
  48 0016 92B2     		uxth	r2, r2
  49 0018 00E0     		b	.L2
  50              	.L4:
  51              		.loc 1 240 0
  52 001a 0022     		movs	r2, #0
  53              	.L2:
  54              		.loc 1 240 0 discriminator 4
  55 001c 084B     		ldr	r3, .L6
  56 001e 1A80     		strh	r2, [r3]	@ movhi
 241:.\main.c      **** 
 242:.\main.c      ****     /* When there is no data to transfer to VDAC stop DMA and wait until
 243:.\main.c      **** 	* buffer is half-full to continue operation.
 244:.\main.c      ****     */
 245:.\main.c      ****     if (outIndex == inIndex)
  57              		.loc 1 245 0 is_stmt 1 discriminator 4
  58 0020 1A88     		ldrh	r2, [r3]
  59 0022 92B2     		uxth	r2, r2
  60 0024 5B88     		ldrh	r3, [r3, #2]
  61 0026 9BB2     		uxth	r3, r3
  62 0028 9A42     		cmp	r2, r3
  63 002a 07D1     		bne	.L1
 246:.\main.c      ****     {
 247:.\main.c      ****         /* Stop DMA operation. */
 248:.\main.c      ****         CyDmaChDisable(VdacOutDmaCh);
  64              		.loc 1 248 0
  65 002c 054B     		ldr	r3, .L6+4
  66 002e 1878     		ldrb	r0, [r3]	@ zero_extendqisi2
  67 0030 FFF7FEFF 		bl	CyDmaChDisable
  68              	.LVL0:
 249:.\main.c      **** 
 250:.\main.c      ****         /* Enable underflow delayed start. */
 251:.\main.c      ****         syncDma = 0u;
  69              		.loc 1 251 0
  70 0034 024B     		ldr	r3, .L6
  71 0036 0022     		movs	r2, #0
  72 0038 1A71     		strb	r2, [r3, #4]
 252:.\main.c      ****         syncDmaCounter = 0u;
  73              		.loc 1 252 0
  74 003a 5A71     		strb	r2, [r3, #5]
  75              	.L1:
  76 003c 08BD     		pop	{r3, pc}
  77              	.L7:
  78 003e 00BF     		.align	2
  79              	.L6:
  80 0040 00000000 		.word	.LANCHOR0
  81 0044 00000000 		.word	VdacOutDmaCh
  82              		.cfi_endproc
  83              	.LFE64:
  84              		.size	VdacDmaDone, .-VdacDmaDone
  85              		.section	.text.main,"ax",%progbits
  86              		.align	2
  87              		.global	main
  88              		.thumb
  89              		.thumb_func
  90              		.type	main, %function
ARM GAS  C:\Users\student\AppData\Local\Temp\ccN12VMx.s 			page 7


  91              	main:
  92              	.LFB63:
  85:.\main.c      ****     uint8 i;
  93              		.loc 1 85 0
  94              		.cfi_startproc
  95              		@ args = 0, pretend = 0, frame = 0
  96              		@ frame_needed = 0, uses_anonymous_args = 0
  97 0000 38B5     		push	{r3, r4, r5, lr}
  98              		.cfi_def_cfa_offset 16
  99              		.cfi_offset 3, -16
 100              		.cfi_offset 4, -12
 101              		.cfi_offset 5, -8
 102              		.cfi_offset 14, -4
 103              	.LVL1:
  90:.\main.c      **** 
 104              		.loc 1 90 0
 105 0002 FFF7FEFF 		bl	VDAC8_Start
 106              	.LVL2:
  93:.\main.c      ****                                             HI16(VDAC_DMA_SRC_BASE), HI16(VDAC_DMA_DST_BASE));
 107              		.loc 1 93 0
 108 0006 0120     		movs	r0, #1
 109 0008 0146     		mov	r1, r0
 110 000a 554A     		ldr	r2, .L27
 111 000c 120C     		lsrs	r2, r2, #16
 112 000e 4FF48043 		mov	r3, #16384
 113 0012 FFF7FEFF 		bl	VDAC_DMA_DmaInitialize
 114              	.LVL3:
 115 0016 534B     		ldr	r3, .L27+4
 116 0018 1870     		strb	r0, [r3]
 117              	.LVL4:
  97:.\main.c      ****     {
 118              		.loc 1 97 0
 119 001a 0024     		movs	r4, #0
 120 001c 05E0     		b	.L9
 121              	.LVL5:
 122              	.L10:
  99:.\main.c      ****     }
 123              		.loc 1 99 0 discriminator 3
 124 001e FFF7FEFF 		bl	CyDmaTdAllocate
 125              	.LVL6:
 126 0022 514B     		ldr	r3, .L27+8
 127 0024 1855     		strb	r0, [r3, r4]
  97:.\main.c      ****     {
 128              		.loc 1 97 0 discriminator 3
 129 0026 0134     		adds	r4, r4, #1
 130              	.LVL7:
 131 0028 E4B2     		uxtb	r4, r4
 132              	.LVL8:
 133              	.L9:
  97:.\main.c      ****     {
 134              		.loc 1 97 0 is_stmt 0 discriminator 1
 135 002a 092C     		cmp	r4, #9
 136 002c F7D9     		bls	.L10
 137 002e 0023     		movs	r3, #0
 138 0030 08E0     		b	.L11
 139              	.LVL9:
 140              	.L12:
ARM GAS  C:\Users\student\AppData\Local\Temp\ccN12VMx.s 			page 8


 106:.\main.c      ****                                 (TD_INC_SRC_ADR | VDAC_DMA_TD_TERMOUT_EN));
 141              		.loc 1 106 0 is_stmt 1 discriminator 3
 142 0032 5C1C     		adds	r4, r3, #1
 143 0034 4C4A     		ldr	r2, .L27+8
 144 0036 D05C     		ldrb	r0, [r2, r3]	@ zero_extendqisi2
 145 0038 2021     		movs	r1, #32
 146 003a 125D     		ldrb	r2, [r2, r4]	@ zero_extendqisi2
 147 003c 0523     		movs	r3, #5
 148              	.LVL10:
 149 003e FFF7FEFF 		bl	CyDmaTdSetConfiguration
 150              	.LVL11:
 103:.\main.c      ****     {
 151              		.loc 1 103 0 discriminator 3
 152 0042 E3B2     		uxtb	r3, r4
 153              	.LVL12:
 154              	.L11:
 103:.\main.c      ****     {
 155              		.loc 1 103 0 is_stmt 0 discriminator 1
 156 0044 082B     		cmp	r3, #8
 157 0046 F4D9     		bls	.L12
 110:.\main.c      ****                                 (TD_INC_SRC_ADR | VDAC_DMA_TD_TERMOUT_EN));
 158              		.loc 1 110 0 is_stmt 1
 159 0048 474B     		ldr	r3, .L27+8
 160              	.LVL13:
 161 004a 587A     		ldrb	r0, [r3, #9]	@ zero_extendqisi2
 162 004c 2021     		movs	r1, #32
 163 004e 1A78     		ldrb	r2, [r3]	@ zero_extendqisi2
 164 0050 0523     		movs	r3, #5
 165 0052 FFF7FEFF 		bl	CyDmaTdSetConfiguration
 166              	.LVL14:
 114:.\main.c      ****     {
 167              		.loc 1 114 0
 168 0056 0024     		movs	r4, #0
 169 0058 0BE0     		b	.L13
 170              	.LVL15:
 171              	.L14:
 117:.\main.c      ****                                            LO16((uint32) VDAC8_Data_PTR));
 172              		.loc 1 117 0 discriminator 3
 173 005a 4149     		ldr	r1, .L27
 174 005c 01EB4411 		add	r1, r1, r4, lsl #5
 175 0060 414B     		ldr	r3, .L27+8
 176 0062 185D     		ldrb	r0, [r3, r4]	@ zero_extendqisi2
 177 0064 89B2     		uxth	r1, r1
 178 0066 45F68132 		movw	r2, #23425
 179 006a FFF7FEFF 		bl	CyDmaTdSetAddress
 180              	.LVL16:
 114:.\main.c      ****     {
 181              		.loc 1 114 0 discriminator 3
 182 006e 0134     		adds	r4, r4, #1
 183              	.LVL17:
 184 0070 E4B2     		uxtb	r4, r4
 185              	.LVL18:
 186              	.L13:
 114:.\main.c      ****     {
 187              		.loc 1 114 0 is_stmt 0 discriminator 1
 188 0072 092C     		cmp	r4, #9
 189 0074 F1D9     		bls	.L14
ARM GAS  C:\Users\student\AppData\Local\Temp\ccN12VMx.s 			page 9


 122:.\main.c      **** 
 190              		.loc 1 122 0 is_stmt 1
 191 0076 3B4B     		ldr	r3, .L27+4
 192 0078 1878     		ldrb	r0, [r3]	@ zero_extendqisi2
 193 007a 3B4B     		ldr	r3, .L27+8
 194 007c 1978     		ldrb	r1, [r3]	@ zero_extendqisi2
 195 007e FFF7FEFF 		bl	CyDmaChSetInitialTd
 196              	.LVL19:
 125:.\main.c      **** 
 197              		.loc 1 125 0
 198 0082 3A48     		ldr	r0, .L27+12
 199 0084 FFF7FEFF 		bl	DmaDone_StartEx
 200              	.LVL20:
 127:.\main.c      **** 
 201              		.loc 1 127 0
 202              	@ 127 ".\main.c" 1
 203 0088 62B6     		CPSIE   i
 204              	@ 0 "" 2
 130:.\main.c      **** 
 205              		.loc 1 130 0
 206              		.thumb
 207 008a 0020     		movs	r0, #0
 208 008c 0121     		movs	r1, #1
 209 008e FFF7FEFF 		bl	USBFS_Start
 210              	.LVL21:
 211              	.L15:
 133:.\main.c      ****     {
 212              		.loc 1 133 0 discriminator 1
 213 0092 FFF7FEFF 		bl	USBFS_GetConfiguration
 214              	.LVL22:
 215 0096 0028     		cmp	r0, #0
 216 0098 FBD0     		beq	.L15
 217 009a 0024     		movs	r4, #0
 218              	.LVL23:
 219              	.L16:
 140:.\main.c      ****         {
 220              		.loc 1 140 0
 221 009c FFF7FEFF 		bl	USBFS_IsConfigurationChanged
 222              	.LVL24:
 223 00a0 78B1     		cbz	r0, .L17
 143:.\main.c      ****                 (0u != USBFS_GetInterfaceSetting(AUDIO_INTERFACE)))
 224              		.loc 1 143 0
 225 00a2 FFF7FEFF 		bl	USBFS_GetConfiguration
 226              	.LVL25:
 227 00a6 60B1     		cbz	r0, .L17
 144:.\main.c      ****             {
 228              		.loc 1 144 0 discriminator 1
 229 00a8 0120     		movs	r0, #1
 230 00aa FFF7FEFF 		bl	USBFS_GetInterfaceSetting
 231              	.LVL26:
 143:.\main.c      ****                 (0u != USBFS_GetInterfaceSetting(AUDIO_INTERFACE)))
 232              		.loc 1 143 0 discriminator 1
 233 00ae 40B1     		cbz	r0, .L17
 149:.\main.c      ****                 outIndex = 0u;
 234              		.loc 1 149 0
 235 00b0 2F4B     		ldr	r3, .L27+16
 236 00b2 0024     		movs	r4, #0
ARM GAS  C:\Users\student\AppData\Local\Temp\ccN12VMx.s 			page 10


 237              	.LVL27:
 238 00b4 5C80     		strh	r4, [r3, #2]	@ movhi
 150:.\main.c      ****                 syncDma  = 0u;
 239              		.loc 1 150 0
 240 00b6 1C80     		strh	r4, [r3]	@ movhi
 151:.\main.c      ****                 skipNextOut = 0u;
 241              		.loc 1 151 0
 242 00b8 1C71     		strb	r4, [r3, #4]
 243              	.LVL28:
 153:.\main.c      **** 
 244              		.loc 1 153 0
 245 00ba 5C71     		strb	r4, [r3, #5]
 156:.\main.c      **** 
 246              		.loc 1 156 0
 247 00bc 0220     		movs	r0, #2
 248 00be FFF7FEFF 		bl	USBFS_EnableOutEP
 249              	.LVL29:
 250              	.L17:
 165:.\main.c      ****         {
 251              		.loc 1 165 0
 252 00c2 0220     		movs	r0, #2
 253 00c4 FFF7FEFF 		bl	USBFS_GetEPState
 254              	.LVL30:
 255 00c8 0128     		cmp	r0, #1
 256 00ca 36D1     		bne	.L18
 167:.\main.c      ****             {
 257              		.loc 1 167 0
 258 00cc 4CBB     		cbnz	r4, .L19
 170:.\main.c      ****                                             TRANSFER_SIZE);
 259              		.loc 1 170 0
 260 00ce 284B     		ldr	r3, .L27+16
 261 00d0 5B88     		ldrh	r3, [r3, #2]
 262 00d2 9BB2     		uxth	r3, r3
 263 00d4 0220     		movs	r0, #2
 264 00d6 2249     		ldr	r1, .L27
 265 00d8 01EB4311 		add	r1, r1, r3, lsl #5
 266 00dc 2022     		movs	r2, #32
 267 00de FFF7FEFF 		bl	USBFS_ReadOutEP
 268              	.LVL31:
 269              	.L20:
 174:.\main.c      ****                 {
 270              		.loc 1 174 0 discriminator 1
 271 00e2 0220     		movs	r0, #2
 272 00e4 FFF7FEFF 		bl	USBFS_GetEPState
 273              	.LVL32:
 274 00e8 0128     		cmp	r0, #1
 275 00ea FAD0     		beq	.L20
 181:.\main.c      ****                 ++inIndex;
 276              		.loc 1 181 0
 277 00ec FFF7FEFF 		bl	DmaDone_Disable
 278              	.LVL33:
 182:.\main.c      ****                 inIndex = (inIndex >= NUM_OF_BUFFERS) ? 0u : inIndex;
 279              		.loc 1 182 0
 280 00f0 1F4A     		ldr	r2, .L27+16
 281 00f2 5388     		ldrh	r3, [r2, #2]
 282 00f4 0133     		adds	r3, r3, #1
 283 00f6 9BB2     		uxth	r3, r3
ARM GAS  C:\Users\student\AppData\Local\Temp\ccN12VMx.s 			page 11


 284 00f8 5380     		strh	r3, [r2, #2]	@ movhi
 183:.\main.c      ****                 DmaDone_Enable();
 285              		.loc 1 183 0
 286 00fa 5388     		ldrh	r3, [r2, #2]
 287 00fc 9BB2     		uxth	r3, r3
 288 00fe 092B     		cmp	r3, #9
 289 0100 02D8     		bhi	.L24
 183:.\main.c      ****                 DmaDone_Enable();
 290              		.loc 1 183 0 is_stmt 0 discriminator 1
 291 0102 5388     		ldrh	r3, [r2, #2]
 292 0104 9BB2     		uxth	r3, r3
 293 0106 00E0     		b	.L21
 294              	.L24:
 183:.\main.c      ****                 DmaDone_Enable();
 295              		.loc 1 183 0
 296 0108 0023     		movs	r3, #0
 297              	.L21:
 183:.\main.c      ****                 DmaDone_Enable();
 298              		.loc 1 183 0 discriminator 4
 299 010a 194D     		ldr	r5, .L27+16
 300 010c 6B80     		strh	r3, [r5, #2]	@ movhi
 184:.\main.c      ****                 ++syncDmaCounter;
 301              		.loc 1 184 0 is_stmt 1 discriminator 4
 302 010e FFF7FEFF 		bl	DmaDone_Enable
 303              	.LVL34:
 185:.\main.c      **** 
 304              		.loc 1 185 0 discriminator 4
 305 0112 6B79     		ldrb	r3, [r5, #5]	@ zero_extendqisi2
 306 0114 0133     		adds	r3, r3, #1
 307 0116 DBB2     		uxtb	r3, r3
 308 0118 6B71     		strb	r3, [r5, #5]
 188:.\main.c      ****             }
 309              		.loc 1 188 0 discriminator 4
 310 011a 0220     		movs	r0, #2
 311 011c FFF7FEFF 		bl	USBFS_EnableOutEP
 312              	.LVL35:
 313 0120 03E0     		b	.L22
 314              	.L19:
 195:.\main.c      ****                 skipNextOut = 0u;
 315              		.loc 1 195 0
 316 0122 0220     		movs	r0, #2
 317 0124 FFF7FEFF 		bl	USBFS_EnableOutEP
 318              	.LVL36:
 196:.\main.c      ****             }
 319              		.loc 1 196 0
 320 0128 0024     		movs	r4, #0
 321              	.LVL37:
 322              	.L22:
 202:.\main.c      ****             {
 323              		.loc 1 202 0
 324 012a 114B     		ldr	r3, .L27+16
 325 012c 1A88     		ldrh	r2, [r3]
 326 012e 92B2     		uxth	r2, r2
 327 0130 5B88     		ldrh	r3, [r3, #2]
 328 0132 9BB2     		uxth	r3, r3
 329 0134 9A42     		cmp	r2, r3
 330 0136 00D1     		bne	.L18
ARM GAS  C:\Users\student\AppData\Local\Temp\ccN12VMx.s 			page 12


 204:.\main.c      ****             }
 331              		.loc 1 204 0
 332 0138 0124     		movs	r4, #1
 333              	.LVL38:
 334              	.L18:
 209:.\main.c      ****         {
 335              		.loc 1 209 0
 336 013a 0D4B     		ldr	r3, .L27+16
 337 013c 1B79     		ldrb	r3, [r3, #4]	@ zero_extendqisi2
 338 013e 13F0FF0F 		tst	r3, #255
 339 0142 ABD1     		bne	.L16
 209:.\main.c      ****         {
 340              		.loc 1 209 0 is_stmt 0 discriminator 1
 341 0144 0A4B     		ldr	r3, .L27+16
 342 0146 5B79     		ldrb	r3, [r3, #5]	@ zero_extendqisi2
 343 0148 DBB2     		uxtb	r3, r3
 344 014a 052B     		cmp	r3, #5
 345 014c A6D1     		bne	.L16
 212:.\main.c      **** 
 346              		.loc 1 212 0 is_stmt 1
 347 014e 054B     		ldr	r3, .L27+4
 348 0150 1878     		ldrb	r0, [r3]	@ zero_extendqisi2
 349 0152 0121     		movs	r1, #1
 350 0154 FFF7FEFF 		bl	CyDmaChEnable
 351              	.LVL39:
 215:.\main.c      ****         }
 352              		.loc 1 215 0
 353 0158 0122     		movs	r2, #1
 354 015a 054B     		ldr	r3, .L27+16
 355 015c 1A71     		strb	r2, [r3, #4]
 356 015e 9DE7     		b	.L16
 357              	.L28:
 358              		.align	2
 359              	.L27:
 360 0160 00000000 		.word	soundBuffer
 361 0164 00000000 		.word	VdacOutDmaCh
 362 0168 00000000 		.word	VdacOutDmaTd
 363 016c 00000000 		.word	VdacDmaDone
 364 0170 00000000 		.word	.LANCHOR0
 365              		.cfi_endproc
 366              	.LFE63:
 367              		.size	main, .-main
 368              		.comm	VdacOutDmaTd,10,4
 369              		.comm	VdacOutDmaCh,1,1
 370              		.global	syncDmaCounter
 371              		.global	syncDma
 372              		.global	inIndex
 373              		.global	outIndex
 374              		.comm	soundBuffer,320,4
 375              		.bss
 376              		.align	1
 377              		.set	.LANCHOR0,. + 0
 378              		.type	outIndex, %object
 379              		.size	outIndex, 2
 380              	outIndex:
 381 0000 0000     		.space	2
 382              		.type	inIndex, %object
ARM GAS  C:\Users\student\AppData\Local\Temp\ccN12VMx.s 			page 13


 383              		.size	inIndex, 2
 384              	inIndex:
 385 0002 0000     		.space	2
 386              		.type	syncDma, %object
 387              		.size	syncDma, 1
 388              	syncDma:
 389 0004 00       		.space	1
 390              		.type	syncDmaCounter, %object
 391              		.size	syncDmaCounter, 1
 392              	syncDmaCounter:
 393 0005 00       		.space	1
 394              		.text
 395              	.Letext0:
 396              		.file 2 "c:\\program files (x86)\\cypress\\psoc creator\\3.3\\psoc creator\\import\\gnu\\arm\\4.9.
 397              		.file 3 "c:\\program files (x86)\\cypress\\psoc creator\\3.3\\psoc creator\\import\\gnu\\arm\\4.9.
 398              		.file 4 "Generated_Source\\PSoC5/cytypes.h"
 399              		.file 5 "Generated_Source\\PSoC5/core_cm3.h"
 400              		.file 6 "Generated_Source\\PSoC5/CyDmac.h"
 401              		.file 7 "Generated_Source\\PSoC5/VDAC_DMA_dma.h"
 402              		.file 8 "Generated_Source\\PSoC5/DmaDone.h"
 403              		.file 9 "Generated_Source\\PSoC5/USBFS.h"
 404              		.file 10 "Generated_Source\\PSoC5/VDAC8.h"