ARM GAS  C:\Users\student\AppData\Local\Temp\cck0tpUF.s 			page 1


   1              		.syntax unified
   2              		.cpu cortex-m3
   3              		.fpu softvfp
   4              		.eabi_attribute 20, 1
   5              		.eabi_attribute 21, 1
   6              		.eabi_attribute 23, 3
   7              		.eabi_attribute 24, 1
   8              		.eabi_attribute 25, 1
   9              		.eabi_attribute 26, 1
  10              		.eabi_attribute 30, 1
  11              		.eabi_attribute 34, 1
  12              		.eabi_attribute 18, 4
  13              		.thumb
  14              		.file	"USBUART_drv.c"
  15              		.text
  16              	.Ltext0:
  17              		.cfi_sections	.debug_frame
  18              		.section	.text.USBUART_LoadEP0,"ax",%progbits
  19              		.align	2
  20              		.global	USBUART_LoadEP0
  21              		.thumb
  22              		.thumb_func
  23              		.type	USBUART_LoadEP0, %function
  24              	USBUART_LoadEP0:
  25              	.LFB4:
  26              		.file 1 ".\\Generated_Source\\PSoC5\\USBUART_drv.c"
   1:.\Generated_Source\PSoC5/USBUART_drv.c **** /***************************************************************************//**
   2:.\Generated_Source\PSoC5/USBUART_drv.c **** * \file USBUART_drv.c
   3:.\Generated_Source\PSoC5/USBUART_drv.c **** * \version 3.0
   4:.\Generated_Source\PSoC5/USBUART_drv.c **** *
   5:.\Generated_Source\PSoC5/USBUART_drv.c **** * \brief
   6:.\Generated_Source\PSoC5/USBUART_drv.c **** *  This file contains the Endpoint 0 Driver for the USBFS Component.  
   7:.\Generated_Source\PSoC5/USBUART_drv.c **** *
   8:.\Generated_Source\PSoC5/USBUART_drv.c **** ********************************************************************************
   9:.\Generated_Source\PSoC5/USBUART_drv.c **** * \copyright
  10:.\Generated_Source\PSoC5/USBUART_drv.c **** * Copyright 2008-2015, Cypress Semiconductor Corporation.  All rights reserved.
  11:.\Generated_Source\PSoC5/USBUART_drv.c **** * You may use this file only in accordance with the license, terms, conditions,
  12:.\Generated_Source\PSoC5/USBUART_drv.c **** * disclaimers, and limitations in the end user license agreement accompanying
  13:.\Generated_Source\PSoC5/USBUART_drv.c **** * the software package with which this file was provided.
  14:.\Generated_Source\PSoC5/USBUART_drv.c **** *******************************************************************************/
  15:.\Generated_Source\PSoC5/USBUART_drv.c **** 
  16:.\Generated_Source\PSoC5/USBUART_drv.c **** #include "USBUART_pvt.h"
  17:.\Generated_Source\PSoC5/USBUART_drv.c **** #include "cyapicallbacks.h"
  18:.\Generated_Source\PSoC5/USBUART_drv.c **** 
  19:.\Generated_Source\PSoC5/USBUART_drv.c **** 
  20:.\Generated_Source\PSoC5/USBUART_drv.c **** /***************************************
  21:.\Generated_Source\PSoC5/USBUART_drv.c **** * Global data allocation
  22:.\Generated_Source\PSoC5/USBUART_drv.c **** ***************************************/
  23:.\Generated_Source\PSoC5/USBUART_drv.c **** 
  24:.\Generated_Source\PSoC5/USBUART_drv.c **** volatile T_USBUART_EP_CTL_BLOCK USBUART_EP[USBUART_MAX_EP];
  25:.\Generated_Source\PSoC5/USBUART_drv.c **** 
  26:.\Generated_Source\PSoC5/USBUART_drv.c **** /** Contains the current configuration number, which is set by the host using a 
  27:.\Generated_Source\PSoC5/USBUART_drv.c ****  * SET_CONFIGURATION request. This variable is initialized to zero in 
  28:.\Generated_Source\PSoC5/USBUART_drv.c ****  * USBFS_InitComponent() API and can be read by the USBFS_GetConfiguration() 
  29:.\Generated_Source\PSoC5/USBUART_drv.c ****  * API.*/
  30:.\Generated_Source\PSoC5/USBUART_drv.c **** volatile uint8 USBUART_configuration;
  31:.\Generated_Source\PSoC5/USBUART_drv.c **** 
ARM GAS  C:\Users\student\AppData\Local\Temp\cck0tpUF.s 			page 2


  32:.\Generated_Source\PSoC5/USBUART_drv.c **** /** Contains the current interface number.*/
  33:.\Generated_Source\PSoC5/USBUART_drv.c **** volatile uint8 USBUART_interfaceNumber;
  34:.\Generated_Source\PSoC5/USBUART_drv.c **** 
  35:.\Generated_Source\PSoC5/USBUART_drv.c **** /** This variable is set to one after SET_CONFIGURATION and SET_INTERFACE 
  36:.\Generated_Source\PSoC5/USBUART_drv.c ****  *requests. It can be read by the USBFS_IsConfigurationChanged() API */
  37:.\Generated_Source\PSoC5/USBUART_drv.c **** volatile uint8 USBUART_configurationChanged;
  38:.\Generated_Source\PSoC5/USBUART_drv.c **** 
  39:.\Generated_Source\PSoC5/USBUART_drv.c **** /** Contains the current device address.*/
  40:.\Generated_Source\PSoC5/USBUART_drv.c **** volatile uint8 USBUART_deviceAddress;
  41:.\Generated_Source\PSoC5/USBUART_drv.c **** 
  42:.\Generated_Source\PSoC5/USBUART_drv.c **** /** This is a two-bit variable that contains power status in the bit 0 
  43:.\Generated_Source\PSoC5/USBUART_drv.c ****  * (DEVICE_STATUS_BUS_POWERED or DEVICE_STATUS_SELF_POWERED) and remote wakeup 
  44:.\Generated_Source\PSoC5/USBUART_drv.c ****  * status (DEVICE_STATUS_REMOTE_WAKEUP) in the bit 1. This variable is 
  45:.\Generated_Source\PSoC5/USBUART_drv.c ****  * initialized to zero in USBFS_InitComponent() API, configured by the 
  46:.\Generated_Source\PSoC5/USBUART_drv.c ****  * USBFS_SetPowerStatus() API. The remote wakeup status cannot be set using the 
  47:.\Generated_Source\PSoC5/USBUART_drv.c ****  * API SetPowerStatus(). */
  48:.\Generated_Source\PSoC5/USBUART_drv.c **** volatile uint8 USBUART_deviceStatus;
  49:.\Generated_Source\PSoC5/USBUART_drv.c **** 
  50:.\Generated_Source\PSoC5/USBUART_drv.c **** volatile uint8 USBUART_interfaceSetting[USBUART_MAX_INTERFACES_NUMBER];
  51:.\Generated_Source\PSoC5/USBUART_drv.c **** volatile uint8 USBUART_interfaceSetting_last[USBUART_MAX_INTERFACES_NUMBER];
  52:.\Generated_Source\PSoC5/USBUART_drv.c **** volatile uint8 USBUART_interfaceStatus[USBUART_MAX_INTERFACES_NUMBER];
  53:.\Generated_Source\PSoC5/USBUART_drv.c **** 
  54:.\Generated_Source\PSoC5/USBUART_drv.c **** /** Contains the started device number. This variable is set by the 
  55:.\Generated_Source\PSoC5/USBUART_drv.c ****  * USBFS_Start() or USBFS_InitComponent() APIs.*/
  56:.\Generated_Source\PSoC5/USBUART_drv.c **** volatile uint8 USBUART_device;
  57:.\Generated_Source\PSoC5/USBUART_drv.c **** 
  58:.\Generated_Source\PSoC5/USBUART_drv.c **** /** Initialized class array for each interface. It is used for handling Class 
  59:.\Generated_Source\PSoC5/USBUART_drv.c ****  * specific requests depend on interface class. Different classes in multiple 
  60:.\Generated_Source\PSoC5/USBUART_drv.c ****  * alternate settings are not supported.*/
  61:.\Generated_Source\PSoC5/USBUART_drv.c **** const uint8 CYCODE *USBUART_interfaceClass;
  62:.\Generated_Source\PSoC5/USBUART_drv.c **** 
  63:.\Generated_Source\PSoC5/USBUART_drv.c **** 
  64:.\Generated_Source\PSoC5/USBUART_drv.c **** /***************************************
  65:.\Generated_Source\PSoC5/USBUART_drv.c **** * Local data allocation
  66:.\Generated_Source\PSoC5/USBUART_drv.c **** ***************************************/
  67:.\Generated_Source\PSoC5/USBUART_drv.c **** 
  68:.\Generated_Source\PSoC5/USBUART_drv.c **** volatile uint8  USBUART_ep0Toggle;
  69:.\Generated_Source\PSoC5/USBUART_drv.c **** volatile uint8  USBUART_lastPacketSize;
  70:.\Generated_Source\PSoC5/USBUART_drv.c **** 
  71:.\Generated_Source\PSoC5/USBUART_drv.c **** /** This variable is used by the communication functions to handle the current 
  72:.\Generated_Source\PSoC5/USBUART_drv.c **** * transfer state.
  73:.\Generated_Source\PSoC5/USBUART_drv.c **** * Initialized to TRANS_STATE_IDLE in the USBFS_InitComponent() API and after a 
  74:.\Generated_Source\PSoC5/USBUART_drv.c **** * complete transfer in the status stage.
  75:.\Generated_Source\PSoC5/USBUART_drv.c **** * Changed to the TRANS_STATE_CONTROL_READ or TRANS_STATE_CONTROL_WRITE in setup 
  76:.\Generated_Source\PSoC5/USBUART_drv.c **** * transaction depending on the request type.
  77:.\Generated_Source\PSoC5/USBUART_drv.c **** */
  78:.\Generated_Source\PSoC5/USBUART_drv.c **** volatile uint8  USBUART_transferState;
  79:.\Generated_Source\PSoC5/USBUART_drv.c **** volatile T_USBUART_TD USBUART_currentTD;
  80:.\Generated_Source\PSoC5/USBUART_drv.c **** volatile uint8  USBUART_ep0Mode;
  81:.\Generated_Source\PSoC5/USBUART_drv.c **** volatile uint8  USBUART_ep0Count;
  82:.\Generated_Source\PSoC5/USBUART_drv.c **** volatile uint16 USBUART_transferByteCount;
  83:.\Generated_Source\PSoC5/USBUART_drv.c **** 
  84:.\Generated_Source\PSoC5/USBUART_drv.c **** 
  85:.\Generated_Source\PSoC5/USBUART_drv.c **** /*******************************************************************************
  86:.\Generated_Source\PSoC5/USBUART_drv.c **** * Function Name: USBUART_ep_0_Interrupt
  87:.\Generated_Source\PSoC5/USBUART_drv.c **** ****************************************************************************//**
  88:.\Generated_Source\PSoC5/USBUART_drv.c **** *
ARM GAS  C:\Users\student\AppData\Local\Temp\cck0tpUF.s 			page 3


  89:.\Generated_Source\PSoC5/USBUART_drv.c **** *  This Interrupt Service Routine handles Endpoint 0 (Control Pipe) traffic.
  90:.\Generated_Source\PSoC5/USBUART_drv.c **** *  It dispatches setup requests and handles the data and status stages.
  91:.\Generated_Source\PSoC5/USBUART_drv.c **** *
  92:.\Generated_Source\PSoC5/USBUART_drv.c **** *
  93:.\Generated_Source\PSoC5/USBUART_drv.c **** *******************************************************************************/
  94:.\Generated_Source\PSoC5/USBUART_drv.c **** CY_ISR(USBUART_EP_0_ISR)
  95:.\Generated_Source\PSoC5/USBUART_drv.c **** {
  96:.\Generated_Source\PSoC5/USBUART_drv.c ****     uint8 tempReg;
  97:.\Generated_Source\PSoC5/USBUART_drv.c ****     uint8 modifyReg;
  98:.\Generated_Source\PSoC5/USBUART_drv.c **** 
  99:.\Generated_Source\PSoC5/USBUART_drv.c **** #ifdef USBUART_EP_0_ISR_ENTRY_CALLBACK
 100:.\Generated_Source\PSoC5/USBUART_drv.c ****     USBUART_EP_0_ISR_EntryCallback();
 101:.\Generated_Source\PSoC5/USBUART_drv.c **** #endif /* (USBUART_EP_0_ISR_ENTRY_CALLBACK) */
 102:.\Generated_Source\PSoC5/USBUART_drv.c ****     
 103:.\Generated_Source\PSoC5/USBUART_drv.c ****     tempReg = USBUART_EP0_CR_REG;
 104:.\Generated_Source\PSoC5/USBUART_drv.c ****     if ((tempReg & USBUART_MODE_ACKD) != 0u)
 105:.\Generated_Source\PSoC5/USBUART_drv.c ****     {
 106:.\Generated_Source\PSoC5/USBUART_drv.c ****         modifyReg = 1u;
 107:.\Generated_Source\PSoC5/USBUART_drv.c ****         if ((tempReg & USBUART_MODE_SETUP_RCVD) != 0u)
 108:.\Generated_Source\PSoC5/USBUART_drv.c ****         {
 109:.\Generated_Source\PSoC5/USBUART_drv.c ****             if ((tempReg & USBUART_MODE_MASK) != USBUART_MODE_NAK_IN_OUT)
 110:.\Generated_Source\PSoC5/USBUART_drv.c ****             {
 111:.\Generated_Source\PSoC5/USBUART_drv.c ****                 /* Mode not equal to NAK_IN_OUT: invalid setup */
 112:.\Generated_Source\PSoC5/USBUART_drv.c ****                 modifyReg = 0u;
 113:.\Generated_Source\PSoC5/USBUART_drv.c ****             }
 114:.\Generated_Source\PSoC5/USBUART_drv.c ****             else
 115:.\Generated_Source\PSoC5/USBUART_drv.c ****             {
 116:.\Generated_Source\PSoC5/USBUART_drv.c ****                 USBUART_HandleSetup();
 117:.\Generated_Source\PSoC5/USBUART_drv.c ****                 
 118:.\Generated_Source\PSoC5/USBUART_drv.c ****                 if ((USBUART_ep0Mode & USBUART_MODE_SETUP_RCVD) != 0u)
 119:.\Generated_Source\PSoC5/USBUART_drv.c ****                 {
 120:.\Generated_Source\PSoC5/USBUART_drv.c ****                     /* SETUP bit set: exit without mode modificaiton */
 121:.\Generated_Source\PSoC5/USBUART_drv.c ****                     modifyReg = 0u;
 122:.\Generated_Source\PSoC5/USBUART_drv.c ****                 }
 123:.\Generated_Source\PSoC5/USBUART_drv.c ****             }
 124:.\Generated_Source\PSoC5/USBUART_drv.c ****         }
 125:.\Generated_Source\PSoC5/USBUART_drv.c ****         else if ((tempReg & USBUART_MODE_IN_RCVD) != 0u)
 126:.\Generated_Source\PSoC5/USBUART_drv.c ****         {
 127:.\Generated_Source\PSoC5/USBUART_drv.c ****             USBUART_HandleIN();
 128:.\Generated_Source\PSoC5/USBUART_drv.c ****         }
 129:.\Generated_Source\PSoC5/USBUART_drv.c ****         else if ((tempReg & USBUART_MODE_OUT_RCVD) != 0u)
 130:.\Generated_Source\PSoC5/USBUART_drv.c ****         {
 131:.\Generated_Source\PSoC5/USBUART_drv.c ****             USBUART_HandleOUT();
 132:.\Generated_Source\PSoC5/USBUART_drv.c ****         }
 133:.\Generated_Source\PSoC5/USBUART_drv.c ****         else
 134:.\Generated_Source\PSoC5/USBUART_drv.c ****         {
 135:.\Generated_Source\PSoC5/USBUART_drv.c ****             modifyReg = 0u;
 136:.\Generated_Source\PSoC5/USBUART_drv.c ****         }
 137:.\Generated_Source\PSoC5/USBUART_drv.c ****         
 138:.\Generated_Source\PSoC5/USBUART_drv.c ****         /* Modify the EP0_CR register */
 139:.\Generated_Source\PSoC5/USBUART_drv.c ****         if (modifyReg != 0u)
 140:.\Generated_Source\PSoC5/USBUART_drv.c ****         {
 141:.\Generated_Source\PSoC5/USBUART_drv.c ****             
 142:.\Generated_Source\PSoC5/USBUART_drv.c ****             tempReg = USBUART_EP0_CR_REG;
 143:.\Generated_Source\PSoC5/USBUART_drv.c ****             
 144:.\Generated_Source\PSoC5/USBUART_drv.c ****             /* Make sure that SETUP bit is cleared before modification */
 145:.\Generated_Source\PSoC5/USBUART_drv.c ****             if ((tempReg & USBUART_MODE_SETUP_RCVD) == 0u)
ARM GAS  C:\Users\student\AppData\Local\Temp\cck0tpUF.s 			page 4


 146:.\Generated_Source\PSoC5/USBUART_drv.c ****             {
 147:.\Generated_Source\PSoC5/USBUART_drv.c ****                 /* Update count register */
 148:.\Generated_Source\PSoC5/USBUART_drv.c ****                 tempReg = (uint8) USBUART_ep0Toggle | USBUART_ep0Count;
 149:.\Generated_Source\PSoC5/USBUART_drv.c ****                 USBUART_EP0_CNT_REG = tempReg;
 150:.\Generated_Source\PSoC5/USBUART_drv.c ****                
 151:.\Generated_Source\PSoC5/USBUART_drv.c ****                 /* Make sure that previous write operaiton was successful */
 152:.\Generated_Source\PSoC5/USBUART_drv.c ****                 if (tempReg == USBUART_EP0_CNT_REG)
 153:.\Generated_Source\PSoC5/USBUART_drv.c ****                 {
 154:.\Generated_Source\PSoC5/USBUART_drv.c ****                     /* Repeat until next successful write operation */
 155:.\Generated_Source\PSoC5/USBUART_drv.c ****                     do
 156:.\Generated_Source\PSoC5/USBUART_drv.c ****                     {
 157:.\Generated_Source\PSoC5/USBUART_drv.c ****                         /* Init temporary variable */
 158:.\Generated_Source\PSoC5/USBUART_drv.c ****                         modifyReg = USBUART_ep0Mode;
 159:.\Generated_Source\PSoC5/USBUART_drv.c ****                         
 160:.\Generated_Source\PSoC5/USBUART_drv.c ****                         /* Unlock register */
 161:.\Generated_Source\PSoC5/USBUART_drv.c ****                         tempReg = (uint8) (USBUART_EP0_CR_REG & USBUART_MODE_SETUP_RCVD);
 162:.\Generated_Source\PSoC5/USBUART_drv.c ****                         
 163:.\Generated_Source\PSoC5/USBUART_drv.c ****                         /* Check if SETUP bit is not set */
 164:.\Generated_Source\PSoC5/USBUART_drv.c ****                         if (0u == tempReg)
 165:.\Generated_Source\PSoC5/USBUART_drv.c ****                         {
 166:.\Generated_Source\PSoC5/USBUART_drv.c ****                             /* Set the Mode Register  */
 167:.\Generated_Source\PSoC5/USBUART_drv.c ****                             USBUART_EP0_CR_REG = USBUART_ep0Mode;
 168:.\Generated_Source\PSoC5/USBUART_drv.c ****                             
 169:.\Generated_Source\PSoC5/USBUART_drv.c ****                             /* Writing check */
 170:.\Generated_Source\PSoC5/USBUART_drv.c ****                             modifyReg = USBUART_EP0_CR_REG & USBUART_MODE_MASK;
 171:.\Generated_Source\PSoC5/USBUART_drv.c ****                         }
 172:.\Generated_Source\PSoC5/USBUART_drv.c ****                     }
 173:.\Generated_Source\PSoC5/USBUART_drv.c ****                     while (modifyReg != USBUART_ep0Mode);
 174:.\Generated_Source\PSoC5/USBUART_drv.c ****                 }
 175:.\Generated_Source\PSoC5/USBUART_drv.c ****             }
 176:.\Generated_Source\PSoC5/USBUART_drv.c ****         }
 177:.\Generated_Source\PSoC5/USBUART_drv.c ****     }
 178:.\Generated_Source\PSoC5/USBUART_drv.c **** 
 179:.\Generated_Source\PSoC5/USBUART_drv.c ****     USBUART_ClearSieInterruptSource(USBUART_INTR_SIE_EP0_INTR);
 180:.\Generated_Source\PSoC5/USBUART_drv.c **** 	
 181:.\Generated_Source\PSoC5/USBUART_drv.c **** #ifdef USBUART_EP_0_ISR_EXIT_CALLBACK
 182:.\Generated_Source\PSoC5/USBUART_drv.c ****     USBUART_EP_0_ISR_ExitCallback();
 183:.\Generated_Source\PSoC5/USBUART_drv.c **** #endif /* (USBUART_EP_0_ISR_EXIT_CALLBACK) */
 184:.\Generated_Source\PSoC5/USBUART_drv.c **** }
 185:.\Generated_Source\PSoC5/USBUART_drv.c **** 
 186:.\Generated_Source\PSoC5/USBUART_drv.c **** 
 187:.\Generated_Source\PSoC5/USBUART_drv.c **** /*******************************************************************************
 188:.\Generated_Source\PSoC5/USBUART_drv.c **** * Function Name: USBUART_HandleSetup
 189:.\Generated_Source\PSoC5/USBUART_drv.c **** ****************************************************************************//**
 190:.\Generated_Source\PSoC5/USBUART_drv.c **** *
 191:.\Generated_Source\PSoC5/USBUART_drv.c **** *  This Routine dispatches requests for the four USB request types
 192:.\Generated_Source\PSoC5/USBUART_drv.c **** *
 193:.\Generated_Source\PSoC5/USBUART_drv.c **** *
 194:.\Generated_Source\PSoC5/USBUART_drv.c **** * \reentrant
 195:.\Generated_Source\PSoC5/USBUART_drv.c **** *  No.
 196:.\Generated_Source\PSoC5/USBUART_drv.c **** *
 197:.\Generated_Source\PSoC5/USBUART_drv.c **** *******************************************************************************/
 198:.\Generated_Source\PSoC5/USBUART_drv.c **** void USBUART_HandleSetup(void) 
 199:.\Generated_Source\PSoC5/USBUART_drv.c **** {
 200:.\Generated_Source\PSoC5/USBUART_drv.c ****     uint8 requestHandled;
 201:.\Generated_Source\PSoC5/USBUART_drv.c ****     
 202:.\Generated_Source\PSoC5/USBUART_drv.c ****     /* Clear register lock by SIE (read register) and clear setup bit 
ARM GAS  C:\Users\student\AppData\Local\Temp\cck0tpUF.s 			page 5


 203:.\Generated_Source\PSoC5/USBUART_drv.c ****     * (write any value in register).
 204:.\Generated_Source\PSoC5/USBUART_drv.c ****     */
 205:.\Generated_Source\PSoC5/USBUART_drv.c ****     requestHandled = (uint8) USBUART_EP0_CR_REG;
 206:.\Generated_Source\PSoC5/USBUART_drv.c ****     USBUART_EP0_CR_REG = (uint8) requestHandled;
 207:.\Generated_Source\PSoC5/USBUART_drv.c ****     requestHandled = (uint8) USBUART_EP0_CR_REG;
 208:.\Generated_Source\PSoC5/USBUART_drv.c **** 
 209:.\Generated_Source\PSoC5/USBUART_drv.c ****     if ((requestHandled & USBUART_MODE_SETUP_RCVD) != 0u)
 210:.\Generated_Source\PSoC5/USBUART_drv.c ****     {
 211:.\Generated_Source\PSoC5/USBUART_drv.c ****         /* SETUP bit is set: exit without mode modification. */
 212:.\Generated_Source\PSoC5/USBUART_drv.c ****         USBUART_ep0Mode = requestHandled;
 213:.\Generated_Source\PSoC5/USBUART_drv.c ****     }
 214:.\Generated_Source\PSoC5/USBUART_drv.c ****     else
 215:.\Generated_Source\PSoC5/USBUART_drv.c ****     {
 216:.\Generated_Source\PSoC5/USBUART_drv.c ****         /* In case the previous transfer did not complete, close it out */
 217:.\Generated_Source\PSoC5/USBUART_drv.c ****         USBUART_UpdateStatusBlock(USBUART_XFER_PREMATURE);
 218:.\Generated_Source\PSoC5/USBUART_drv.c **** 
 219:.\Generated_Source\PSoC5/USBUART_drv.c ****         /* Check request type. */
 220:.\Generated_Source\PSoC5/USBUART_drv.c ****         switch (USBUART_bmRequestTypeReg & USBUART_RQST_TYPE_MASK)
 221:.\Generated_Source\PSoC5/USBUART_drv.c ****         {
 222:.\Generated_Source\PSoC5/USBUART_drv.c ****             case USBUART_RQST_TYPE_STD:
 223:.\Generated_Source\PSoC5/USBUART_drv.c ****                 requestHandled = USBUART_HandleStandardRqst();
 224:.\Generated_Source\PSoC5/USBUART_drv.c ****                 break;
 225:.\Generated_Source\PSoC5/USBUART_drv.c ****                 
 226:.\Generated_Source\PSoC5/USBUART_drv.c ****             case USBUART_RQST_TYPE_CLS:
 227:.\Generated_Source\PSoC5/USBUART_drv.c ****                 requestHandled = USBUART_DispatchClassRqst();
 228:.\Generated_Source\PSoC5/USBUART_drv.c ****                 break;
 229:.\Generated_Source\PSoC5/USBUART_drv.c ****                 
 230:.\Generated_Source\PSoC5/USBUART_drv.c ****             case USBUART_RQST_TYPE_VND:
 231:.\Generated_Source\PSoC5/USBUART_drv.c ****                 requestHandled = USBUART_HandleVendorRqst();
 232:.\Generated_Source\PSoC5/USBUART_drv.c ****                 break;
 233:.\Generated_Source\PSoC5/USBUART_drv.c ****                 
 234:.\Generated_Source\PSoC5/USBUART_drv.c ****             default:
 235:.\Generated_Source\PSoC5/USBUART_drv.c ****                 requestHandled = USBUART_FALSE;
 236:.\Generated_Source\PSoC5/USBUART_drv.c ****                 break;
 237:.\Generated_Source\PSoC5/USBUART_drv.c ****         }
 238:.\Generated_Source\PSoC5/USBUART_drv.c ****         
 239:.\Generated_Source\PSoC5/USBUART_drv.c ****         /* If request is not recognized. Stall endpoint 0 IN and OUT. */
 240:.\Generated_Source\PSoC5/USBUART_drv.c ****         if (requestHandled == USBUART_FALSE)
 241:.\Generated_Source\PSoC5/USBUART_drv.c ****         {
 242:.\Generated_Source\PSoC5/USBUART_drv.c ****             USBUART_ep0Mode = USBUART_MODE_STALL_IN_OUT;
 243:.\Generated_Source\PSoC5/USBUART_drv.c ****         }
 244:.\Generated_Source\PSoC5/USBUART_drv.c ****     }
 245:.\Generated_Source\PSoC5/USBUART_drv.c **** }
 246:.\Generated_Source\PSoC5/USBUART_drv.c **** 
 247:.\Generated_Source\PSoC5/USBUART_drv.c **** 
 248:.\Generated_Source\PSoC5/USBUART_drv.c **** /*******************************************************************************
 249:.\Generated_Source\PSoC5/USBUART_drv.c **** * Function Name: USBUART_HandleIN
 250:.\Generated_Source\PSoC5/USBUART_drv.c **** ****************************************************************************//**
 251:.\Generated_Source\PSoC5/USBUART_drv.c **** *
 252:.\Generated_Source\PSoC5/USBUART_drv.c **** *  This routine handles EP0 IN transfers.
 253:.\Generated_Source\PSoC5/USBUART_drv.c **** *
 254:.\Generated_Source\PSoC5/USBUART_drv.c **** *
 255:.\Generated_Source\PSoC5/USBUART_drv.c **** * \reentrant
 256:.\Generated_Source\PSoC5/USBUART_drv.c **** *  No.
 257:.\Generated_Source\PSoC5/USBUART_drv.c **** *
 258:.\Generated_Source\PSoC5/USBUART_drv.c **** *******************************************************************************/
 259:.\Generated_Source\PSoC5/USBUART_drv.c **** void USBUART_HandleIN(void) 
ARM GAS  C:\Users\student\AppData\Local\Temp\cck0tpUF.s 			page 6


 260:.\Generated_Source\PSoC5/USBUART_drv.c **** {
 261:.\Generated_Source\PSoC5/USBUART_drv.c ****     switch (USBUART_transferState)
 262:.\Generated_Source\PSoC5/USBUART_drv.c ****     {
 263:.\Generated_Source\PSoC5/USBUART_drv.c ****         case USBUART_TRANS_STATE_IDLE:
 264:.\Generated_Source\PSoC5/USBUART_drv.c ****             break;
 265:.\Generated_Source\PSoC5/USBUART_drv.c ****         
 266:.\Generated_Source\PSoC5/USBUART_drv.c ****         case USBUART_TRANS_STATE_CONTROL_READ:
 267:.\Generated_Source\PSoC5/USBUART_drv.c ****             USBUART_ControlReadDataStage();
 268:.\Generated_Source\PSoC5/USBUART_drv.c ****             break;
 269:.\Generated_Source\PSoC5/USBUART_drv.c ****             
 270:.\Generated_Source\PSoC5/USBUART_drv.c ****         case USBUART_TRANS_STATE_CONTROL_WRITE:
 271:.\Generated_Source\PSoC5/USBUART_drv.c ****             USBUART_ControlWriteStatusStage();
 272:.\Generated_Source\PSoC5/USBUART_drv.c ****             break;
 273:.\Generated_Source\PSoC5/USBUART_drv.c ****             
 274:.\Generated_Source\PSoC5/USBUART_drv.c ****         case USBUART_TRANS_STATE_NO_DATA_CONTROL:
 275:.\Generated_Source\PSoC5/USBUART_drv.c ****             USBUART_NoDataControlStatusStage();
 276:.\Generated_Source\PSoC5/USBUART_drv.c ****             break;
 277:.\Generated_Source\PSoC5/USBUART_drv.c ****             
 278:.\Generated_Source\PSoC5/USBUART_drv.c ****         default:    /* there are no more states */
 279:.\Generated_Source\PSoC5/USBUART_drv.c ****             break;
 280:.\Generated_Source\PSoC5/USBUART_drv.c ****     }
 281:.\Generated_Source\PSoC5/USBUART_drv.c **** }
 282:.\Generated_Source\PSoC5/USBUART_drv.c **** 
 283:.\Generated_Source\PSoC5/USBUART_drv.c **** 
 284:.\Generated_Source\PSoC5/USBUART_drv.c **** /*******************************************************************************
 285:.\Generated_Source\PSoC5/USBUART_drv.c **** * Function Name: USBUART_HandleOUT
 286:.\Generated_Source\PSoC5/USBUART_drv.c **** ****************************************************************************//**
 287:.\Generated_Source\PSoC5/USBUART_drv.c **** *
 288:.\Generated_Source\PSoC5/USBUART_drv.c **** *  This routine handles EP0 OUT transfers.
 289:.\Generated_Source\PSoC5/USBUART_drv.c **** *
 290:.\Generated_Source\PSoC5/USBUART_drv.c **** *
 291:.\Generated_Source\PSoC5/USBUART_drv.c **** * \reentrant
 292:.\Generated_Source\PSoC5/USBUART_drv.c **** *  No.
 293:.\Generated_Source\PSoC5/USBUART_drv.c **** *
 294:.\Generated_Source\PSoC5/USBUART_drv.c **** *******************************************************************************/
 295:.\Generated_Source\PSoC5/USBUART_drv.c **** void USBUART_HandleOUT(void) 
 296:.\Generated_Source\PSoC5/USBUART_drv.c **** {
 297:.\Generated_Source\PSoC5/USBUART_drv.c ****     switch (USBUART_transferState)
 298:.\Generated_Source\PSoC5/USBUART_drv.c ****     {
 299:.\Generated_Source\PSoC5/USBUART_drv.c ****         case USBUART_TRANS_STATE_IDLE:
 300:.\Generated_Source\PSoC5/USBUART_drv.c ****             break;
 301:.\Generated_Source\PSoC5/USBUART_drv.c ****         
 302:.\Generated_Source\PSoC5/USBUART_drv.c ****         case USBUART_TRANS_STATE_CONTROL_READ:
 303:.\Generated_Source\PSoC5/USBUART_drv.c ****             USBUART_ControlReadStatusStage();
 304:.\Generated_Source\PSoC5/USBUART_drv.c ****             break;
 305:.\Generated_Source\PSoC5/USBUART_drv.c ****             
 306:.\Generated_Source\PSoC5/USBUART_drv.c ****         case USBUART_TRANS_STATE_CONTROL_WRITE:
 307:.\Generated_Source\PSoC5/USBUART_drv.c ****             USBUART_ControlWriteDataStage();
 308:.\Generated_Source\PSoC5/USBUART_drv.c ****             break;
 309:.\Generated_Source\PSoC5/USBUART_drv.c ****             
 310:.\Generated_Source\PSoC5/USBUART_drv.c ****         case USBUART_TRANS_STATE_NO_DATA_CONTROL:
 311:.\Generated_Source\PSoC5/USBUART_drv.c ****             /* Update the completion block */
 312:.\Generated_Source\PSoC5/USBUART_drv.c ****             USBUART_UpdateStatusBlock(USBUART_XFER_ERROR);
 313:.\Generated_Source\PSoC5/USBUART_drv.c ****             
 314:.\Generated_Source\PSoC5/USBUART_drv.c ****             /* We expect no more data, so stall INs and OUTs */
 315:.\Generated_Source\PSoC5/USBUART_drv.c ****             USBUART_ep0Mode = USBUART_MODE_STALL_IN_OUT;
 316:.\Generated_Source\PSoC5/USBUART_drv.c ****             break;
ARM GAS  C:\Users\student\AppData\Local\Temp\cck0tpUF.s 			page 7


 317:.\Generated_Source\PSoC5/USBUART_drv.c ****             
 318:.\Generated_Source\PSoC5/USBUART_drv.c ****         default:    
 319:.\Generated_Source\PSoC5/USBUART_drv.c ****             /* There are no more states */
 320:.\Generated_Source\PSoC5/USBUART_drv.c ****             break;
 321:.\Generated_Source\PSoC5/USBUART_drv.c ****     }
 322:.\Generated_Source\PSoC5/USBUART_drv.c **** }
 323:.\Generated_Source\PSoC5/USBUART_drv.c **** 
 324:.\Generated_Source\PSoC5/USBUART_drv.c **** 
 325:.\Generated_Source\PSoC5/USBUART_drv.c **** /*******************************************************************************
 326:.\Generated_Source\PSoC5/USBUART_drv.c **** * Function Name: USBUART_LoadEP0
 327:.\Generated_Source\PSoC5/USBUART_drv.c **** ****************************************************************************//**
 328:.\Generated_Source\PSoC5/USBUART_drv.c **** *
 329:.\Generated_Source\PSoC5/USBUART_drv.c **** *  This routine loads the EP0 data registers for OUT transfers. It uses the
 330:.\Generated_Source\PSoC5/USBUART_drv.c **** *  currentTD (previously initialized by the _InitControlWrite function and
 331:.\Generated_Source\PSoC5/USBUART_drv.c **** *  updated for each OUT transfer, and the bLastPacketSize) to determine how
 332:.\Generated_Source\PSoC5/USBUART_drv.c **** *  many uint8s to transfer on the current OUT.
 333:.\Generated_Source\PSoC5/USBUART_drv.c **** *
 334:.\Generated_Source\PSoC5/USBUART_drv.c **** *  If the number of uint8s remaining is zero and the last transfer was full,
 335:.\Generated_Source\PSoC5/USBUART_drv.c **** *  we need to send a zero length packet.  Otherwise we send the minimum
 336:.\Generated_Source\PSoC5/USBUART_drv.c **** *  of the control endpoint size (8) or remaining number of uint8s for the
 337:.\Generated_Source\PSoC5/USBUART_drv.c **** *  transaction.
 338:.\Generated_Source\PSoC5/USBUART_drv.c **** *
 339:.\Generated_Source\PSoC5/USBUART_drv.c **** *
 340:.\Generated_Source\PSoC5/USBUART_drv.c **** * \globalvars
 341:.\Generated_Source\PSoC5/USBUART_drv.c **** *  USBUART_transferByteCount - Update the transfer byte count from the
 342:.\Generated_Source\PSoC5/USBUART_drv.c **** *     last transaction.
 343:.\Generated_Source\PSoC5/USBUART_drv.c **** *  USBUART_ep0Count - counts the data loaded to the SIE memory in
 344:.\Generated_Source\PSoC5/USBUART_drv.c **** *     current packet.
 345:.\Generated_Source\PSoC5/USBUART_drv.c **** *  USBUART_lastPacketSize - remembers the USBFS_ep0Count value for the
 346:.\Generated_Source\PSoC5/USBUART_drv.c **** *     next packet.
 347:.\Generated_Source\PSoC5/USBUART_drv.c **** *  USBUART_transferByteCount - sum of the previous bytes transferred
 348:.\Generated_Source\PSoC5/USBUART_drv.c **** *     on previous packets(sum of USBFS_lastPacketSize)
 349:.\Generated_Source\PSoC5/USBUART_drv.c **** *  USBUART_ep0Toggle - inverted
 350:.\Generated_Source\PSoC5/USBUART_drv.c **** *  USBUART_ep0Mode  - prepare for mode register content.
 351:.\Generated_Source\PSoC5/USBUART_drv.c **** *  USBUART_transferState - set to TRANS_STATE_CONTROL_READ
 352:.\Generated_Source\PSoC5/USBUART_drv.c **** *
 353:.\Generated_Source\PSoC5/USBUART_drv.c **** * \reentrant
 354:.\Generated_Source\PSoC5/USBUART_drv.c **** *  No.
 355:.\Generated_Source\PSoC5/USBUART_drv.c **** *
 356:.\Generated_Source\PSoC5/USBUART_drv.c **** *******************************************************************************/
 357:.\Generated_Source\PSoC5/USBUART_drv.c **** void USBUART_LoadEP0(void) 
 358:.\Generated_Source\PSoC5/USBUART_drv.c **** {
  27              		.loc 1 358 0
  28              		.cfi_startproc
  29              		@ args = 0, pretend = 0, frame = 0
  30              		@ frame_needed = 0, uses_anonymous_args = 0
  31              		@ link register save eliminated.
  32              	.LVL0:
 359:.\Generated_Source\PSoC5/USBUART_drv.c ****     uint8 ep0Count = 0u;
 360:.\Generated_Source\PSoC5/USBUART_drv.c **** 
 361:.\Generated_Source\PSoC5/USBUART_drv.c ****     /* Update the transfer byte count from the last transaction */
 362:.\Generated_Source\PSoC5/USBUART_drv.c ****     USBUART_transferByteCount += USBUART_lastPacketSize;
  33              		.loc 1 362 0
  34 0000 1C4B     		ldr	r3, .L8
  35 0002 1978     		ldrb	r1, [r3]	@ zero_extendqisi2
  36 0004 1C4A     		ldr	r2, .L8+4
  37 0006 1388     		ldrh	r3, [r2]
ARM GAS  C:\Users\student\AppData\Local\Temp\cck0tpUF.s 			page 8


  38 0008 0B44     		add	r3, r3, r1
  39 000a 9BB2     		uxth	r3, r3
  40 000c 1380     		strh	r3, [r2]	@ movhi
 359:.\Generated_Source\PSoC5/USBUART_drv.c ****     uint8 ep0Count = 0u;
  41              		.loc 1 359 0
  42 000e 0023     		movs	r3, #0
 363:.\Generated_Source\PSoC5/USBUART_drv.c **** 
 364:.\Generated_Source\PSoC5/USBUART_drv.c ****     /* Now load the next transaction */
 365:.\Generated_Source\PSoC5/USBUART_drv.c ****     while ((USBUART_currentTD.count > 0u) && (ep0Count < 8u))
  43              		.loc 1 365 0
  44 0010 0EE0     		b	.L2
  45              	.LVL1:
  46              	.L4:
 366:.\Generated_Source\PSoC5/USBUART_drv.c ****     {
 367:.\Generated_Source\PSoC5/USBUART_drv.c ****         USBUART_EP0_DR_BASE.epData[ep0Count] = (uint8) *USBUART_currentTD.pData;
  47              		.loc 1 367 0
  48 0012 1A4A     		ldr	r2, .L8+8
  49 0014 5168     		ldr	r1, [r2, #4]
  50 0016 0978     		ldrb	r1, [r1]	@ zero_extendqisi2
  51 0018 C9B2     		uxtb	r1, r1
  52 001a 1948     		ldr	r0, .L8+12
  53 001c C154     		strb	r1, [r0, r3]
 368:.\Generated_Source\PSoC5/USBUART_drv.c ****         USBUART_currentTD.pData = &USBUART_currentTD.pData[1u];
  54              		.loc 1 368 0
  55 001e 5168     		ldr	r1, [r2, #4]
  56 0020 0131     		adds	r1, r1, #1
  57 0022 5160     		str	r1, [r2, #4]
 369:.\Generated_Source\PSoC5/USBUART_drv.c ****         ep0Count++;
  58              		.loc 1 369 0
  59 0024 0133     		adds	r3, r3, #1
  60              	.LVL2:
  61 0026 DBB2     		uxtb	r3, r3
  62              	.LVL3:
 370:.\Generated_Source\PSoC5/USBUART_drv.c ****         USBUART_currentTD.count--;
  63              		.loc 1 370 0
  64 0028 1188     		ldrh	r1, [r2]
  65 002a 0139     		subs	r1, r1, #1
  66 002c 89B2     		uxth	r1, r1
  67 002e 1180     		strh	r1, [r2]	@ movhi
  68              	.LVL4:
  69              	.L2:
 365:.\Generated_Source\PSoC5/USBUART_drv.c ****     {
  70              		.loc 1 365 0
  71 0030 124A     		ldr	r2, .L8+8
  72 0032 1288     		ldrh	r2, [r2]
  73 0034 92B2     		uxth	r2, r2
  74 0036 0AB1     		cbz	r2, .L3
 365:.\Generated_Source\PSoC5/USBUART_drv.c ****     {
  75              		.loc 1 365 0 is_stmt 0 discriminator 1
  76 0038 072B     		cmp	r3, #7
  77 003a EAD9     		bls	.L4
  78              	.L3:
 371:.\Generated_Source\PSoC5/USBUART_drv.c ****     }
 372:.\Generated_Source\PSoC5/USBUART_drv.c **** 
 373:.\Generated_Source\PSoC5/USBUART_drv.c ****     /* Support zero-length packet */
 374:.\Generated_Source\PSoC5/USBUART_drv.c ****     if ((USBUART_lastPacketSize == 8u) || (ep0Count > 0u))
  79              		.loc 1 374 0 is_stmt 1
ARM GAS  C:\Users\student\AppData\Local\Temp\cck0tpUF.s 			page 9


  80 003c 0D4A     		ldr	r2, .L8
  81 003e 1278     		ldrb	r2, [r2]	@ zero_extendqisi2
  82 0040 D2B2     		uxtb	r2, r2
  83 0042 082A     		cmp	r2, #8
  84 0044 00D0     		beq	.L5
  85              		.loc 1 374 0 is_stmt 0 discriminator 1
  86 0046 5BB1     		cbz	r3, .L6
  87              	.L5:
 375:.\Generated_Source\PSoC5/USBUART_drv.c ****     {
 376:.\Generated_Source\PSoC5/USBUART_drv.c ****         /* Update the data toggle */
 377:.\Generated_Source\PSoC5/USBUART_drv.c ****         USBUART_ep0Toggle ^= USBUART_EP0_CNT_DATA_TOGGLE;
  88              		.loc 1 377 0 is_stmt 1
  89 0048 0E49     		ldr	r1, .L8+16
  90 004a 0A78     		ldrb	r2, [r1]	@ zero_extendqisi2
  91 004c 82F08002 		eor	r2, r2, #128
  92 0050 0A70     		strb	r2, [r1]
 378:.\Generated_Source\PSoC5/USBUART_drv.c ****         /* Set the Mode Register  */
 379:.\Generated_Source\PSoC5/USBUART_drv.c ****         USBUART_ep0Mode = USBUART_MODE_ACK_IN_STATUS_OUT;
  93              		.loc 1 379 0
  94 0052 0F21     		movs	r1, #15
  95 0054 0C4A     		ldr	r2, .L8+20
  96 0056 1170     		strb	r1, [r2]
 380:.\Generated_Source\PSoC5/USBUART_drv.c ****         /* Update the state (or stay the same) */
 381:.\Generated_Source\PSoC5/USBUART_drv.c ****         USBUART_transferState = USBUART_TRANS_STATE_CONTROL_READ;
  97              		.loc 1 381 0
  98 0058 0221     		movs	r1, #2
  99 005a 0C4A     		ldr	r2, .L8+24
 100 005c 1170     		strb	r1, [r2]
 101 005e 04E0     		b	.L7
 102              	.L6:
 382:.\Generated_Source\PSoC5/USBUART_drv.c ****     }
 383:.\Generated_Source\PSoC5/USBUART_drv.c ****     else
 384:.\Generated_Source\PSoC5/USBUART_drv.c ****     {
 385:.\Generated_Source\PSoC5/USBUART_drv.c ****         /* Expect Status Stage Out */
 386:.\Generated_Source\PSoC5/USBUART_drv.c ****         USBUART_ep0Mode = USBUART_MODE_STATUS_OUT_ONLY;
 103              		.loc 1 386 0
 104 0060 0222     		movs	r2, #2
 105 0062 0949     		ldr	r1, .L8+20
 106 0064 0A70     		strb	r2, [r1]
 387:.\Generated_Source\PSoC5/USBUART_drv.c ****         /* Update the state (or stay the same) */
 388:.\Generated_Source\PSoC5/USBUART_drv.c ****         USBUART_transferState = USBUART_TRANS_STATE_CONTROL_READ;
 107              		.loc 1 388 0
 108 0066 0949     		ldr	r1, .L8+24
 109 0068 0A70     		strb	r2, [r1]
 110              	.L7:
 389:.\Generated_Source\PSoC5/USBUART_drv.c ****     }
 390:.\Generated_Source\PSoC5/USBUART_drv.c **** 
 391:.\Generated_Source\PSoC5/USBUART_drv.c ****     /* Save the packet size for next time */
 392:.\Generated_Source\PSoC5/USBUART_drv.c ****     USBUART_ep0Count =       (uint8) ep0Count;
 111              		.loc 1 392 0
 112 006a 094A     		ldr	r2, .L8+28
 113 006c 1370     		strb	r3, [r2]
 393:.\Generated_Source\PSoC5/USBUART_drv.c ****     USBUART_lastPacketSize = (uint8) ep0Count;
 114              		.loc 1 393 0
 115 006e 014A     		ldr	r2, .L8
 116 0070 1370     		strb	r3, [r2]
 117 0072 7047     		bx	lr
ARM GAS  C:\Users\student\AppData\Local\Temp\cck0tpUF.s 			page 10


 118              	.L9:
 119              		.align	2
 120              	.L8:
 121 0074 00000000 		.word	USBUART_lastPacketSize
 122 0078 00000000 		.word	USBUART_transferByteCount
 123 007c 00000000 		.word	USBUART_currentTD
 124 0080 00600040 		.word	1073766400
 125 0084 00000000 		.word	USBUART_ep0Toggle
 126 0088 00000000 		.word	USBUART_ep0Mode
 127 008c 00000000 		.word	USBUART_transferState
 128 0090 00000000 		.word	USBUART_ep0Count
 129              		.cfi_endproc
 130              	.LFE4:
 131              		.size	USBUART_LoadEP0, .-USBUART_LoadEP0
 132              		.section	.text.USBUART_InitZeroLengthControlTransfer,"ax",%progbits
 133              		.align	2
 134              		.global	USBUART_InitZeroLengthControlTransfer
 135              		.thumb
 136              		.thumb_func
 137              		.type	USBUART_InitZeroLengthControlTransfer, %function
 138              	USBUART_InitZeroLengthControlTransfer:
 139              	.LFB6:
 394:.\Generated_Source\PSoC5/USBUART_drv.c **** }
 395:.\Generated_Source\PSoC5/USBUART_drv.c **** 
 396:.\Generated_Source\PSoC5/USBUART_drv.c **** 
 397:.\Generated_Source\PSoC5/USBUART_drv.c **** /*******************************************************************************
 398:.\Generated_Source\PSoC5/USBUART_drv.c **** * Function Name: USBUART_InitControlRead
 399:.\Generated_Source\PSoC5/USBUART_drv.c **** ****************************************************************************//**
 400:.\Generated_Source\PSoC5/USBUART_drv.c **** *
 401:.\Generated_Source\PSoC5/USBUART_drv.c **** *  Initialize a control read transaction. It is used to send data to the host.
 402:.\Generated_Source\PSoC5/USBUART_drv.c **** *  The following global variables should be initialized before this function
 403:.\Generated_Source\PSoC5/USBUART_drv.c **** *  called. To send zero length packet use InitZeroLengthControlTransfer
 404:.\Generated_Source\PSoC5/USBUART_drv.c **** *  function.
 405:.\Generated_Source\PSoC5/USBUART_drv.c **** *
 406:.\Generated_Source\PSoC5/USBUART_drv.c **** *
 407:.\Generated_Source\PSoC5/USBUART_drv.c **** * \return
 408:.\Generated_Source\PSoC5/USBUART_drv.c **** *  requestHandled state.
 409:.\Generated_Source\PSoC5/USBUART_drv.c **** *
 410:.\Generated_Source\PSoC5/USBUART_drv.c **** * \globalvars
 411:.\Generated_Source\PSoC5/USBUART_drv.c **** *  USBUART_currentTD.count - counts of data to be sent.
 412:.\Generated_Source\PSoC5/USBUART_drv.c **** *  USBUART_currentTD.pData - data pointer.
 413:.\Generated_Source\PSoC5/USBUART_drv.c **** *
 414:.\Generated_Source\PSoC5/USBUART_drv.c **** * \reentrant
 415:.\Generated_Source\PSoC5/USBUART_drv.c **** *  No.
 416:.\Generated_Source\PSoC5/USBUART_drv.c **** *
 417:.\Generated_Source\PSoC5/USBUART_drv.c **** *******************************************************************************/
 418:.\Generated_Source\PSoC5/USBUART_drv.c **** uint8 USBUART_InitControlRead(void) 
 419:.\Generated_Source\PSoC5/USBUART_drv.c **** {
 420:.\Generated_Source\PSoC5/USBUART_drv.c ****     uint16 xferCount;
 421:.\Generated_Source\PSoC5/USBUART_drv.c **** 
 422:.\Generated_Source\PSoC5/USBUART_drv.c ****     if (USBUART_currentTD.count == 0u)
 423:.\Generated_Source\PSoC5/USBUART_drv.c ****     {
 424:.\Generated_Source\PSoC5/USBUART_drv.c ****         (void) USBUART_InitZeroLengthControlTransfer();
 425:.\Generated_Source\PSoC5/USBUART_drv.c ****     }
 426:.\Generated_Source\PSoC5/USBUART_drv.c ****     else
 427:.\Generated_Source\PSoC5/USBUART_drv.c ****     {
 428:.\Generated_Source\PSoC5/USBUART_drv.c ****         /* Set up the state machine */
ARM GAS  C:\Users\student\AppData\Local\Temp\cck0tpUF.s 			page 11


 429:.\Generated_Source\PSoC5/USBUART_drv.c ****         USBUART_transferState = USBUART_TRANS_STATE_CONTROL_READ;
 430:.\Generated_Source\PSoC5/USBUART_drv.c ****         
 431:.\Generated_Source\PSoC5/USBUART_drv.c ****         /* Set the toggle, it gets updated in LoadEP */
 432:.\Generated_Source\PSoC5/USBUART_drv.c ****         USBUART_ep0Toggle = 0u;
 433:.\Generated_Source\PSoC5/USBUART_drv.c ****         
 434:.\Generated_Source\PSoC5/USBUART_drv.c ****         /* Initialize the Status Block */
 435:.\Generated_Source\PSoC5/USBUART_drv.c ****         USBUART_InitializeStatusBlock();
 436:.\Generated_Source\PSoC5/USBUART_drv.c ****         
 437:.\Generated_Source\PSoC5/USBUART_drv.c ****         xferCount = ((uint16)((uint16) USBUART_lengthHiReg << 8u) | ((uint16) USBUART_lengthLoReg))
 438:.\Generated_Source\PSoC5/USBUART_drv.c **** 
 439:.\Generated_Source\PSoC5/USBUART_drv.c ****         if (USBUART_currentTD.count > xferCount)
 440:.\Generated_Source\PSoC5/USBUART_drv.c ****         {
 441:.\Generated_Source\PSoC5/USBUART_drv.c ****             USBUART_currentTD.count = xferCount;
 442:.\Generated_Source\PSoC5/USBUART_drv.c ****         }
 443:.\Generated_Source\PSoC5/USBUART_drv.c ****         
 444:.\Generated_Source\PSoC5/USBUART_drv.c ****         USBUART_LoadEP0();
 445:.\Generated_Source\PSoC5/USBUART_drv.c ****     }
 446:.\Generated_Source\PSoC5/USBUART_drv.c **** 
 447:.\Generated_Source\PSoC5/USBUART_drv.c ****     return (USBUART_TRUE);
 448:.\Generated_Source\PSoC5/USBUART_drv.c **** }
 449:.\Generated_Source\PSoC5/USBUART_drv.c **** 
 450:.\Generated_Source\PSoC5/USBUART_drv.c **** 
 451:.\Generated_Source\PSoC5/USBUART_drv.c **** /*******************************************************************************
 452:.\Generated_Source\PSoC5/USBUART_drv.c **** * Function Name: USBUART_InitZeroLengthControlTransfer
 453:.\Generated_Source\PSoC5/USBUART_drv.c **** ****************************************************************************//**
 454:.\Generated_Source\PSoC5/USBUART_drv.c **** *
 455:.\Generated_Source\PSoC5/USBUART_drv.c **** *  Initialize a zero length data IN transfer.
 456:.\Generated_Source\PSoC5/USBUART_drv.c **** *
 457:.\Generated_Source\PSoC5/USBUART_drv.c **** * \return
 458:.\Generated_Source\PSoC5/USBUART_drv.c **** *  requestHandled state.
 459:.\Generated_Source\PSoC5/USBUART_drv.c **** *
 460:.\Generated_Source\PSoC5/USBUART_drv.c **** * \globalvars
 461:.\Generated_Source\PSoC5/USBUART_drv.c **** *  USBUART_ep0Toggle - set to EP0_CNT_DATA_TOGGLE
 462:.\Generated_Source\PSoC5/USBUART_drv.c **** *  USBUART_ep0Mode  - prepare for mode register content.
 463:.\Generated_Source\PSoC5/USBUART_drv.c **** *  USBUART_transferState - set to TRANS_STATE_CONTROL_READ
 464:.\Generated_Source\PSoC5/USBUART_drv.c **** *  USBUART_ep0Count - cleared, means the zero-length packet.
 465:.\Generated_Source\PSoC5/USBUART_drv.c **** *  USBUART_lastPacketSize - cleared.
 466:.\Generated_Source\PSoC5/USBUART_drv.c **** *
 467:.\Generated_Source\PSoC5/USBUART_drv.c **** * \reentrant
 468:.\Generated_Source\PSoC5/USBUART_drv.c **** *  No.
 469:.\Generated_Source\PSoC5/USBUART_drv.c **** *
 470:.\Generated_Source\PSoC5/USBUART_drv.c **** *******************************************************************************/
 471:.\Generated_Source\PSoC5/USBUART_drv.c **** uint8 USBUART_InitZeroLengthControlTransfer(void)
 472:.\Generated_Source\PSoC5/USBUART_drv.c ****                                                 
 473:.\Generated_Source\PSoC5/USBUART_drv.c **** {
 140              		.loc 1 473 0
 141              		.cfi_startproc
 142              		@ args = 0, pretend = 0, frame = 0
 143              		@ frame_needed = 0, uses_anonymous_args = 0
 144              		@ link register save eliminated.
 474:.\Generated_Source\PSoC5/USBUART_drv.c ****     /* Update the state */
 475:.\Generated_Source\PSoC5/USBUART_drv.c ****     USBUART_transferState = USBUART_TRANS_STATE_CONTROL_READ;
 145              		.loc 1 475 0
 146 0000 0222     		movs	r2, #2
 147 0002 074B     		ldr	r3, .L11
 148 0004 1A70     		strb	r2, [r3]
 476:.\Generated_Source\PSoC5/USBUART_drv.c ****     
ARM GAS  C:\Users\student\AppData\Local\Temp\cck0tpUF.s 			page 12


 477:.\Generated_Source\PSoC5/USBUART_drv.c ****     /* Set the data toggle */
 478:.\Generated_Source\PSoC5/USBUART_drv.c ****     USBUART_ep0Toggle = USBUART_EP0_CNT_DATA_TOGGLE;
 149              		.loc 1 478 0
 150 0006 8022     		movs	r2, #128
 151 0008 064B     		ldr	r3, .L11+4
 152 000a 1A70     		strb	r2, [r3]
 479:.\Generated_Source\PSoC5/USBUART_drv.c ****     
 480:.\Generated_Source\PSoC5/USBUART_drv.c ****     /* Set the Mode Register  */
 481:.\Generated_Source\PSoC5/USBUART_drv.c ****     USBUART_ep0Mode = USBUART_MODE_ACK_IN_STATUS_OUT;
 153              		.loc 1 481 0
 154 000c 0F22     		movs	r2, #15
 155 000e 064B     		ldr	r3, .L11+8
 156 0010 1A70     		strb	r2, [r3]
 482:.\Generated_Source\PSoC5/USBUART_drv.c ****     
 483:.\Generated_Source\PSoC5/USBUART_drv.c ****     /* Save the packet size for next time */
 484:.\Generated_Source\PSoC5/USBUART_drv.c ****     USBUART_lastPacketSize = 0u;
 157              		.loc 1 484 0
 158 0012 0023     		movs	r3, #0
 159 0014 054A     		ldr	r2, .L11+12
 160 0016 1370     		strb	r3, [r2]
 485:.\Generated_Source\PSoC5/USBUART_drv.c ****     
 486:.\Generated_Source\PSoC5/USBUART_drv.c ****     USBUART_ep0Count = 0u;
 161              		.loc 1 486 0
 162 0018 054A     		ldr	r2, .L11+16
 163 001a 1370     		strb	r3, [r2]
 487:.\Generated_Source\PSoC5/USBUART_drv.c **** 
 488:.\Generated_Source\PSoC5/USBUART_drv.c ****     return (USBUART_TRUE);
 489:.\Generated_Source\PSoC5/USBUART_drv.c **** }
 164              		.loc 1 489 0
 165 001c 0120     		movs	r0, #1
 166 001e 7047     		bx	lr
 167              	.L12:
 168              		.align	2
 169              	.L11:
 170 0020 00000000 		.word	USBUART_transferState
 171 0024 00000000 		.word	USBUART_ep0Toggle
 172 0028 00000000 		.word	USBUART_ep0Mode
 173 002c 00000000 		.word	USBUART_lastPacketSize
 174 0030 00000000 		.word	USBUART_ep0Count
 175              		.cfi_endproc
 176              	.LFE6:
 177              		.size	USBUART_InitZeroLengthControlTransfer, .-USBUART_InitZeroLengthControlTransfer
 178              		.section	.text.USBUART_ControlReadDataStage,"ax",%progbits
 179              		.align	2
 180              		.global	USBUART_ControlReadDataStage
 181              		.thumb
 182              		.thumb_func
 183              		.type	USBUART_ControlReadDataStage, %function
 184              	USBUART_ControlReadDataStage:
 185              	.LFB7:
 490:.\Generated_Source\PSoC5/USBUART_drv.c **** 
 491:.\Generated_Source\PSoC5/USBUART_drv.c **** 
 492:.\Generated_Source\PSoC5/USBUART_drv.c **** /*******************************************************************************
 493:.\Generated_Source\PSoC5/USBUART_drv.c **** * Function Name: USBUART_ControlReadDataStage
 494:.\Generated_Source\PSoC5/USBUART_drv.c **** ****************************************************************************//**
 495:.\Generated_Source\PSoC5/USBUART_drv.c **** *
 496:.\Generated_Source\PSoC5/USBUART_drv.c **** *  Handle the Data Stage of a control read transfer.
ARM GAS  C:\Users\student\AppData\Local\Temp\cck0tpUF.s 			page 13


 497:.\Generated_Source\PSoC5/USBUART_drv.c **** *
 498:.\Generated_Source\PSoC5/USBUART_drv.c **** *
 499:.\Generated_Source\PSoC5/USBUART_drv.c **** * \reentrant
 500:.\Generated_Source\PSoC5/USBUART_drv.c **** *  No.
 501:.\Generated_Source\PSoC5/USBUART_drv.c **** *
 502:.\Generated_Source\PSoC5/USBUART_drv.c **** *******************************************************************************/
 503:.\Generated_Source\PSoC5/USBUART_drv.c **** void USBUART_ControlReadDataStage(void) 
 504:.\Generated_Source\PSoC5/USBUART_drv.c **** 
 505:.\Generated_Source\PSoC5/USBUART_drv.c **** {
 186              		.loc 1 505 0
 187              		.cfi_startproc
 188              		@ args = 0, pretend = 0, frame = 0
 189              		@ frame_needed = 0, uses_anonymous_args = 0
 190 0000 08B5     		push	{r3, lr}
 191              		.cfi_def_cfa_offset 8
 192              		.cfi_offset 3, -8
 193              		.cfi_offset 14, -4
 506:.\Generated_Source\PSoC5/USBUART_drv.c ****     USBUART_LoadEP0();
 194              		.loc 1 506 0
 195 0002 FFF7FEFF 		bl	USBUART_LoadEP0
 196              	.LVL5:
 197 0006 08BD     		pop	{r3, pc}
 198              		.cfi_endproc
 199              	.LFE7:
 200              		.size	USBUART_ControlReadDataStage, .-USBUART_ControlReadDataStage
 201              		.section	.text.USBUART_ControlWriteDataStage,"ax",%progbits
 202              		.align	2
 203              		.global	USBUART_ControlWriteDataStage
 204              		.thumb
 205              		.thumb_func
 206              		.type	USBUART_ControlWriteDataStage, %function
 207              	USBUART_ControlWriteDataStage:
 208              	.LFB10:
 507:.\Generated_Source\PSoC5/USBUART_drv.c **** }
 508:.\Generated_Source\PSoC5/USBUART_drv.c **** 
 509:.\Generated_Source\PSoC5/USBUART_drv.c **** 
 510:.\Generated_Source\PSoC5/USBUART_drv.c **** /*******************************************************************************
 511:.\Generated_Source\PSoC5/USBUART_drv.c **** * Function Name: USBUART_ControlReadStatusStage
 512:.\Generated_Source\PSoC5/USBUART_drv.c **** ****************************************************************************//**
 513:.\Generated_Source\PSoC5/USBUART_drv.c **** *
 514:.\Generated_Source\PSoC5/USBUART_drv.c **** *  Handle the Status Stage of a control read transfer.
 515:.\Generated_Source\PSoC5/USBUART_drv.c **** *
 516:.\Generated_Source\PSoC5/USBUART_drv.c **** *
 517:.\Generated_Source\PSoC5/USBUART_drv.c **** * \globalvars
 518:.\Generated_Source\PSoC5/USBUART_drv.c **** *  USBUART_USBFS_transferByteCount - updated with last packet size.
 519:.\Generated_Source\PSoC5/USBUART_drv.c **** *  USBUART_transferState - set to TRANS_STATE_IDLE.
 520:.\Generated_Source\PSoC5/USBUART_drv.c **** *  USBUART_ep0Mode  - set to MODE_STALL_IN_OUT.
 521:.\Generated_Source\PSoC5/USBUART_drv.c **** *
 522:.\Generated_Source\PSoC5/USBUART_drv.c **** * \reentrant
 523:.\Generated_Source\PSoC5/USBUART_drv.c **** *  No.
 524:.\Generated_Source\PSoC5/USBUART_drv.c **** *
 525:.\Generated_Source\PSoC5/USBUART_drv.c **** *******************************************************************************/
 526:.\Generated_Source\PSoC5/USBUART_drv.c **** void USBUART_ControlReadStatusStage(void) 
 527:.\Generated_Source\PSoC5/USBUART_drv.c **** {
 528:.\Generated_Source\PSoC5/USBUART_drv.c ****     /* Update the transfer byte count */
 529:.\Generated_Source\PSoC5/USBUART_drv.c ****     USBUART_transferByteCount += USBUART_lastPacketSize;
 530:.\Generated_Source\PSoC5/USBUART_drv.c ****     
ARM GAS  C:\Users\student\AppData\Local\Temp\cck0tpUF.s 			page 14


 531:.\Generated_Source\PSoC5/USBUART_drv.c ****     /* Go Idle */
 532:.\Generated_Source\PSoC5/USBUART_drv.c ****     USBUART_transferState = USBUART_TRANS_STATE_IDLE;
 533:.\Generated_Source\PSoC5/USBUART_drv.c ****     
 534:.\Generated_Source\PSoC5/USBUART_drv.c ****     /* Update the completion block */
 535:.\Generated_Source\PSoC5/USBUART_drv.c ****     USBUART_UpdateStatusBlock(USBUART_XFER_STATUS_ACK);
 536:.\Generated_Source\PSoC5/USBUART_drv.c ****     
 537:.\Generated_Source\PSoC5/USBUART_drv.c ****     /* We expect no more data, so stall INs and OUTs */
 538:.\Generated_Source\PSoC5/USBUART_drv.c ****     USBUART_ep0Mode = USBUART_MODE_STALL_IN_OUT;
 539:.\Generated_Source\PSoC5/USBUART_drv.c **** }
 540:.\Generated_Source\PSoC5/USBUART_drv.c **** 
 541:.\Generated_Source\PSoC5/USBUART_drv.c **** 
 542:.\Generated_Source\PSoC5/USBUART_drv.c **** /*******************************************************************************
 543:.\Generated_Source\PSoC5/USBUART_drv.c **** * Function Name: USBUART_InitControlWrite
 544:.\Generated_Source\PSoC5/USBUART_drv.c **** ****************************************************************************//**
 545:.\Generated_Source\PSoC5/USBUART_drv.c **** *
 546:.\Generated_Source\PSoC5/USBUART_drv.c **** *  Initialize a control write transaction
 547:.\Generated_Source\PSoC5/USBUART_drv.c **** *
 548:.\Generated_Source\PSoC5/USBUART_drv.c **** * \return
 549:.\Generated_Source\PSoC5/USBUART_drv.c **** *  requestHandled state.
 550:.\Generated_Source\PSoC5/USBUART_drv.c **** *
 551:.\Generated_Source\PSoC5/USBUART_drv.c **** * \globalvars
 552:.\Generated_Source\PSoC5/USBUART_drv.c **** *  USBUART_USBFS_transferState - set to TRANS_STATE_CONTROL_WRITE
 553:.\Generated_Source\PSoC5/USBUART_drv.c **** *  USBUART_ep0Toggle - set to EP0_CNT_DATA_TOGGLE
 554:.\Generated_Source\PSoC5/USBUART_drv.c **** *  USBUART_ep0Mode  - set to MODE_ACK_OUT_STATUS_IN
 555:.\Generated_Source\PSoC5/USBUART_drv.c **** *
 556:.\Generated_Source\PSoC5/USBUART_drv.c **** * \reentrant
 557:.\Generated_Source\PSoC5/USBUART_drv.c **** *  No.
 558:.\Generated_Source\PSoC5/USBUART_drv.c **** *
 559:.\Generated_Source\PSoC5/USBUART_drv.c **** *******************************************************************************/
 560:.\Generated_Source\PSoC5/USBUART_drv.c **** uint8 USBUART_InitControlWrite(void) 
 561:.\Generated_Source\PSoC5/USBUART_drv.c **** {
 562:.\Generated_Source\PSoC5/USBUART_drv.c ****     uint16 xferCount;
 563:.\Generated_Source\PSoC5/USBUART_drv.c **** 
 564:.\Generated_Source\PSoC5/USBUART_drv.c ****     /* Set up the state machine */
 565:.\Generated_Source\PSoC5/USBUART_drv.c ****     USBUART_transferState = USBUART_TRANS_STATE_CONTROL_WRITE;
 566:.\Generated_Source\PSoC5/USBUART_drv.c ****     
 567:.\Generated_Source\PSoC5/USBUART_drv.c ****     /* This might not be necessary */
 568:.\Generated_Source\PSoC5/USBUART_drv.c ****     USBUART_ep0Toggle = USBUART_EP0_CNT_DATA_TOGGLE;
 569:.\Generated_Source\PSoC5/USBUART_drv.c ****     
 570:.\Generated_Source\PSoC5/USBUART_drv.c ****     /* Initialize the Status Block */
 571:.\Generated_Source\PSoC5/USBUART_drv.c ****     USBUART_InitializeStatusBlock();
 572:.\Generated_Source\PSoC5/USBUART_drv.c **** 
 573:.\Generated_Source\PSoC5/USBUART_drv.c ****     xferCount = ((uint16)((uint16) USBUART_lengthHiReg << 8u) | ((uint16) USBUART_lengthLoReg));
 574:.\Generated_Source\PSoC5/USBUART_drv.c **** 
 575:.\Generated_Source\PSoC5/USBUART_drv.c ****     if (USBUART_currentTD.count > xferCount)
 576:.\Generated_Source\PSoC5/USBUART_drv.c ****     {
 577:.\Generated_Source\PSoC5/USBUART_drv.c ****         USBUART_currentTD.count = xferCount;
 578:.\Generated_Source\PSoC5/USBUART_drv.c ****     }
 579:.\Generated_Source\PSoC5/USBUART_drv.c **** 
 580:.\Generated_Source\PSoC5/USBUART_drv.c ****     /* Expect Data or Status Stage */
 581:.\Generated_Source\PSoC5/USBUART_drv.c ****     USBUART_ep0Mode = USBUART_MODE_ACK_OUT_STATUS_IN;
 582:.\Generated_Source\PSoC5/USBUART_drv.c **** 
 583:.\Generated_Source\PSoC5/USBUART_drv.c ****     return(USBUART_TRUE);
 584:.\Generated_Source\PSoC5/USBUART_drv.c **** }
 585:.\Generated_Source\PSoC5/USBUART_drv.c **** 
 586:.\Generated_Source\PSoC5/USBUART_drv.c **** 
 587:.\Generated_Source\PSoC5/USBUART_drv.c **** /*******************************************************************************
ARM GAS  C:\Users\student\AppData\Local\Temp\cck0tpUF.s 			page 15


 588:.\Generated_Source\PSoC5/USBUART_drv.c **** * Function Name: USBUART_ControlWriteDataStage
 589:.\Generated_Source\PSoC5/USBUART_drv.c **** ****************************************************************************//**
 590:.\Generated_Source\PSoC5/USBUART_drv.c **** *
 591:.\Generated_Source\PSoC5/USBUART_drv.c **** *  Handle the Data Stage of a control write transfer
 592:.\Generated_Source\PSoC5/USBUART_drv.c **** *       1. Get the data (We assume the destination was validated previously)
 593:.\Generated_Source\PSoC5/USBUART_drv.c **** *       2. Update the count and data toggle
 594:.\Generated_Source\PSoC5/USBUART_drv.c **** *       3. Update the mode register for the next transaction
 595:.\Generated_Source\PSoC5/USBUART_drv.c **** *
 596:.\Generated_Source\PSoC5/USBUART_drv.c **** *
 597:.\Generated_Source\PSoC5/USBUART_drv.c **** * \globalvars
 598:.\Generated_Source\PSoC5/USBUART_drv.c **** *  USBUART_transferByteCount - Update the transfer byte count from the
 599:.\Generated_Source\PSoC5/USBUART_drv.c **** *    last transaction.
 600:.\Generated_Source\PSoC5/USBUART_drv.c **** *  USBUART_ep0Count - counts the data loaded from the SIE memory
 601:.\Generated_Source\PSoC5/USBUART_drv.c **** *    in current packet.
 602:.\Generated_Source\PSoC5/USBUART_drv.c **** *  USBUART_transferByteCount - sum of the previous bytes transferred
 603:.\Generated_Source\PSoC5/USBUART_drv.c **** *    on previous packets(sum of USBFS_lastPacketSize)
 604:.\Generated_Source\PSoC5/USBUART_drv.c **** *  USBUART_ep0Toggle - inverted
 605:.\Generated_Source\PSoC5/USBUART_drv.c **** *  USBUART_ep0Mode  - set to MODE_ACK_OUT_STATUS_IN.
 606:.\Generated_Source\PSoC5/USBUART_drv.c **** *
 607:.\Generated_Source\PSoC5/USBUART_drv.c **** * \reentrant
 608:.\Generated_Source\PSoC5/USBUART_drv.c **** *  No.
 609:.\Generated_Source\PSoC5/USBUART_drv.c **** *
 610:.\Generated_Source\PSoC5/USBUART_drv.c **** *******************************************************************************/
 611:.\Generated_Source\PSoC5/USBUART_drv.c **** void USBUART_ControlWriteDataStage(void) 
 612:.\Generated_Source\PSoC5/USBUART_drv.c **** {
 209              		.loc 1 612 0
 210              		.cfi_startproc
 211              		@ args = 0, pretend = 0, frame = 0
 212              		@ frame_needed = 0, uses_anonymous_args = 0
 213              		@ link register save eliminated.
 214 0000 10B4     		push	{r4}
 215              		.cfi_def_cfa_offset 4
 216              		.cfi_offset 4, -4
 217              	.LVL6:
 613:.\Generated_Source\PSoC5/USBUART_drv.c ****     uint8 ep0Count;
 614:.\Generated_Source\PSoC5/USBUART_drv.c ****     uint8 regIndex = 0u;
 615:.\Generated_Source\PSoC5/USBUART_drv.c **** 
 616:.\Generated_Source\PSoC5/USBUART_drv.c ****     ep0Count = (USBUART_EP0_CNT_REG & USBUART_EPX_CNT0_MASK) - USBUART_EPX_CNTX_CRC_COUNT;
 218              		.loc 1 616 0
 219 0002 184B     		ldr	r3, .L20
 220 0004 1978     		ldrb	r1, [r3]	@ zero_extendqisi2
 221 0006 01F00F01 		and	r1, r1, #15
 222 000a 0239     		subs	r1, r1, #2
 223 000c C9B2     		uxtb	r1, r1
 224              	.LVL7:
 617:.\Generated_Source\PSoC5/USBUART_drv.c **** 
 618:.\Generated_Source\PSoC5/USBUART_drv.c ****     USBUART_transferByteCount += (uint8)ep0Count;
 225              		.loc 1 618 0
 226 000e 164A     		ldr	r2, .L20+4
 227 0010 1388     		ldrh	r3, [r2]
 228 0012 0B44     		add	r3, r3, r1
 229 0014 9BB2     		uxth	r3, r3
 230 0016 1380     		strh	r3, [r2]	@ movhi
 614:.\Generated_Source\PSoC5/USBUART_drv.c **** 
 231              		.loc 1 614 0
 232 0018 0020     		movs	r0, #0
 619:.\Generated_Source\PSoC5/USBUART_drv.c **** 
ARM GAS  C:\Users\student\AppData\Local\Temp\cck0tpUF.s 			page 16


 620:.\Generated_Source\PSoC5/USBUART_drv.c ****     while ((USBUART_currentTD.count > 0u) && (ep0Count > 0u))
 233              		.loc 1 620 0
 234 001a 10E0     		b	.L16
 235              	.LVL8:
 236              	.L18:
 621:.\Generated_Source\PSoC5/USBUART_drv.c ****     {
 622:.\Generated_Source\PSoC5/USBUART_drv.c ****         *USBUART_currentTD.pData = (uint8) USBUART_EP0_DR_BASE.epData[regIndex];
 237              		.loc 1 622 0
 238 001c 134B     		ldr	r3, .L20+8
 239 001e 5C68     		ldr	r4, [r3, #4]
 240 0020 134A     		ldr	r2, .L20+12
 241 0022 125C     		ldrb	r2, [r2, r0]	@ zero_extendqisi2
 242 0024 D2B2     		uxtb	r2, r2
 243 0026 2270     		strb	r2, [r4]
 623:.\Generated_Source\PSoC5/USBUART_drv.c ****         USBUART_currentTD.pData = &USBUART_currentTD.pData[1u];
 244              		.loc 1 623 0
 245 0028 5A68     		ldr	r2, [r3, #4]
 246 002a 0132     		adds	r2, r2, #1
 247 002c 5A60     		str	r2, [r3, #4]
 624:.\Generated_Source\PSoC5/USBUART_drv.c ****         regIndex++;
 248              		.loc 1 624 0
 249 002e 0130     		adds	r0, r0, #1
 250              	.LVL9:
 251 0030 C0B2     		uxtb	r0, r0
 252              	.LVL10:
 625:.\Generated_Source\PSoC5/USBUART_drv.c ****         ep0Count--;
 253              		.loc 1 625 0
 254 0032 0139     		subs	r1, r1, #1
 255              	.LVL11:
 256 0034 C9B2     		uxtb	r1, r1
 257              	.LVL12:
 626:.\Generated_Source\PSoC5/USBUART_drv.c ****         USBUART_currentTD.count--;
 258              		.loc 1 626 0
 259 0036 1A88     		ldrh	r2, [r3]
 260 0038 013A     		subs	r2, r2, #1
 261 003a 92B2     		uxth	r2, r2
 262 003c 1A80     		strh	r2, [r3]	@ movhi
 263              	.LVL13:
 264              	.L16:
 620:.\Generated_Source\PSoC5/USBUART_drv.c ****     {
 265              		.loc 1 620 0
 266 003e 0B4B     		ldr	r3, .L20+8
 267 0040 1B88     		ldrh	r3, [r3]
 268 0042 9BB2     		uxth	r3, r3
 269 0044 0BB1     		cbz	r3, .L17
 620:.\Generated_Source\PSoC5/USBUART_drv.c ****     {
 270              		.loc 1 620 0 is_stmt 0 discriminator 1
 271 0046 0029     		cmp	r1, #0
 272 0048 E8D1     		bne	.L18
 273              	.L17:
 627:.\Generated_Source\PSoC5/USBUART_drv.c ****     }
 628:.\Generated_Source\PSoC5/USBUART_drv.c ****     
 629:.\Generated_Source\PSoC5/USBUART_drv.c ****     USBUART_ep0Count = (uint8)ep0Count;
 274              		.loc 1 629 0 is_stmt 1
 275 004a 0A4B     		ldr	r3, .L20+16
 276 004c 1970     		strb	r1, [r3]
 630:.\Generated_Source\PSoC5/USBUART_drv.c ****     
ARM GAS  C:\Users\student\AppData\Local\Temp\cck0tpUF.s 			page 17


 631:.\Generated_Source\PSoC5/USBUART_drv.c ****     /* Update the data toggle */
 632:.\Generated_Source\PSoC5/USBUART_drv.c ****     USBUART_ep0Toggle ^= USBUART_EP0_CNT_DATA_TOGGLE;
 277              		.loc 1 632 0
 278 004e 0A4A     		ldr	r2, .L20+20
 279 0050 1378     		ldrb	r3, [r2]	@ zero_extendqisi2
 280 0052 83F08003 		eor	r3, r3, #128
 281 0056 1370     		strb	r3, [r2]
 633:.\Generated_Source\PSoC5/USBUART_drv.c ****     
 634:.\Generated_Source\PSoC5/USBUART_drv.c ****     /* Expect Data or Status Stage */
 635:.\Generated_Source\PSoC5/USBUART_drv.c ****     USBUART_ep0Mode = USBUART_MODE_ACK_OUT_STATUS_IN;
 282              		.loc 1 635 0
 283 0058 0B22     		movs	r2, #11
 284 005a 084B     		ldr	r3, .L20+24
 285 005c 1A70     		strb	r2, [r3]
 636:.\Generated_Source\PSoC5/USBUART_drv.c **** }
 286              		.loc 1 636 0
 287 005e 5DF8044B 		ldr	r4, [sp], #4
 288              		.cfi_restore 4
 289              		.cfi_def_cfa_offset 0
 290 0062 7047     		bx	lr
 291              	.L21:
 292              		.align	2
 293              	.L20:
 294 0064 29600040 		.word	1073766441
 295 0068 00000000 		.word	USBUART_transferByteCount
 296 006c 00000000 		.word	USBUART_currentTD
 297 0070 00600040 		.word	1073766400
 298 0074 00000000 		.word	USBUART_ep0Count
 299 0078 00000000 		.word	USBUART_ep0Toggle
 300 007c 00000000 		.word	USBUART_ep0Mode
 301              		.cfi_endproc
 302              	.LFE10:
 303              		.size	USBUART_ControlWriteDataStage, .-USBUART_ControlWriteDataStage
 304              		.section	.text.USBUART_InitNoDataControlTransfer,"ax",%progbits
 305              		.align	2
 306              		.global	USBUART_InitNoDataControlTransfer
 307              		.thumb
 308              		.thumb_func
 309              		.type	USBUART_InitNoDataControlTransfer, %function
 310              	USBUART_InitNoDataControlTransfer:
 311              	.LFB12:
 637:.\Generated_Source\PSoC5/USBUART_drv.c **** 
 638:.\Generated_Source\PSoC5/USBUART_drv.c **** 
 639:.\Generated_Source\PSoC5/USBUART_drv.c **** /*******************************************************************************
 640:.\Generated_Source\PSoC5/USBUART_drv.c **** * Function Name: USBUART_ControlWriteStatusStage
 641:.\Generated_Source\PSoC5/USBUART_drv.c **** ****************************************************************************//**
 642:.\Generated_Source\PSoC5/USBUART_drv.c **** *
 643:.\Generated_Source\PSoC5/USBUART_drv.c **** *  Handle the Status Stage of a control write transfer
 644:.\Generated_Source\PSoC5/USBUART_drv.c **** *
 645:.\Generated_Source\PSoC5/USBUART_drv.c **** * \globalvars
 646:.\Generated_Source\PSoC5/USBUART_drv.c **** *  USBUART_transferState - set to TRANS_STATE_IDLE.
 647:.\Generated_Source\PSoC5/USBUART_drv.c **** *  USBUART_USBFS_ep0Mode  - set to MODE_STALL_IN_OUT.
 648:.\Generated_Source\PSoC5/USBUART_drv.c **** *
 649:.\Generated_Source\PSoC5/USBUART_drv.c **** * \reentrant
 650:.\Generated_Source\PSoC5/USBUART_drv.c **** *  No.
 651:.\Generated_Source\PSoC5/USBUART_drv.c **** *
 652:.\Generated_Source\PSoC5/USBUART_drv.c **** *******************************************************************************/
ARM GAS  C:\Users\student\AppData\Local\Temp\cck0tpUF.s 			page 18


 653:.\Generated_Source\PSoC5/USBUART_drv.c **** void USBUART_ControlWriteStatusStage(void) 
 654:.\Generated_Source\PSoC5/USBUART_drv.c **** {
 655:.\Generated_Source\PSoC5/USBUART_drv.c ****     /* Go Idle */
 656:.\Generated_Source\PSoC5/USBUART_drv.c ****     USBUART_transferState = USBUART_TRANS_STATE_IDLE;
 657:.\Generated_Source\PSoC5/USBUART_drv.c ****     
 658:.\Generated_Source\PSoC5/USBUART_drv.c ****     /* Update the completion block */    
 659:.\Generated_Source\PSoC5/USBUART_drv.c ****     USBUART_UpdateStatusBlock(USBUART_XFER_STATUS_ACK);
 660:.\Generated_Source\PSoC5/USBUART_drv.c ****     
 661:.\Generated_Source\PSoC5/USBUART_drv.c ****     /* We expect no more data, so stall INs and OUTs */
 662:.\Generated_Source\PSoC5/USBUART_drv.c ****     USBUART_ep0Mode = USBUART_MODE_STALL_IN_OUT;
 663:.\Generated_Source\PSoC5/USBUART_drv.c **** }
 664:.\Generated_Source\PSoC5/USBUART_drv.c **** 
 665:.\Generated_Source\PSoC5/USBUART_drv.c **** 
 666:.\Generated_Source\PSoC5/USBUART_drv.c **** /*******************************************************************************
 667:.\Generated_Source\PSoC5/USBUART_drv.c **** * Function Name: USBUART_InitNoDataControlTransfer
 668:.\Generated_Source\PSoC5/USBUART_drv.c **** ****************************************************************************//**
 669:.\Generated_Source\PSoC5/USBUART_drv.c **** *
 670:.\Generated_Source\PSoC5/USBUART_drv.c **** *  Initialize a no data control transfer
 671:.\Generated_Source\PSoC5/USBUART_drv.c **** *
 672:.\Generated_Source\PSoC5/USBUART_drv.c **** * \return
 673:.\Generated_Source\PSoC5/USBUART_drv.c **** *  requestHandled state.
 674:.\Generated_Source\PSoC5/USBUART_drv.c **** *
 675:.\Generated_Source\PSoC5/USBUART_drv.c **** * \globalvars
 676:.\Generated_Source\PSoC5/USBUART_drv.c **** *  USBUART_transferState - set to TRANS_STATE_NO_DATA_CONTROL.
 677:.\Generated_Source\PSoC5/USBUART_drv.c **** *  USBUART_ep0Mode  - set to MODE_STATUS_IN_ONLY.
 678:.\Generated_Source\PSoC5/USBUART_drv.c **** *  USBUART_ep0Count - cleared.
 679:.\Generated_Source\PSoC5/USBUART_drv.c **** *  USBUART_ep0Toggle - set to EP0_CNT_DATA_TOGGLE
 680:.\Generated_Source\PSoC5/USBUART_drv.c **** *
 681:.\Generated_Source\PSoC5/USBUART_drv.c **** * \reentrant
 682:.\Generated_Source\PSoC5/USBUART_drv.c **** *  No.
 683:.\Generated_Source\PSoC5/USBUART_drv.c **** *
 684:.\Generated_Source\PSoC5/USBUART_drv.c **** *******************************************************************************/
 685:.\Generated_Source\PSoC5/USBUART_drv.c **** uint8 USBUART_InitNoDataControlTransfer(void) 
 686:.\Generated_Source\PSoC5/USBUART_drv.c **** {
 312              		.loc 1 686 0
 313              		.cfi_startproc
 314              		@ args = 0, pretend = 0, frame = 0
 315              		@ frame_needed = 0, uses_anonymous_args = 0
 316              		@ link register save eliminated.
 687:.\Generated_Source\PSoC5/USBUART_drv.c ****     USBUART_transferState = USBUART_TRANS_STATE_NO_DATA_CONTROL;
 317              		.loc 1 687 0
 318 0000 0623     		movs	r3, #6
 319 0002 064A     		ldr	r2, .L23
 320 0004 1370     		strb	r3, [r2]
 688:.\Generated_Source\PSoC5/USBUART_drv.c ****     USBUART_ep0Mode       = USBUART_MODE_STATUS_IN_ONLY;
 321              		.loc 1 688 0
 322 0006 064A     		ldr	r2, .L23+4
 323 0008 1370     		strb	r3, [r2]
 689:.\Generated_Source\PSoC5/USBUART_drv.c ****     USBUART_ep0Toggle     = USBUART_EP0_CNT_DATA_TOGGLE;
 324              		.loc 1 689 0
 325 000a 8022     		movs	r2, #128
 326 000c 054B     		ldr	r3, .L23+8
 327 000e 1A70     		strb	r2, [r3]
 690:.\Generated_Source\PSoC5/USBUART_drv.c ****     USBUART_ep0Count      = 0u;
 328              		.loc 1 690 0
 329 0010 0022     		movs	r2, #0
 330 0012 054B     		ldr	r3, .L23+12
ARM GAS  C:\Users\student\AppData\Local\Temp\cck0tpUF.s 			page 19


 331 0014 1A70     		strb	r2, [r3]
 691:.\Generated_Source\PSoC5/USBUART_drv.c **** 
 692:.\Generated_Source\PSoC5/USBUART_drv.c ****     return (USBUART_TRUE);
 693:.\Generated_Source\PSoC5/USBUART_drv.c **** }
 332              		.loc 1 693 0
 333 0016 0120     		movs	r0, #1
 334 0018 7047     		bx	lr
 335              	.L24:
 336 001a 00BF     		.align	2
 337              	.L23:
 338 001c 00000000 		.word	USBUART_transferState
 339 0020 00000000 		.word	USBUART_ep0Mode
 340 0024 00000000 		.word	USBUART_ep0Toggle
 341 0028 00000000 		.word	USBUART_ep0Count
 342              		.cfi_endproc
 343              	.LFE12:
 344              		.size	USBUART_InitNoDataControlTransfer, .-USBUART_InitNoDataControlTransfer
 345              		.section	.text.USBUART_UpdateStatusBlock,"ax",%progbits
 346              		.align	2
 347              		.global	USBUART_UpdateStatusBlock
 348              		.thumb
 349              		.thumb_func
 350              		.type	USBUART_UpdateStatusBlock, %function
 351              	USBUART_UpdateStatusBlock:
 352              	.LFB14:
 694:.\Generated_Source\PSoC5/USBUART_drv.c **** 
 695:.\Generated_Source\PSoC5/USBUART_drv.c **** 
 696:.\Generated_Source\PSoC5/USBUART_drv.c **** /*******************************************************************************
 697:.\Generated_Source\PSoC5/USBUART_drv.c **** * Function Name: USBUART_NoDataControlStatusStage
 698:.\Generated_Source\PSoC5/USBUART_drv.c **** ****************************************************************************//**
 699:.\Generated_Source\PSoC5/USBUART_drv.c **** *  Handle the Status Stage of a no data control transfer.
 700:.\Generated_Source\PSoC5/USBUART_drv.c **** *
 701:.\Generated_Source\PSoC5/USBUART_drv.c **** *  SET_ADDRESS is special, since we need to receive the status stage with
 702:.\Generated_Source\PSoC5/USBUART_drv.c **** *  the old address.
 703:.\Generated_Source\PSoC5/USBUART_drv.c **** *
 704:.\Generated_Source\PSoC5/USBUART_drv.c **** * \globalvars
 705:.\Generated_Source\PSoC5/USBUART_drv.c **** *  USBUART_transferState - set to TRANS_STATE_IDLE.
 706:.\Generated_Source\PSoC5/USBUART_drv.c **** *  USBUART_ep0Mode  - set to MODE_STALL_IN_OUT.
 707:.\Generated_Source\PSoC5/USBUART_drv.c **** *  USBUART_ep0Toggle - set to EP0_CNT_DATA_TOGGLE
 708:.\Generated_Source\PSoC5/USBUART_drv.c **** *  USBUART_deviceAddress - used to set new address and cleared
 709:.\Generated_Source\PSoC5/USBUART_drv.c **** *
 710:.\Generated_Source\PSoC5/USBUART_drv.c **** * \reentrant
 711:.\Generated_Source\PSoC5/USBUART_drv.c **** *  No.
 712:.\Generated_Source\PSoC5/USBUART_drv.c **** *
 713:.\Generated_Source\PSoC5/USBUART_drv.c **** *******************************************************************************/
 714:.\Generated_Source\PSoC5/USBUART_drv.c **** void USBUART_NoDataControlStatusStage(void) 
 715:.\Generated_Source\PSoC5/USBUART_drv.c **** {
 716:.\Generated_Source\PSoC5/USBUART_drv.c ****     if (0u != USBUART_deviceAddress)
 717:.\Generated_Source\PSoC5/USBUART_drv.c ****     {
 718:.\Generated_Source\PSoC5/USBUART_drv.c ****         /* Update device address if we got new address. */
 719:.\Generated_Source\PSoC5/USBUART_drv.c ****         USBUART_CR0_REG = (uint8) USBUART_deviceAddress | USBUART_CR0_ENABLE;
 720:.\Generated_Source\PSoC5/USBUART_drv.c ****         USBUART_deviceAddress = 0u;
 721:.\Generated_Source\PSoC5/USBUART_drv.c ****     }
 722:.\Generated_Source\PSoC5/USBUART_drv.c **** 
 723:.\Generated_Source\PSoC5/USBUART_drv.c ****     USBUART_transferState = USBUART_TRANS_STATE_IDLE;
 724:.\Generated_Source\PSoC5/USBUART_drv.c ****     
 725:.\Generated_Source\PSoC5/USBUART_drv.c ****     /* Update the completion block. */
ARM GAS  C:\Users\student\AppData\Local\Temp\cck0tpUF.s 			page 20


 726:.\Generated_Source\PSoC5/USBUART_drv.c ****     USBUART_UpdateStatusBlock(USBUART_XFER_STATUS_ACK);
 727:.\Generated_Source\PSoC5/USBUART_drv.c ****     
 728:.\Generated_Source\PSoC5/USBUART_drv.c ****     /* Stall IN and OUT, no more data is expected. */
 729:.\Generated_Source\PSoC5/USBUART_drv.c ****     USBUART_ep0Mode = USBUART_MODE_STALL_IN_OUT;
 730:.\Generated_Source\PSoC5/USBUART_drv.c **** }
 731:.\Generated_Source\PSoC5/USBUART_drv.c **** 
 732:.\Generated_Source\PSoC5/USBUART_drv.c **** 
 733:.\Generated_Source\PSoC5/USBUART_drv.c **** /*******************************************************************************
 734:.\Generated_Source\PSoC5/USBUART_drv.c **** * Function Name: USBUART_UpdateStatusBlock
 735:.\Generated_Source\PSoC5/USBUART_drv.c **** ****************************************************************************//**
 736:.\Generated_Source\PSoC5/USBUART_drv.c **** *
 737:.\Generated_Source\PSoC5/USBUART_drv.c **** *  Update the Completion Status Block for a Request.  The block is updated
 738:.\Generated_Source\PSoC5/USBUART_drv.c **** *  with the completion code the USBUART_transferByteCount.  The
 739:.\Generated_Source\PSoC5/USBUART_drv.c **** *  StatusBlock Pointer is set to NULL.
 740:.\Generated_Source\PSoC5/USBUART_drv.c **** *
 741:.\Generated_Source\PSoC5/USBUART_drv.c **** *  completionCode - status.
 742:.\Generated_Source\PSoC5/USBUART_drv.c **** *
 743:.\Generated_Source\PSoC5/USBUART_drv.c **** *
 744:.\Generated_Source\PSoC5/USBUART_drv.c **** * \globalvars
 745:.\Generated_Source\PSoC5/USBUART_drv.c **** *  USBUART_currentTD.pStatusBlock->status - updated by the
 746:.\Generated_Source\PSoC5/USBUART_drv.c **** *    completionCode parameter.
 747:.\Generated_Source\PSoC5/USBUART_drv.c **** *  USBUART_currentTD.pStatusBlock->length - updated.
 748:.\Generated_Source\PSoC5/USBUART_drv.c **** *  USBUART_currentTD.pStatusBlock - cleared.
 749:.\Generated_Source\PSoC5/USBUART_drv.c **** *
 750:.\Generated_Source\PSoC5/USBUART_drv.c **** * \reentrant
 751:.\Generated_Source\PSoC5/USBUART_drv.c **** *  No.
 752:.\Generated_Source\PSoC5/USBUART_drv.c **** *
 753:.\Generated_Source\PSoC5/USBUART_drv.c **** *******************************************************************************/
 754:.\Generated_Source\PSoC5/USBUART_drv.c **** void USBUART_UpdateStatusBlock(uint8 completionCode) 
 755:.\Generated_Source\PSoC5/USBUART_drv.c **** {
 353              		.loc 1 755 0
 354              		.cfi_startproc
 355              		@ args = 0, pretend = 0, frame = 0
 356              		@ frame_needed = 0, uses_anonymous_args = 0
 357              		@ link register save eliminated.
 358              	.LVL14:
 756:.\Generated_Source\PSoC5/USBUART_drv.c ****     if (USBUART_currentTD.pStatusBlock != NULL)
 359              		.loc 1 756 0
 360 0000 064B     		ldr	r3, .L27
 361 0002 9B68     		ldr	r3, [r3, #8]
 362 0004 43B1     		cbz	r3, .L25
 757:.\Generated_Source\PSoC5/USBUART_drv.c ****     {
 758:.\Generated_Source\PSoC5/USBUART_drv.c ****         USBUART_currentTD.pStatusBlock->status = completionCode;
 363              		.loc 1 758 0
 364 0006 054B     		ldr	r3, .L27
 365 0008 9A68     		ldr	r2, [r3, #8]
 366 000a 1070     		strb	r0, [r2]
 759:.\Generated_Source\PSoC5/USBUART_drv.c ****         USBUART_currentTD.pStatusBlock->length = USBUART_transferByteCount;
 367              		.loc 1 759 0
 368 000c 9A68     		ldr	r2, [r3, #8]
 369 000e 0449     		ldr	r1, .L27+4
 370 0010 0988     		ldrh	r1, [r1]
 371 0012 5180     		strh	r1, [r2, #2]	@ movhi
 760:.\Generated_Source\PSoC5/USBUART_drv.c ****         USBUART_currentTD.pStatusBlock = NULL;
 372              		.loc 1 760 0
 373 0014 0022     		movs	r2, #0
 374 0016 9A60     		str	r2, [r3, #8]
ARM GAS  C:\Users\student\AppData\Local\Temp\cck0tpUF.s 			page 21


 375              	.L25:
 376 0018 7047     		bx	lr
 377              	.L28:
 378 001a 00BF     		.align	2
 379              	.L27:
 380 001c 00000000 		.word	USBUART_currentTD
 381 0020 00000000 		.word	USBUART_transferByteCount
 382              		.cfi_endproc
 383              	.LFE14:
 384              		.size	USBUART_UpdateStatusBlock, .-USBUART_UpdateStatusBlock
 385              		.section	.text.USBUART_HandleSetup,"ax",%progbits
 386              		.align	2
 387              		.global	USBUART_HandleSetup
 388              		.thumb
 389              		.thumb_func
 390              		.type	USBUART_HandleSetup, %function
 391              	USBUART_HandleSetup:
 392              	.LFB1:
 199:.\Generated_Source\PSoC5/USBUART_drv.c ****     uint8 requestHandled;
 393              		.loc 1 199 0
 394              		.cfi_startproc
 395              		@ args = 0, pretend = 0, frame = 0
 396              		@ frame_needed = 0, uses_anonymous_args = 0
 397 0000 08B5     		push	{r3, lr}
 398              		.cfi_def_cfa_offset 8
 399              		.cfi_offset 3, -8
 400              		.cfi_offset 14, -4
 205:.\Generated_Source\PSoC5/USBUART_drv.c ****     USBUART_EP0_CR_REG = (uint8) requestHandled;
 401              		.loc 1 205 0
 402 0002 134B     		ldr	r3, .L39
 403 0004 1A78     		ldrb	r2, [r3]	@ zero_extendqisi2
 404 0006 D2B2     		uxtb	r2, r2
 405              	.LVL15:
 206:.\Generated_Source\PSoC5/USBUART_drv.c ****     requestHandled = (uint8) USBUART_EP0_CR_REG;
 406              		.loc 1 206 0
 407 0008 1A70     		strb	r2, [r3]
 207:.\Generated_Source\PSoC5/USBUART_drv.c **** 
 408              		.loc 1 207 0
 409 000a 1B78     		ldrb	r3, [r3]	@ zero_extendqisi2
 410 000c DBB2     		uxtb	r3, r3
 411              	.LVL16:
 209:.\Generated_Source\PSoC5/USBUART_drv.c ****     {
 412              		.loc 1 209 0
 413 000e 13F0800F 		tst	r3, #128
 414 0012 02D0     		beq	.L30
 212:.\Generated_Source\PSoC5/USBUART_drv.c ****     }
 415              		.loc 1 212 0
 416 0014 0F4A     		ldr	r2, .L39+4
 417 0016 1370     		strb	r3, [r2]
 418 0018 08BD     		pop	{r3, pc}
 419              	.LVL17:
 420              	.L30:
 217:.\Generated_Source\PSoC5/USBUART_drv.c **** 
 421              		.loc 1 217 0
 422 001a 0220     		movs	r0, #2
 423 001c FFF7FEFF 		bl	USBUART_UpdateStatusBlock
 424              	.LVL18:
ARM GAS  C:\Users\student\AppData\Local\Temp\cck0tpUF.s 			page 22


 220:.\Generated_Source\PSoC5/USBUART_drv.c ****         {
 425              		.loc 1 220 0
 426 0020 0D4B     		ldr	r3, .L39+8
 427 0022 1B78     		ldrb	r3, [r3]	@ zero_extendqisi2
 428 0024 03F06003 		and	r3, r3, #96
 429 0028 202B     		cmp	r3, #32
 430 002a 05D0     		beq	.L33
 431 002c 402B     		cmp	r3, #64
 432 002e 06D0     		beq	.L34
 433 0030 43B9     		cbnz	r3, .L37
 223:.\Generated_Source\PSoC5/USBUART_drv.c ****                 break;
 434              		.loc 1 223 0
 435 0032 FFF7FEFF 		bl	USBUART_HandleStandardRqst
 436              	.LVL19:
 224:.\Generated_Source\PSoC5/USBUART_drv.c ****                 
 437              		.loc 1 224 0
 438 0036 06E0     		b	.L32
 439              	.LVL20:
 440              	.L33:
 227:.\Generated_Source\PSoC5/USBUART_drv.c ****                 break;
 441              		.loc 1 227 0
 442 0038 FFF7FEFF 		bl	USBUART_DispatchClassRqst
 443              	.LVL21:
 228:.\Generated_Source\PSoC5/USBUART_drv.c ****                 
 444              		.loc 1 228 0
 445 003c 03E0     		b	.L32
 446              	.LVL22:
 447              	.L34:
 231:.\Generated_Source\PSoC5/USBUART_drv.c ****                 break;
 448              		.loc 1 231 0
 449 003e FFF7FEFF 		bl	USBUART_HandleVendorRqst
 450              	.LVL23:
 232:.\Generated_Source\PSoC5/USBUART_drv.c ****                 
 451              		.loc 1 232 0
 452 0042 00E0     		b	.L32
 453              	.LVL24:
 454              	.L37:
 235:.\Generated_Source\PSoC5/USBUART_drv.c ****                 break;
 455              		.loc 1 235 0
 456 0044 0020     		movs	r0, #0
 457              	.L32:
 458              	.LVL25:
 240:.\Generated_Source\PSoC5/USBUART_drv.c ****         {
 459              		.loc 1 240 0
 460 0046 10B9     		cbnz	r0, .L29
 242:.\Generated_Source\PSoC5/USBUART_drv.c ****         }
 461              		.loc 1 242 0
 462 0048 0322     		movs	r2, #3
 463 004a 024B     		ldr	r3, .L39+4
 464 004c 1A70     		strb	r2, [r3]
 465              	.L29:
 466 004e 08BD     		pop	{r3, pc}
 467              	.L40:
 468              		.align	2
 469              	.L39:
 470 0050 28600040 		.word	1073766440
 471 0054 00000000 		.word	USBUART_ep0Mode
ARM GAS  C:\Users\student\AppData\Local\Temp\cck0tpUF.s 			page 23


 472 0058 00600040 		.word	1073766400
 473              		.cfi_endproc
 474              	.LFE1:
 475              		.size	USBUART_HandleSetup, .-USBUART_HandleSetup
 476              		.section	.text.USBUART_ControlReadStatusStage,"ax",%progbits
 477              		.align	2
 478              		.global	USBUART_ControlReadStatusStage
 479              		.thumb
 480              		.thumb_func
 481              		.type	USBUART_ControlReadStatusStage, %function
 482              	USBUART_ControlReadStatusStage:
 483              	.LFB8:
 527:.\Generated_Source\PSoC5/USBUART_drv.c ****     /* Update the transfer byte count */
 484              		.loc 1 527 0
 485              		.cfi_startproc
 486              		@ args = 0, pretend = 0, frame = 0
 487              		@ frame_needed = 0, uses_anonymous_args = 0
 488 0000 08B5     		push	{r3, lr}
 489              		.cfi_def_cfa_offset 8
 490              		.cfi_offset 3, -8
 491              		.cfi_offset 14, -4
 529:.\Generated_Source\PSoC5/USBUART_drv.c ****     
 492              		.loc 1 529 0
 493 0002 084B     		ldr	r3, .L43
 494 0004 1978     		ldrb	r1, [r3]	@ zero_extendqisi2
 495 0006 084A     		ldr	r2, .L43+4
 496 0008 1388     		ldrh	r3, [r2]
 497 000a 0B44     		add	r3, r3, r1
 498 000c 9BB2     		uxth	r3, r3
 499 000e 1380     		strh	r3, [r2]	@ movhi
 532:.\Generated_Source\PSoC5/USBUART_drv.c ****     
 500              		.loc 1 532 0
 501 0010 0022     		movs	r2, #0
 502 0012 064B     		ldr	r3, .L43+8
 503 0014 1A70     		strb	r2, [r3]
 535:.\Generated_Source\PSoC5/USBUART_drv.c ****     
 504              		.loc 1 535 0
 505 0016 0120     		movs	r0, #1
 506 0018 FFF7FEFF 		bl	USBUART_UpdateStatusBlock
 507              	.LVL26:
 538:.\Generated_Source\PSoC5/USBUART_drv.c **** }
 508              		.loc 1 538 0
 509 001c 0322     		movs	r2, #3
 510 001e 044B     		ldr	r3, .L43+12
 511 0020 1A70     		strb	r2, [r3]
 512 0022 08BD     		pop	{r3, pc}
 513              	.L44:
 514              		.align	2
 515              	.L43:
 516 0024 00000000 		.word	USBUART_lastPacketSize
 517 0028 00000000 		.word	USBUART_transferByteCount
 518 002c 00000000 		.word	USBUART_transferState
 519 0030 00000000 		.word	USBUART_ep0Mode
 520              		.cfi_endproc
 521              	.LFE8:
 522              		.size	USBUART_ControlReadStatusStage, .-USBUART_ControlReadStatusStage
 523              		.section	.text.USBUART_HandleOUT,"ax",%progbits
ARM GAS  C:\Users\student\AppData\Local\Temp\cck0tpUF.s 			page 24


 524              		.align	2
 525              		.global	USBUART_HandleOUT
 526              		.thumb
 527              		.thumb_func
 528              		.type	USBUART_HandleOUT, %function
 529              	USBUART_HandleOUT:
 530              	.LFB3:
 296:.\Generated_Source\PSoC5/USBUART_drv.c ****     switch (USBUART_transferState)
 531              		.loc 1 296 0
 532              		.cfi_startproc
 533              		@ args = 0, pretend = 0, frame = 0
 534              		@ frame_needed = 0, uses_anonymous_args = 0
 535 0000 08B5     		push	{r3, lr}
 536              		.cfi_def_cfa_offset 8
 537              		.cfi_offset 3, -8
 538              		.cfi_offset 14, -4
 297:.\Generated_Source\PSoC5/USBUART_drv.c ****     {
 539              		.loc 1 297 0
 540 0002 0B4B     		ldr	r3, .L51
 541 0004 1B78     		ldrb	r3, [r3]	@ zero_extendqisi2
 542 0006 DBB2     		uxtb	r3, r3
 543 0008 042B     		cmp	r3, #4
 544 000a 06D0     		beq	.L47
 545 000c 062B     		cmp	r3, #6
 546 000e 07D0     		beq	.L48
 547 0010 022B     		cmp	r3, #2
 548 0012 0BD1     		bne	.L45
 303:.\Generated_Source\PSoC5/USBUART_drv.c ****             break;
 549              		.loc 1 303 0
 550 0014 FFF7FEFF 		bl	USBUART_ControlReadStatusStage
 551              	.LVL27:
 304:.\Generated_Source\PSoC5/USBUART_drv.c ****             
 552              		.loc 1 304 0
 553 0018 08BD     		pop	{r3, pc}
 554              	.L47:
 307:.\Generated_Source\PSoC5/USBUART_drv.c ****             break;
 555              		.loc 1 307 0
 556 001a FFF7FEFF 		bl	USBUART_ControlWriteDataStage
 557              	.LVL28:
 308:.\Generated_Source\PSoC5/USBUART_drv.c ****             
 558              		.loc 1 308 0
 559 001e 08BD     		pop	{r3, pc}
 560              	.L48:
 312:.\Generated_Source\PSoC5/USBUART_drv.c ****             
 561              		.loc 1 312 0
 562 0020 0320     		movs	r0, #3
 563 0022 FFF7FEFF 		bl	USBUART_UpdateStatusBlock
 564              	.LVL29:
 315:.\Generated_Source\PSoC5/USBUART_drv.c ****             break;
 565              		.loc 1 315 0
 566 0026 0322     		movs	r2, #3
 567 0028 024B     		ldr	r3, .L51+4
 568 002a 1A70     		strb	r2, [r3]
 569              	.L45:
 570 002c 08BD     		pop	{r3, pc}
 571              	.L52:
 572 002e 00BF     		.align	2
ARM GAS  C:\Users\student\AppData\Local\Temp\cck0tpUF.s 			page 25


 573              	.L51:
 574 0030 00000000 		.word	USBUART_transferState
 575 0034 00000000 		.word	USBUART_ep0Mode
 576              		.cfi_endproc
 577              	.LFE3:
 578              		.size	USBUART_HandleOUT, .-USBUART_HandleOUT
 579              		.section	.text.USBUART_ControlWriteStatusStage,"ax",%progbits
 580              		.align	2
 581              		.global	USBUART_ControlWriteStatusStage
 582              		.thumb
 583              		.thumb_func
 584              		.type	USBUART_ControlWriteStatusStage, %function
 585              	USBUART_ControlWriteStatusStage:
 586              	.LFB11:
 654:.\Generated_Source\PSoC5/USBUART_drv.c ****     /* Go Idle */
 587              		.loc 1 654 0
 588              		.cfi_startproc
 589              		@ args = 0, pretend = 0, frame = 0
 590              		@ frame_needed = 0, uses_anonymous_args = 0
 591 0000 08B5     		push	{r3, lr}
 592              		.cfi_def_cfa_offset 8
 593              		.cfi_offset 3, -8
 594              		.cfi_offset 14, -4
 656:.\Generated_Source\PSoC5/USBUART_drv.c ****     
 595              		.loc 1 656 0
 596 0002 0022     		movs	r2, #0
 597 0004 044B     		ldr	r3, .L55
 598 0006 1A70     		strb	r2, [r3]
 659:.\Generated_Source\PSoC5/USBUART_drv.c ****     
 599              		.loc 1 659 0
 600 0008 0120     		movs	r0, #1
 601 000a FFF7FEFF 		bl	USBUART_UpdateStatusBlock
 602              	.LVL30:
 662:.\Generated_Source\PSoC5/USBUART_drv.c **** }
 603              		.loc 1 662 0
 604 000e 0322     		movs	r2, #3
 605 0010 024B     		ldr	r3, .L55+4
 606 0012 1A70     		strb	r2, [r3]
 607 0014 08BD     		pop	{r3, pc}
 608              	.L56:
 609 0016 00BF     		.align	2
 610              	.L55:
 611 0018 00000000 		.word	USBUART_transferState
 612 001c 00000000 		.word	USBUART_ep0Mode
 613              		.cfi_endproc
 614              	.LFE11:
 615              		.size	USBUART_ControlWriteStatusStage, .-USBUART_ControlWriteStatusStage
 616              		.section	.text.USBUART_NoDataControlStatusStage,"ax",%progbits
 617              		.align	2
 618              		.global	USBUART_NoDataControlStatusStage
 619              		.thumb
 620              		.thumb_func
 621              		.type	USBUART_NoDataControlStatusStage, %function
 622              	USBUART_NoDataControlStatusStage:
 623              	.LFB13:
 715:.\Generated_Source\PSoC5/USBUART_drv.c ****     if (0u != USBUART_deviceAddress)
 624              		.loc 1 715 0
ARM GAS  C:\Users\student\AppData\Local\Temp\cck0tpUF.s 			page 26


 625              		.cfi_startproc
 626              		@ args = 0, pretend = 0, frame = 0
 627              		@ frame_needed = 0, uses_anonymous_args = 0
 628 0000 08B5     		push	{r3, lr}
 629              		.cfi_def_cfa_offset 8
 630              		.cfi_offset 3, -8
 631              		.cfi_offset 14, -4
 716:.\Generated_Source\PSoC5/USBUART_drv.c ****     {
 632              		.loc 1 716 0
 633 0002 0B4B     		ldr	r3, .L60
 634 0004 1B78     		ldrb	r3, [r3]	@ zero_extendqisi2
 635 0006 13F0FF0F 		tst	r3, #255
 636 000a 07D0     		beq	.L58
 719:.\Generated_Source\PSoC5/USBUART_drv.c ****         USBUART_deviceAddress = 0u;
 637              		.loc 1 719 0
 638 000c 084A     		ldr	r2, .L60
 639 000e 1378     		ldrb	r3, [r2]	@ zero_extendqisi2
 640 0010 43F08003 		orr	r3, r3, #128
 641 0014 0749     		ldr	r1, .L60+4
 642 0016 0B70     		strb	r3, [r1]
 720:.\Generated_Source\PSoC5/USBUART_drv.c ****     }
 643              		.loc 1 720 0
 644 0018 0023     		movs	r3, #0
 645 001a 1370     		strb	r3, [r2]
 646              	.L58:
 723:.\Generated_Source\PSoC5/USBUART_drv.c ****     
 647              		.loc 1 723 0
 648 001c 0022     		movs	r2, #0
 649 001e 064B     		ldr	r3, .L60+8
 650 0020 1A70     		strb	r2, [r3]
 726:.\Generated_Source\PSoC5/USBUART_drv.c ****     
 651              		.loc 1 726 0
 652 0022 0120     		movs	r0, #1
 653 0024 FFF7FEFF 		bl	USBUART_UpdateStatusBlock
 654              	.LVL31:
 729:.\Generated_Source\PSoC5/USBUART_drv.c **** }
 655              		.loc 1 729 0
 656 0028 0322     		movs	r2, #3
 657 002a 044B     		ldr	r3, .L60+12
 658 002c 1A70     		strb	r2, [r3]
 659 002e 08BD     		pop	{r3, pc}
 660              	.L61:
 661              		.align	2
 662              	.L60:
 663 0030 00000000 		.word	USBUART_deviceAddress
 664 0034 08600040 		.word	1073766408
 665 0038 00000000 		.word	USBUART_transferState
 666 003c 00000000 		.word	USBUART_ep0Mode
 667              		.cfi_endproc
 668              	.LFE13:
 669              		.size	USBUART_NoDataControlStatusStage, .-USBUART_NoDataControlStatusStage
 670              		.section	.text.USBUART_HandleIN,"ax",%progbits
 671              		.align	2
 672              		.global	USBUART_HandleIN
 673              		.thumb
 674              		.thumb_func
 675              		.type	USBUART_HandleIN, %function
ARM GAS  C:\Users\student\AppData\Local\Temp\cck0tpUF.s 			page 27


 676              	USBUART_HandleIN:
 677              	.LFB2:
 260:.\Generated_Source\PSoC5/USBUART_drv.c ****     switch (USBUART_transferState)
 678              		.loc 1 260 0
 679              		.cfi_startproc
 680              		@ args = 0, pretend = 0, frame = 0
 681              		@ frame_needed = 0, uses_anonymous_args = 0
 682 0000 08B5     		push	{r3, lr}
 683              		.cfi_def_cfa_offset 8
 684              		.cfi_offset 3, -8
 685              		.cfi_offset 14, -4
 261:.\Generated_Source\PSoC5/USBUART_drv.c ****     {
 686              		.loc 1 261 0
 687 0002 094B     		ldr	r3, .L68
 688 0004 1B78     		ldrb	r3, [r3]	@ zero_extendqisi2
 689 0006 DBB2     		uxtb	r3, r3
 690 0008 042B     		cmp	r3, #4
 691 000a 06D0     		beq	.L64
 692 000c 062B     		cmp	r3, #6
 693 000e 07D0     		beq	.L65
 694 0010 022B     		cmp	r3, #2
 695 0012 07D1     		bne	.L62
 267:.\Generated_Source\PSoC5/USBUART_drv.c ****             break;
 696              		.loc 1 267 0
 697 0014 FFF7FEFF 		bl	USBUART_ControlReadDataStage
 698              	.LVL32:
 268:.\Generated_Source\PSoC5/USBUART_drv.c ****             
 699              		.loc 1 268 0
 700 0018 08BD     		pop	{r3, pc}
 701              	.L64:
 271:.\Generated_Source\PSoC5/USBUART_drv.c ****             break;
 702              		.loc 1 271 0
 703 001a FFF7FEFF 		bl	USBUART_ControlWriteStatusStage
 704              	.LVL33:
 272:.\Generated_Source\PSoC5/USBUART_drv.c ****             
 705              		.loc 1 272 0
 706 001e 08BD     		pop	{r3, pc}
 707              	.L65:
 275:.\Generated_Source\PSoC5/USBUART_drv.c ****             break;
 708              		.loc 1 275 0
 709 0020 FFF7FEFF 		bl	USBUART_NoDataControlStatusStage
 710              	.LVL34:
 711              	.L62:
 712 0024 08BD     		pop	{r3, pc}
 713              	.L69:
 714 0026 00BF     		.align	2
 715              	.L68:
 716 0028 00000000 		.word	USBUART_transferState
 717              		.cfi_endproc
 718              	.LFE2:
 719              		.size	USBUART_HandleIN, .-USBUART_HandleIN
 720              		.section	.text.USBUART_EP_0_ISR,"ax",%progbits
 721              		.align	2
 722              		.global	USBUART_EP_0_ISR
 723              		.thumb
 724              		.thumb_func
 725              		.type	USBUART_EP_0_ISR, %function
ARM GAS  C:\Users\student\AppData\Local\Temp\cck0tpUF.s 			page 28


 726              	USBUART_EP_0_ISR:
 727              	.LFB0:
  95:.\Generated_Source\PSoC5/USBUART_drv.c ****     uint8 tempReg;
 728              		.loc 1 95 0
 729              		.cfi_startproc
 730              		@ args = 0, pretend = 0, frame = 0
 731              		@ frame_needed = 0, uses_anonymous_args = 0
 732 0000 08B5     		push	{r3, lr}
 733              		.cfi_def_cfa_offset 8
 734              		.cfi_offset 3, -8
 735              		.cfi_offset 14, -4
 103:.\Generated_Source\PSoC5/USBUART_drv.c ****     if ((tempReg & USBUART_MODE_ACKD) != 0u)
 736              		.loc 1 103 0
 737 0002 284B     		ldr	r3, .L81
 738 0004 1B78     		ldrb	r3, [r3]	@ zero_extendqisi2
 739 0006 DBB2     		uxtb	r3, r3
 740              	.LVL35:
 104:.\Generated_Source\PSoC5/USBUART_drv.c ****     {
 741              		.loc 1 104 0
 742 0008 13F0100F 		tst	r3, #16
 743 000c 48D0     		beq	.L70
 744              	.LVL36:
 107:.\Generated_Source\PSoC5/USBUART_drv.c ****         {
 745              		.loc 1 107 0
 746 000e 13F0800F 		tst	r3, #128
 747 0012 0CD0     		beq	.L72
 109:.\Generated_Source\PSoC5/USBUART_drv.c ****             {
 748              		.loc 1 109 0
 749 0014 03F00F03 		and	r3, r3, #15
 750              	.LVL37:
 751 0018 012B     		cmp	r3, #1
 752 001a 16D1     		bne	.L77
 116:.\Generated_Source\PSoC5/USBUART_drv.c ****                 
 753              		.loc 1 116 0
 754 001c FFF7FEFF 		bl	USBUART_HandleSetup
 755              	.LVL38:
 118:.\Generated_Source\PSoC5/USBUART_drv.c ****                 {
 756              		.loc 1 118 0
 757 0020 214B     		ldr	r3, .L81+4
 758 0022 1B78     		ldrb	r3, [r3]	@ zero_extendqisi2
 759 0024 13F0800F 		tst	r3, #128
 760 0028 11D1     		bne	.L78
 106:.\Generated_Source\PSoC5/USBUART_drv.c ****         if ((tempReg & USBUART_MODE_SETUP_RCVD) != 0u)
 761              		.loc 1 106 0
 762 002a 0123     		movs	r3, #1
 763 002c 12E0     		b	.L73
 764              	.LVL39:
 765              	.L72:
 125:.\Generated_Source\PSoC5/USBUART_drv.c ****         {
 766              		.loc 1 125 0
 767 002e 13F0400F 		tst	r3, #64
 768 0032 03D0     		beq	.L74
 127:.\Generated_Source\PSoC5/USBUART_drv.c ****         }
 769              		.loc 1 127 0
 770 0034 FFF7FEFF 		bl	USBUART_HandleIN
 771              	.LVL40:
 106:.\Generated_Source\PSoC5/USBUART_drv.c ****         if ((tempReg & USBUART_MODE_SETUP_RCVD) != 0u)
ARM GAS  C:\Users\student\AppData\Local\Temp\cck0tpUF.s 			page 29


 772              		.loc 1 106 0
 773 0038 0123     		movs	r3, #1
 774 003a 0BE0     		b	.L73
 775              	.LVL41:
 776              	.L74:
 129:.\Generated_Source\PSoC5/USBUART_drv.c ****         {
 777              		.loc 1 129 0
 778 003c 13F0200F 		tst	r3, #32
 779 0040 07D0     		beq	.L79
 131:.\Generated_Source\PSoC5/USBUART_drv.c ****         }
 780              		.loc 1 131 0
 781 0042 FFF7FEFF 		bl	USBUART_HandleOUT
 782              	.LVL42:
 106:.\Generated_Source\PSoC5/USBUART_drv.c ****         if ((tempReg & USBUART_MODE_SETUP_RCVD) != 0u)
 783              		.loc 1 106 0
 784 0046 0123     		movs	r3, #1
 785 0048 04E0     		b	.L73
 786              	.L77:
 112:.\Generated_Source\PSoC5/USBUART_drv.c ****             }
 787              		.loc 1 112 0
 788 004a 0023     		movs	r3, #0
 789 004c 02E0     		b	.L73
 790              	.L78:
 121:.\Generated_Source\PSoC5/USBUART_drv.c ****                 }
 791              		.loc 1 121 0
 792 004e 0023     		movs	r3, #0
 793 0050 00E0     		b	.L73
 794              	.LVL43:
 795              	.L79:
 135:.\Generated_Source\PSoC5/USBUART_drv.c ****         }
 796              		.loc 1 135 0
 797 0052 0023     		movs	r3, #0
 798              	.LVL44:
 799              	.L73:
 139:.\Generated_Source\PSoC5/USBUART_drv.c ****         {
 800              		.loc 1 139 0
 801 0054 23B3     		cbz	r3, .L70
 142:.\Generated_Source\PSoC5/USBUART_drv.c ****             
 802              		.loc 1 142 0
 803 0056 134B     		ldr	r3, .L81
 804              	.LVL45:
 805 0058 1B78     		ldrb	r3, [r3]	@ zero_extendqisi2
 806              	.LVL46:
 145:.\Generated_Source\PSoC5/USBUART_drv.c ****             {
 807              		.loc 1 145 0
 808 005a 13F0800F 		tst	r3, #128
 809 005e 1FD1     		bne	.L70
 148:.\Generated_Source\PSoC5/USBUART_drv.c ****                 USBUART_EP0_CNT_REG = tempReg;
 810              		.loc 1 148 0
 811 0060 124B     		ldr	r3, .L81+8
 812              	.LVL47:
 813 0062 1B78     		ldrb	r3, [r3]	@ zero_extendqisi2
 814 0064 124A     		ldr	r2, .L81+12
 815 0066 1278     		ldrb	r2, [r2]	@ zero_extendqisi2
 816 0068 1343     		orrs	r3, r3, r2
 817              	.LVL48:
 149:.\Generated_Source\PSoC5/USBUART_drv.c ****                
ARM GAS  C:\Users\student\AppData\Local\Temp\cck0tpUF.s 			page 30


 818              		.loc 1 149 0
 819 006a 124A     		ldr	r2, .L81+16
 820 006c 1370     		strb	r3, [r2]
 152:.\Generated_Source\PSoC5/USBUART_drv.c ****                 {
 821              		.loc 1 152 0
 822 006e 1278     		ldrb	r2, [r2]	@ zero_extendqisi2
 823 0070 D2B2     		uxtb	r2, r2
 824 0072 9A42     		cmp	r2, r3
 825 0074 14D1     		bne	.L70
 826              	.LVL49:
 827              	.L76:
 158:.\Generated_Source\PSoC5/USBUART_drv.c ****                         
 828              		.loc 1 158 0
 829 0076 0C4B     		ldr	r3, .L81+4
 830 0078 1B78     		ldrb	r3, [r3]	@ zero_extendqisi2
 831 007a DBB2     		uxtb	r3, r3
 832              	.LVL50:
 161:.\Generated_Source\PSoC5/USBUART_drv.c ****                         
 833              		.loc 1 161 0
 834 007c 094A     		ldr	r2, .L81
 835 007e 1278     		ldrb	r2, [r2]	@ zero_extendqisi2
 836              	.LVL51:
 164:.\Generated_Source\PSoC5/USBUART_drv.c ****                         {
 837              		.loc 1 164 0
 838 0080 12F0800F 		tst	r2, #128
 839 0084 07D1     		bne	.L75
 167:.\Generated_Source\PSoC5/USBUART_drv.c ****                             
 840              		.loc 1 167 0
 841 0086 084B     		ldr	r3, .L81+4
 842              	.LVL52:
 843 0088 1B78     		ldrb	r3, [r3]	@ zero_extendqisi2
 844 008a DBB2     		uxtb	r3, r3
 845 008c 054A     		ldr	r2, .L81
 846              	.LVL53:
 847 008e 1370     		strb	r3, [r2]
 170:.\Generated_Source\PSoC5/USBUART_drv.c ****                         }
 848              		.loc 1 170 0
 849 0090 1378     		ldrb	r3, [r2]	@ zero_extendqisi2
 850 0092 03F00F03 		and	r3, r3, #15
 851              	.LVL54:
 852              	.L75:
 173:.\Generated_Source\PSoC5/USBUART_drv.c ****                 }
 853              		.loc 1 173 0
 854 0096 044A     		ldr	r2, .L81+4
 855 0098 1278     		ldrb	r2, [r2]	@ zero_extendqisi2
 856 009a D2B2     		uxtb	r2, r2
 857 009c 9342     		cmp	r3, r2
 858 009e EAD1     		bne	.L76
 859              	.LVL55:
 860              	.L70:
 861 00a0 08BD     		pop	{r3, pc}
 862              	.L82:
 863 00a2 00BF     		.align	2
 864              	.L81:
 865 00a4 28600040 		.word	1073766440
 866 00a8 00000000 		.word	USBUART_ep0Mode
 867 00ac 00000000 		.word	USBUART_ep0Toggle
ARM GAS  C:\Users\student\AppData\Local\Temp\cck0tpUF.s 			page 31


 868 00b0 00000000 		.word	USBUART_ep0Count
 869 00b4 29600040 		.word	1073766441
 870              		.cfi_endproc
 871              	.LFE0:
 872              		.size	USBUART_EP_0_ISR, .-USBUART_EP_0_ISR
 873              		.section	.text.USBUART_InitializeStatusBlock,"ax",%progbits
 874              		.align	2
 875              		.global	USBUART_InitializeStatusBlock
 876              		.thumb
 877              		.thumb_func
 878              		.type	USBUART_InitializeStatusBlock, %function
 879              	USBUART_InitializeStatusBlock:
 880              	.LFB15:
 761:.\Generated_Source\PSoC5/USBUART_drv.c ****     }
 762:.\Generated_Source\PSoC5/USBUART_drv.c **** }
 763:.\Generated_Source\PSoC5/USBUART_drv.c **** 
 764:.\Generated_Source\PSoC5/USBUART_drv.c **** 
 765:.\Generated_Source\PSoC5/USBUART_drv.c **** /*******************************************************************************
 766:.\Generated_Source\PSoC5/USBUART_drv.c **** * Function Name: USBUART_InitializeStatusBlock
 767:.\Generated_Source\PSoC5/USBUART_drv.c **** ****************************************************************************//**
 768:.\Generated_Source\PSoC5/USBUART_drv.c **** *
 769:.\Generated_Source\PSoC5/USBUART_drv.c **** *  Initialize the Completion Status Block for a Request.  The completion
 770:.\Generated_Source\PSoC5/USBUART_drv.c **** *  code is set to USB_XFER_IDLE.
 771:.\Generated_Source\PSoC5/USBUART_drv.c **** *
 772:.\Generated_Source\PSoC5/USBUART_drv.c **** *  Also, initializes USBUART_transferByteCount.  Save some space,
 773:.\Generated_Source\PSoC5/USBUART_drv.c **** *  this is the only consumer.
 774:.\Generated_Source\PSoC5/USBUART_drv.c **** *
 775:.\Generated_Source\PSoC5/USBUART_drv.c **** * \globalvars
 776:.\Generated_Source\PSoC5/USBUART_drv.c **** *  USBUART_currentTD.pStatusBlock->status - set to XFER_IDLE.
 777:.\Generated_Source\PSoC5/USBUART_drv.c **** *  USBUART_currentTD.pStatusBlock->length - cleared.
 778:.\Generated_Source\PSoC5/USBUART_drv.c **** *  USBUART_transferByteCount - cleared.
 779:.\Generated_Source\PSoC5/USBUART_drv.c **** *
 780:.\Generated_Source\PSoC5/USBUART_drv.c **** * \reentrant
 781:.\Generated_Source\PSoC5/USBUART_drv.c **** *  No.
 782:.\Generated_Source\PSoC5/USBUART_drv.c **** *
 783:.\Generated_Source\PSoC5/USBUART_drv.c **** *******************************************************************************/
 784:.\Generated_Source\PSoC5/USBUART_drv.c **** void USBUART_InitializeStatusBlock(void) 
 785:.\Generated_Source\PSoC5/USBUART_drv.c **** {
 881              		.loc 1 785 0
 882              		.cfi_startproc
 883              		@ args = 0, pretend = 0, frame = 0
 884              		@ frame_needed = 0, uses_anonymous_args = 0
 885              		@ link register save eliminated.
 786:.\Generated_Source\PSoC5/USBUART_drv.c ****     USBUART_transferByteCount = 0u;
 886              		.loc 1 786 0
 887 0000 0022     		movs	r2, #0
 888 0002 064B     		ldr	r3, .L85
 889 0004 1A80     		strh	r2, [r3]	@ movhi
 787:.\Generated_Source\PSoC5/USBUART_drv.c ****     
 788:.\Generated_Source\PSoC5/USBUART_drv.c ****     if (USBUART_currentTD.pStatusBlock != NULL)
 890              		.loc 1 788 0
 891 0006 064B     		ldr	r3, .L85+4
 892 0008 9B68     		ldr	r3, [r3, #8]
 893 000a 2BB1     		cbz	r3, .L83
 789:.\Generated_Source\PSoC5/USBUART_drv.c ****     {
 790:.\Generated_Source\PSoC5/USBUART_drv.c ****         USBUART_currentTD.pStatusBlock->status = USBUART_XFER_IDLE;
 894              		.loc 1 790 0
ARM GAS  C:\Users\student\AppData\Local\Temp\cck0tpUF.s 			page 32


 895 000c 044A     		ldr	r2, .L85+4
 896 000e 9168     		ldr	r1, [r2, #8]
 897 0010 0023     		movs	r3, #0
 898 0012 0B70     		strb	r3, [r1]
 791:.\Generated_Source\PSoC5/USBUART_drv.c ****         USBUART_currentTD.pStatusBlock->length = 0u;
 899              		.loc 1 791 0
 900 0014 9268     		ldr	r2, [r2, #8]
 901 0016 5380     		strh	r3, [r2, #2]	@ movhi
 902              	.L83:
 903 0018 7047     		bx	lr
 904              	.L86:
 905 001a 00BF     		.align	2
 906              	.L85:
 907 001c 00000000 		.word	USBUART_transferByteCount
 908 0020 00000000 		.word	USBUART_currentTD
 909              		.cfi_endproc
 910              	.LFE15:
 911              		.size	USBUART_InitializeStatusBlock, .-USBUART_InitializeStatusBlock
 912              		.section	.text.USBUART_InitControlRead,"ax",%progbits
 913              		.align	2
 914              		.global	USBUART_InitControlRead
 915              		.thumb
 916              		.thumb_func
 917              		.type	USBUART_InitControlRead, %function
 918              	USBUART_InitControlRead:
 919              	.LFB5:
 419:.\Generated_Source\PSoC5/USBUART_drv.c ****     uint16 xferCount;
 920              		.loc 1 419 0
 921              		.cfi_startproc
 922              		@ args = 0, pretend = 0, frame = 0
 923              		@ frame_needed = 0, uses_anonymous_args = 0
 924 0000 08B5     		push	{r3, lr}
 925              		.cfi_def_cfa_offset 8
 926              		.cfi_offset 3, -8
 927              		.cfi_offset 14, -4
 422:.\Generated_Source\PSoC5/USBUART_drv.c ****     {
 928              		.loc 1 422 0
 929 0002 0F4B     		ldr	r3, .L92
 930 0004 1B88     		ldrh	r3, [r3]
 931 0006 9BB2     		uxth	r3, r3
 932 0008 13B9     		cbnz	r3, .L88
 424:.\Generated_Source\PSoC5/USBUART_drv.c ****     }
 933              		.loc 1 424 0
 934 000a FFF7FEFF 		bl	USBUART_InitZeroLengthControlTransfer
 935              	.LVL56:
 936 000e 15E0     		b	.L89
 937              	.L88:
 429:.\Generated_Source\PSoC5/USBUART_drv.c ****         
 938              		.loc 1 429 0
 939 0010 0222     		movs	r2, #2
 940 0012 0C4B     		ldr	r3, .L92+4
 941 0014 1A70     		strb	r2, [r3]
 432:.\Generated_Source\PSoC5/USBUART_drv.c ****         
 942              		.loc 1 432 0
 943 0016 0022     		movs	r2, #0
 944 0018 0B4B     		ldr	r3, .L92+8
 945 001a 1A70     		strb	r2, [r3]
ARM GAS  C:\Users\student\AppData\Local\Temp\cck0tpUF.s 			page 33


 435:.\Generated_Source\PSoC5/USBUART_drv.c ****         
 946              		.loc 1 435 0
 947 001c FFF7FEFF 		bl	USBUART_InitializeStatusBlock
 948              	.LVL57:
 437:.\Generated_Source\PSoC5/USBUART_drv.c **** 
 949              		.loc 1 437 0
 950 0020 0A4A     		ldr	r2, .L92+12
 951 0022 D179     		ldrb	r1, [r2, #7]	@ zero_extendqisi2
 952 0024 9379     		ldrb	r3, [r2, #6]	@ zero_extendqisi2
 953 0026 43EA0123 		orr	r3, r3, r1, lsl #8
 954              	.LVL58:
 439:.\Generated_Source\PSoC5/USBUART_drv.c ****         {
 955              		.loc 1 439 0
 956 002a 054A     		ldr	r2, .L92
 957 002c 1288     		ldrh	r2, [r2]
 958 002e 92B2     		uxth	r2, r2
 959 0030 9A42     		cmp	r2, r3
 960 0032 01D9     		bls	.L90
 441:.\Generated_Source\PSoC5/USBUART_drv.c ****         }
 961              		.loc 1 441 0
 962 0034 024A     		ldr	r2, .L92
 963 0036 1380     		strh	r3, [r2]	@ movhi
 964              	.L90:
 444:.\Generated_Source\PSoC5/USBUART_drv.c ****     }
 965              		.loc 1 444 0
 966 0038 FFF7FEFF 		bl	USBUART_LoadEP0
 967              	.LVL59:
 968              	.L89:
 448:.\Generated_Source\PSoC5/USBUART_drv.c **** 
 969              		.loc 1 448 0
 970 003c 0120     		movs	r0, #1
 971 003e 08BD     		pop	{r3, pc}
 972              	.L93:
 973              		.align	2
 974              	.L92:
 975 0040 00000000 		.word	USBUART_currentTD
 976 0044 00000000 		.word	USBUART_transferState
 977 0048 00000000 		.word	USBUART_ep0Toggle
 978 004c 00600040 		.word	1073766400
 979              		.cfi_endproc
 980              	.LFE5:
 981              		.size	USBUART_InitControlRead, .-USBUART_InitControlRead
 982              		.section	.text.USBUART_InitControlWrite,"ax",%progbits
 983              		.align	2
 984              		.global	USBUART_InitControlWrite
 985              		.thumb
 986              		.thumb_func
 987              		.type	USBUART_InitControlWrite, %function
 988              	USBUART_InitControlWrite:
 989              	.LFB9:
 561:.\Generated_Source\PSoC5/USBUART_drv.c ****     uint16 xferCount;
 990              		.loc 1 561 0
 991              		.cfi_startproc
 992              		@ args = 0, pretend = 0, frame = 0
 993              		@ frame_needed = 0, uses_anonymous_args = 0
 994 0000 08B5     		push	{r3, lr}
 995              		.cfi_def_cfa_offset 8
ARM GAS  C:\Users\student\AppData\Local\Temp\cck0tpUF.s 			page 34


 996              		.cfi_offset 3, -8
 997              		.cfi_offset 14, -4
 565:.\Generated_Source\PSoC5/USBUART_drv.c ****     
 998              		.loc 1 565 0
 999 0002 0422     		movs	r2, #4
 1000 0004 0B4B     		ldr	r3, .L97
 1001 0006 1A70     		strb	r2, [r3]
 568:.\Generated_Source\PSoC5/USBUART_drv.c ****     
 1002              		.loc 1 568 0
 1003 0008 8022     		movs	r2, #128
 1004 000a 0B4B     		ldr	r3, .L97+4
 1005 000c 1A70     		strb	r2, [r3]
 571:.\Generated_Source\PSoC5/USBUART_drv.c **** 
 1006              		.loc 1 571 0
 1007 000e FFF7FEFF 		bl	USBUART_InitializeStatusBlock
 1008              	.LVL60:
 573:.\Generated_Source\PSoC5/USBUART_drv.c **** 
 1009              		.loc 1 573 0
 1010 0012 0A4A     		ldr	r2, .L97+8
 1011 0014 D179     		ldrb	r1, [r2, #7]	@ zero_extendqisi2
 1012 0016 9379     		ldrb	r3, [r2, #6]	@ zero_extendqisi2
 1013 0018 43EA0123 		orr	r3, r3, r1, lsl #8
 1014              	.LVL61:
 575:.\Generated_Source\PSoC5/USBUART_drv.c ****     {
 1015              		.loc 1 575 0
 1016 001c 084A     		ldr	r2, .L97+12
 1017 001e 1288     		ldrh	r2, [r2]
 1018 0020 92B2     		uxth	r2, r2
 1019 0022 9A42     		cmp	r2, r3
 1020 0024 01D9     		bls	.L95
 577:.\Generated_Source\PSoC5/USBUART_drv.c ****     }
 1021              		.loc 1 577 0
 1022 0026 064A     		ldr	r2, .L97+12
 1023 0028 1380     		strh	r3, [r2]	@ movhi
 1024              	.L95:
 581:.\Generated_Source\PSoC5/USBUART_drv.c **** 
 1025              		.loc 1 581 0
 1026 002a 0B22     		movs	r2, #11
 1027 002c 054B     		ldr	r3, .L97+16
 1028              	.LVL62:
 1029 002e 1A70     		strb	r2, [r3]
 584:.\Generated_Source\PSoC5/USBUART_drv.c **** 
 1030              		.loc 1 584 0
 1031 0030 0120     		movs	r0, #1
 1032 0032 08BD     		pop	{r3, pc}
 1033              	.L98:
 1034              		.align	2
 1035              	.L97:
 1036 0034 00000000 		.word	USBUART_transferState
 1037 0038 00000000 		.word	USBUART_ep0Toggle
 1038 003c 00600040 		.word	1073766400
 1039 0040 00000000 		.word	USBUART_currentTD
 1040 0044 00000000 		.word	USBUART_ep0Mode
 1041              		.cfi_endproc
 1042              	.LFE9:
 1043              		.size	USBUART_InitControlWrite, .-USBUART_InitControlWrite
 1044              		.comm	USBUART_transferByteCount,2,2
ARM GAS  C:\Users\student\AppData\Local\Temp\cck0tpUF.s 			page 35


 1045              		.comm	USBUART_ep0Count,1,1
 1046              		.comm	USBUART_ep0Mode,1,1
 1047              		.comm	USBUART_currentTD,12,4
 1048              		.comm	USBUART_transferState,1,1
 1049              		.comm	USBUART_lastPacketSize,1,1
 1050              		.comm	USBUART_ep0Toggle,1,1
 1051              		.comm	USBUART_interfaceClass,4,4
 1052              		.comm	USBUART_device,1,1
 1053              		.comm	USBUART_interfaceStatus,2,4
 1054              		.comm	USBUART_interfaceSettingLast,2,4
 1055              		.comm	USBUART_interfaceSetting,2,4
 1056              		.comm	USBUART_deviceStatus,1,1
 1057              		.comm	USBUART_deviceAddress,1,1
 1058              		.comm	USBUART_configurationChanged,1,1
 1059              		.comm	USBUART_interfaceNumber,1,1
 1060              		.comm	USBUART_configuration,1,1
 1061              		.comm	USBUART_EP,108,4
 1062              		.text
 1063              	.Letext0:
 1064              		.file 2 ".\\Generated_Source\\PSoC5\\cytypes.h"
 1065              		.file 3 ".\\Generated_Source\\PSoC5\\USBUART.h"
 1066              		.file 4 ".\\Generated_Source\\PSoC5\\USBUART_pvt.h"