ARM GAS  C:\Users\student\AppData\Local\Temp\ccpvKyYb.s 			page 1


   1              		.syntax unified
   2              		.cpu cortex-m3
   3              		.fpu softvfp
   4              		.eabi_attribute 20, 1
   5              		.eabi_attribute 21, 1
   6              		.eabi_attribute 23, 3
   7              		.eabi_attribute 24, 1
   8              		.eabi_attribute 25, 1
   9              		.eabi_attribute 26, 1
  10              		.eabi_attribute 30, 1
  11              		.eabi_attribute 34, 1
  12              		.eabi_attribute 18, 4
  13              		.thumb
  14              		.file	"USBUART_std.c"
  15              		.text
  16              	.Ltext0:
  17              		.cfi_sections	.debug_frame
  18              		.section	.text.USBUART_ReadDieID,"ax",%progbits
  19              		.align	2
  20              		.global	USBUART_ReadDieID
  21              		.thumb
  22              		.thumb_func
  23              		.type	USBUART_ReadDieID, %function
  24              	USBUART_ReadDieID:
  25              	.LFB1:
  26              		.file 1 ".\\Generated_Source\\PSoC5\\USBUART_std.c"
   1:.\Generated_Source\PSoC5/USBUART_std.c **** /***************************************************************************//**
   2:.\Generated_Source\PSoC5/USBUART_std.c **** * \file USBUART_std.c
   3:.\Generated_Source\PSoC5/USBUART_std.c **** * \version 3.0
   4:.\Generated_Source\PSoC5/USBUART_std.c **** *
   5:.\Generated_Source\PSoC5/USBUART_std.c **** * \brief
   6:.\Generated_Source\PSoC5/USBUART_std.c **** *  This file contains the USB Standard request handler.
   7:.\Generated_Source\PSoC5/USBUART_std.c **** *
   8:.\Generated_Source\PSoC5/USBUART_std.c **** ********************************************************************************
   9:.\Generated_Source\PSoC5/USBUART_std.c **** * \copyright
  10:.\Generated_Source\PSoC5/USBUART_std.c **** * Copyright 2008-2015, Cypress Semiconductor Corporation.  All rights reserved.
  11:.\Generated_Source\PSoC5/USBUART_std.c **** * You may use this file only in accordance with the license, terms, conditions,
  12:.\Generated_Source\PSoC5/USBUART_std.c **** * disclaimers, and limitations in the end user license agreement accompanying
  13:.\Generated_Source\PSoC5/USBUART_std.c **** * the software package with which this file was provided.
  14:.\Generated_Source\PSoC5/USBUART_std.c **** *******************************************************************************/
  15:.\Generated_Source\PSoC5/USBUART_std.c **** 
  16:.\Generated_Source\PSoC5/USBUART_std.c **** #include "USBUART_pvt.h"
  17:.\Generated_Source\PSoC5/USBUART_std.c **** 
  18:.\Generated_Source\PSoC5/USBUART_std.c **** /***************************************
  19:.\Generated_Source\PSoC5/USBUART_std.c **** *   Static data allocation
  20:.\Generated_Source\PSoC5/USBUART_std.c **** ***************************************/
  21:.\Generated_Source\PSoC5/USBUART_std.c **** 
  22:.\Generated_Source\PSoC5/USBUART_std.c **** #if defined(USBUART_ENABLE_FWSN_STRING)
  23:.\Generated_Source\PSoC5/USBUART_std.c ****     static volatile uint8* USBUART_fwSerialNumberStringDescriptor;
  24:.\Generated_Source\PSoC5/USBUART_std.c ****     static volatile uint8  USBUART_snStringConfirm = USBUART_FALSE;
  25:.\Generated_Source\PSoC5/USBUART_std.c **** #endif  /* (USBUART_ENABLE_FWSN_STRING) */
  26:.\Generated_Source\PSoC5/USBUART_std.c **** 
  27:.\Generated_Source\PSoC5/USBUART_std.c **** #if defined(USBUART_ENABLE_FWSN_STRING)
  28:.\Generated_Source\PSoC5/USBUART_std.c ****     /***************************************************************************
  29:.\Generated_Source\PSoC5/USBUART_std.c ****     * Function Name: USBUART_SerialNumString
  30:.\Generated_Source\PSoC5/USBUART_std.c ****     ************************************************************************//**
  31:.\Generated_Source\PSoC5/USBUART_std.c ****     *
ARM GAS  C:\Users\student\AppData\Local\Temp\ccpvKyYb.s 			page 2


  32:.\Generated_Source\PSoC5/USBUART_std.c ****     *  This function is available only when the User Call Back option in the 
  33:.\Generated_Source\PSoC5/USBUART_std.c ****     *  Serial Number String descriptor properties is selected. Application 
  34:.\Generated_Source\PSoC5/USBUART_std.c ****     *  firmware can provide the source of the USB device serial number string 
  35:.\Generated_Source\PSoC5/USBUART_std.c ****     *  descriptor during run time. The default string is used if the application 
  36:.\Generated_Source\PSoC5/USBUART_std.c ****     *  firmware does not use this function or sets the wrong string descriptor.
  37:.\Generated_Source\PSoC5/USBUART_std.c ****     *
  38:.\Generated_Source\PSoC5/USBUART_std.c ****     *  \param snString:  Pointer to the user-defined string descriptor. The 
  39:.\Generated_Source\PSoC5/USBUART_std.c ****     *  string descriptor should meet the Universal Serial Bus Specification 
  40:.\Generated_Source\PSoC5/USBUART_std.c ****     *  revision 2.0 chapter 9.6.7
  41:.\Generated_Source\PSoC5/USBUART_std.c ****     *  Offset|Size|Value|Description
  42:.\Generated_Source\PSoC5/USBUART_std.c ****     *  ------|----|------|---------------------------------
  43:.\Generated_Source\PSoC5/USBUART_std.c ****     *  0     |1   |N     |Size of this descriptor in bytes
  44:.\Generated_Source\PSoC5/USBUART_std.c ****     *  1     |1   |0x03  |STRING Descriptor Type
  45:.\Generated_Source\PSoC5/USBUART_std.c ****     *  2     |N-2 |Number|UNICODE encoded string
  46:.\Generated_Source\PSoC5/USBUART_std.c ****     *  
  47:.\Generated_Source\PSoC5/USBUART_std.c ****     * *For example:* uint8 snString[16]={0x0E,0x03,'F',0,'W',0,'S',0,'N',0,'0',0,'1',0};
  48:.\Generated_Source\PSoC5/USBUART_std.c ****     *
  49:.\Generated_Source\PSoC5/USBUART_std.c ****     * \reentrant
  50:.\Generated_Source\PSoC5/USBUART_std.c ****     *  No.
  51:.\Generated_Source\PSoC5/USBUART_std.c ****     *
  52:.\Generated_Source\PSoC5/USBUART_std.c ****     ***************************************************************************/
  53:.\Generated_Source\PSoC5/USBUART_std.c ****     void  USBUART_SerialNumString(uint8 snString[]) 
  54:.\Generated_Source\PSoC5/USBUART_std.c ****     {
  55:.\Generated_Source\PSoC5/USBUART_std.c ****         USBUART_snStringConfirm = USBUART_FALSE;
  56:.\Generated_Source\PSoC5/USBUART_std.c ****         
  57:.\Generated_Source\PSoC5/USBUART_std.c ****         if (snString != NULL)
  58:.\Generated_Source\PSoC5/USBUART_std.c ****         {
  59:.\Generated_Source\PSoC5/USBUART_std.c ****             /* Check descriptor validation */
  60:.\Generated_Source\PSoC5/USBUART_std.c ****             if ((snString[0u] > 1u) && (snString[1u] == USBUART_DESCR_STRING))
  61:.\Generated_Source\PSoC5/USBUART_std.c ****             {
  62:.\Generated_Source\PSoC5/USBUART_std.c ****                 USBUART_fwSerialNumberStringDescriptor = snString;
  63:.\Generated_Source\PSoC5/USBUART_std.c ****                 USBUART_snStringConfirm = USBUART_TRUE;
  64:.\Generated_Source\PSoC5/USBUART_std.c ****             }
  65:.\Generated_Source\PSoC5/USBUART_std.c ****         }
  66:.\Generated_Source\PSoC5/USBUART_std.c ****     }
  67:.\Generated_Source\PSoC5/USBUART_std.c **** #endif  /* USBUART_ENABLE_FWSN_STRING */
  68:.\Generated_Source\PSoC5/USBUART_std.c **** 
  69:.\Generated_Source\PSoC5/USBUART_std.c **** 
  70:.\Generated_Source\PSoC5/USBUART_std.c **** /*******************************************************************************
  71:.\Generated_Source\PSoC5/USBUART_std.c **** * Function Name: USBUART_HandleStandardRqst
  72:.\Generated_Source\PSoC5/USBUART_std.c **** ****************************************************************************//**
  73:.\Generated_Source\PSoC5/USBUART_std.c **** *
  74:.\Generated_Source\PSoC5/USBUART_std.c **** *  This Routine dispatches standard requests
  75:.\Generated_Source\PSoC5/USBUART_std.c **** *
  76:.\Generated_Source\PSoC5/USBUART_std.c **** *
  77:.\Generated_Source\PSoC5/USBUART_std.c **** * \return
  78:.\Generated_Source\PSoC5/USBUART_std.c **** *  TRUE if request handled.
  79:.\Generated_Source\PSoC5/USBUART_std.c **** *
  80:.\Generated_Source\PSoC5/USBUART_std.c **** * \reentrant
  81:.\Generated_Source\PSoC5/USBUART_std.c **** *  No.
  82:.\Generated_Source\PSoC5/USBUART_std.c **** *
  83:.\Generated_Source\PSoC5/USBUART_std.c **** *******************************************************************************/
  84:.\Generated_Source\PSoC5/USBUART_std.c **** uint8 USBUART_HandleStandardRqst(void) 
  85:.\Generated_Source\PSoC5/USBUART_std.c **** {
  86:.\Generated_Source\PSoC5/USBUART_std.c ****     uint8 requestHandled = USBUART_FALSE;
  87:.\Generated_Source\PSoC5/USBUART_std.c ****     uint8 interfaceNumber;
  88:.\Generated_Source\PSoC5/USBUART_std.c ****     uint8 configurationN;
ARM GAS  C:\Users\student\AppData\Local\Temp\ccpvKyYb.s 			page 3


  89:.\Generated_Source\PSoC5/USBUART_std.c ****     uint8 bmRequestType = USBUART_bmRequestTypeReg;
  90:.\Generated_Source\PSoC5/USBUART_std.c **** 
  91:.\Generated_Source\PSoC5/USBUART_std.c **** #if defined(USBUART_ENABLE_STRINGS)
  92:.\Generated_Source\PSoC5/USBUART_std.c ****     volatile uint8 *pStr = 0u;
  93:.\Generated_Source\PSoC5/USBUART_std.c ****     #if defined(USBUART_ENABLE_DESCRIPTOR_STRINGS)
  94:.\Generated_Source\PSoC5/USBUART_std.c ****         uint8 nStr;
  95:.\Generated_Source\PSoC5/USBUART_std.c ****         uint8 descrLength;
  96:.\Generated_Source\PSoC5/USBUART_std.c ****     #endif /* (USBUART_ENABLE_DESCRIPTOR_STRINGS) */
  97:.\Generated_Source\PSoC5/USBUART_std.c **** #endif /* (USBUART_ENABLE_STRINGS) */
  98:.\Generated_Source\PSoC5/USBUART_std.c ****     
  99:.\Generated_Source\PSoC5/USBUART_std.c ****     static volatile uint8 USBUART_tBuffer[USBUART_STATUS_LENGTH_MAX];
 100:.\Generated_Source\PSoC5/USBUART_std.c ****     const T_USBUART_LUT CYCODE *pTmp;
 101:.\Generated_Source\PSoC5/USBUART_std.c **** 
 102:.\Generated_Source\PSoC5/USBUART_std.c ****     USBUART_currentTD.count = 0u;
 103:.\Generated_Source\PSoC5/USBUART_std.c **** 
 104:.\Generated_Source\PSoC5/USBUART_std.c ****     if (USBUART_RQST_DIR_D2H == (bmRequestType & USBUART_RQST_DIR_MASK))
 105:.\Generated_Source\PSoC5/USBUART_std.c ****     {
 106:.\Generated_Source\PSoC5/USBUART_std.c ****         /* Control Read */
 107:.\Generated_Source\PSoC5/USBUART_std.c ****         switch (USBUART_bRequestReg)
 108:.\Generated_Source\PSoC5/USBUART_std.c ****         {
 109:.\Generated_Source\PSoC5/USBUART_std.c ****             case USBUART_GET_DESCRIPTOR:
 110:.\Generated_Source\PSoC5/USBUART_std.c ****                 if (USBUART_DESCR_DEVICE ==USBUART_wValueHiReg)
 111:.\Generated_Source\PSoC5/USBUART_std.c ****                 {
 112:.\Generated_Source\PSoC5/USBUART_std.c ****                     pTmp = USBUART_GetDeviceTablePtr();
 113:.\Generated_Source\PSoC5/USBUART_std.c ****                     USBUART_currentTD.pData = (volatile uint8 *)pTmp->p_list;
 114:.\Generated_Source\PSoC5/USBUART_std.c ****                     USBUART_currentTD.count = USBUART_DEVICE_DESCR_LENGTH;
 115:.\Generated_Source\PSoC5/USBUART_std.c ****                     
 116:.\Generated_Source\PSoC5/USBUART_std.c ****                     requestHandled  = USBUART_InitControlRead();
 117:.\Generated_Source\PSoC5/USBUART_std.c ****                 }
 118:.\Generated_Source\PSoC5/USBUART_std.c ****                 else if (USBUART_DESCR_CONFIG == USBUART_wValueHiReg)
 119:.\Generated_Source\PSoC5/USBUART_std.c ****                 {
 120:.\Generated_Source\PSoC5/USBUART_std.c ****                     pTmp = USBUART_GetConfigTablePtr((uint8) USBUART_wValueLoReg);
 121:.\Generated_Source\PSoC5/USBUART_std.c ****                     
 122:.\Generated_Source\PSoC5/USBUART_std.c ****                     /* Verify that requested descriptor exists */
 123:.\Generated_Source\PSoC5/USBUART_std.c ****                     if (pTmp != NULL)
 124:.\Generated_Source\PSoC5/USBUART_std.c ****                     {
 125:.\Generated_Source\PSoC5/USBUART_std.c ****                         USBUART_currentTD.pData = (volatile uint8 *)pTmp->p_list;
 126:.\Generated_Source\PSoC5/USBUART_std.c ****                         USBUART_currentTD.count = (uint16)((uint16)(USBUART_currentTD.pData)[USBUAR
 127:.\Generated_Source\PSoC5/USBUART_std.c ****                                                                             (USBUART_currentTD.pDat
 128:.\Generated_Source\PSoC5/USBUART_std.c ****                         requestHandled  = USBUART_InitControlRead();
 129:.\Generated_Source\PSoC5/USBUART_std.c ****                     }
 130:.\Generated_Source\PSoC5/USBUART_std.c ****                 }
 131:.\Generated_Source\PSoC5/USBUART_std.c ****                 
 132:.\Generated_Source\PSoC5/USBUART_std.c ****             #if(USBUART_BOS_ENABLE)
 133:.\Generated_Source\PSoC5/USBUART_std.c ****                 else if (USBUART_DESCR_BOS == USBUART_wValueHiReg)
 134:.\Generated_Source\PSoC5/USBUART_std.c ****                 {
 135:.\Generated_Source\PSoC5/USBUART_std.c ****                     pTmp = USBUART_GetBOSPtr();
 136:.\Generated_Source\PSoC5/USBUART_std.c ****                     
 137:.\Generated_Source\PSoC5/USBUART_std.c ****                     /* Verify that requested descriptor exists */
 138:.\Generated_Source\PSoC5/USBUART_std.c ****                     if (pTmp != NULL)
 139:.\Generated_Source\PSoC5/USBUART_std.c ****                     {
 140:.\Generated_Source\PSoC5/USBUART_std.c ****                         USBUART_currentTD.pData = (volatile uint8 *)pTmp;
 141:.\Generated_Source\PSoC5/USBUART_std.c ****                         USBUART_currentTD.count = ((uint16)((uint16)(USBUART_currentTD.pData)[USBUA
 142:.\Generated_Source\PSoC5/USBUART_std.c ****                                                                              (USBUART_currentTD.pDa
 143:.\Generated_Source\PSoC5/USBUART_std.c ****                         requestHandled  = USBUART_InitControlRead();
 144:.\Generated_Source\PSoC5/USBUART_std.c ****                     }
 145:.\Generated_Source\PSoC5/USBUART_std.c ****                 }
ARM GAS  C:\Users\student\AppData\Local\Temp\ccpvKyYb.s 			page 4


 146:.\Generated_Source\PSoC5/USBUART_std.c ****             #endif /*(USBUART_BOS_ENABLE)*/
 147:.\Generated_Source\PSoC5/USBUART_std.c ****             
 148:.\Generated_Source\PSoC5/USBUART_std.c ****             #if defined(USBUART_ENABLE_STRINGS)
 149:.\Generated_Source\PSoC5/USBUART_std.c ****                 else if (USBUART_DESCR_STRING == USBUART_wValueHiReg)
 150:.\Generated_Source\PSoC5/USBUART_std.c ****                 {
 151:.\Generated_Source\PSoC5/USBUART_std.c ****                 /* Descriptor Strings */
 152:.\Generated_Source\PSoC5/USBUART_std.c ****                 #if defined(USBUART_ENABLE_DESCRIPTOR_STRINGS)
 153:.\Generated_Source\PSoC5/USBUART_std.c ****                     nStr = 0u;
 154:.\Generated_Source\PSoC5/USBUART_std.c ****                     pStr = (volatile uint8 *) &USBUART_STRING_DESCRIPTORS[0u];
 155:.\Generated_Source\PSoC5/USBUART_std.c ****                     
 156:.\Generated_Source\PSoC5/USBUART_std.c ****                     while ((USBUART_wValueLoReg > nStr) && (*pStr != 0u))
 157:.\Generated_Source\PSoC5/USBUART_std.c ****                     {
 158:.\Generated_Source\PSoC5/USBUART_std.c ****                         /* Read descriptor length from 1st byte */
 159:.\Generated_Source\PSoC5/USBUART_std.c ****                         descrLength = *pStr;
 160:.\Generated_Source\PSoC5/USBUART_std.c ****                         /* Move to next string descriptor */
 161:.\Generated_Source\PSoC5/USBUART_std.c ****                         pStr = &pStr[descrLength];
 162:.\Generated_Source\PSoC5/USBUART_std.c ****                         nStr++;
 163:.\Generated_Source\PSoC5/USBUART_std.c ****                     }
 164:.\Generated_Source\PSoC5/USBUART_std.c ****                 #endif /* (USBUART_ENABLE_DESCRIPTOR_STRINGS) */
 165:.\Generated_Source\PSoC5/USBUART_std.c ****                 
 166:.\Generated_Source\PSoC5/USBUART_std.c ****                 /* Microsoft OS String */
 167:.\Generated_Source\PSoC5/USBUART_std.c ****                 #if defined(USBUART_ENABLE_MSOS_STRING)
 168:.\Generated_Source\PSoC5/USBUART_std.c ****                     if (USBUART_STRING_MSOS == USBUART_wValueLoReg)
 169:.\Generated_Source\PSoC5/USBUART_std.c ****                     {
 170:.\Generated_Source\PSoC5/USBUART_std.c ****                         pStr = (volatile uint8 *)& USBUART_MSOS_DESCRIPTOR[0u];
 171:.\Generated_Source\PSoC5/USBUART_std.c ****                     }
 172:.\Generated_Source\PSoC5/USBUART_std.c ****                 #endif /* (USBUART_ENABLE_MSOS_STRING) */
 173:.\Generated_Source\PSoC5/USBUART_std.c ****                 
 174:.\Generated_Source\PSoC5/USBUART_std.c ****                 /* SN string */
 175:.\Generated_Source\PSoC5/USBUART_std.c ****                 #if defined(USBUART_ENABLE_SN_STRING)
 176:.\Generated_Source\PSoC5/USBUART_std.c ****                     if ((USBUART_wValueLoReg != 0u) && 
 177:.\Generated_Source\PSoC5/USBUART_std.c ****                         (USBUART_wValueLoReg == USBUART_DEVICE0_DESCR[USBUART_DEVICE_DESCR_SN_SHIFT
 178:.\Generated_Source\PSoC5/USBUART_std.c ****                     {
 179:.\Generated_Source\PSoC5/USBUART_std.c ****                     #if defined(USBUART_ENABLE_IDSN_STRING)
 180:.\Generated_Source\PSoC5/USBUART_std.c ****                         /* Read DIE ID and generate string descriptor in RAM */
 181:.\Generated_Source\PSoC5/USBUART_std.c ****                         USBUART_ReadDieID(USBUART_idSerialNumberStringDescriptor);
 182:.\Generated_Source\PSoC5/USBUART_std.c ****                         pStr = USBUART_idSerialNumberStringDescriptor;
 183:.\Generated_Source\PSoC5/USBUART_std.c ****                     #elif defined(USBUART_ENABLE_FWSN_STRING)
 184:.\Generated_Source\PSoC5/USBUART_std.c ****                         
 185:.\Generated_Source\PSoC5/USBUART_std.c ****                         if(USBUART_snStringConfirm != USBUART_FALSE)
 186:.\Generated_Source\PSoC5/USBUART_std.c ****                         {
 187:.\Generated_Source\PSoC5/USBUART_std.c ****                             pStr = USBUART_fwSerialNumberStringDescriptor;
 188:.\Generated_Source\PSoC5/USBUART_std.c ****                         }
 189:.\Generated_Source\PSoC5/USBUART_std.c ****                         else
 190:.\Generated_Source\PSoC5/USBUART_std.c ****                         {
 191:.\Generated_Source\PSoC5/USBUART_std.c ****                             pStr = (volatile uint8 *)&USBUART_SN_STRING_DESCRIPTOR[0u];
 192:.\Generated_Source\PSoC5/USBUART_std.c ****                         }
 193:.\Generated_Source\PSoC5/USBUART_std.c ****                     #else
 194:.\Generated_Source\PSoC5/USBUART_std.c ****                         pStr = (volatile uint8 *)&USBUART_SN_STRING_DESCRIPTOR[0u];
 195:.\Generated_Source\PSoC5/USBUART_std.c ****                     #endif  /* (USBUART_ENABLE_IDSN_STRING) */
 196:.\Generated_Source\PSoC5/USBUART_std.c ****                     }
 197:.\Generated_Source\PSoC5/USBUART_std.c ****                 #endif /* (USBUART_ENABLE_SN_STRING) */
 198:.\Generated_Source\PSoC5/USBUART_std.c ****                 
 199:.\Generated_Source\PSoC5/USBUART_std.c ****                     if (*pStr != 0u)
 200:.\Generated_Source\PSoC5/USBUART_std.c ****                     {
 201:.\Generated_Source\PSoC5/USBUART_std.c ****                         USBUART_currentTD.count = *pStr;
 202:.\Generated_Source\PSoC5/USBUART_std.c ****                         USBUART_currentTD.pData = pStr;
ARM GAS  C:\Users\student\AppData\Local\Temp\ccpvKyYb.s 			page 5


 203:.\Generated_Source\PSoC5/USBUART_std.c ****                         requestHandled  = USBUART_InitControlRead();
 204:.\Generated_Source\PSoC5/USBUART_std.c ****                     }
 205:.\Generated_Source\PSoC5/USBUART_std.c ****                 }
 206:.\Generated_Source\PSoC5/USBUART_std.c ****             #endif /*  USBUART_ENABLE_STRINGS */
 207:.\Generated_Source\PSoC5/USBUART_std.c ****                 else
 208:.\Generated_Source\PSoC5/USBUART_std.c ****                 {
 209:.\Generated_Source\PSoC5/USBUART_std.c ****                     requestHandled = USBUART_DispatchClassRqst();
 210:.\Generated_Source\PSoC5/USBUART_std.c ****                 }
 211:.\Generated_Source\PSoC5/USBUART_std.c ****                 break;
 212:.\Generated_Source\PSoC5/USBUART_std.c ****                 
 213:.\Generated_Source\PSoC5/USBUART_std.c ****             case USBUART_GET_STATUS:
 214:.\Generated_Source\PSoC5/USBUART_std.c ****                 switch (bmRequestType & USBUART_RQST_RCPT_MASK)
 215:.\Generated_Source\PSoC5/USBUART_std.c ****                 {
 216:.\Generated_Source\PSoC5/USBUART_std.c ****                     case USBUART_RQST_RCPT_EP:
 217:.\Generated_Source\PSoC5/USBUART_std.c ****                         USBUART_currentTD.count = USBUART_EP_STATUS_LENGTH;
 218:.\Generated_Source\PSoC5/USBUART_std.c ****                         USBUART_tBuffer[0u]     = USBUART_EP[USBUART_wIndexLoReg & USBUART_DIR_UNUS
 219:.\Generated_Source\PSoC5/USBUART_std.c ****                         USBUART_tBuffer[1u]     = 0u;
 220:.\Generated_Source\PSoC5/USBUART_std.c ****                         USBUART_currentTD.pData = &USBUART_tBuffer[0u];
 221:.\Generated_Source\PSoC5/USBUART_std.c ****                         
 222:.\Generated_Source\PSoC5/USBUART_std.c ****                         requestHandled  = USBUART_InitControlRead();
 223:.\Generated_Source\PSoC5/USBUART_std.c ****                         break;
 224:.\Generated_Source\PSoC5/USBUART_std.c ****                     case USBUART_RQST_RCPT_DEV:
 225:.\Generated_Source\PSoC5/USBUART_std.c ****                         USBUART_currentTD.count = USBUART_DEVICE_STATUS_LENGTH;
 226:.\Generated_Source\PSoC5/USBUART_std.c ****                         USBUART_tBuffer[0u]     = USBUART_deviceStatus;
 227:.\Generated_Source\PSoC5/USBUART_std.c ****                         USBUART_tBuffer[1u]     = 0u;
 228:.\Generated_Source\PSoC5/USBUART_std.c ****                         USBUART_currentTD.pData = &USBUART_tBuffer[0u];
 229:.\Generated_Source\PSoC5/USBUART_std.c ****                         
 230:.\Generated_Source\PSoC5/USBUART_std.c ****                         requestHandled  = USBUART_InitControlRead();
 231:.\Generated_Source\PSoC5/USBUART_std.c ****                         break;
 232:.\Generated_Source\PSoC5/USBUART_std.c ****                     default:    /* requestHandled is initialized as FALSE by default */
 233:.\Generated_Source\PSoC5/USBUART_std.c ****                         break;
 234:.\Generated_Source\PSoC5/USBUART_std.c ****                 }
 235:.\Generated_Source\PSoC5/USBUART_std.c ****                 break;
 236:.\Generated_Source\PSoC5/USBUART_std.c ****                 
 237:.\Generated_Source\PSoC5/USBUART_std.c ****             case USBUART_GET_CONFIGURATION:
 238:.\Generated_Source\PSoC5/USBUART_std.c ****                 USBUART_currentTD.count = 1u;
 239:.\Generated_Source\PSoC5/USBUART_std.c ****                 USBUART_currentTD.pData = (volatile uint8 *) &USBUART_configuration;
 240:.\Generated_Source\PSoC5/USBUART_std.c ****                 requestHandled  = USBUART_InitControlRead();
 241:.\Generated_Source\PSoC5/USBUART_std.c ****                 break;
 242:.\Generated_Source\PSoC5/USBUART_std.c ****                 
 243:.\Generated_Source\PSoC5/USBUART_std.c ****             case USBUART_GET_INTERFACE:
 244:.\Generated_Source\PSoC5/USBUART_std.c ****                 USBUART_currentTD.count = 1u;
 245:.\Generated_Source\PSoC5/USBUART_std.c ****                 USBUART_currentTD.pData = (volatile uint8 *) &USBUART_interfaceSetting[USBUART_wInd
 246:.\Generated_Source\PSoC5/USBUART_std.c ****                 requestHandled  = USBUART_InitControlRead();
 247:.\Generated_Source\PSoC5/USBUART_std.c ****                 break;
 248:.\Generated_Source\PSoC5/USBUART_std.c ****                 
 249:.\Generated_Source\PSoC5/USBUART_std.c ****             default: /* requestHandled is initialized as FALSE by default */
 250:.\Generated_Source\PSoC5/USBUART_std.c ****                 break;
 251:.\Generated_Source\PSoC5/USBUART_std.c ****         }
 252:.\Generated_Source\PSoC5/USBUART_std.c ****     }
 253:.\Generated_Source\PSoC5/USBUART_std.c ****     else
 254:.\Generated_Source\PSoC5/USBUART_std.c ****     {
 255:.\Generated_Source\PSoC5/USBUART_std.c ****         /* Control Write */
 256:.\Generated_Source\PSoC5/USBUART_std.c ****         switch (USBUART_bRequestReg)
 257:.\Generated_Source\PSoC5/USBUART_std.c ****         {
 258:.\Generated_Source\PSoC5/USBUART_std.c ****             case USBUART_SET_ADDRESS:
 259:.\Generated_Source\PSoC5/USBUART_std.c ****                 /* Store address to be set in USBUART_NoDataControlStatusStage(). */
ARM GAS  C:\Users\student\AppData\Local\Temp\ccpvKyYb.s 			page 6


 260:.\Generated_Source\PSoC5/USBUART_std.c ****                 USBUART_deviceAddress = (uint8) USBUART_wValueLoReg;
 261:.\Generated_Source\PSoC5/USBUART_std.c ****                 requestHandled = USBUART_InitNoDataControlTransfer();
 262:.\Generated_Source\PSoC5/USBUART_std.c ****                 break;
 263:.\Generated_Source\PSoC5/USBUART_std.c ****                 
 264:.\Generated_Source\PSoC5/USBUART_std.c ****             case USBUART_SET_CONFIGURATION:
 265:.\Generated_Source\PSoC5/USBUART_std.c ****                 configurationN = USBUART_wValueLoReg;
 266:.\Generated_Source\PSoC5/USBUART_std.c ****                 
 267:.\Generated_Source\PSoC5/USBUART_std.c ****                 /* Verify that configuration descriptor exists */
 268:.\Generated_Source\PSoC5/USBUART_std.c ****                 if(configurationN > 0u)
 269:.\Generated_Source\PSoC5/USBUART_std.c ****                 {
 270:.\Generated_Source\PSoC5/USBUART_std.c ****                     pTmp = USBUART_GetConfigTablePtr((uint8) configurationN - 1u);
 271:.\Generated_Source\PSoC5/USBUART_std.c ****                 }
 272:.\Generated_Source\PSoC5/USBUART_std.c ****                 
 273:.\Generated_Source\PSoC5/USBUART_std.c ****                 /* Responds with a Request Error when configuration number is invalid */
 274:.\Generated_Source\PSoC5/USBUART_std.c ****                 if (((configurationN > 0u) && (pTmp != NULL)) || (configurationN == 0u))
 275:.\Generated_Source\PSoC5/USBUART_std.c ****                 {
 276:.\Generated_Source\PSoC5/USBUART_std.c ****                     /* Set new configuration if it has been changed */
 277:.\Generated_Source\PSoC5/USBUART_std.c ****                     if(configurationN != USBUART_configuration)
 278:.\Generated_Source\PSoC5/USBUART_std.c ****                     {
 279:.\Generated_Source\PSoC5/USBUART_std.c ****                         USBUART_configuration = (uint8) configurationN;
 280:.\Generated_Source\PSoC5/USBUART_std.c ****                         USBUART_configurationChanged = USBUART_TRUE;
 281:.\Generated_Source\PSoC5/USBUART_std.c ****                         USBUART_Config(USBUART_TRUE);
 282:.\Generated_Source\PSoC5/USBUART_std.c ****                     }
 283:.\Generated_Source\PSoC5/USBUART_std.c ****                     requestHandled = USBUART_InitNoDataControlTransfer();
 284:.\Generated_Source\PSoC5/USBUART_std.c ****                 }
 285:.\Generated_Source\PSoC5/USBUART_std.c ****                 break;
 286:.\Generated_Source\PSoC5/USBUART_std.c ****                 
 287:.\Generated_Source\PSoC5/USBUART_std.c ****             case USBUART_SET_INTERFACE:
 288:.\Generated_Source\PSoC5/USBUART_std.c ****                 if (0u != USBUART_ValidateAlternateSetting())
 289:.\Generated_Source\PSoC5/USBUART_std.c ****                 {
 290:.\Generated_Source\PSoC5/USBUART_std.c ****                     /* Get interface number from the request. */
 291:.\Generated_Source\PSoC5/USBUART_std.c ****                     interfaceNumber = USBUART_wIndexLoReg;
 292:.\Generated_Source\PSoC5/USBUART_std.c ****                     USBUART_interfaceNumber = (uint8) USBUART_wIndexLoReg;
 293:.\Generated_Source\PSoC5/USBUART_std.c ****                      
 294:.\Generated_Source\PSoC5/USBUART_std.c ****                     /* Check if alternate settings is changed for interface. */
 295:.\Generated_Source\PSoC5/USBUART_std.c ****                     if (USBUART_interfaceSettingLast[interfaceNumber] != USBUART_interfaceSetting[i
 296:.\Generated_Source\PSoC5/USBUART_std.c ****                     {
 297:.\Generated_Source\PSoC5/USBUART_std.c ****                         USBUART_configurationChanged = USBUART_TRUE;
 298:.\Generated_Source\PSoC5/USBUART_std.c ****                     
 299:.\Generated_Source\PSoC5/USBUART_std.c ****                         /* Change alternate setting for the endpoints. */
 300:.\Generated_Source\PSoC5/USBUART_std.c ****                     #if (USBUART_EP_MANAGEMENT_MANUAL && USBUART_EP_ALLOC_DYNAMIC)
 301:.\Generated_Source\PSoC5/USBUART_std.c ****                         USBUART_Config(USBUART_FALSE);
 302:.\Generated_Source\PSoC5/USBUART_std.c ****                     #else
 303:.\Generated_Source\PSoC5/USBUART_std.c ****                         USBUART_ConfigAltChanged();
 304:.\Generated_Source\PSoC5/USBUART_std.c ****                     #endif /* (USBUART_EP_MANAGEMENT_MANUAL && USBUART_EP_ALLOC_DYNAMIC) */
 305:.\Generated_Source\PSoC5/USBUART_std.c ****                     }
 306:.\Generated_Source\PSoC5/USBUART_std.c ****                     
 307:.\Generated_Source\PSoC5/USBUART_std.c ****                     requestHandled = USBUART_InitNoDataControlTransfer();
 308:.\Generated_Source\PSoC5/USBUART_std.c ****                 }
 309:.\Generated_Source\PSoC5/USBUART_std.c ****                 break;
 310:.\Generated_Source\PSoC5/USBUART_std.c ****                 
 311:.\Generated_Source\PSoC5/USBUART_std.c ****             case USBUART_CLEAR_FEATURE:
 312:.\Generated_Source\PSoC5/USBUART_std.c ****                 switch (bmRequestType & USBUART_RQST_RCPT_MASK)
 313:.\Generated_Source\PSoC5/USBUART_std.c ****                 {
 314:.\Generated_Source\PSoC5/USBUART_std.c ****                     case USBUART_RQST_RCPT_EP:
 315:.\Generated_Source\PSoC5/USBUART_std.c ****                         if (USBUART_wValueLoReg == USBUART_ENDPOINT_HALT)
 316:.\Generated_Source\PSoC5/USBUART_std.c ****                         {
ARM GAS  C:\Users\student\AppData\Local\Temp\ccpvKyYb.s 			page 7


 317:.\Generated_Source\PSoC5/USBUART_std.c ****                             requestHandled = USBUART_ClearEndpointHalt();
 318:.\Generated_Source\PSoC5/USBUART_std.c ****                         }
 319:.\Generated_Source\PSoC5/USBUART_std.c ****                         break;
 320:.\Generated_Source\PSoC5/USBUART_std.c ****                     case USBUART_RQST_RCPT_DEV:
 321:.\Generated_Source\PSoC5/USBUART_std.c ****                         /* Clear device REMOTE_WAKEUP */
 322:.\Generated_Source\PSoC5/USBUART_std.c ****                         if (USBUART_wValueLoReg == USBUART_DEVICE_REMOTE_WAKEUP)
 323:.\Generated_Source\PSoC5/USBUART_std.c ****                         {
 324:.\Generated_Source\PSoC5/USBUART_std.c ****                             USBUART_deviceStatus &= (uint8)~USBUART_DEVICE_STATUS_REMOTE_WAKEUP;
 325:.\Generated_Source\PSoC5/USBUART_std.c ****                             requestHandled = USBUART_InitNoDataControlTransfer();
 326:.\Generated_Source\PSoC5/USBUART_std.c ****                         }
 327:.\Generated_Source\PSoC5/USBUART_std.c ****                         break;
 328:.\Generated_Source\PSoC5/USBUART_std.c ****                     case USBUART_RQST_RCPT_IFC:
 329:.\Generated_Source\PSoC5/USBUART_std.c ****                         /* Validate interfaceNumber */
 330:.\Generated_Source\PSoC5/USBUART_std.c ****                         if (USBUART_wIndexLoReg < USBUART_MAX_INTERFACES_NUMBER)
 331:.\Generated_Source\PSoC5/USBUART_std.c ****                         {
 332:.\Generated_Source\PSoC5/USBUART_std.c ****                             USBUART_interfaceStatus[USBUART_wIndexLoReg] &= (uint8) ~USBUART_wValue
 333:.\Generated_Source\PSoC5/USBUART_std.c ****                             requestHandled = USBUART_InitNoDataControlTransfer();
 334:.\Generated_Source\PSoC5/USBUART_std.c ****                         }
 335:.\Generated_Source\PSoC5/USBUART_std.c ****                         break;
 336:.\Generated_Source\PSoC5/USBUART_std.c ****                     default:    /* requestHandled is initialized as FALSE by default */
 337:.\Generated_Source\PSoC5/USBUART_std.c ****                         break;
 338:.\Generated_Source\PSoC5/USBUART_std.c ****                 }
 339:.\Generated_Source\PSoC5/USBUART_std.c ****                 break;
 340:.\Generated_Source\PSoC5/USBUART_std.c ****                 
 341:.\Generated_Source\PSoC5/USBUART_std.c ****             case USBUART_SET_FEATURE:
 342:.\Generated_Source\PSoC5/USBUART_std.c ****                 switch (bmRequestType & USBUART_RQST_RCPT_MASK)
 343:.\Generated_Source\PSoC5/USBUART_std.c ****                 {
 344:.\Generated_Source\PSoC5/USBUART_std.c ****                     case USBUART_RQST_RCPT_EP:
 345:.\Generated_Source\PSoC5/USBUART_std.c ****                         if (USBUART_wValueLoReg == USBUART_ENDPOINT_HALT)
 346:.\Generated_Source\PSoC5/USBUART_std.c ****                         {
 347:.\Generated_Source\PSoC5/USBUART_std.c ****                             requestHandled = USBUART_SetEndpointHalt();
 348:.\Generated_Source\PSoC5/USBUART_std.c ****                         }
 349:.\Generated_Source\PSoC5/USBUART_std.c ****                         break;
 350:.\Generated_Source\PSoC5/USBUART_std.c ****                         
 351:.\Generated_Source\PSoC5/USBUART_std.c ****                     case USBUART_RQST_RCPT_DEV:
 352:.\Generated_Source\PSoC5/USBUART_std.c ****                         /* Set device REMOTE_WAKEUP */
 353:.\Generated_Source\PSoC5/USBUART_std.c ****                         if (USBUART_wValueLoReg == USBUART_DEVICE_REMOTE_WAKEUP)
 354:.\Generated_Source\PSoC5/USBUART_std.c ****                         {
 355:.\Generated_Source\PSoC5/USBUART_std.c ****                             USBUART_deviceStatus |= USBUART_DEVICE_STATUS_REMOTE_WAKEUP;
 356:.\Generated_Source\PSoC5/USBUART_std.c ****                             requestHandled = USBUART_InitNoDataControlTransfer();
 357:.\Generated_Source\PSoC5/USBUART_std.c ****                         }
 358:.\Generated_Source\PSoC5/USBUART_std.c ****                         break;
 359:.\Generated_Source\PSoC5/USBUART_std.c ****                         
 360:.\Generated_Source\PSoC5/USBUART_std.c ****                     case USBUART_RQST_RCPT_IFC:
 361:.\Generated_Source\PSoC5/USBUART_std.c ****                         /* Validate interfaceNumber */
 362:.\Generated_Source\PSoC5/USBUART_std.c ****                         if (USBUART_wIndexLoReg < USBUART_MAX_INTERFACES_NUMBER)
 363:.\Generated_Source\PSoC5/USBUART_std.c ****                         {
 364:.\Generated_Source\PSoC5/USBUART_std.c ****                             USBUART_interfaceStatus[USBUART_wIndexLoReg] &= (uint8) ~USBUART_wValue
 365:.\Generated_Source\PSoC5/USBUART_std.c ****                             requestHandled = USBUART_InitNoDataControlTransfer();
 366:.\Generated_Source\PSoC5/USBUART_std.c ****                         }
 367:.\Generated_Source\PSoC5/USBUART_std.c ****                         break;
 368:.\Generated_Source\PSoC5/USBUART_std.c ****                     
 369:.\Generated_Source\PSoC5/USBUART_std.c ****                     default:    /* requestHandled is initialized as FALSE by default */
 370:.\Generated_Source\PSoC5/USBUART_std.c ****                         break;
 371:.\Generated_Source\PSoC5/USBUART_std.c ****                 }
 372:.\Generated_Source\PSoC5/USBUART_std.c ****                 break;
 373:.\Generated_Source\PSoC5/USBUART_std.c ****                 
ARM GAS  C:\Users\student\AppData\Local\Temp\ccpvKyYb.s 			page 8


 374:.\Generated_Source\PSoC5/USBUART_std.c ****             default:    /* requestHandled is initialized as FALSE by default */
 375:.\Generated_Source\PSoC5/USBUART_std.c ****                 break;
 376:.\Generated_Source\PSoC5/USBUART_std.c ****         }
 377:.\Generated_Source\PSoC5/USBUART_std.c ****     }
 378:.\Generated_Source\PSoC5/USBUART_std.c ****     
 379:.\Generated_Source\PSoC5/USBUART_std.c ****     return (requestHandled);
 380:.\Generated_Source\PSoC5/USBUART_std.c **** }
 381:.\Generated_Source\PSoC5/USBUART_std.c **** 
 382:.\Generated_Source\PSoC5/USBUART_std.c **** 
 383:.\Generated_Source\PSoC5/USBUART_std.c **** #if defined(USBUART_ENABLE_IDSN_STRING)
 384:.\Generated_Source\PSoC5/USBUART_std.c ****     /***************************************************************************
 385:.\Generated_Source\PSoC5/USBUART_std.c ****     * Function Name: USBUART_ReadDieID
 386:.\Generated_Source\PSoC5/USBUART_std.c ****     ************************************************************************//**
 387:.\Generated_Source\PSoC5/USBUART_std.c ****     *
 388:.\Generated_Source\PSoC5/USBUART_std.c ****     *  This routine read Die ID and generate Serial Number string descriptor.
 389:.\Generated_Source\PSoC5/USBUART_std.c ****     *
 390:.\Generated_Source\PSoC5/USBUART_std.c ****     *  \param descr:  pointer on string descriptor. This string size has to be equal or
 391:.\Generated_Source\PSoC5/USBUART_std.c ****     *          greater than USBUART_IDSN_DESCR_LENGTH.
 392:.\Generated_Source\PSoC5/USBUART_std.c ****     *
 393:.\Generated_Source\PSoC5/USBUART_std.c ****     *
 394:.\Generated_Source\PSoC5/USBUART_std.c ****     * \reentrant
 395:.\Generated_Source\PSoC5/USBUART_std.c ****     *  No.
 396:.\Generated_Source\PSoC5/USBUART_std.c ****     *
 397:.\Generated_Source\PSoC5/USBUART_std.c ****     ***************************************************************************/
 398:.\Generated_Source\PSoC5/USBUART_std.c ****     void USBUART_ReadDieID(uint8 descr[]) 
 399:.\Generated_Source\PSoC5/USBUART_std.c ****     {
  27              		.loc 1 399 0
  28              		.cfi_startproc
  29              		@ args = 0, pretend = 0, frame = 32
  30              		@ frame_needed = 0, uses_anonymous_args = 0
  31              	.LVL0:
  32 0000 70B5     		push	{r4, r5, r6, lr}
  33              		.cfi_def_cfa_offset 16
  34              		.cfi_offset 4, -16
  35              		.cfi_offset 5, -12
  36              		.cfi_offset 6, -8
  37              		.cfi_offset 14, -4
  38 0002 88B0     		sub	sp, sp, #32
  39              		.cfi_def_cfa_offset 48
  40 0004 0546     		mov	r5, r0
 400:.\Generated_Source\PSoC5/USBUART_std.c ****         const char8 CYCODE hex[] = "0123456789ABCDEF";
  41              		.loc 1 400 0
  42 0006 03AC     		add	r4, sp, #12
  43 0008 174E     		ldr	r6, .L6
  44 000a 0FCE     		ldmia	r6!, {r0, r1, r2, r3}
  45              	.LVL1:
  46 000c 0FC4     		stmia	r4!, {r0, r1, r2, r3}
  47 000e 3368     		ldr	r3, [r6]
  48 0010 2370     		strb	r3, [r4]
  49              	.LVL2:
 401:.\Generated_Source\PSoC5/USBUART_std.c ****         uint8 i;
 402:.\Generated_Source\PSoC5/USBUART_std.c ****         uint8 j = 0u;
 403:.\Generated_Source\PSoC5/USBUART_std.c ****         uint8 uniqueId[8u];
 404:.\Generated_Source\PSoC5/USBUART_std.c **** 
 405:.\Generated_Source\PSoC5/USBUART_std.c ****         if (NULL != descr)
  50              		.loc 1 405 0
  51 0012 35B3     		cbz	r5, .L1
ARM GAS  C:\Users\student\AppData\Local\Temp\ccpvKyYb.s 			page 9


 406:.\Generated_Source\PSoC5/USBUART_std.c ****         {
 407:.\Generated_Source\PSoC5/USBUART_std.c ****             /* Initialize descriptor header. */
 408:.\Generated_Source\PSoC5/USBUART_std.c ****             descr[0u] = USBUART_IDSN_DESCR_LENGTH;
  52              		.loc 1 408 0
  53 0014 2223     		movs	r3, #34
  54 0016 2B70     		strb	r3, [r5]
 409:.\Generated_Source\PSoC5/USBUART_std.c ****             descr[1u] = USBUART_DESCR_STRING;
  55              		.loc 1 409 0
  56 0018 0323     		movs	r3, #3
  57 001a 6B70     		strb	r3, [r5, #1]
 410:.\Generated_Source\PSoC5/USBUART_std.c ****             
 411:.\Generated_Source\PSoC5/USBUART_std.c ****             /* Unique ID size is 8 bytes. */
 412:.\Generated_Source\PSoC5/USBUART_std.c ****             CyGetUniqueId((uint32 *) uniqueId);
  58              		.loc 1 412 0
  59 001c 01A8     		add	r0, sp, #4
  60 001e FFF7FEFF 		bl	CyGetUniqueId
  61              	.LVL3:
 402:.\Generated_Source\PSoC5/USBUART_std.c ****         uint8 uniqueId[8u];
  62              		.loc 1 402 0
  63 0022 0024     		movs	r4, #0
 413:.\Generated_Source\PSoC5/USBUART_std.c **** 
 414:.\Generated_Source\PSoC5/USBUART_std.c ****             /* Fill descriptor with unique device ID. */
 415:.\Generated_Source\PSoC5/USBUART_std.c ****             for (i = 2u; i < USBUART_IDSN_DESCR_LENGTH; i += 4u)
  64              		.loc 1 415 0
  65 0024 0223     		movs	r3, #2
  66 0026 1AE0     		b	.L3
  67              	.LVL4:
  68              	.L4:
 416:.\Generated_Source\PSoC5/USBUART_std.c ****             {
 417:.\Generated_Source\PSoC5/USBUART_std.c ****                 descr[i]      = (uint8) hex[(uniqueId[j] >> 4u)];
  69              		.loc 1 417 0 discriminator 3
  70 0028 08AA     		add	r2, sp, #32
  71 002a 2244     		add	r2, r2, r4
  72 002c 12F81C2C 		ldrb	r2, [r2, #-28]	@ zero_extendqisi2
  73 0030 08A9     		add	r1, sp, #32
  74 0032 01EB1211 		add	r1, r1, r2, lsr #4
  75 0036 11F8141C 		ldrb	r1, [r1, #-20]	@ zero_extendqisi2
  76 003a E954     		strb	r1, [r5, r3]
 418:.\Generated_Source\PSoC5/USBUART_std.c ****                 descr[i + 1u] = 0u;
  77              		.loc 1 418 0 discriminator 3
  78 003c 581C     		adds	r0, r3, #1
  79 003e 0021     		movs	r1, #0
  80 0040 2954     		strb	r1, [r5, r0]
 419:.\Generated_Source\PSoC5/USBUART_std.c ****                 descr[i + 2u] = (uint8) hex[(uniqueId[j] & 0x0Fu)];
  81              		.loc 1 419 0 discriminator 3
  82 0042 981C     		adds	r0, r3, #2
  83 0044 02F00F02 		and	r2, r2, #15
  84 0048 08AE     		add	r6, sp, #32
  85 004a 3244     		add	r2, r2, r6
  86 004c 12F8142C 		ldrb	r2, [r2, #-20]	@ zero_extendqisi2
  87 0050 2A54     		strb	r2, [r5, r0]
 420:.\Generated_Source\PSoC5/USBUART_std.c ****                 descr[i + 3u] = 0u;
  88              		.loc 1 420 0 discriminator 3
  89 0052 DA1C     		adds	r2, r3, #3
  90 0054 A954     		strb	r1, [r5, r2]
 421:.\Generated_Source\PSoC5/USBUART_std.c ****                 ++j;
  91              		.loc 1 421 0 discriminator 3
ARM GAS  C:\Users\student\AppData\Local\Temp\ccpvKyYb.s 			page 10


  92 0056 0134     		adds	r4, r4, #1
  93              	.LVL5:
  94 0058 E4B2     		uxtb	r4, r4
  95              	.LVL6:
 415:.\Generated_Source\PSoC5/USBUART_std.c ****             {
  96              		.loc 1 415 0 discriminator 3
  97 005a 0433     		adds	r3, r3, #4
  98              	.LVL7:
  99 005c DBB2     		uxtb	r3, r3
 100              	.LVL8:
 101              	.L3:
 415:.\Generated_Source\PSoC5/USBUART_std.c ****             {
 102              		.loc 1 415 0 is_stmt 0 discriminator 1
 103 005e 212B     		cmp	r3, #33
 104 0060 E2D9     		bls	.L4
 105              	.LVL9:
 106              	.L1:
 422:.\Generated_Source\PSoC5/USBUART_std.c ****             }
 423:.\Generated_Source\PSoC5/USBUART_std.c ****         }
 424:.\Generated_Source\PSoC5/USBUART_std.c ****     }
 107              		.loc 1 424 0 is_stmt 1
 108 0062 08B0     		add	sp, sp, #32
 109              		.cfi_def_cfa_offset 16
 110              		@ sp needed
 111 0064 70BD     		pop	{r4, r5, r6, pc}
 112              	.LVL10:
 113              	.L7:
 114 0066 00BF     		.align	2
 115              	.L6:
 116 0068 00000000 		.word	.LC0
 117              		.cfi_endproc
 118              	.LFE1:
 119              		.size	USBUART_ReadDieID, .-USBUART_ReadDieID
 120              		.section	.text.USBUART_ConfigReg,"ax",%progbits
 121              		.align	2
 122              		.global	USBUART_ConfigReg
 123              		.thumb
 124              		.thumb_func
 125              		.type	USBUART_ConfigReg, %function
 126              	USBUART_ConfigReg:
 127              	.LFB2:
 425:.\Generated_Source\PSoC5/USBUART_std.c **** #endif /* (USBUART_ENABLE_IDSN_STRING) */
 426:.\Generated_Source\PSoC5/USBUART_std.c **** 
 427:.\Generated_Source\PSoC5/USBUART_std.c **** 
 428:.\Generated_Source\PSoC5/USBUART_std.c **** /*******************************************************************************
 429:.\Generated_Source\PSoC5/USBUART_std.c **** * Function Name: USBUART_ConfigReg
 430:.\Generated_Source\PSoC5/USBUART_std.c **** ****************************************************************************//**
 431:.\Generated_Source\PSoC5/USBUART_std.c **** *
 432:.\Generated_Source\PSoC5/USBUART_std.c **** *  This routine configures hardware registers from the variables.
 433:.\Generated_Source\PSoC5/USBUART_std.c **** *  It is called from USBUART_Config() function and from RestoreConfig
 434:.\Generated_Source\PSoC5/USBUART_std.c **** *  after Wakeup.
 435:.\Generated_Source\PSoC5/USBUART_std.c **** *
 436:.\Generated_Source\PSoC5/USBUART_std.c **** *******************************************************************************/
 437:.\Generated_Source\PSoC5/USBUART_std.c **** void USBUART_ConfigReg(void) 
 438:.\Generated_Source\PSoC5/USBUART_std.c **** {
 128              		.loc 1 438 0
 129              		.cfi_startproc
ARM GAS  C:\Users\student\AppData\Local\Temp\ccpvKyYb.s 			page 11


 130              		@ args = 0, pretend = 0, frame = 0
 131              		@ frame_needed = 0, uses_anonymous_args = 0
 132              		@ link register save eliminated.
 133 0000 10B4     		push	{r4}
 134              		.cfi_def_cfa_offset 4
 135              		.cfi_offset 4, -4
 136              	.LVL11:
 439:.\Generated_Source\PSoC5/USBUART_std.c ****     uint8 ep;
 440:.\Generated_Source\PSoC5/USBUART_std.c **** 
 441:.\Generated_Source\PSoC5/USBUART_std.c **** #if (USBUART_EP_MANAGEMENT_DMA_AUTO)
 442:.\Generated_Source\PSoC5/USBUART_std.c ****     uint8 epType = 0u;
 443:.\Generated_Source\PSoC5/USBUART_std.c **** #endif /* (USBUART_EP_MANAGEMENT_DMA_AUTO) */
 444:.\Generated_Source\PSoC5/USBUART_std.c **** 
 445:.\Generated_Source\PSoC5/USBUART_std.c ****     /* Go thought all endpoints and set hardware configuration */
 446:.\Generated_Source\PSoC5/USBUART_std.c ****     for (ep = USBUART_EP1; ep < USBUART_MAX_EP; ++ep)
 137              		.loc 1 446 0
 138 0002 0122     		movs	r2, #1
 139 0004 3DE0     		b	.L9
 140              	.LVL12:
 141              	.L13:
 447:.\Generated_Source\PSoC5/USBUART_std.c ****     {
 448:.\Generated_Source\PSoC5/USBUART_std.c ****         USBUART_ARB_EP_BASE.arbEp[ep].epCfg = USBUART_ARB_EPX_CFG_DEFAULT;
 142              		.loc 1 448 0
 143 0006 1146     		mov	r1, r2
 144 0008 1301     		lsls	r3, r2, #4
 145 000a 0C24     		movs	r4, #12
 146 000c 2148     		ldr	r0, .L15
 147 000e C454     		strb	r4, [r0, r3]
 449:.\Generated_Source\PSoC5/USBUART_std.c ****         
 450:.\Generated_Source\PSoC5/USBUART_std.c ****     #if (USBUART_EP_MANAGEMENT_DMA)
 451:.\Generated_Source\PSoC5/USBUART_std.c ****         /* Enable arbiter endpoint interrupt sources */
 452:.\Generated_Source\PSoC5/USBUART_std.c ****         USBUART_ARB_EP_BASE.arbEp[ep].epIntEn = USBUART_ARB_EPX_INT_MASK;
 453:.\Generated_Source\PSoC5/USBUART_std.c ****     #endif /* (USBUART_EP_MANAGEMENT_DMA) */
 454:.\Generated_Source\PSoC5/USBUART_std.c ****     
 455:.\Generated_Source\PSoC5/USBUART_std.c ****         if (USBUART_EP[ep].epMode != USBUART_MODE_DISABLE)
 148              		.loc 1 455 0
 149 0010 02EB4203 		add	r3, r2, r2, lsl #1
 150 0014 9B00     		lsls	r3, r3, #2
 151 0016 2048     		ldr	r0, .L15+4
 152 0018 0344     		add	r3, r3, r0
 153 001a 5B79     		ldrb	r3, [r3, #5]	@ zero_extendqisi2
 154 001c 13F0FF0F 		tst	r3, #255
 155 0020 12D0     		beq	.L10
 456:.\Generated_Source\PSoC5/USBUART_std.c ****         {
 457:.\Generated_Source\PSoC5/USBUART_std.c ****             if (0u != (USBUART_EP[ep].addr & USBUART_DIR_IN))
 156              		.loc 1 457 0
 157 0022 02EB4203 		add	r3, r2, r2, lsl #1
 158 0026 9B00     		lsls	r3, r3, #2
 159 0028 0344     		add	r3, r3, r0
 160 002a 1B79     		ldrb	r3, [r3, #4]	@ zero_extendqisi2
 161 002c 13F0800F 		tst	r3, #128
 162 0030 04D0     		beq	.L11
 458:.\Generated_Source\PSoC5/USBUART_std.c ****             {
 459:.\Generated_Source\PSoC5/USBUART_std.c ****                 USBUART_SIE_EP_BASE.sieEp[ep].epCr0 = USBUART_MODE_NAK_IN;
 163              		.loc 1 459 0
 164 0032 1001     		lsls	r0, r2, #4
 165 0034 194B     		ldr	r3, .L15+8
ARM GAS  C:\Users\student\AppData\Local\Temp\ccpvKyYb.s 			page 12


 166 0036 0344     		add	r3, r3, r0
 167 0038 9C70     		strb	r4, [r3, #2]
 168 003a 0AE0     		b	.L12
 169              	.L11:
 460:.\Generated_Source\PSoC5/USBUART_std.c ****                 
 461:.\Generated_Source\PSoC5/USBUART_std.c ****             #if (USBUART_EP_MANAGEMENT_DMA_AUTO && CY_PSOC4)
 462:.\Generated_Source\PSoC5/USBUART_std.c ****                 /* Clear DMA_TERMIN for IN endpoint. */
 463:.\Generated_Source\PSoC5/USBUART_std.c ****                 USBUART_ARB_EP_BASE.arbEp[ep].epIntEn &= (uint32) ~USBUART_ARB_EPX_INT_DMA_TERMIN;
 464:.\Generated_Source\PSoC5/USBUART_std.c ****             #endif /* (USBUART_EP_MANAGEMENT_DMA_AUTO && CY_PSOC4) */
 465:.\Generated_Source\PSoC5/USBUART_std.c ****             }
 466:.\Generated_Source\PSoC5/USBUART_std.c ****             else
 467:.\Generated_Source\PSoC5/USBUART_std.c ****             {
 468:.\Generated_Source\PSoC5/USBUART_std.c ****                 USBUART_SIE_EP_BASE.sieEp[ep].epCr0 = USBUART_MODE_NAK_OUT;
 170              		.loc 1 468 0
 171 003c 1001     		lsls	r0, r2, #4
 172 003e 174B     		ldr	r3, .L15+8
 173 0040 0344     		add	r3, r3, r0
 174 0042 0820     		movs	r0, #8
 175 0044 9870     		strb	r0, [r3, #2]
 176 0046 04E0     		b	.L12
 177              	.L10:
 469:.\Generated_Source\PSoC5/USBUART_std.c **** 
 470:.\Generated_Source\PSoC5/USBUART_std.c ****             #if (USBUART_EP_MANAGEMENT_DMA_AUTO)
 471:.\Generated_Source\PSoC5/USBUART_std.c ****                 /* (CY_PSOC4): DMA_TERMIN for OUT endpoint is set above. */
 472:.\Generated_Source\PSoC5/USBUART_std.c ****                 
 473:.\Generated_Source\PSoC5/USBUART_std.c ****                 /* Prepare endpoint type mask. */
 474:.\Generated_Source\PSoC5/USBUART_std.c ****                 epType |= (uint8) (0x01u << (ep - USBUART_EP1));
 475:.\Generated_Source\PSoC5/USBUART_std.c ****             #endif /* (USBUART_EP_MANAGEMENT_DMA_AUTO) */
 476:.\Generated_Source\PSoC5/USBUART_std.c ****             }
 477:.\Generated_Source\PSoC5/USBUART_std.c ****         }
 478:.\Generated_Source\PSoC5/USBUART_std.c ****         else
 479:.\Generated_Source\PSoC5/USBUART_std.c ****         {
 480:.\Generated_Source\PSoC5/USBUART_std.c ****             USBUART_SIE_EP_BASE.sieEp[ep].epCr0 = USBUART_MODE_STALL_DATA_EP;
 178              		.loc 1 480 0
 179 0048 1001     		lsls	r0, r2, #4
 180 004a 144B     		ldr	r3, .L15+8
 181 004c 0344     		add	r3, r3, r0
 182 004e 8020     		movs	r0, #128
 183 0050 9870     		strb	r0, [r3, #2]
 184              	.L12:
 481:.\Generated_Source\PSoC5/USBUART_std.c ****         }
 482:.\Generated_Source\PSoC5/USBUART_std.c ****         
 483:.\Generated_Source\PSoC5/USBUART_std.c ****     #if (!USBUART_EP_MANAGEMENT_DMA_AUTO)
 484:.\Generated_Source\PSoC5/USBUART_std.c ****         #if (CY_PSOC4)
 485:.\Generated_Source\PSoC5/USBUART_std.c ****             USBUART_ARB_EP16_BASE.arbEp[ep].rwRa16  = (uint32) USBUART_EP[ep].buffOffset;
 486:.\Generated_Source\PSoC5/USBUART_std.c ****             USBUART_ARB_EP16_BASE.arbEp[ep].rwWa16  = (uint32) USBUART_EP[ep].buffOffset;
 487:.\Generated_Source\PSoC5/USBUART_std.c ****         #else
 488:.\Generated_Source\PSoC5/USBUART_std.c ****             USBUART_ARB_EP_BASE.arbEp[ep].rwRa    = LO8(USBUART_EP[ep].buffOffset);
 185              		.loc 1 488 0 discriminator 2
 186 0052 4B00     		lsls	r3, r1, #1
 187 0054 0B44     		add	r3, r3, r1
 188 0056 9B00     		lsls	r3, r3, #2
 189 0058 0F48     		ldr	r0, .L15+4
 190 005a 0344     		add	r3, r3, r0
 191 005c DC88     		ldrh	r4, [r3, #6]
 192 005e E4B2     		uxtb	r4, r4
 193 0060 0801     		lsls	r0, r1, #4
ARM GAS  C:\Users\student\AppData\Local\Temp\ccpvKyYb.s 			page 13


 194 0062 0C49     		ldr	r1, .L15
 195 0064 0144     		add	r1, r1, r0
 196 0066 8C71     		strb	r4, [r1, #6]
 489:.\Generated_Source\PSoC5/USBUART_std.c ****             USBUART_ARB_EP_BASE.arbEp[ep].rwRaMsb = HI8(USBUART_EP[ep].buffOffset);
 197              		.loc 1 489 0 discriminator 2
 198 0068 D888     		ldrh	r0, [r3, #6]
 199 006a C0F30720 		ubfx	r0, r0, #8, #8
 200 006e C871     		strb	r0, [r1, #7]
 490:.\Generated_Source\PSoC5/USBUART_std.c ****             USBUART_ARB_EP_BASE.arbEp[ep].rwWa    = LO8(USBUART_EP[ep].buffOffset);
 201              		.loc 1 490 0 discriminator 2
 202 0070 D888     		ldrh	r0, [r3, #6]
 203 0072 C0B2     		uxtb	r0, r0
 204 0074 0871     		strb	r0, [r1, #4]
 491:.\Generated_Source\PSoC5/USBUART_std.c ****             USBUART_ARB_EP_BASE.arbEp[ep].rwWaMsb = HI8(USBUART_EP[ep].buffOffset);
 205              		.loc 1 491 0 discriminator 2
 206 0076 DB88     		ldrh	r3, [r3, #6]
 207 0078 C3F30723 		ubfx	r3, r3, #8, #8
 208 007c 4B71     		strb	r3, [r1, #5]
 446:.\Generated_Source\PSoC5/USBUART_std.c ****     {
 209              		.loc 1 446 0 discriminator 2
 210 007e 0132     		adds	r2, r2, #1
 211              	.LVL13:
 212 0080 D2B2     		uxtb	r2, r2
 213              	.LVL14:
 214              	.L9:
 446:.\Generated_Source\PSoC5/USBUART_std.c ****     {
 215              		.loc 1 446 0 is_stmt 0 discriminator 1
 216 0082 082A     		cmp	r2, #8
 217 0084 BFD9     		bls	.L13
 492:.\Generated_Source\PSoC5/USBUART_std.c ****         #endif /* (CY_PSOC4) */
 493:.\Generated_Source\PSoC5/USBUART_std.c ****     #endif /* (!USBUART_EP_MANAGEMENT_DMA_AUTO) */
 494:.\Generated_Source\PSoC5/USBUART_std.c ****     }
 495:.\Generated_Source\PSoC5/USBUART_std.c **** 
 496:.\Generated_Source\PSoC5/USBUART_std.c **** #if (USBUART_EP_MANAGEMENT_DMA_AUTO)
 497:.\Generated_Source\PSoC5/USBUART_std.c ****      /* BUF_SIZE depend on DMA_THRESS value:0x55-32 bytes  0x44-16 bytes 0x33-8 bytes 0x22-4 bytes 
 498:.\Generated_Source\PSoC5/USBUART_std.c ****     USBUART_BUF_SIZE_REG = USBUART_DMA_BUF_SIZE;
 499:.\Generated_Source\PSoC5/USBUART_std.c **** 
 500:.\Generated_Source\PSoC5/USBUART_std.c ****     /* Configure DMA burst threshold */
 501:.\Generated_Source\PSoC5/USBUART_std.c **** #if (CY_PSOC4)
 502:.\Generated_Source\PSoC5/USBUART_std.c ****     USBUART_DMA_THRES16_REG   = USBUART_DMA_BYTES_PER_BURST;
 503:.\Generated_Source\PSoC5/USBUART_std.c **** #else
 504:.\Generated_Source\PSoC5/USBUART_std.c ****     USBUART_DMA_THRES_REG     = USBUART_DMA_BYTES_PER_BURST;
 505:.\Generated_Source\PSoC5/USBUART_std.c ****     USBUART_DMA_THRES_MSB_REG = 0u;
 506:.\Generated_Source\PSoC5/USBUART_std.c **** #endif /* (CY_PSOC4) */
 507:.\Generated_Source\PSoC5/USBUART_std.c ****     USBUART_EP_ACTIVE_REG = USBUART_DEFAULT_ARB_INT_EN;
 508:.\Generated_Source\PSoC5/USBUART_std.c ****     USBUART_EP_TYPE_REG   = epType;
 509:.\Generated_Source\PSoC5/USBUART_std.c ****     
 510:.\Generated_Source\PSoC5/USBUART_std.c ****     /* Cfg_cmp bit set to 1 once configuration is complete. */
 511:.\Generated_Source\PSoC5/USBUART_std.c ****     /* Lock arbiter configtuation */
 512:.\Generated_Source\PSoC5/USBUART_std.c ****     USBUART_ARB_CFG_REG |= (uint8)  USBUART_ARB_CFG_CFG_CMP;
 513:.\Generated_Source\PSoC5/USBUART_std.c ****     /* Cfg_cmp bit set to 0 during configuration of PFSUSB Registers. */
 514:.\Generated_Source\PSoC5/USBUART_std.c ****     USBUART_ARB_CFG_REG &= (uint8) ~USBUART_ARB_CFG_CFG_CMP;
 515:.\Generated_Source\PSoC5/USBUART_std.c **** 
 516:.\Generated_Source\PSoC5/USBUART_std.c **** #endif /* (USBUART_EP_MANAGEMENT_DMA_AUTO) */
 517:.\Generated_Source\PSoC5/USBUART_std.c **** 
 518:.\Generated_Source\PSoC5/USBUART_std.c ****     /* Enable interrupt SIE interurpt source from EP0-EP1 */
 519:.\Generated_Source\PSoC5/USBUART_std.c ****     USBUART_SIE_EP_INT_EN_REG = (uint8) USBUART_DEFAULT_SIE_EP_INT_EN;
ARM GAS  C:\Users\student\AppData\Local\Temp\ccpvKyYb.s 			page 14


 218              		.loc 1 519 0 is_stmt 1
 219 0086 FF22     		movs	r2, #255
 220              	.LVL15:
 221 0088 054B     		ldr	r3, .L15+12
 222 008a 1A70     		strb	r2, [r3]
 520:.\Generated_Source\PSoC5/USBUART_std.c **** }
 223              		.loc 1 520 0
 224 008c 5DF8044B 		ldr	r4, [sp], #4
 225              		.cfi_restore 4
 226              		.cfi_def_cfa_offset 0
 227 0090 7047     		bx	lr
 228              	.L16:
 229 0092 00BF     		.align	2
 230              	.L15:
 231 0094 70600040 		.word	1073766512
 232 0098 00000000 		.word	USBUART_EP
 233 009c FC5F0040 		.word	1073766396
 234 00a0 0A600040 		.word	1073766410
 235              		.cfi_endproc
 236              	.LFE2:
 237              		.size	USBUART_ConfigReg, .-USBUART_ConfigReg
 238              		.section	.text.USBUART_EpStateInit,"ax",%progbits
 239              		.align	2
 240              		.global	USBUART_EpStateInit
 241              		.thumb
 242              		.thumb_func
 243              		.type	USBUART_EpStateInit, %function
 244              	USBUART_EpStateInit:
 245              	.LFB3:
 521:.\Generated_Source\PSoC5/USBUART_std.c **** 
 522:.\Generated_Source\PSoC5/USBUART_std.c **** 
 523:.\Generated_Source\PSoC5/USBUART_std.c **** /*******************************************************************************
 524:.\Generated_Source\PSoC5/USBUART_std.c **** * Function Name: USBUART_EpStateInit
 525:.\Generated_Source\PSoC5/USBUART_std.c **** ****************************************************************************//**
 526:.\Generated_Source\PSoC5/USBUART_std.c **** *
 527:.\Generated_Source\PSoC5/USBUART_std.c **** *  This routine initialize state of Data end points based of its type: 
 528:.\Generated_Source\PSoC5/USBUART_std.c **** *   IN  - USBUART_IN_BUFFER_EMPTY (USBUART_EVENT_PENDING)
 529:.\Generated_Source\PSoC5/USBUART_std.c **** *   OUT - USBUART_OUT_BUFFER_EMPTY (USBUART_NO_EVENT_PENDING)
 530:.\Generated_Source\PSoC5/USBUART_std.c **** *
 531:.\Generated_Source\PSoC5/USBUART_std.c **** *******************************************************************************/
 532:.\Generated_Source\PSoC5/USBUART_std.c **** void USBUART_EpStateInit(void) 
 533:.\Generated_Source\PSoC5/USBUART_std.c **** {
 246              		.loc 1 533 0
 247              		.cfi_startproc
 248              		@ args = 0, pretend = 0, frame = 0
 249              		@ frame_needed = 0, uses_anonymous_args = 0
 250              		@ link register save eliminated.
 251              	.LVL16:
 534:.\Generated_Source\PSoC5/USBUART_std.c ****     uint8 i;
 535:.\Generated_Source\PSoC5/USBUART_std.c **** 
 536:.\Generated_Source\PSoC5/USBUART_std.c ****     for (i = USBUART_EP1; i < USBUART_MAX_EP; i++)
 252              		.loc 1 536 0
 253 0000 0123     		movs	r3, #1
 254 0002 18E0     		b	.L18
 255              	.LVL17:
 256              	.L21:
 537:.\Generated_Source\PSoC5/USBUART_std.c ****     { 
ARM GAS  C:\Users\student\AppData\Local\Temp\ccpvKyYb.s 			page 15


 538:.\Generated_Source\PSoC5/USBUART_std.c ****         if (0u != (USBUART_EP[i].addr & USBUART_DIR_IN))
 257              		.loc 1 538 0
 258 0004 03EB4302 		add	r2, r3, r3, lsl #1
 259 0008 9200     		lsls	r2, r2, #2
 260 000a 0C49     		ldr	r1, .L22
 261 000c 0A44     		add	r2, r2, r1
 262 000e 1279     		ldrb	r2, [r2, #4]	@ zero_extendqisi2
 263 0010 12F0800F 		tst	r2, #128
 264 0014 06D0     		beq	.L19
 539:.\Generated_Source\PSoC5/USBUART_std.c ****         {
 540:.\Generated_Source\PSoC5/USBUART_std.c ****             /* IN Endpoint */
 541:.\Generated_Source\PSoC5/USBUART_std.c ****             USBUART_EP[i].apiEpState = USBUART_EVENT_PENDING;
 265              		.loc 1 541 0
 266 0016 03EB4302 		add	r2, r3, r3, lsl #1
 267 001a 9200     		lsls	r2, r2, #2
 268 001c 0A44     		add	r2, r2, r1
 269 001e 0121     		movs	r1, #1
 270 0020 5170     		strb	r1, [r2, #1]
 271 0022 06E0     		b	.L20
 272              	.L19:
 542:.\Generated_Source\PSoC5/USBUART_std.c ****         }
 543:.\Generated_Source\PSoC5/USBUART_std.c ****         else
 544:.\Generated_Source\PSoC5/USBUART_std.c ****         {
 545:.\Generated_Source\PSoC5/USBUART_std.c ****             /* OUT Endpoint */
 546:.\Generated_Source\PSoC5/USBUART_std.c ****             USBUART_EP[i].apiEpState = USBUART_NO_EVENT_PENDING;
 273              		.loc 1 546 0
 274 0024 03EB4302 		add	r2, r3, r3, lsl #1
 275 0028 9200     		lsls	r2, r2, #2
 276 002a 0449     		ldr	r1, .L22
 277 002c 0A44     		add	r2, r2, r1
 278 002e 0021     		movs	r1, #0
 279 0030 5170     		strb	r1, [r2, #1]
 280              	.L20:
 536:.\Generated_Source\PSoC5/USBUART_std.c ****     { 
 281              		.loc 1 536 0 discriminator 2
 282 0032 0133     		adds	r3, r3, #1
 283              	.LVL18:
 284 0034 DBB2     		uxtb	r3, r3
 285              	.LVL19:
 286              	.L18:
 536:.\Generated_Source\PSoC5/USBUART_std.c ****     { 
 287              		.loc 1 536 0 is_stmt 0 discriminator 1
 288 0036 082B     		cmp	r3, #8
 289 0038 E4D9     		bls	.L21
 547:.\Generated_Source\PSoC5/USBUART_std.c ****         }
 548:.\Generated_Source\PSoC5/USBUART_std.c ****     }
 549:.\Generated_Source\PSoC5/USBUART_std.c ****                     
 550:.\Generated_Source\PSoC5/USBUART_std.c **** }
 290              		.loc 1 550 0 is_stmt 1
 291 003a 7047     		bx	lr
 292              	.L23:
 293              		.align	2
 294              	.L22:
 295 003c 00000000 		.word	USBUART_EP
 296              		.cfi_endproc
 297              	.LFE3:
 298              		.size	USBUART_EpStateInit, .-USBUART_EpStateInit
ARM GAS  C:\Users\student\AppData\Local\Temp\ccpvKyYb.s 			page 16


 299              		.section	.text.USBUART_GetConfigTablePtr,"ax",%progbits
 300              		.align	2
 301              		.global	USBUART_GetConfigTablePtr
 302              		.thumb
 303              		.thumb_func
 304              		.type	USBUART_GetConfigTablePtr, %function
 305              	USBUART_GetConfigTablePtr:
 306              	.LFB6:
 551:.\Generated_Source\PSoC5/USBUART_std.c **** 
 552:.\Generated_Source\PSoC5/USBUART_std.c **** 
 553:.\Generated_Source\PSoC5/USBUART_std.c **** /*******************************************************************************
 554:.\Generated_Source\PSoC5/USBUART_std.c **** * Function Name: USBUART_Config
 555:.\Generated_Source\PSoC5/USBUART_std.c **** ****************************************************************************//**
 556:.\Generated_Source\PSoC5/USBUART_std.c **** *
 557:.\Generated_Source\PSoC5/USBUART_std.c **** *  This routine configures endpoints for the entire configuration by scanning
 558:.\Generated_Source\PSoC5/USBUART_std.c **** *  the configuration descriptor.
 559:.\Generated_Source\PSoC5/USBUART_std.c **** *
 560:.\Generated_Source\PSoC5/USBUART_std.c **** *  \param clearAltSetting: It configures the bAlternateSetting 0 for each interface.
 561:.\Generated_Source\PSoC5/USBUART_std.c **** *
 562:.\Generated_Source\PSoC5/USBUART_std.c **** * USBUART_interfaceClass - Initialized class array for each interface.
 563:.\Generated_Source\PSoC5/USBUART_std.c **** *   It is used for handling Class specific requests depend on interface class.
 564:.\Generated_Source\PSoC5/USBUART_std.c **** *   Different classes in multiple Alternate settings does not supported.
 565:.\Generated_Source\PSoC5/USBUART_std.c **** *
 566:.\Generated_Source\PSoC5/USBUART_std.c **** * \reentrant
 567:.\Generated_Source\PSoC5/USBUART_std.c **** *  No.
 568:.\Generated_Source\PSoC5/USBUART_std.c **** *
 569:.\Generated_Source\PSoC5/USBUART_std.c **** *******************************************************************************/
 570:.\Generated_Source\PSoC5/USBUART_std.c **** void USBUART_Config(uint8 clearAltSetting) 
 571:.\Generated_Source\PSoC5/USBUART_std.c **** {
 572:.\Generated_Source\PSoC5/USBUART_std.c ****     uint8 ep;
 573:.\Generated_Source\PSoC5/USBUART_std.c ****     uint8 curEp;
 574:.\Generated_Source\PSoC5/USBUART_std.c ****     uint8 i;
 575:.\Generated_Source\PSoC5/USBUART_std.c ****     uint8 epType;
 576:.\Generated_Source\PSoC5/USBUART_std.c ****     const uint8 *pDescr;
 577:.\Generated_Source\PSoC5/USBUART_std.c ****     
 578:.\Generated_Source\PSoC5/USBUART_std.c ****     #if (!USBUART_EP_MANAGEMENT_DMA_AUTO)
 579:.\Generated_Source\PSoC5/USBUART_std.c ****         uint16 buffCount = 0u;
 580:.\Generated_Source\PSoC5/USBUART_std.c ****     #endif /* (!USBUART_EP_MANAGEMENT_DMA_AUTO) */
 581:.\Generated_Source\PSoC5/USBUART_std.c **** 
 582:.\Generated_Source\PSoC5/USBUART_std.c ****     const T_USBUART_LUT CYCODE *pTmp;
 583:.\Generated_Source\PSoC5/USBUART_std.c ****     const T_USBUART_EP_SETTINGS_BLOCK CYCODE *pEP;
 584:.\Generated_Source\PSoC5/USBUART_std.c **** 
 585:.\Generated_Source\PSoC5/USBUART_std.c ****     /* Clear endpoints settings */
 586:.\Generated_Source\PSoC5/USBUART_std.c ****     for (ep = 0u; ep < USBUART_MAX_EP; ++ep)
 587:.\Generated_Source\PSoC5/USBUART_std.c ****     {
 588:.\Generated_Source\PSoC5/USBUART_std.c ****         USBUART_EP[ep].attrib     = 0u;
 589:.\Generated_Source\PSoC5/USBUART_std.c ****         USBUART_EP[ep].hwEpState  = 0u;
 590:.\Generated_Source\PSoC5/USBUART_std.c ****         USBUART_EP[ep].epToggle   = 0u;
 591:.\Generated_Source\PSoC5/USBUART_std.c ****         USBUART_EP[ep].bufferSize = 0u;
 592:.\Generated_Source\PSoC5/USBUART_std.c ****         USBUART_EP[ep].interface  = 0u;
 593:.\Generated_Source\PSoC5/USBUART_std.c ****         USBUART_EP[ep].apiEpState = USBUART_NO_EVENT_PENDING;
 594:.\Generated_Source\PSoC5/USBUART_std.c ****         USBUART_EP[ep].epMode     = USBUART_MODE_DISABLE;   
 595:.\Generated_Source\PSoC5/USBUART_std.c ****     }
 596:.\Generated_Source\PSoC5/USBUART_std.c **** 
 597:.\Generated_Source\PSoC5/USBUART_std.c ****     /* Clear Alternate settings for all interfaces. */
 598:.\Generated_Source\PSoC5/USBUART_std.c ****     if (0u != clearAltSetting)
 599:.\Generated_Source\PSoC5/USBUART_std.c ****     {
ARM GAS  C:\Users\student\AppData\Local\Temp\ccpvKyYb.s 			page 17


 600:.\Generated_Source\PSoC5/USBUART_std.c ****         for (i = 0u; i < USBUART_MAX_INTERFACES_NUMBER; ++i)
 601:.\Generated_Source\PSoC5/USBUART_std.c ****         {
 602:.\Generated_Source\PSoC5/USBUART_std.c ****             USBUART_interfaceSetting[i]     = 0u;
 603:.\Generated_Source\PSoC5/USBUART_std.c ****             USBUART_interfaceSettingLast[i] = 0u;
 604:.\Generated_Source\PSoC5/USBUART_std.c ****         }
 605:.\Generated_Source\PSoC5/USBUART_std.c ****     }
 606:.\Generated_Source\PSoC5/USBUART_std.c **** 
 607:.\Generated_Source\PSoC5/USBUART_std.c ****     /* Init Endpoints and Device Status if configured */
 608:.\Generated_Source\PSoC5/USBUART_std.c ****     if (USBUART_configuration > 0u)
 609:.\Generated_Source\PSoC5/USBUART_std.c ****     {
 610:.\Generated_Source\PSoC5/USBUART_std.c ****         #if defined(USBUART_ENABLE_CDC_CLASS)
 611:.\Generated_Source\PSoC5/USBUART_std.c ****             uint8 cdcComNums = 0u;
 612:.\Generated_Source\PSoC5/USBUART_std.c ****         #endif  /* (USBUART_ENABLE_CDC_CLASS) */  
 613:.\Generated_Source\PSoC5/USBUART_std.c **** 
 614:.\Generated_Source\PSoC5/USBUART_std.c ****         pTmp = USBUART_GetConfigTablePtr(USBUART_configuration - 1u);
 615:.\Generated_Source\PSoC5/USBUART_std.c ****         
 616:.\Generated_Source\PSoC5/USBUART_std.c ****         /* Set Power status for current configuration */
 617:.\Generated_Source\PSoC5/USBUART_std.c ****         pDescr = (const uint8 *)pTmp->p_list;
 618:.\Generated_Source\PSoC5/USBUART_std.c ****         if ((pDescr[USBUART_CONFIG_DESCR_ATTRIB] & USBUART_CONFIG_DESCR_ATTRIB_SELF_POWERED) != 0u)
 619:.\Generated_Source\PSoC5/USBUART_std.c ****         {
 620:.\Generated_Source\PSoC5/USBUART_std.c ****             USBUART_deviceStatus |= (uint8)  USBUART_DEVICE_STATUS_SELF_POWERED;
 621:.\Generated_Source\PSoC5/USBUART_std.c ****         }
 622:.\Generated_Source\PSoC5/USBUART_std.c ****         else
 623:.\Generated_Source\PSoC5/USBUART_std.c ****         {
 624:.\Generated_Source\PSoC5/USBUART_std.c ****             USBUART_deviceStatus &= (uint8) ~USBUART_DEVICE_STATUS_SELF_POWERED;
 625:.\Generated_Source\PSoC5/USBUART_std.c ****         }
 626:.\Generated_Source\PSoC5/USBUART_std.c ****         
 627:.\Generated_Source\PSoC5/USBUART_std.c ****         /* Move to next element */
 628:.\Generated_Source\PSoC5/USBUART_std.c ****         pTmp = &pTmp[1u];
 629:.\Generated_Source\PSoC5/USBUART_std.c ****         ep = pTmp->c;  /* For this table, c is the number of endpoints configurations  */
 630:.\Generated_Source\PSoC5/USBUART_std.c **** 
 631:.\Generated_Source\PSoC5/USBUART_std.c ****         #if (USBUART_EP_MANAGEMENT_MANUAL && USBUART_EP_ALLOC_DYNAMIC)
 632:.\Generated_Source\PSoC5/USBUART_std.c ****             /* Configure for dynamic EP memory allocation */
 633:.\Generated_Source\PSoC5/USBUART_std.c ****             /* p_list points the endpoint setting table. */
 634:.\Generated_Source\PSoC5/USBUART_std.c ****             pEP = (T_USBUART_EP_SETTINGS_BLOCK *) pTmp->p_list;
 635:.\Generated_Source\PSoC5/USBUART_std.c ****             
 636:.\Generated_Source\PSoC5/USBUART_std.c ****             for (i = 0u; i < ep; i++)
 637:.\Generated_Source\PSoC5/USBUART_std.c ****             {     
 638:.\Generated_Source\PSoC5/USBUART_std.c ****                 /* Compare current Alternate setting with EP Alt */
 639:.\Generated_Source\PSoC5/USBUART_std.c ****                 if (USBUART_interfaceSetting[pEP->interface] == pEP->altSetting)
 640:.\Generated_Source\PSoC5/USBUART_std.c ****                 {                                                          
 641:.\Generated_Source\PSoC5/USBUART_std.c ****                     curEp  = pEP->addr & USBUART_DIR_UNUSED;
 642:.\Generated_Source\PSoC5/USBUART_std.c ****                     epType = pEP->attributes & USBUART_EP_TYPE_MASK;
 643:.\Generated_Source\PSoC5/USBUART_std.c ****                     
 644:.\Generated_Source\PSoC5/USBUART_std.c ****                     USBUART_EP[curEp].addr       = pEP->addr;
 645:.\Generated_Source\PSoC5/USBUART_std.c ****                     USBUART_EP[curEp].attrib     = pEP->attributes;
 646:.\Generated_Source\PSoC5/USBUART_std.c ****                     USBUART_EP[curEp].bufferSize = pEP->bufferSize;
 647:.\Generated_Source\PSoC5/USBUART_std.c **** 
 648:.\Generated_Source\PSoC5/USBUART_std.c ****                     if (0u != (pEP->addr & USBUART_DIR_IN))
 649:.\Generated_Source\PSoC5/USBUART_std.c ****                     {
 650:.\Generated_Source\PSoC5/USBUART_std.c ****                         /* IN Endpoint */
 651:.\Generated_Source\PSoC5/USBUART_std.c ****                         USBUART_EP[curEp].epMode     = USBUART_GET_ACTIVE_IN_EP_CR0_MODE(epType);
 652:.\Generated_Source\PSoC5/USBUART_std.c ****                         USBUART_EP[curEp].apiEpState = USBUART_EVENT_PENDING;
 653:.\Generated_Source\PSoC5/USBUART_std.c ****                     
 654:.\Generated_Source\PSoC5/USBUART_std.c ****                     #if (defined(USBUART_ENABLE_MIDI_STREAMING) && (USBUART_MIDI_IN_BUFF_SIZE > 0))
 655:.\Generated_Source\PSoC5/USBUART_std.c ****                         if ((pEP->bMisc == USBUART_CLASS_AUDIO) && (epType == USBUART_EP_TYPE_BULK)
 656:.\Generated_Source\PSoC5/USBUART_std.c ****                         {
ARM GAS  C:\Users\student\AppData\Local\Temp\ccpvKyYb.s 			page 18


 657:.\Generated_Source\PSoC5/USBUART_std.c ****                             USBUART_midi_in_ep = curEp;
 658:.\Generated_Source\PSoC5/USBUART_std.c ****                         }
 659:.\Generated_Source\PSoC5/USBUART_std.c ****                     #endif  /* (USBUART_ENABLE_MIDI_STREAMING) */
 660:.\Generated_Source\PSoC5/USBUART_std.c ****                     }
 661:.\Generated_Source\PSoC5/USBUART_std.c ****                     else
 662:.\Generated_Source\PSoC5/USBUART_std.c ****                     {
 663:.\Generated_Source\PSoC5/USBUART_std.c ****                         /* OUT Endpoint */
 664:.\Generated_Source\PSoC5/USBUART_std.c ****                         USBUART_EP[curEp].epMode     = USBUART_GET_ACTIVE_OUT_EP_CR0_MODE(epType);
 665:.\Generated_Source\PSoC5/USBUART_std.c ****                         USBUART_EP[curEp].apiEpState = USBUART_NO_EVENT_PENDING;
 666:.\Generated_Source\PSoC5/USBUART_std.c ****                         
 667:.\Generated_Source\PSoC5/USBUART_std.c ****                     #if (defined(USBUART_ENABLE_MIDI_STREAMING) && (USBUART_MIDI_OUT_BUFF_SIZE > 0)
 668:.\Generated_Source\PSoC5/USBUART_std.c ****                         if ((pEP->bMisc == USBUART_CLASS_AUDIO) && (epType == USBUART_EP_TYPE_BULK)
 669:.\Generated_Source\PSoC5/USBUART_std.c ****                         {
 670:.\Generated_Source\PSoC5/USBUART_std.c ****                             USBUART_midi_out_ep = curEp;
 671:.\Generated_Source\PSoC5/USBUART_std.c ****                         }
 672:.\Generated_Source\PSoC5/USBUART_std.c ****                     #endif  /* (USBUART_ENABLE_MIDI_STREAMING) */
 673:.\Generated_Source\PSoC5/USBUART_std.c ****                     }
 674:.\Generated_Source\PSoC5/USBUART_std.c **** 
 675:.\Generated_Source\PSoC5/USBUART_std.c ****                 #if(defined (USBUART_ENABLE_CDC_CLASS))
 676:.\Generated_Source\PSoC5/USBUART_std.c ****                     if((pEP->bMisc == USBUART_CLASS_CDC_DATA) ||(pEP->bMisc == USBUART_CLASS_CDC))
 677:.\Generated_Source\PSoC5/USBUART_std.c ****                     {
 678:.\Generated_Source\PSoC5/USBUART_std.c ****                         cdcComNums = USBUART_Cdc_EpInit(pEP, curEp, cdcComNums);
 679:.\Generated_Source\PSoC5/USBUART_std.c ****                     }
 680:.\Generated_Source\PSoC5/USBUART_std.c ****                 #endif  /* (USBUART_ENABLE_CDC_CLASS) */
 681:.\Generated_Source\PSoC5/USBUART_std.c ****                 }
 682:.\Generated_Source\PSoC5/USBUART_std.c ****                 
 683:.\Generated_Source\PSoC5/USBUART_std.c ****                 pEP = &pEP[1u];
 684:.\Generated_Source\PSoC5/USBUART_std.c ****             }
 685:.\Generated_Source\PSoC5/USBUART_std.c ****             
 686:.\Generated_Source\PSoC5/USBUART_std.c ****         #else
 687:.\Generated_Source\PSoC5/USBUART_std.c ****             for (i = USBUART_EP1; i < USBUART_MAX_EP; ++i)
 688:.\Generated_Source\PSoC5/USBUART_std.c ****             {
 689:.\Generated_Source\PSoC5/USBUART_std.c ****                 /* p_list points the endpoint setting table. */
 690:.\Generated_Source\PSoC5/USBUART_std.c ****                 pEP = (const T_USBUART_EP_SETTINGS_BLOCK CYCODE *) pTmp->p_list;
 691:.\Generated_Source\PSoC5/USBUART_std.c ****                 /* Find max length for each EP and select it (length could be different in differen
 692:.\Generated_Source\PSoC5/USBUART_std.c ****                 /* but other settings should be correct with regards to Interface alt Setting */
 693:.\Generated_Source\PSoC5/USBUART_std.c ****                 
 694:.\Generated_Source\PSoC5/USBUART_std.c ****                 for (curEp = 0u; curEp < ep; ++curEp)
 695:.\Generated_Source\PSoC5/USBUART_std.c ****                 {
 696:.\Generated_Source\PSoC5/USBUART_std.c ****                     if (i == (pEP->addr & USBUART_DIR_UNUSED))
 697:.\Generated_Source\PSoC5/USBUART_std.c ****                     {
 698:.\Generated_Source\PSoC5/USBUART_std.c ****                         /* Compare endpoint buffers size with current size to find greater. */
 699:.\Generated_Source\PSoC5/USBUART_std.c ****                         if (USBUART_EP[i].bufferSize < pEP->bufferSize)
 700:.\Generated_Source\PSoC5/USBUART_std.c ****                         {
 701:.\Generated_Source\PSoC5/USBUART_std.c ****                             USBUART_EP[i].bufferSize = pEP->bufferSize;
 702:.\Generated_Source\PSoC5/USBUART_std.c ****                         }
 703:.\Generated_Source\PSoC5/USBUART_std.c ****                         
 704:.\Generated_Source\PSoC5/USBUART_std.c ****                         /* Compare current Alternate setting with EP Alt */
 705:.\Generated_Source\PSoC5/USBUART_std.c ****                         if (USBUART_interfaceSetting[pEP->interface] == pEP->altSetting)
 706:.\Generated_Source\PSoC5/USBUART_std.c ****                         {                            
 707:.\Generated_Source\PSoC5/USBUART_std.c ****                             USBUART_EP[i].addr = pEP->addr;
 708:.\Generated_Source\PSoC5/USBUART_std.c ****                             USBUART_EP[i].attrib = pEP->attributes;
 709:.\Generated_Source\PSoC5/USBUART_std.c ****                             
 710:.\Generated_Source\PSoC5/USBUART_std.c ****                             epType = pEP->attributes & USBUART_EP_TYPE_MASK;
 711:.\Generated_Source\PSoC5/USBUART_std.c ****                             
 712:.\Generated_Source\PSoC5/USBUART_std.c ****                             if (0u != (pEP->addr & USBUART_DIR_IN))
 713:.\Generated_Source\PSoC5/USBUART_std.c ****                             {
ARM GAS  C:\Users\student\AppData\Local\Temp\ccpvKyYb.s 			page 19


 714:.\Generated_Source\PSoC5/USBUART_std.c ****                                 /* IN Endpoint */
 715:.\Generated_Source\PSoC5/USBUART_std.c ****                                 USBUART_EP[i].epMode     = USBUART_GET_ACTIVE_IN_EP_CR0_MODE(epType
 716:.\Generated_Source\PSoC5/USBUART_std.c ****                                 USBUART_EP[i].apiEpState = USBUART_EVENT_PENDING;
 717:.\Generated_Source\PSoC5/USBUART_std.c ****                                 
 718:.\Generated_Source\PSoC5/USBUART_std.c ****                             #if (defined(USBUART_ENABLE_MIDI_STREAMING) && (USBUART_MIDI_IN_BUFF_SI
 719:.\Generated_Source\PSoC5/USBUART_std.c ****                                 if ((pEP->bMisc == USBUART_CLASS_AUDIO) && (epType == USBUART_EP_TY
 720:.\Generated_Source\PSoC5/USBUART_std.c ****                                 {
 721:.\Generated_Source\PSoC5/USBUART_std.c ****                                     USBUART_midi_in_ep = i;
 722:.\Generated_Source\PSoC5/USBUART_std.c ****                                 }
 723:.\Generated_Source\PSoC5/USBUART_std.c ****                             #endif  /* (USBUART_ENABLE_MIDI_STREAMING) */
 724:.\Generated_Source\PSoC5/USBUART_std.c ****                             }
 725:.\Generated_Source\PSoC5/USBUART_std.c ****                             else
 726:.\Generated_Source\PSoC5/USBUART_std.c ****                             {
 727:.\Generated_Source\PSoC5/USBUART_std.c ****                                 /* OUT Endpoint */
 728:.\Generated_Source\PSoC5/USBUART_std.c ****                                 USBUART_EP[i].epMode     = USBUART_GET_ACTIVE_OUT_EP_CR0_MODE(epTyp
 729:.\Generated_Source\PSoC5/USBUART_std.c ****                                 USBUART_EP[i].apiEpState = USBUART_NO_EVENT_PENDING;
 730:.\Generated_Source\PSoC5/USBUART_std.c ****                                 
 731:.\Generated_Source\PSoC5/USBUART_std.c ****                             #if (defined(USBUART_ENABLE_MIDI_STREAMING) && (USBUART_MIDI_OUT_BUFF_S
 732:.\Generated_Source\PSoC5/USBUART_std.c ****                                 if ((pEP->bMisc == USBUART_CLASS_AUDIO) && (epType == USBUART_EP_TY
 733:.\Generated_Source\PSoC5/USBUART_std.c ****                                 {
 734:.\Generated_Source\PSoC5/USBUART_std.c ****                                     USBUART_midi_out_ep = i;
 735:.\Generated_Source\PSoC5/USBUART_std.c ****                                 }
 736:.\Generated_Source\PSoC5/USBUART_std.c ****                             #endif  /* (USBUART_ENABLE_MIDI_STREAMING) */
 737:.\Generated_Source\PSoC5/USBUART_std.c ****                             }
 738:.\Generated_Source\PSoC5/USBUART_std.c **** 
 739:.\Generated_Source\PSoC5/USBUART_std.c ****                         #if (defined(USBUART_ENABLE_CDC_CLASS))
 740:.\Generated_Source\PSoC5/USBUART_std.c ****                             if((pEP->bMisc == USBUART_CLASS_CDC_DATA) ||(pEP->bMisc == USBUART_CLAS
 741:.\Generated_Source\PSoC5/USBUART_std.c ****                             {
 742:.\Generated_Source\PSoC5/USBUART_std.c ****                                 cdcComNums = USBUART_Cdc_EpInit(pEP, i, cdcComNums);
 743:.\Generated_Source\PSoC5/USBUART_std.c ****                             }
 744:.\Generated_Source\PSoC5/USBUART_std.c ****                         #endif  /* (USBUART_ENABLE_CDC_CLASS) */
 745:.\Generated_Source\PSoC5/USBUART_std.c **** 
 746:.\Generated_Source\PSoC5/USBUART_std.c ****                             #if (USBUART_EP_MANAGEMENT_DMA_AUTO)
 747:.\Generated_Source\PSoC5/USBUART_std.c ****                                 break;  /* Use first EP setting in Auto memory management */
 748:.\Generated_Source\PSoC5/USBUART_std.c ****                             #endif /* (USBUART_EP_MANAGEMENT_DMA_AUTO) */
 749:.\Generated_Source\PSoC5/USBUART_std.c ****                         }
 750:.\Generated_Source\PSoC5/USBUART_std.c ****                     }
 751:.\Generated_Source\PSoC5/USBUART_std.c ****                     
 752:.\Generated_Source\PSoC5/USBUART_std.c ****                     pEP = &pEP[1u];
 753:.\Generated_Source\PSoC5/USBUART_std.c ****                 }
 754:.\Generated_Source\PSoC5/USBUART_std.c ****             }
 755:.\Generated_Source\PSoC5/USBUART_std.c ****         #endif /*  (USBUART_EP_MANAGEMENT_MANUAL && USBUART_EP_ALLOC_DYNAMIC) */
 756:.\Generated_Source\PSoC5/USBUART_std.c **** 
 757:.\Generated_Source\PSoC5/USBUART_std.c ****         /* Init class array for each interface and interface number for each EP.
 758:.\Generated_Source\PSoC5/USBUART_std.c ****         *  It is used for handling Class specific requests directed to either an
 759:.\Generated_Source\PSoC5/USBUART_std.c ****         *  interface or the endpoint.
 760:.\Generated_Source\PSoC5/USBUART_std.c ****         */
 761:.\Generated_Source\PSoC5/USBUART_std.c ****         /* p_list points the endpoint setting table. */
 762:.\Generated_Source\PSoC5/USBUART_std.c ****         pEP = (const T_USBUART_EP_SETTINGS_BLOCK CYCODE *) pTmp->p_list;
 763:.\Generated_Source\PSoC5/USBUART_std.c ****         for (i = 0u; i < ep; i++)
 764:.\Generated_Source\PSoC5/USBUART_std.c ****         {
 765:.\Generated_Source\PSoC5/USBUART_std.c ****             /* Configure interface number for each EP */
 766:.\Generated_Source\PSoC5/USBUART_std.c ****             USBUART_EP[pEP->addr & USBUART_DIR_UNUSED].interface = pEP->interface;
 767:.\Generated_Source\PSoC5/USBUART_std.c ****             pEP = &pEP[1u];
 768:.\Generated_Source\PSoC5/USBUART_std.c ****         }
 769:.\Generated_Source\PSoC5/USBUART_std.c ****         
 770:.\Generated_Source\PSoC5/USBUART_std.c ****         /* Init pointer on interface class table */
ARM GAS  C:\Users\student\AppData\Local\Temp\ccpvKyYb.s 			page 20


 771:.\Generated_Source\PSoC5/USBUART_std.c ****         USBUART_interfaceClass = USBUART_GetInterfaceClassTablePtr();
 772:.\Generated_Source\PSoC5/USBUART_std.c ****         
 773:.\Generated_Source\PSoC5/USBUART_std.c ****     /* Set the endpoint buffer addresses */
 774:.\Generated_Source\PSoC5/USBUART_std.c ****     #if (!USBUART_EP_MANAGEMENT_DMA_AUTO)
 775:.\Generated_Source\PSoC5/USBUART_std.c ****         buffCount = 0u;
 776:.\Generated_Source\PSoC5/USBUART_std.c ****         for (ep = USBUART_EP1; ep < USBUART_MAX_EP; ++ep)
 777:.\Generated_Source\PSoC5/USBUART_std.c ****         {
 778:.\Generated_Source\PSoC5/USBUART_std.c ****             USBUART_EP[ep].buffOffset = buffCount;        
 779:.\Generated_Source\PSoC5/USBUART_std.c ****             buffCount += USBUART_EP[ep].bufferSize;
 780:.\Generated_Source\PSoC5/USBUART_std.c ****             
 781:.\Generated_Source\PSoC5/USBUART_std.c ****         #if (USBUART_GEN_16BITS_EP_ACCESS)
 782:.\Generated_Source\PSoC5/USBUART_std.c ****             /* Align EP buffers to be event size to access 16-bits DR register. */
 783:.\Generated_Source\PSoC5/USBUART_std.c ****             buffCount += (0u != (buffCount & 0x01u)) ? 1u : 0u;
 784:.\Generated_Source\PSoC5/USBUART_std.c ****         #endif /* (USBUART_GEN_16BITS_EP_ACCESS) */            
 785:.\Generated_Source\PSoC5/USBUART_std.c ****         }
 786:.\Generated_Source\PSoC5/USBUART_std.c ****     #endif /* (!USBUART_EP_MANAGEMENT_DMA_AUTO) */
 787:.\Generated_Source\PSoC5/USBUART_std.c **** 
 788:.\Generated_Source\PSoC5/USBUART_std.c ****         /* Configure hardware registers */
 789:.\Generated_Source\PSoC5/USBUART_std.c ****         USBUART_ConfigReg();
 790:.\Generated_Source\PSoC5/USBUART_std.c ****     }
 791:.\Generated_Source\PSoC5/USBUART_std.c **** }
 792:.\Generated_Source\PSoC5/USBUART_std.c **** 
 793:.\Generated_Source\PSoC5/USBUART_std.c **** 
 794:.\Generated_Source\PSoC5/USBUART_std.c **** /*******************************************************************************
 795:.\Generated_Source\PSoC5/USBUART_std.c **** * Function Name: USBUART_ConfigAltChanged
 796:.\Generated_Source\PSoC5/USBUART_std.c **** ****************************************************************************//**
 797:.\Generated_Source\PSoC5/USBUART_std.c **** *
 798:.\Generated_Source\PSoC5/USBUART_std.c **** *  This routine update configuration for the required endpoints only.
 799:.\Generated_Source\PSoC5/USBUART_std.c **** *  It is called after SET_INTERFACE request when Static memory allocation used.
 800:.\Generated_Source\PSoC5/USBUART_std.c **** *
 801:.\Generated_Source\PSoC5/USBUART_std.c **** * \reentrant
 802:.\Generated_Source\PSoC5/USBUART_std.c **** *  No.
 803:.\Generated_Source\PSoC5/USBUART_std.c **** *
 804:.\Generated_Source\PSoC5/USBUART_std.c **** *******************************************************************************/
 805:.\Generated_Source\PSoC5/USBUART_std.c **** void USBUART_ConfigAltChanged(void) 
 806:.\Generated_Source\PSoC5/USBUART_std.c **** {
 807:.\Generated_Source\PSoC5/USBUART_std.c ****     uint8 ep;
 808:.\Generated_Source\PSoC5/USBUART_std.c ****     uint8 curEp;
 809:.\Generated_Source\PSoC5/USBUART_std.c ****     uint8 epType;
 810:.\Generated_Source\PSoC5/USBUART_std.c ****     uint8 i;
 811:.\Generated_Source\PSoC5/USBUART_std.c ****     uint8 interfaceNum;
 812:.\Generated_Source\PSoC5/USBUART_std.c **** 
 813:.\Generated_Source\PSoC5/USBUART_std.c ****     const T_USBUART_LUT CYCODE *pTmp;
 814:.\Generated_Source\PSoC5/USBUART_std.c ****     const T_USBUART_EP_SETTINGS_BLOCK CYCODE *pEP;
 815:.\Generated_Source\PSoC5/USBUART_std.c **** 
 816:.\Generated_Source\PSoC5/USBUART_std.c ****     /* Init Endpoints and Device Status if configured */
 817:.\Generated_Source\PSoC5/USBUART_std.c ****     if (USBUART_configuration > 0u)
 818:.\Generated_Source\PSoC5/USBUART_std.c ****     {
 819:.\Generated_Source\PSoC5/USBUART_std.c ****         /* Get number of endpoints configurations (ep). */
 820:.\Generated_Source\PSoC5/USBUART_std.c ****         pTmp = USBUART_GetConfigTablePtr(USBUART_configuration - 1u);
 821:.\Generated_Source\PSoC5/USBUART_std.c ****         pTmp = &pTmp[1u];
 822:.\Generated_Source\PSoC5/USBUART_std.c ****         ep = pTmp->c;
 823:.\Generated_Source\PSoC5/USBUART_std.c **** 
 824:.\Generated_Source\PSoC5/USBUART_std.c ****         /* Get pointer to endpoints setting table (pEP). */
 825:.\Generated_Source\PSoC5/USBUART_std.c ****         pEP = (const T_USBUART_EP_SETTINGS_BLOCK CYCODE *) pTmp->p_list;
 826:.\Generated_Source\PSoC5/USBUART_std.c ****         
 827:.\Generated_Source\PSoC5/USBUART_std.c ****         /* Look through all possible endpoint configurations. Find endpoints 
ARM GAS  C:\Users\student\AppData\Local\Temp\ccpvKyYb.s 			page 21


 828:.\Generated_Source\PSoC5/USBUART_std.c ****         * which belong to current interface and alternate settings for 
 829:.\Generated_Source\PSoC5/USBUART_std.c ****         * re-configuration.
 830:.\Generated_Source\PSoC5/USBUART_std.c ****         */
 831:.\Generated_Source\PSoC5/USBUART_std.c ****         interfaceNum = USBUART_interfaceNumber;
 832:.\Generated_Source\PSoC5/USBUART_std.c ****         for (i = 0u; i < ep; i++)
 833:.\Generated_Source\PSoC5/USBUART_std.c ****         {
 834:.\Generated_Source\PSoC5/USBUART_std.c ****             /* Find endpoints which belong to current interface and alternate settings. */
 835:.\Generated_Source\PSoC5/USBUART_std.c ****             if ((interfaceNum == pEP->interface) && 
 836:.\Generated_Source\PSoC5/USBUART_std.c ****                 (USBUART_interfaceSetting[interfaceNum] == pEP->altSetting))
 837:.\Generated_Source\PSoC5/USBUART_std.c ****             {
 838:.\Generated_Source\PSoC5/USBUART_std.c ****                 curEp  = ((uint8) pEP->addr & USBUART_DIR_UNUSED);
 839:.\Generated_Source\PSoC5/USBUART_std.c ****                 epType = ((uint8) pEP->attributes & USBUART_EP_TYPE_MASK);
 840:.\Generated_Source\PSoC5/USBUART_std.c ****                 
 841:.\Generated_Source\PSoC5/USBUART_std.c ****                 /* Change the SIE mode for the selected EP to NAK ALL */
 842:.\Generated_Source\PSoC5/USBUART_std.c ****                 USBUART_EP[curEp].epToggle   = 0u;
 843:.\Generated_Source\PSoC5/USBUART_std.c ****                 USBUART_EP[curEp].addr       = pEP->addr;
 844:.\Generated_Source\PSoC5/USBUART_std.c ****                 USBUART_EP[curEp].attrib     = pEP->attributes;
 845:.\Generated_Source\PSoC5/USBUART_std.c ****                 USBUART_EP[curEp].bufferSize = pEP->bufferSize;
 846:.\Generated_Source\PSoC5/USBUART_std.c **** 
 847:.\Generated_Source\PSoC5/USBUART_std.c ****                 if (0u != (pEP->addr & USBUART_DIR_IN))
 848:.\Generated_Source\PSoC5/USBUART_std.c ****                 {
 849:.\Generated_Source\PSoC5/USBUART_std.c ****                     /* IN Endpoint */
 850:.\Generated_Source\PSoC5/USBUART_std.c ****                     USBUART_EP[curEp].epMode     = USBUART_GET_ACTIVE_IN_EP_CR0_MODE(epType);
 851:.\Generated_Source\PSoC5/USBUART_std.c ****                     USBUART_EP[curEp].apiEpState = USBUART_EVENT_PENDING;
 852:.\Generated_Source\PSoC5/USBUART_std.c ****                 }
 853:.\Generated_Source\PSoC5/USBUART_std.c ****                 else
 854:.\Generated_Source\PSoC5/USBUART_std.c ****                 {
 855:.\Generated_Source\PSoC5/USBUART_std.c ****                     /* OUT Endpoint */
 856:.\Generated_Source\PSoC5/USBUART_std.c ****                     USBUART_EP[curEp].epMode     = USBUART_GET_ACTIVE_OUT_EP_CR0_MODE(epType);
 857:.\Generated_Source\PSoC5/USBUART_std.c ****                     USBUART_EP[curEp].apiEpState = USBUART_NO_EVENT_PENDING;
 858:.\Generated_Source\PSoC5/USBUART_std.c ****                 }
 859:.\Generated_Source\PSoC5/USBUART_std.c ****                 
 860:.\Generated_Source\PSoC5/USBUART_std.c ****                 /* Make SIE to NAK any endpoint requests */
 861:.\Generated_Source\PSoC5/USBUART_std.c ****                 USBUART_SIE_EP_BASE.sieEp[curEp].epCr0 = USBUART_MODE_NAK_IN_OUT;
 862:.\Generated_Source\PSoC5/USBUART_std.c **** 
 863:.\Generated_Source\PSoC5/USBUART_std.c ****             #if (USBUART_EP_MANAGEMENT_DMA_AUTO)
 864:.\Generated_Source\PSoC5/USBUART_std.c ****                 /* Clear IN data ready. */
 865:.\Generated_Source\PSoC5/USBUART_std.c ****                 USBUART_ARB_EP_BASE.arbEp[curEp].epCfg &= (uint8) ~USBUART_ARB_EPX_CFG_IN_DATA_RDY;
 866:.\Generated_Source\PSoC5/USBUART_std.c **** 
 867:.\Generated_Source\PSoC5/USBUART_std.c ****                 /* Select endpoint number of reconfiguration */
 868:.\Generated_Source\PSoC5/USBUART_std.c ****                 USBUART_DYN_RECONFIG_REG = (uint8) ((curEp - 1u) << USBUART_DYN_RECONFIG_EP_SHIFT);
 869:.\Generated_Source\PSoC5/USBUART_std.c ****                 
 870:.\Generated_Source\PSoC5/USBUART_std.c ****                 /* Request for dynamic re-configuration of endpoint. */
 871:.\Generated_Source\PSoC5/USBUART_std.c ****                 USBUART_DYN_RECONFIG_REG |= USBUART_DYN_RECONFIG_ENABLE;
 872:.\Generated_Source\PSoC5/USBUART_std.c ****                 
 873:.\Generated_Source\PSoC5/USBUART_std.c ****                 /* Wait until block is ready for re-configuration */
 874:.\Generated_Source\PSoC5/USBUART_std.c ****                 while (0u == (USBUART_DYN_RECONFIG_REG & USBUART_DYN_RECONFIG_RDY_STS))
 875:.\Generated_Source\PSoC5/USBUART_std.c ****                 {
 876:.\Generated_Source\PSoC5/USBUART_std.c ****                 }
 877:.\Generated_Source\PSoC5/USBUART_std.c ****                 
 878:.\Generated_Source\PSoC5/USBUART_std.c ****                 /* Once DYN_RECONFIG_RDY_STS bit is set, FW can change the EP configuration. */
 879:.\Generated_Source\PSoC5/USBUART_std.c ****                 /* Change EP Type with new direction */
 880:.\Generated_Source\PSoC5/USBUART_std.c ****                 if (0u != (pEP->addr & USBUART_DIR_IN))
 881:.\Generated_Source\PSoC5/USBUART_std.c ****                 {
 882:.\Generated_Source\PSoC5/USBUART_std.c ****                     /* Set endpoint type: 0 - IN and 1 - OUT. */
 883:.\Generated_Source\PSoC5/USBUART_std.c ****                     USBUART_EP_TYPE_REG &= (uint8) ~(uint8)((uint8) 0x01u << (curEp - 1u));
 884:.\Generated_Source\PSoC5/USBUART_std.c ****                     
ARM GAS  C:\Users\student\AppData\Local\Temp\ccpvKyYb.s 			page 22


 885:.\Generated_Source\PSoC5/USBUART_std.c ****                 #if (CY_PSOC4)
 886:.\Generated_Source\PSoC5/USBUART_std.c ****                     /* Clear DMA_TERMIN for IN endpoint */
 887:.\Generated_Source\PSoC5/USBUART_std.c ****                     USBUART_ARB_EP_BASE.arbEp[curEp].epIntEn &= (uint32) ~USBUART_ARB_EPX_INT_DMA_T
 888:.\Generated_Source\PSoC5/USBUART_std.c ****                 #endif /* (CY_PSOC4) */
 889:.\Generated_Source\PSoC5/USBUART_std.c ****                 }
 890:.\Generated_Source\PSoC5/USBUART_std.c ****                 else
 891:.\Generated_Source\PSoC5/USBUART_std.c ****                 {
 892:.\Generated_Source\PSoC5/USBUART_std.c ****                     /* Set endpoint type: 0 - IN and 1- OUT. */
 893:.\Generated_Source\PSoC5/USBUART_std.c ****                     USBUART_EP_TYPE_REG |= (uint8) ((uint8) 0x01u << (curEp - 1u));
 894:.\Generated_Source\PSoC5/USBUART_std.c ****                     
 895:.\Generated_Source\PSoC5/USBUART_std.c ****                 #if (CY_PSOC4)
 896:.\Generated_Source\PSoC5/USBUART_std.c ****                     /* Set DMA_TERMIN for OUT endpoint */
 897:.\Generated_Source\PSoC5/USBUART_std.c ****                     USBUART_ARB_EP_BASE.arbEp[curEp].epIntEn |= (uint32) USBUART_ARB_EPX_INT_DMA_TE
 898:.\Generated_Source\PSoC5/USBUART_std.c ****                 #endif /* (CY_PSOC4) */
 899:.\Generated_Source\PSoC5/USBUART_std.c ****                 }
 900:.\Generated_Source\PSoC5/USBUART_std.c ****                 
 901:.\Generated_Source\PSoC5/USBUART_std.c ****                 /* Complete dynamic re-configuration: all endpoint related status and signals 
 902:.\Generated_Source\PSoC5/USBUART_std.c ****                 * are set into the default state.
 903:.\Generated_Source\PSoC5/USBUART_std.c ****                 */
 904:.\Generated_Source\PSoC5/USBUART_std.c ****                 USBUART_DYN_RECONFIG_REG &= (uint8) ~USBUART_DYN_RECONFIG_ENABLE;
 905:.\Generated_Source\PSoC5/USBUART_std.c **** 
 906:.\Generated_Source\PSoC5/USBUART_std.c ****             #else
 907:.\Generated_Source\PSoC5/USBUART_std.c ****                 USBUART_SIE_EP_BASE.sieEp[curEp].epCnt0 = HI8(USBUART_EP[curEp].bufferSize);
 908:.\Generated_Source\PSoC5/USBUART_std.c ****                 USBUART_SIE_EP_BASE.sieEp[curEp].epCnt1 = LO8(USBUART_EP[curEp].bufferSize);
 909:.\Generated_Source\PSoC5/USBUART_std.c ****                 
 910:.\Generated_Source\PSoC5/USBUART_std.c ****                 #if (CY_PSOC4)
 911:.\Generated_Source\PSoC5/USBUART_std.c ****                     USBUART_ARB_EP16_BASE.arbEp[curEp].rwRa16  = (uint32) USBUART_EP[curEp].buffOff
 912:.\Generated_Source\PSoC5/USBUART_std.c ****                     USBUART_ARB_EP16_BASE.arbEp[curEp].rwWa16  = (uint32) USBUART_EP[curEp].buffOff
 913:.\Generated_Source\PSoC5/USBUART_std.c ****                 #else
 914:.\Generated_Source\PSoC5/USBUART_std.c ****                     USBUART_ARB_EP_BASE.arbEp[curEp].rwRa    = LO8(USBUART_EP[curEp].buffOffset);
 915:.\Generated_Source\PSoC5/USBUART_std.c ****                     USBUART_ARB_EP_BASE.arbEp[curEp].rwRaMsb = HI8(USBUART_EP[curEp].buffOffset);
 916:.\Generated_Source\PSoC5/USBUART_std.c ****                     USBUART_ARB_EP_BASE.arbEp[curEp].rwWa    = LO8(USBUART_EP[curEp].buffOffset);
 917:.\Generated_Source\PSoC5/USBUART_std.c ****                     USBUART_ARB_EP_BASE.arbEp[curEp].rwWaMsb = HI8(USBUART_EP[curEp].buffOffset);
 918:.\Generated_Source\PSoC5/USBUART_std.c ****                 #endif /* (CY_PSOC4) */                
 919:.\Generated_Source\PSoC5/USBUART_std.c ****             #endif /* (USBUART_EP_MANAGEMENT_DMA_AUTO) */
 920:.\Generated_Source\PSoC5/USBUART_std.c ****             }
 921:.\Generated_Source\PSoC5/USBUART_std.c ****             
 922:.\Generated_Source\PSoC5/USBUART_std.c ****             pEP = &pEP[1u]; /* Get next EP element */
 923:.\Generated_Source\PSoC5/USBUART_std.c ****         }
 924:.\Generated_Source\PSoC5/USBUART_std.c ****         
 925:.\Generated_Source\PSoC5/USBUART_std.c ****         /* The main loop has to re-enable DMA and OUT endpoint */
 926:.\Generated_Source\PSoC5/USBUART_std.c ****     }
 927:.\Generated_Source\PSoC5/USBUART_std.c **** }
 928:.\Generated_Source\PSoC5/USBUART_std.c **** 
 929:.\Generated_Source\PSoC5/USBUART_std.c **** 
 930:.\Generated_Source\PSoC5/USBUART_std.c **** /*******************************************************************************
 931:.\Generated_Source\PSoC5/USBUART_std.c **** * Function Name: USBUART_GetConfigTablePtr
 932:.\Generated_Source\PSoC5/USBUART_std.c **** ****************************************************************************//**
 933:.\Generated_Source\PSoC5/USBUART_std.c **** *
 934:.\Generated_Source\PSoC5/USBUART_std.c **** *  This routine returns a pointer a configuration table entry
 935:.\Generated_Source\PSoC5/USBUART_std.c **** *
 936:.\Generated_Source\PSoC5/USBUART_std.c **** *  \param confIndex:  Configuration Index
 937:.\Generated_Source\PSoC5/USBUART_std.c **** *
 938:.\Generated_Source\PSoC5/USBUART_std.c **** * \return
 939:.\Generated_Source\PSoC5/USBUART_std.c **** *  Device Descriptor pointer or NULL when descriptor does not exist.
 940:.\Generated_Source\PSoC5/USBUART_std.c **** *
 941:.\Generated_Source\PSoC5/USBUART_std.c **** *******************************************************************************/
ARM GAS  C:\Users\student\AppData\Local\Temp\ccpvKyYb.s 			page 23


 942:.\Generated_Source\PSoC5/USBUART_std.c **** const T_USBUART_LUT CYCODE *USBUART_GetConfigTablePtr(uint8 confIndex)
 943:.\Generated_Source\PSoC5/USBUART_std.c ****                                                         
 944:.\Generated_Source\PSoC5/USBUART_std.c **** {
 307              		.loc 1 944 0
 308              		.cfi_startproc
 309              		@ args = 0, pretend = 0, frame = 0
 310              		@ frame_needed = 0, uses_anonymous_args = 0
 311              		@ link register save eliminated.
 312              	.LVL20:
 945:.\Generated_Source\PSoC5/USBUART_std.c ****     /* Device Table */
 946:.\Generated_Source\PSoC5/USBUART_std.c ****     const T_USBUART_LUT CYCODE *pTmp;
 947:.\Generated_Source\PSoC5/USBUART_std.c **** 
 948:.\Generated_Source\PSoC5/USBUART_std.c ****     pTmp = (const T_USBUART_LUT CYCODE *) USBUART_TABLE[USBUART_device].p_list;
 313              		.loc 1 948 0
 314 0000 074B     		ldr	r3, .L27
 315 0002 1B78     		ldrb	r3, [r3]	@ zero_extendqisi2
 316 0004 074A     		ldr	r2, .L27+4
 317 0006 02EBC302 		add	r2, r2, r3, lsl #3
 318 000a 5368     		ldr	r3, [r2, #4]
 319              	.LVL21:
 949:.\Generated_Source\PSoC5/USBUART_std.c **** 
 950:.\Generated_Source\PSoC5/USBUART_std.c ****     /* The first entry points to the Device Descriptor,
 951:.\Generated_Source\PSoC5/USBUART_std.c ****     *  the second entry point to the BOS Descriptor
 952:.\Generated_Source\PSoC5/USBUART_std.c ****     *  the rest configuration entries.
 953:.\Generated_Source\PSoC5/USBUART_std.c ****     *  Set pointer to the first Configuration Descriptor
 954:.\Generated_Source\PSoC5/USBUART_std.c ****     */
 955:.\Generated_Source\PSoC5/USBUART_std.c ****     pTmp = &pTmp[2u];
 956:.\Generated_Source\PSoC5/USBUART_std.c ****     /* For this table, c is the number of configuration descriptors  */
 957:.\Generated_Source\PSoC5/USBUART_std.c ****     if(confIndex >= pTmp->c)   /* Verify that required configuration descriptor exists */
 320              		.loc 1 957 0
 321 000c 1A7C     		ldrb	r2, [r3, #16]	@ zero_extendqisi2
 322 000e 8242     		cmp	r2, r0
 323 0010 03D9     		bls	.L26
 324 0012 03EBC003 		add	r3, r3, r0, lsl #3
 325              	.LVL22:
 958:.\Generated_Source\PSoC5/USBUART_std.c ****     {
 959:.\Generated_Source\PSoC5/USBUART_std.c ****         pTmp = (const T_USBUART_LUT CYCODE *) NULL;
 960:.\Generated_Source\PSoC5/USBUART_std.c ****     }
 961:.\Generated_Source\PSoC5/USBUART_std.c ****     else
 962:.\Generated_Source\PSoC5/USBUART_std.c ****     {
 963:.\Generated_Source\PSoC5/USBUART_std.c ****         pTmp = (const T_USBUART_LUT CYCODE *) pTmp[confIndex].p_list;
 326              		.loc 1 963 0
 327 0016 5869     		ldr	r0, [r3, #20]
 328              	.LVL23:
 329 0018 7047     		bx	lr
 330              	.LVL24:
 331              	.L26:
 959:.\Generated_Source\PSoC5/USBUART_std.c ****     }
 332              		.loc 1 959 0
 333 001a 0020     		movs	r0, #0
 334              	.LVL25:
 964:.\Generated_Source\PSoC5/USBUART_std.c ****     }
 965:.\Generated_Source\PSoC5/USBUART_std.c **** 
 966:.\Generated_Source\PSoC5/USBUART_std.c ****     return (pTmp);
 967:.\Generated_Source\PSoC5/USBUART_std.c **** }
 335              		.loc 1 967 0
 336 001c 7047     		bx	lr
ARM GAS  C:\Users\student\AppData\Local\Temp\ccpvKyYb.s 			page 24


 337              	.L28:
 338 001e 00BF     		.align	2
 339              	.L27:
 340 0020 00000000 		.word	USBUART_device
 341 0024 00000000 		.word	USBUART_TABLE
 342              		.cfi_endproc
 343              	.LFE6:
 344              		.size	USBUART_GetConfigTablePtr, .-USBUART_GetConfigTablePtr
 345              		.section	.text.USBUART_ConfigAltChanged,"ax",%progbits
 346              		.align	2
 347              		.global	USBUART_ConfigAltChanged
 348              		.thumb
 349              		.thumb_func
 350              		.type	USBUART_ConfigAltChanged, %function
 351              	USBUART_ConfigAltChanged:
 352              	.LFB5:
 806:.\Generated_Source\PSoC5/USBUART_std.c ****     uint8 ep;
 353              		.loc 1 806 0
 354              		.cfi_startproc
 355              		@ args = 0, pretend = 0, frame = 0
 356              		@ frame_needed = 0, uses_anonymous_args = 0
 357 0000 F8B5     		push	{r3, r4, r5, r6, r7, lr}
 358              		.cfi_def_cfa_offset 24
 359              		.cfi_offset 3, -24
 360              		.cfi_offset 4, -20
 361              		.cfi_offset 5, -16
 362              		.cfi_offset 6, -12
 363              		.cfi_offset 7, -8
 364              		.cfi_offset 14, -4
 817:.\Generated_Source\PSoC5/USBUART_std.c ****     {
 365              		.loc 1 817 0
 366 0002 404B     		ldr	r3, .L41
 367 0004 1B78     		ldrb	r3, [r3]	@ zero_extendqisi2
 368 0006 13F0FF0F 		tst	r3, #255
 369 000a 79D0     		beq	.L29
 820:.\Generated_Source\PSoC5/USBUART_std.c ****         pTmp = &pTmp[1u];
 370              		.loc 1 820 0
 371 000c 3D4B     		ldr	r3, .L41
 372 000e 1878     		ldrb	r0, [r3]	@ zero_extendqisi2
 373 0010 0138     		subs	r0, r0, #1
 374 0012 C0B2     		uxtb	r0, r0
 375 0014 FFF7FEFF 		bl	USBUART_GetConfigTablePtr
 376              	.LVL26:
 822:.\Generated_Source\PSoC5/USBUART_std.c **** 
 377              		.loc 1 822 0
 378 0018 047A     		ldrb	r4, [r0, #8]	@ zero_extendqisi2
 379              	.LVL27:
 825:.\Generated_Source\PSoC5/USBUART_std.c ****         
 380              		.loc 1 825 0
 381 001a C268     		ldr	r2, [r0, #12]
 382              	.LVL28:
 831:.\Generated_Source\PSoC5/USBUART_std.c ****         for (i = 0u; i < ep; i++)
 383              		.loc 1 831 0
 384 001c 3A4B     		ldr	r3, .L41+4
 385 001e 1878     		ldrb	r0, [r3]	@ zero_extendqisi2
 386              	.LVL29:
 387 0020 C0B2     		uxtb	r0, r0
ARM GAS  C:\Users\student\AppData\Local\Temp\ccpvKyYb.s 			page 25


 388              	.LVL30:
 832:.\Generated_Source\PSoC5/USBUART_std.c ****         {
 389              		.loc 1 832 0
 390 0022 0023     		movs	r3, #0
 391 0024 6AE0     		b	.L31
 392              	.LVL31:
 393              	.L37:
 835:.\Generated_Source\PSoC5/USBUART_std.c ****                 (USBUART_interfaceSetting[interfaceNum] == pEP->altSetting))
 394              		.loc 1 835 0
 395 0026 1178     		ldrb	r1, [r2]	@ zero_extendqisi2
 396 0028 8142     		cmp	r1, r0
 397 002a 64D1     		bne	.L32
 836:.\Generated_Source\PSoC5/USBUART_std.c ****             {
 398              		.loc 1 836 0 discriminator 1
 399 002c 3749     		ldr	r1, .L41+8
 400 002e 095C     		ldrb	r1, [r1, r0]	@ zero_extendqisi2
 401 0030 C9B2     		uxtb	r1, r1
 402 0032 5578     		ldrb	r5, [r2, #1]	@ zero_extendqisi2
 835:.\Generated_Source\PSoC5/USBUART_std.c ****                 (USBUART_interfaceSetting[interfaceNum] == pEP->altSetting))
 403              		.loc 1 835 0 discriminator 1
 404 0034 A942     		cmp	r1, r5
 405 0036 5ED1     		bne	.L32
 838:.\Generated_Source\PSoC5/USBUART_std.c ****                 epType = ((uint8) pEP->attributes & USBUART_EP_TYPE_MASK);
 406              		.loc 1 838 0
 407 0038 9178     		ldrb	r1, [r2, #2]	@ zero_extendqisi2
 408 003a 01F07F01 		and	r1, r1, #127
 409              	.LVL32:
 839:.\Generated_Source\PSoC5/USBUART_std.c ****                 
 410              		.loc 1 839 0
 411 003e D678     		ldrb	r6, [r2, #3]	@ zero_extendqisi2
 412 0040 06F00306 		and	r6, r6, #3
 413              	.LVL33:
 842:.\Generated_Source\PSoC5/USBUART_std.c ****                 USBUART_EP[curEp].addr       = pEP->addr;
 414              		.loc 1 842 0
 415 0044 DFF8C8E0 		ldr	lr, .L41+12
 416 0048 4D00     		lsls	r5, r1, #1
 417 004a 0D44     		add	r5, r5, r1
 418 004c AD00     		lsls	r5, r5, #2
 419 004e 0EEB0507 		add	r7, lr, r5
 420 0052 4FF0000C 		mov	ip, #0
 421 0056 87F803C0 		strb	ip, [r7, #3]
 843:.\Generated_Source\PSoC5/USBUART_std.c ****                 USBUART_EP[curEp].attrib     = pEP->attributes;
 422              		.loc 1 843 0
 423 005a 92F802C0 		ldrb	ip, [r2, #2]	@ zero_extendqisi2
 424 005e 87F804C0 		strb	ip, [r7, #4]
 844:.\Generated_Source\PSoC5/USBUART_std.c ****                 USBUART_EP[curEp].bufferSize = pEP->bufferSize;
 425              		.loc 1 844 0
 426 0062 92F803C0 		ldrb	ip, [r2, #3]	@ zero_extendqisi2
 427 0066 0EF805C0 		strb	ip, [lr, r5]
 845:.\Generated_Source\PSoC5/USBUART_std.c **** 
 428              		.loc 1 845 0
 429 006a 9588     		ldrh	r5, [r2, #4]
 430 006c 3D81     		strh	r5, [r7, #8]	@ movhi
 847:.\Generated_Source\PSoC5/USBUART_std.c ****                 {
 431              		.loc 1 847 0
 432 006e 92F90250 		ldrsb	r5, [r2, #2]
 433 0072 002D     		cmp	r5, #0
ARM GAS  C:\Users\student\AppData\Local\Temp\ccpvKyYb.s 			page 26


 434 0074 0DDA     		bge	.L33
 850:.\Generated_Source\PSoC5/USBUART_std.c ****                     USBUART_EP[curEp].apiEpState = USBUART_EVENT_PENDING;
 435              		.loc 1 850 0
 436 0076 012E     		cmp	r6, #1
 437 0078 01D1     		bne	.L38
 438 007a 0727     		movs	r7, #7
 439 007c 00E0     		b	.L34
 440              	.L38:
 441 007e 0D27     		movs	r7, #13
 442              	.L34:
 850:.\Generated_Source\PSoC5/USBUART_std.c ****                     USBUART_EP[curEp].apiEpState = USBUART_EVENT_PENDING;
 443              		.loc 1 850 0 is_stmt 0 discriminator 4
 444 0080 4D00     		lsls	r5, r1, #1
 445 0082 0D44     		add	r5, r5, r1
 446 0084 AD00     		lsls	r5, r5, #2
 447 0086 224E     		ldr	r6, .L41+12
 448              	.LVL34:
 449 0088 3544     		add	r5, r5, r6
 450 008a 6F71     		strb	r7, [r5, #5]
 851:.\Generated_Source\PSoC5/USBUART_std.c ****                 }
 451              		.loc 1 851 0 is_stmt 1 discriminator 4
 452 008c 0126     		movs	r6, #1
 453 008e 6E70     		strb	r6, [r5, #1]
 454 0090 0CE0     		b	.L35
 455              	.LVL35:
 456              	.L33:
 856:.\Generated_Source\PSoC5/USBUART_std.c ****                     USBUART_EP[curEp].apiEpState = USBUART_NO_EVENT_PENDING;
 457              		.loc 1 856 0
 458 0092 012E     		cmp	r6, #1
 459 0094 01D1     		bne	.L39
 460 0096 0527     		movs	r7, #5
 461 0098 00E0     		b	.L36
 462              	.L39:
 463 009a 0927     		movs	r7, #9
 464              	.L36:
 856:.\Generated_Source\PSoC5/USBUART_std.c ****                     USBUART_EP[curEp].apiEpState = USBUART_NO_EVENT_PENDING;
 465              		.loc 1 856 0 is_stmt 0 discriminator 4
 466 009c 4D00     		lsls	r5, r1, #1
 467 009e 0D44     		add	r5, r5, r1
 468 00a0 AD00     		lsls	r5, r5, #2
 469 00a2 1B4E     		ldr	r6, .L41+12
 470              	.LVL36:
 471 00a4 3544     		add	r5, r5, r6
 472 00a6 6F71     		strb	r7, [r5, #5]
 857:.\Generated_Source\PSoC5/USBUART_std.c ****                 }
 473              		.loc 1 857 0 is_stmt 1 discriminator 4
 474 00a8 0026     		movs	r6, #0
 475 00aa 6E70     		strb	r6, [r5, #1]
 476              	.L35:
 861:.\Generated_Source\PSoC5/USBUART_std.c **** 
 477              		.loc 1 861 0
 478 00ac DFF868E0 		ldr	lr, .L41+20
 479 00b0 0F01     		lsls	r7, r1, #4
 480 00b2 0EEB0706 		add	r6, lr, r7
 481 00b6 0125     		movs	r5, #1
 482 00b8 B570     		strb	r5, [r6, #2]
 907:.\Generated_Source\PSoC5/USBUART_std.c ****                 USBUART_SIE_EP_BASE.sieEp[curEp].epCnt1 = LO8(USBUART_EP[curEp].bufferSize);
ARM GAS  C:\Users\student\AppData\Local\Temp\ccpvKyYb.s 			page 27


 483              		.loc 1 907 0
 484 00ba 01FA05F5 		lsl	r5, r1, r5
 485 00be 2944     		add	r1, r1, r5
 486              	.LVL37:
 487 00c0 8900     		lsls	r1, r1, #2
 488 00c2 134D     		ldr	r5, .L41+12
 489 00c4 2944     		add	r1, r1, r5
 490 00c6 0D89     		ldrh	r5, [r1, #8]
 491 00c8 C5F30725 		ubfx	r5, r5, #8, #8
 492 00cc 0EF80750 		strb	r5, [lr, r7]
 908:.\Generated_Source\PSoC5/USBUART_std.c ****                 
 493              		.loc 1 908 0
 494 00d0 0D89     		ldrh	r5, [r1, #8]
 495 00d2 EDB2     		uxtb	r5, r5
 496 00d4 7570     		strb	r5, [r6, #1]
 914:.\Generated_Source\PSoC5/USBUART_std.c ****                     USBUART_ARB_EP_BASE.arbEp[curEp].rwRaMsb = HI8(USBUART_EP[curEp].buffOffset);
 497              		.loc 1 914 0
 498 00d6 CE88     		ldrh	r6, [r1, #6]
 499 00d8 F6B2     		uxtb	r6, r6
 500 00da 0E4D     		ldr	r5, .L41+16
 501 00dc 3D44     		add	r5, r5, r7
 502 00de AE71     		strb	r6, [r5, #6]
 915:.\Generated_Source\PSoC5/USBUART_std.c ****                     USBUART_ARB_EP_BASE.arbEp[curEp].rwWa    = LO8(USBUART_EP[curEp].buffOffset);
 503              		.loc 1 915 0
 504 00e0 CE88     		ldrh	r6, [r1, #6]
 505 00e2 C6F30726 		ubfx	r6, r6, #8, #8
 506 00e6 EE71     		strb	r6, [r5, #7]
 916:.\Generated_Source\PSoC5/USBUART_std.c ****                     USBUART_ARB_EP_BASE.arbEp[curEp].rwWaMsb = HI8(USBUART_EP[curEp].buffOffset);
 507              		.loc 1 916 0
 508 00e8 CE88     		ldrh	r6, [r1, #6]
 509 00ea F6B2     		uxtb	r6, r6
 510 00ec 2E71     		strb	r6, [r5, #4]
 917:.\Generated_Source\PSoC5/USBUART_std.c ****                 #endif /* (CY_PSOC4) */                
 511              		.loc 1 917 0
 512 00ee C988     		ldrh	r1, [r1, #6]
 513 00f0 C1F30721 		ubfx	r1, r1, #8, #8
 514 00f4 6971     		strb	r1, [r5, #5]
 515              	.L32:
 922:.\Generated_Source\PSoC5/USBUART_std.c ****         }
 516              		.loc 1 922 0 discriminator 2
 517 00f6 0832     		adds	r2, r2, #8
 518              	.LVL38:
 832:.\Generated_Source\PSoC5/USBUART_std.c ****         {
 519              		.loc 1 832 0 discriminator 2
 520 00f8 0133     		adds	r3, r3, #1
 521              	.LVL39:
 522 00fa DBB2     		uxtb	r3, r3
 523              	.LVL40:
 524              	.L31:
 832:.\Generated_Source\PSoC5/USBUART_std.c ****         {
 525              		.loc 1 832 0 is_stmt 0 discriminator 1
 526 00fc A342     		cmp	r3, r4
 527 00fe 92D3     		bcc	.L37
 528              	.LVL41:
 529              	.L29:
 530 0100 F8BD     		pop	{r3, r4, r5, r6, r7, pc}
 531              	.L42:
ARM GAS  C:\Users\student\AppData\Local\Temp\ccpvKyYb.s 			page 28


 532 0102 00BF     		.align	2
 533              	.L41:
 534 0104 00000000 		.word	USBUART_configuration
 535 0108 00000000 		.word	USBUART_interfaceNumber
 536 010c 00000000 		.word	USBUART_interfaceSetting
 537 0110 00000000 		.word	USBUART_EP
 538 0114 70600040 		.word	1073766512
 539 0118 FC5F0040 		.word	1073766396
 540              		.cfi_endproc
 541              	.LFE5:
 542              		.size	USBUART_ConfigAltChanged, .-USBUART_ConfigAltChanged
 543              		.section	.text.USBUART_GetDeviceTablePtr,"ax",%progbits
 544              		.align	2
 545              		.global	USBUART_GetDeviceTablePtr
 546              		.thumb
 547              		.thumb_func
 548              		.type	USBUART_GetDeviceTablePtr, %function
 549              	USBUART_GetDeviceTablePtr:
 550              	.LFB7:
 968:.\Generated_Source\PSoC5/USBUART_std.c **** 
 969:.\Generated_Source\PSoC5/USBUART_std.c **** 
 970:.\Generated_Source\PSoC5/USBUART_std.c **** #if (USBUART_BOS_ENABLE)
 971:.\Generated_Source\PSoC5/USBUART_std.c ****     /*******************************************************************************
 972:.\Generated_Source\PSoC5/USBUART_std.c ****     * Function Name: USBUART_GetBOSPtr
 973:.\Generated_Source\PSoC5/USBUART_std.c ****     ****************************************************************************//**
 974:.\Generated_Source\PSoC5/USBUART_std.c ****     *
 975:.\Generated_Source\PSoC5/USBUART_std.c ****     *  This routine returns a pointer a BOS table entry
 976:.\Generated_Source\PSoC5/USBUART_std.c ****     *
 977:.\Generated_Source\PSoC5/USBUART_std.c ****     *  
 978:.\Generated_Source\PSoC5/USBUART_std.c ****     *
 979:.\Generated_Source\PSoC5/USBUART_std.c ****     * \return
 980:.\Generated_Source\PSoC5/USBUART_std.c ****     *  BOS Descriptor pointer or NULL when descriptor does not exist.
 981:.\Generated_Source\PSoC5/USBUART_std.c ****     *
 982:.\Generated_Source\PSoC5/USBUART_std.c ****     *******************************************************************************/
 983:.\Generated_Source\PSoC5/USBUART_std.c ****     const T_USBUART_LUT CYCODE *USBUART_GetBOSPtr(void)
 984:.\Generated_Source\PSoC5/USBUART_std.c ****                                                             
 985:.\Generated_Source\PSoC5/USBUART_std.c ****     {
 986:.\Generated_Source\PSoC5/USBUART_std.c ****         /* Device Table */
 987:.\Generated_Source\PSoC5/USBUART_std.c ****         const T_USBUART_LUT CYCODE *pTmp;
 988:.\Generated_Source\PSoC5/USBUART_std.c **** 
 989:.\Generated_Source\PSoC5/USBUART_std.c ****         pTmp = (const T_USBUART_LUT CYCODE *) USBUART_TABLE[USBUART_device].p_list;
 990:.\Generated_Source\PSoC5/USBUART_std.c **** 
 991:.\Generated_Source\PSoC5/USBUART_std.c ****         /* The first entry points to the Device Descriptor,
 992:.\Generated_Source\PSoC5/USBUART_std.c ****         *  the second entry points to the BOS Descriptor
 993:.\Generated_Source\PSoC5/USBUART_std.c ****         */
 994:.\Generated_Source\PSoC5/USBUART_std.c ****         pTmp = &pTmp[1u];
 995:.\Generated_Source\PSoC5/USBUART_std.c ****         pTmp = (const T_USBUART_LUT CYCODE *) pTmp->p_list;
 996:.\Generated_Source\PSoC5/USBUART_std.c ****         return (pTmp);
 997:.\Generated_Source\PSoC5/USBUART_std.c ****     }
 998:.\Generated_Source\PSoC5/USBUART_std.c **** #endif /* (USBUART_BOS_ENABLE) */
 999:.\Generated_Source\PSoC5/USBUART_std.c **** 
1000:.\Generated_Source\PSoC5/USBUART_std.c **** 
1001:.\Generated_Source\PSoC5/USBUART_std.c **** /*******************************************************************************
1002:.\Generated_Source\PSoC5/USBUART_std.c **** * Function Name: USBUART_GetDeviceTablePtr
1003:.\Generated_Source\PSoC5/USBUART_std.c **** ****************************************************************************//**
1004:.\Generated_Source\PSoC5/USBUART_std.c **** *
1005:.\Generated_Source\PSoC5/USBUART_std.c **** *  This routine returns a pointer to the Device table
ARM GAS  C:\Users\student\AppData\Local\Temp\ccpvKyYb.s 			page 29


1006:.\Generated_Source\PSoC5/USBUART_std.c **** *
1007:.\Generated_Source\PSoC5/USBUART_std.c **** * \return
1008:.\Generated_Source\PSoC5/USBUART_std.c **** *  Device Table pointer
1009:.\Generated_Source\PSoC5/USBUART_std.c **** *
1010:.\Generated_Source\PSoC5/USBUART_std.c **** *******************************************************************************/
1011:.\Generated_Source\PSoC5/USBUART_std.c **** const T_USBUART_LUT CYCODE *USBUART_GetDeviceTablePtr(void)
1012:.\Generated_Source\PSoC5/USBUART_std.c ****                                                             
1013:.\Generated_Source\PSoC5/USBUART_std.c **** {
 551              		.loc 1 1013 0 is_stmt 1
 552              		.cfi_startproc
 553              		@ args = 0, pretend = 0, frame = 0
 554              		@ frame_needed = 0, uses_anonymous_args = 0
 555              		@ link register save eliminated.
1014:.\Generated_Source\PSoC5/USBUART_std.c ****     /* Device Table */
1015:.\Generated_Source\PSoC5/USBUART_std.c ****     return( (const T_USBUART_LUT CYCODE *) USBUART_TABLE[USBUART_device].p_list );
 556              		.loc 1 1015 0
 557 0000 034B     		ldr	r3, .L44
 558 0002 1A78     		ldrb	r2, [r3]	@ zero_extendqisi2
 559 0004 034B     		ldr	r3, .L44+4
 560 0006 03EBC203 		add	r3, r3, r2, lsl #3
1016:.\Generated_Source\PSoC5/USBUART_std.c **** }
 561              		.loc 1 1016 0
 562 000a 5868     		ldr	r0, [r3, #4]
 563 000c 7047     		bx	lr
 564              	.L45:
 565 000e 00BF     		.align	2
 566              	.L44:
 567 0010 00000000 		.word	USBUART_device
 568 0014 00000000 		.word	USBUART_TABLE
 569              		.cfi_endproc
 570              	.LFE7:
 571              		.size	USBUART_GetDeviceTablePtr, .-USBUART_GetDeviceTablePtr
 572              		.section	.text.USBUART_GetInterfaceClassTablePtr,"ax",%progbits
 573              		.align	2
 574              		.global	USBUART_GetInterfaceClassTablePtr
 575              		.thumb
 576              		.thumb_func
 577              		.type	USBUART_GetInterfaceClassTablePtr, %function
 578              	USBUART_GetInterfaceClassTablePtr:
 579              	.LFB8:
1017:.\Generated_Source\PSoC5/USBUART_std.c **** 
1018:.\Generated_Source\PSoC5/USBUART_std.c **** 
1019:.\Generated_Source\PSoC5/USBUART_std.c **** /*******************************************************************************
1020:.\Generated_Source\PSoC5/USBUART_std.c **** * Function Name: USB_GetInterfaceClassTablePtr
1021:.\Generated_Source\PSoC5/USBUART_std.c **** ****************************************************************************//**
1022:.\Generated_Source\PSoC5/USBUART_std.c **** *
1023:.\Generated_Source\PSoC5/USBUART_std.c **** *  This routine returns Interface Class table pointer, which contains
1024:.\Generated_Source\PSoC5/USBUART_std.c **** *  the relation between interface number and interface class.
1025:.\Generated_Source\PSoC5/USBUART_std.c **** *
1026:.\Generated_Source\PSoC5/USBUART_std.c **** * \return
1027:.\Generated_Source\PSoC5/USBUART_std.c **** *  Interface Class table pointer.
1028:.\Generated_Source\PSoC5/USBUART_std.c **** *
1029:.\Generated_Source\PSoC5/USBUART_std.c **** *******************************************************************************/
1030:.\Generated_Source\PSoC5/USBUART_std.c **** const uint8 CYCODE *USBUART_GetInterfaceClassTablePtr(void)
1031:.\Generated_Source\PSoC5/USBUART_std.c ****                                                         
1032:.\Generated_Source\PSoC5/USBUART_std.c **** {
 580              		.loc 1 1032 0
ARM GAS  C:\Users\student\AppData\Local\Temp\ccpvKyYb.s 			page 30


 581              		.cfi_startproc
 582              		@ args = 0, pretend = 0, frame = 0
 583              		@ frame_needed = 0, uses_anonymous_args = 0
 584 0000 08B5     		push	{r3, lr}
 585              		.cfi_def_cfa_offset 8
 586              		.cfi_offset 3, -8
 587              		.cfi_offset 14, -4
1033:.\Generated_Source\PSoC5/USBUART_std.c ****     const T_USBUART_LUT CYCODE *pTmp;
1034:.\Generated_Source\PSoC5/USBUART_std.c ****     const uint8 CYCODE *pInterfaceClass;
1035:.\Generated_Source\PSoC5/USBUART_std.c ****     uint8 currentInterfacesNum;
1036:.\Generated_Source\PSoC5/USBUART_std.c **** 
1037:.\Generated_Source\PSoC5/USBUART_std.c ****     pTmp = USBUART_GetConfigTablePtr(USBUART_configuration - 1u);
 588              		.loc 1 1037 0
 589 0002 074B     		ldr	r3, .L50
 590 0004 1878     		ldrb	r0, [r3]	@ zero_extendqisi2
 591 0006 0138     		subs	r0, r0, #1
 592 0008 C0B2     		uxtb	r0, r0
 593 000a FFF7FEFF 		bl	USBUART_GetConfigTablePtr
 594              	.LVL42:
1038:.\Generated_Source\PSoC5/USBUART_std.c ****     if (pTmp != NULL)
 595              		.loc 1 1038 0
 596 000e 28B1     		cbz	r0, .L48
1039:.\Generated_Source\PSoC5/USBUART_std.c ****     {
1040:.\Generated_Source\PSoC5/USBUART_std.c ****         currentInterfacesNum  = ((const uint8 *) pTmp->p_list)[USBUART_CONFIG_DESCR_NUM_INTERFACES]
 597              		.loc 1 1040 0
 598 0010 4268     		ldr	r2, [r0, #4]
 599 0012 1279     		ldrb	r2, [r2, #4]	@ zero_extendqisi2
 600              	.LVL43:
1041:.\Generated_Source\PSoC5/USBUART_std.c ****         /* Third entry in the LUT starts the Interface Table pointers */
1042:.\Generated_Source\PSoC5/USBUART_std.c ****         /* The INTERFACE_CLASS table is located after all interfaces */
1043:.\Generated_Source\PSoC5/USBUART_std.c ****         pTmp = &pTmp[currentInterfacesNum + 2u];
 601              		.loc 1 1043 0
 602 0014 00EBC203 		add	r3, r0, r2, lsl #3
 603              	.LVL44:
1044:.\Generated_Source\PSoC5/USBUART_std.c ****         pInterfaceClass = (const uint8 CYCODE *) pTmp->p_list;
 604              		.loc 1 1044 0
 605 0018 5869     		ldr	r0, [r3, #20]
 606              	.LVL45:
 607 001a 08BD     		pop	{r3, pc}
 608              	.LVL46:
 609              	.L48:
1045:.\Generated_Source\PSoC5/USBUART_std.c ****     }
1046:.\Generated_Source\PSoC5/USBUART_std.c ****     else
1047:.\Generated_Source\PSoC5/USBUART_std.c ****     {
1048:.\Generated_Source\PSoC5/USBUART_std.c ****         pInterfaceClass = (const uint8 CYCODE *) NULL;
 610              		.loc 1 1048 0
 611 001c 0020     		movs	r0, #0
 612              	.LVL47:
1049:.\Generated_Source\PSoC5/USBUART_std.c ****     }
1050:.\Generated_Source\PSoC5/USBUART_std.c **** 
1051:.\Generated_Source\PSoC5/USBUART_std.c ****     return (pInterfaceClass);
1052:.\Generated_Source\PSoC5/USBUART_std.c **** }
 613              		.loc 1 1052 0
 614 001e 08BD     		pop	{r3, pc}
 615              	.L51:
 616              		.align	2
 617              	.L50:
ARM GAS  C:\Users\student\AppData\Local\Temp\ccpvKyYb.s 			page 31


 618 0020 00000000 		.word	USBUART_configuration
 619              		.cfi_endproc
 620              	.LFE8:
 621              		.size	USBUART_GetInterfaceClassTablePtr, .-USBUART_GetInterfaceClassTablePtr
 622              		.section	.text.USBUART_Config,"ax",%progbits
 623              		.align	2
 624              		.global	USBUART_Config
 625              		.thumb
 626              		.thumb_func
 627              		.type	USBUART_Config, %function
 628              	USBUART_Config:
 629              	.LFB4:
 571:.\Generated_Source\PSoC5/USBUART_std.c ****     uint8 ep;
 630              		.loc 1 571 0
 631              		.cfi_startproc
 632              		@ args = 0, pretend = 0, frame = 0
 633              		@ frame_needed = 0, uses_anonymous_args = 0
 634              	.LVL48:
 635 0000 2DE9F843 		push	{r3, r4, r5, r6, r7, r8, r9, lr}
 636              		.cfi_def_cfa_offset 32
 637              		.cfi_offset 3, -32
 638              		.cfi_offset 4, -28
 639              		.cfi_offset 5, -24
 640              		.cfi_offset 6, -20
 641              		.cfi_offset 7, -16
 642              		.cfi_offset 8, -12
 643              		.cfi_offset 9, -8
 644              		.cfi_offset 14, -4
 645              	.LVL49:
 586:.\Generated_Source\PSoC5/USBUART_std.c ****     {
 646              		.loc 1 586 0
 647 0004 0022     		movs	r2, #0
 648 0006 0EE0     		b	.L53
 649              	.LVL50:
 650              	.L54:
 588:.\Generated_Source\PSoC5/USBUART_std.c ****         USBUART_EP[ep].hwEpState  = 0u;
 651              		.loc 1 588 0 discriminator 3
 652 0008 6F4E     		ldr	r6, .L80
 653 000a 5300     		lsls	r3, r2, #1
 654 000c 9D18     		adds	r5, r3, r2
 655 000e AD00     		lsls	r5, r5, #2
 656 0010 7419     		adds	r4, r6, r5
 657 0012 0021     		movs	r1, #0
 658 0014 7155     		strb	r1, [r6, r5]
 589:.\Generated_Source\PSoC5/USBUART_std.c ****         USBUART_EP[ep].epToggle   = 0u;
 659              		.loc 1 589 0 discriminator 3
 660 0016 A170     		strb	r1, [r4, #2]
 590:.\Generated_Source\PSoC5/USBUART_std.c ****         USBUART_EP[ep].bufferSize = 0u;
 661              		.loc 1 590 0 discriminator 3
 662 0018 E170     		strb	r1, [r4, #3]
 591:.\Generated_Source\PSoC5/USBUART_std.c ****         USBUART_EP[ep].interface  = 0u;
 663              		.loc 1 591 0 discriminator 3
 664 001a 2181     		strh	r1, [r4, #8]	@ movhi
 592:.\Generated_Source\PSoC5/USBUART_std.c ****         USBUART_EP[ep].apiEpState = USBUART_NO_EVENT_PENDING;
 665              		.loc 1 592 0 discriminator 3
 666 001c A172     		strb	r1, [r4, #10]
 593:.\Generated_Source\PSoC5/USBUART_std.c ****         USBUART_EP[ep].epMode     = USBUART_MODE_DISABLE;   
ARM GAS  C:\Users\student\AppData\Local\Temp\ccpvKyYb.s 			page 32


 667              		.loc 1 593 0 discriminator 3
 668 001e 6170     		strb	r1, [r4, #1]
 594:.\Generated_Source\PSoC5/USBUART_std.c ****     }
 669              		.loc 1 594 0 discriminator 3
 670 0020 6171     		strb	r1, [r4, #5]
 586:.\Generated_Source\PSoC5/USBUART_std.c ****     {
 671              		.loc 1 586 0 discriminator 3
 672 0022 0132     		adds	r2, r2, #1
 673              	.LVL51:
 674 0024 D2B2     		uxtb	r2, r2
 675              	.LVL52:
 676              	.L53:
 586:.\Generated_Source\PSoC5/USBUART_std.c ****     {
 677              		.loc 1 586 0 is_stmt 0 discriminator 1
 678 0026 082A     		cmp	r2, #8
 679 0028 EED9     		bls	.L54
 598:.\Generated_Source\PSoC5/USBUART_std.c ****     {
 680              		.loc 1 598 0 is_stmt 1
 681 002a 40B9     		cbnz	r0, .L76
 682 002c 0AE0     		b	.L56
 683              	.LVL53:
 684              	.L57:
 602:.\Generated_Source\PSoC5/USBUART_std.c ****             USBUART_interfaceSettingLast[i] = 0u;
 685              		.loc 1 602 0 discriminator 3
 686 002e 0022     		movs	r2, #0
 687 0030 6649     		ldr	r1, .L80+4
 688 0032 CA54     		strb	r2, [r1, r3]
 603:.\Generated_Source\PSoC5/USBUART_std.c ****         }
 689              		.loc 1 603 0 discriminator 3
 690 0034 6649     		ldr	r1, .L80+8
 691 0036 CA54     		strb	r2, [r1, r3]
 600:.\Generated_Source\PSoC5/USBUART_std.c ****         {
 692              		.loc 1 600 0 discriminator 3
 693 0038 0133     		adds	r3, r3, #1
 694              	.LVL54:
 695 003a DBB2     		uxtb	r3, r3
 696              	.LVL55:
 697 003c 00E0     		b	.L55
 698              	.LVL56:
 699              	.L76:
 700 003e 0023     		movs	r3, #0
 701              	.LVL57:
 702              	.L55:
 600:.\Generated_Source\PSoC5/USBUART_std.c ****         {
 703              		.loc 1 600 0 is_stmt 0 discriminator 1
 704 0040 012B     		cmp	r3, #1
 705 0042 F4D9     		bls	.L57
 706              	.LVL58:
 707              	.L56:
 608:.\Generated_Source\PSoC5/USBUART_std.c ****     {
 708              		.loc 1 608 0 is_stmt 1
 709 0044 634B     		ldr	r3, .L80+12
 710 0046 1B78     		ldrb	r3, [r3]	@ zero_extendqisi2
 711 0048 13F0FF0F 		tst	r3, #255
 712 004c 00F0B980 		beq	.L52
 713              	.LVL59:
 714              	.LBB2:
ARM GAS  C:\Users\student\AppData\Local\Temp\ccpvKyYb.s 			page 33


 614:.\Generated_Source\PSoC5/USBUART_std.c ****         
 715              		.loc 1 614 0
 716 0050 604B     		ldr	r3, .L80+12
 717 0052 1878     		ldrb	r0, [r3]	@ zero_extendqisi2
 718              	.LVL60:
 719 0054 0138     		subs	r0, r0, #1
 720 0056 C0B2     		uxtb	r0, r0
 721 0058 FFF7FEFF 		bl	USBUART_GetConfigTablePtr
 722              	.LVL61:
 723 005c 8046     		mov	r8, r0
 724              	.LVL62:
 617:.\Generated_Source\PSoC5/USBUART_std.c ****         if ((pDescr[USBUART_CONFIG_DESCR_ATTRIB] & USBUART_CONFIG_DESCR_ATTRIB_SELF_POWERED) != 0u)
 725              		.loc 1 617 0
 726 005e 4368     		ldr	r3, [r0, #4]
 727              	.LVL63:
 618:.\Generated_Source\PSoC5/USBUART_std.c ****         {
 728              		.loc 1 618 0
 729 0060 DB79     		ldrb	r3, [r3, #7]	@ zero_extendqisi2
 730              	.LVL64:
 731 0062 13F0400F 		tst	r3, #64
 732 0066 05D0     		beq	.L59
 620:.\Generated_Source\PSoC5/USBUART_std.c ****         }
 733              		.loc 1 620 0
 734 0068 5B4A     		ldr	r2, .L80+16
 735 006a 1378     		ldrb	r3, [r2]	@ zero_extendqisi2
 736 006c 43F00103 		orr	r3, r3, #1
 737 0070 1370     		strb	r3, [r2]
 738 0072 04E0     		b	.L60
 739              	.L59:
 624:.\Generated_Source\PSoC5/USBUART_std.c ****         }
 740              		.loc 1 624 0
 741 0074 584A     		ldr	r2, .L80+16
 742 0076 1378     		ldrb	r3, [r2]	@ zero_extendqisi2
 743 0078 03F0FE03 		and	r3, r3, #254
 744 007c 1370     		strb	r3, [r2]
 745              	.L60:
 746              	.LVL65:
 629:.\Generated_Source\PSoC5/USBUART_std.c **** 
 747              		.loc 1 629 0
 748 007e 98F80870 		ldrb	r7, [r8, #8]	@ zero_extendqisi2
 749              	.LVL66:
 611:.\Generated_Source\PSoC5/USBUART_std.c ****         #endif  /* (USBUART_ENABLE_CDC_CLASS) */  
 750              		.loc 1 611 0
 751 0082 4FF00009 		mov	r9, #0
 687:.\Generated_Source\PSoC5/USBUART_std.c ****             {
 752              		.loc 1 687 0
 753 0086 0126     		movs	r6, #1
 754 0088 6CE0     		b	.L61
 755              	.LVL67:
 756              	.L71:
 690:.\Generated_Source\PSoC5/USBUART_std.c ****                 /* Find max length for each EP and select it (length could be different in differen
 757              		.loc 1 690 0
 758 008a D8F80C50 		ldr	r5, [r8, #12]
 759              	.LVL68:
 694:.\Generated_Source\PSoC5/USBUART_std.c ****                 {
 760              		.loc 1 694 0
 761 008e 0024     		movs	r4, #0
ARM GAS  C:\Users\student\AppData\Local\Temp\ccpvKyYb.s 			page 34


 762 0090 64E0     		b	.L62
 763              	.LVL69:
 764              	.L70:
 696:.\Generated_Source\PSoC5/USBUART_std.c ****                     {
 765              		.loc 1 696 0
 766 0092 AB78     		ldrb	r3, [r5, #2]	@ zero_extendqisi2
 767 0094 03F07F03 		and	r3, r3, #127
 768 0098 9E42     		cmp	r6, r3
 769 009a 5CD1     		bne	.L63
 699:.\Generated_Source\PSoC5/USBUART_std.c ****                         {
 770              		.loc 1 699 0
 771 009c 3146     		mov	r1, r6
 772 009e 06EB4603 		add	r3, r6, r6, lsl #1
 773 00a2 9B00     		lsls	r3, r3, #2
 774 00a4 4848     		ldr	r0, .L80
 775 00a6 0344     		add	r3, r3, r0
 776 00a8 1B89     		ldrh	r3, [r3, #8]
 777 00aa 9BB2     		uxth	r3, r3
 778 00ac A888     		ldrh	r0, [r5, #4]
 779 00ae 8342     		cmp	r3, r0
 780 00b0 05D2     		bcs	.L64
 701:.\Generated_Source\PSoC5/USBUART_std.c ****                         }
 781              		.loc 1 701 0
 782 00b2 06EB4603 		add	r3, r6, r6, lsl #1
 783 00b6 9B00     		lsls	r3, r3, #2
 784 00b8 434A     		ldr	r2, .L80
 785 00ba 1344     		add	r3, r3, r2
 786 00bc 1881     		strh	r0, [r3, #8]	@ movhi
 787              	.L64:
 705:.\Generated_Source\PSoC5/USBUART_std.c ****                         {                            
 788              		.loc 1 705 0
 789 00be 2B78     		ldrb	r3, [r5]	@ zero_extendqisi2
 790 00c0 4248     		ldr	r0, .L80+4
 791 00c2 C35C     		ldrb	r3, [r0, r3]	@ zero_extendqisi2
 792 00c4 DBB2     		uxtb	r3, r3
 793 00c6 6878     		ldrb	r0, [r5, #1]	@ zero_extendqisi2
 794 00c8 8342     		cmp	r3, r0
 795 00ca 44D1     		bne	.L63
 707:.\Generated_Source\PSoC5/USBUART_std.c ****                             USBUART_EP[i].attrib = pEP->attributes;
 796              		.loc 1 707 0
 797 00cc 95F802C0 		ldrb	ip, [r5, #2]	@ zero_extendqisi2
 798 00d0 3D48     		ldr	r0, .L80
 799 00d2 4B00     		lsls	r3, r1, #1
 800 00d4 0B44     		add	r3, r3, r1
 801 00d6 9B00     		lsls	r3, r3, #2
 802 00d8 00EB030E 		add	lr, r0, r3
 803 00dc 8EF804C0 		strb	ip, [lr, #4]
 708:.\Generated_Source\PSoC5/USBUART_std.c ****                             
 804              		.loc 1 708 0
 805 00e0 95F803E0 		ldrb	lr, [r5, #3]	@ zero_extendqisi2
 806 00e4 00F803E0 		strb	lr, [r0, r3]
 710:.\Generated_Source\PSoC5/USBUART_std.c ****                             
 807              		.loc 1 710 0
 808 00e8 EB78     		ldrb	r3, [r5, #3]	@ zero_extendqisi2
 809 00ea 03F00303 		and	r3, r3, #3
 810              	.LVL70:
 712:.\Generated_Source\PSoC5/USBUART_std.c ****                             {
ARM GAS  C:\Users\student\AppData\Local\Temp\ccpvKyYb.s 			page 35


 811              		.loc 1 712 0
 812 00ee 95F90200 		ldrsb	r0, [r5, #2]
 813 00f2 0028     		cmp	r0, #0
 814 00f4 11DA     		bge	.L65
 715:.\Generated_Source\PSoC5/USBUART_std.c ****                                 USBUART_EP[i].apiEpState = USBUART_EVENT_PENDING;
 815              		.loc 1 715 0
 816 00f6 012B     		cmp	r3, #1
 817 00f8 02D1     		bne	.L77
 818 00fa 4FF0070C 		mov	ip, #7
 819 00fe 01E0     		b	.L66
 820              	.L77:
 821 0100 4FF00D0C 		mov	ip, #13
 822              	.L66:
 715:.\Generated_Source\PSoC5/USBUART_std.c ****                                 USBUART_EP[i].apiEpState = USBUART_EVENT_PENDING;
 823              		.loc 1 715 0 is_stmt 0 discriminator 4
 824 0104 DFF8C0E0 		ldr	lr, .L80
 825 0108 4B00     		lsls	r3, r1, #1
 826              	.LVL71:
 827 010a 5818     		adds	r0, r3, r1
 828 010c 8000     		lsls	r0, r0, #2
 829 010e 7044     		add	r0, r0, lr
 830 0110 80F805C0 		strb	ip, [r0, #5]
 831              	.LVL72:
 716:.\Generated_Source\PSoC5/USBUART_std.c ****                                 
 832              		.loc 1 716 0 is_stmt 1 discriminator 4
 833 0114 0123     		movs	r3, #1
 834 0116 4370     		strb	r3, [r0, #1]
 835 0118 12E0     		b	.L67
 836              	.LVL73:
 837              	.L65:
 728:.\Generated_Source\PSoC5/USBUART_std.c ****                                 USBUART_EP[i].apiEpState = USBUART_NO_EVENT_PENDING;
 838              		.loc 1 728 0
 839 011a 012B     		cmp	r3, #1
 840 011c 02D1     		bne	.L78
 841 011e 4FF0050C 		mov	ip, #5
 842 0122 01E0     		b	.L68
 843              	.L78:
 844 0124 4FF0090C 		mov	ip, #9
 845              	.L68:
 728:.\Generated_Source\PSoC5/USBUART_std.c ****                                 USBUART_EP[i].apiEpState = USBUART_NO_EVENT_PENDING;
 846              		.loc 1 728 0 is_stmt 0 discriminator 4
 847 0128 2748     		ldr	r0, .L80
 848 012a 4FEA410E 		lsl	lr, r1, #1
 849 012e 0EEB0103 		add	r3, lr, r1
 850              	.LVL74:
 851 0132 9B00     		lsls	r3, r3, #2
 852 0134 0344     		add	r3, r3, r0
 853 0136 83F805C0 		strb	ip, [r3, #5]
 854              	.LVL75:
 729:.\Generated_Source\PSoC5/USBUART_std.c ****                                 
 855              		.loc 1 729 0 is_stmt 1 discriminator 4
 856 013a 1946     		mov	r1, r3
 857 013c 0023     		movs	r3, #0
 858 013e 4B70     		strb	r3, [r1, #1]
 859              	.L67:
 740:.\Generated_Source\PSoC5/USBUART_std.c ****                             {
 860              		.loc 1 740 0
ARM GAS  C:\Users\student\AppData\Local\Temp\ccpvKyYb.s 			page 36


 861 0140 AB79     		ldrb	r3, [r5, #6]	@ zero_extendqisi2
 862 0142 0A2B     		cmp	r3, #10
 863 0144 01D0     		beq	.L69
 740:.\Generated_Source\PSoC5/USBUART_std.c ****                             {
 864              		.loc 1 740 0 is_stmt 0 discriminator 1
 865 0146 022B     		cmp	r3, #2
 866 0148 05D1     		bne	.L63
 867              	.L69:
 742:.\Generated_Source\PSoC5/USBUART_std.c ****                             }
 868              		.loc 1 742 0 is_stmt 1
 869 014a 2846     		mov	r0, r5
 870 014c 3146     		mov	r1, r6
 871 014e 4A46     		mov	r2, r9
 872 0150 FFF7FEFF 		bl	USBUART_Cdc_EpInit
 873              	.LVL76:
 874 0154 8146     		mov	r9, r0
 875              	.LVL77:
 876              	.L63:
 752:.\Generated_Source\PSoC5/USBUART_std.c ****                 }
 877              		.loc 1 752 0 discriminator 2
 878 0156 0835     		adds	r5, r5, #8
 879              	.LVL78:
 694:.\Generated_Source\PSoC5/USBUART_std.c ****                 {
 880              		.loc 1 694 0 discriminator 2
 881 0158 0134     		adds	r4, r4, #1
 882              	.LVL79:
 883 015a E4B2     		uxtb	r4, r4
 884              	.LVL80:
 885              	.L62:
 694:.\Generated_Source\PSoC5/USBUART_std.c ****                 {
 886              		.loc 1 694 0 is_stmt 0 discriminator 1
 887 015c BC42     		cmp	r4, r7
 888 015e 98D3     		bcc	.L70
 687:.\Generated_Source\PSoC5/USBUART_std.c ****             {
 889              		.loc 1 687 0 is_stmt 1 discriminator 2
 890 0160 0136     		adds	r6, r6, #1
 891              	.LVL81:
 892 0162 F6B2     		uxtb	r6, r6
 893              	.LVL82:
 894              	.L61:
 687:.\Generated_Source\PSoC5/USBUART_std.c ****             {
 895              		.loc 1 687 0 is_stmt 0 discriminator 1
 896 0164 082E     		cmp	r6, #8
 897 0166 90D9     		bls	.L71
 762:.\Generated_Source\PSoC5/USBUART_std.c ****         for (i = 0u; i < ep; i++)
 898              		.loc 1 762 0 is_stmt 1
 899 0168 D8F80C00 		ldr	r0, [r8, #12]
 900              	.LVL83:
 763:.\Generated_Source\PSoC5/USBUART_std.c ****         {
 901              		.loc 1 763 0
 902 016c 0022     		movs	r2, #0
 903 016e 0CE0     		b	.L72
 904              	.LVL84:
 905              	.L73:
 766:.\Generated_Source\PSoC5/USBUART_std.c ****             pEP = &pEP[1u];
 906              		.loc 1 766 0 discriminator 3
 907 0170 8378     		ldrb	r3, [r0, #2]	@ zero_extendqisi2
ARM GAS  C:\Users\student\AppData\Local\Temp\ccpvKyYb.s 			page 37


 908 0172 03F07F03 		and	r3, r3, #127
 909 0176 10F8084B 		ldrb	r4, [r0], #8	@ zero_extendqisi2
 910              	.LVL85:
 911 017a 03EB4303 		add	r3, r3, r3, lsl #1
 912 017e 9B00     		lsls	r3, r3, #2
 913 0180 1649     		ldr	r1, .L80+20
 914 0182 0B44     		add	r3, r3, r1
 915 0184 9C70     		strb	r4, [r3, #2]
 916              	.LVL86:
 763:.\Generated_Source\PSoC5/USBUART_std.c ****         {
 917              		.loc 1 763 0 discriminator 3
 918 0186 0132     		adds	r2, r2, #1
 919              	.LVL87:
 920 0188 D2B2     		uxtb	r2, r2
 921              	.LVL88:
 922              	.L72:
 763:.\Generated_Source\PSoC5/USBUART_std.c ****         {
 923              		.loc 1 763 0 is_stmt 0 discriminator 1
 924 018a BA42     		cmp	r2, r7
 925 018c F0D3     		bcc	.L73
 771:.\Generated_Source\PSoC5/USBUART_std.c ****         
 926              		.loc 1 771 0 is_stmt 1
 927 018e FFF7FEFF 		bl	USBUART_GetInterfaceClassTablePtr
 928              	.LVL89:
 929 0192 134B     		ldr	r3, .L80+24
 930 0194 1860     		str	r0, [r3]
 931              	.LVL90:
 775:.\Generated_Source\PSoC5/USBUART_std.c ****         for (ep = USBUART_EP1; ep < USBUART_MAX_EP; ++ep)
 932              		.loc 1 775 0
 933 0196 0023     		movs	r3, #0
 776:.\Generated_Source\PSoC5/USBUART_std.c ****         {
 934              		.loc 1 776 0
 935 0198 0121     		movs	r1, #1
 936 019a 0EE0     		b	.L74
 937              	.LVL91:
 938              	.L75:
 778:.\Generated_Source\PSoC5/USBUART_std.c ****             buffCount += USBUART_EP[ep].bufferSize;
 939              		.loc 1 778 0 discriminator 3
 940 019c 0A4C     		ldr	r4, .L80
 941 019e 4A00     		lsls	r2, r1, #1
 942 01a0 5018     		adds	r0, r2, r1
 943 01a2 8000     		lsls	r0, r0, #2
 944 01a4 2044     		add	r0, r0, r4
 945 01a6 C380     		strh	r3, [r0, #6]	@ movhi
 779:.\Generated_Source\PSoC5/USBUART_std.c ****             
 946              		.loc 1 779 0 discriminator 3
 947 01a8 0289     		ldrh	r2, [r0, #8]
 948 01aa 1344     		add	r3, r3, r2
 949              	.LVL92:
 950 01ac 9BB2     		uxth	r3, r3
 951              	.LVL93:
 783:.\Generated_Source\PSoC5/USBUART_std.c ****         #endif /* (USBUART_GEN_16BITS_EP_ACCESS) */            
 952              		.loc 1 783 0 discriminator 3
 953 01ae 03F00102 		and	r2, r3, #1
 954 01b2 1344     		add	r3, r3, r2
 955              	.LVL94:
 956 01b4 9BB2     		uxth	r3, r3
ARM GAS  C:\Users\student\AppData\Local\Temp\ccpvKyYb.s 			page 38


 957              	.LVL95:
 776:.\Generated_Source\PSoC5/USBUART_std.c ****         {
 958              		.loc 1 776 0 discriminator 3
 959 01b6 0131     		adds	r1, r1, #1
 960              	.LVL96:
 961 01b8 C9B2     		uxtb	r1, r1
 962              	.LVL97:
 963              	.L74:
 776:.\Generated_Source\PSoC5/USBUART_std.c ****         {
 964              		.loc 1 776 0 is_stmt 0 discriminator 1
 965 01ba 0829     		cmp	r1, #8
 966 01bc EED9     		bls	.L75
 789:.\Generated_Source\PSoC5/USBUART_std.c ****     }
 967              		.loc 1 789 0 is_stmt 1
 968 01be FFF7FEFF 		bl	USBUART_ConfigReg
 969              	.LVL98:
 970              	.L52:
 971 01c2 BDE8F883 		pop	{r3, r4, r5, r6, r7, r8, r9, pc}
 972              	.L81:
 973 01c6 00BF     		.align	2
 974              	.L80:
 975 01c8 00000000 		.word	USBUART_EP
 976 01cc 00000000 		.word	USBUART_interfaceSetting
 977 01d0 00000000 		.word	USBUART_interfaceSettingLast
 978 01d4 00000000 		.word	USBUART_configuration
 979 01d8 00000000 		.word	USBUART_deviceStatus
 980 01dc 08000000 		.word	USBUART_EP+8
 981 01e0 00000000 		.word	USBUART_interfaceClass
 982              	.LBE2:
 983              		.cfi_endproc
 984              	.LFE4:
 985              		.size	USBUART_Config, .-USBUART_Config
 986              		.section	.text.USBUART_TerminateEP,"ax",%progbits
 987              		.align	2
 988              		.global	USBUART_TerminateEP
 989              		.thumb
 990              		.thumb_func
 991              		.type	USBUART_TerminateEP, %function
 992              	USBUART_TerminateEP:
 993              	.LFB9:
1053:.\Generated_Source\PSoC5/USBUART_std.c **** 
1054:.\Generated_Source\PSoC5/USBUART_std.c **** 
1055:.\Generated_Source\PSoC5/USBUART_std.c **** /*******************************************************************************
1056:.\Generated_Source\PSoC5/USBUART_std.c **** * Function Name: USBUART_TerminateEP
1057:.\Generated_Source\PSoC5/USBUART_std.c **** ****************************************************************************//**
1058:.\Generated_Source\PSoC5/USBUART_std.c **** *
1059:.\Generated_Source\PSoC5/USBUART_std.c **** *  This function terminates the specified USBFS endpoint.
1060:.\Generated_Source\PSoC5/USBUART_std.c **** *  This function should be used before endpoint reconfiguration.
1061:.\Generated_Source\PSoC5/USBUART_std.c **** *
1062:.\Generated_Source\PSoC5/USBUART_std.c **** *  \param ep Contains the data endpoint number.
1063:.\Generated_Source\PSoC5/USBUART_std.c **** *
1064:.\Generated_Source\PSoC5/USBUART_std.c **** *  \reentrant
1065:.\Generated_Source\PSoC5/USBUART_std.c **** *  No.
1066:.\Generated_Source\PSoC5/USBUART_std.c **** *
1067:.\Generated_Source\PSoC5/USBUART_std.c **** * \sideeffect
1068:.\Generated_Source\PSoC5/USBUART_std.c **** * 
1069:.\Generated_Source\PSoC5/USBUART_std.c **** * The device responds with a NAK for any transactions on the selected endpoint.
ARM GAS  C:\Users\student\AppData\Local\Temp\ccpvKyYb.s 			page 39


1070:.\Generated_Source\PSoC5/USBUART_std.c **** *   
1071:.\Generated_Source\PSoC5/USBUART_std.c **** *******************************************************************************/
1072:.\Generated_Source\PSoC5/USBUART_std.c **** void USBUART_TerminateEP(uint8 epNumber) 
1073:.\Generated_Source\PSoC5/USBUART_std.c **** {
 994              		.loc 1 1073 0
 995              		.cfi_startproc
 996              		@ args = 0, pretend = 0, frame = 0
 997              		@ frame_needed = 0, uses_anonymous_args = 0
 998              		@ link register save eliminated.
 999              	.LVL99:
1074:.\Generated_Source\PSoC5/USBUART_std.c ****     /* Get endpoint number */
1075:.\Generated_Source\PSoC5/USBUART_std.c ****     epNumber &= USBUART_DIR_UNUSED;
 1000              		.loc 1 1075 0
 1001 0000 00F07F00 		and	r0, r0, #127
 1002              	.LVL100:
1076:.\Generated_Source\PSoC5/USBUART_std.c **** 
1077:.\Generated_Source\PSoC5/USBUART_std.c ****     if ((epNumber > USBUART_EP0) && (epNumber < USBUART_MAX_EP))
 1003              		.loc 1 1077 0
 1004 0004 431E     		subs	r3, r0, #1
 1005 0006 DBB2     		uxtb	r3, r3
 1006 0008 072B     		cmp	r3, #7
 1007 000a 19D8     		bhi	.L82
1078:.\Generated_Source\PSoC5/USBUART_std.c ****     {
1079:.\Generated_Source\PSoC5/USBUART_std.c ****         /* Set the endpoint Halt */
1080:.\Generated_Source\PSoC5/USBUART_std.c ****         USBUART_EP[epNumber].hwEpState |= USBUART_ENDPOINT_STATUS_HALT;
 1008              		.loc 1 1080 0
 1009 000c 4300     		lsls	r3, r0, #1
 1010 000e 0344     		add	r3, r3, r0
 1011 0010 9B00     		lsls	r3, r3, #2
 1012 0012 0C4A     		ldr	r2, .L85
 1013 0014 1344     		add	r3, r3, r2
 1014 0016 9A78     		ldrb	r2, [r3, #2]	@ zero_extendqisi2
 1015 0018 42F00102 		orr	r2, r2, #1
 1016 001c 9A70     		strb	r2, [r3, #2]
1081:.\Generated_Source\PSoC5/USBUART_std.c **** 
1082:.\Generated_Source\PSoC5/USBUART_std.c ****         /* Clear the data toggle */
1083:.\Generated_Source\PSoC5/USBUART_std.c ****         USBUART_EP[epNumber].epToggle = 0u;
 1017              		.loc 1 1083 0
 1018 001e 0022     		movs	r2, #0
 1019 0020 DA70     		strb	r2, [r3, #3]
1084:.\Generated_Source\PSoC5/USBUART_std.c ****         USBUART_EP[epNumber].apiEpState = USBUART_NO_EVENT_ALLOWED;
 1020              		.loc 1 1084 0
 1021 0022 0222     		movs	r2, #2
 1022 0024 5A70     		strb	r2, [r3, #1]
1085:.\Generated_Source\PSoC5/USBUART_std.c **** 
1086:.\Generated_Source\PSoC5/USBUART_std.c ****         if ((USBUART_EP[epNumber].addr & USBUART_DIR_IN) != 0u)
 1023              		.loc 1 1086 0
 1024 0026 1B79     		ldrb	r3, [r3, #4]	@ zero_extendqisi2
 1025 0028 13F0800F 		tst	r3, #128
 1026 002c 04D0     		beq	.L84
1087:.\Generated_Source\PSoC5/USBUART_std.c ****         {   
1088:.\Generated_Source\PSoC5/USBUART_std.c ****             /* IN Endpoint */
1089:.\Generated_Source\PSoC5/USBUART_std.c ****             USBUART_SIE_EP_BASE.sieEp[epNumber].epCr0 = USBUART_MODE_NAK_IN;
 1027              		.loc 1 1089 0
 1028 002e 0001     		lsls	r0, r0, #4
 1029              	.LVL101:
 1030 0030 054B     		ldr	r3, .L85+4
ARM GAS  C:\Users\student\AppData\Local\Temp\ccpvKyYb.s 			page 40


 1031 0032 0C22     		movs	r2, #12
 1032 0034 1A54     		strb	r2, [r3, r0]
 1033 0036 7047     		bx	lr
 1034              	.LVL102:
 1035              	.L84:
1090:.\Generated_Source\PSoC5/USBUART_std.c ****         }
1091:.\Generated_Source\PSoC5/USBUART_std.c ****         else
1092:.\Generated_Source\PSoC5/USBUART_std.c ****         {
1093:.\Generated_Source\PSoC5/USBUART_std.c ****             /* OUT Endpoint */
1094:.\Generated_Source\PSoC5/USBUART_std.c ****             USBUART_SIE_EP_BASE.sieEp[epNumber].epCr0 = USBUART_MODE_NAK_OUT;
 1036              		.loc 1 1094 0
 1037 0038 0001     		lsls	r0, r0, #4
 1038              	.LVL103:
 1039 003a 034B     		ldr	r3, .L85+4
 1040 003c 0822     		movs	r2, #8
 1041 003e 1A54     		strb	r2, [r3, r0]
 1042              	.L82:
 1043 0040 7047     		bx	lr
 1044              	.L86:
 1045 0042 00BF     		.align	2
 1046              	.L85:
 1047 0044 00000000 		.word	USBUART_EP
 1048 0048 FE5F0040 		.word	1073766398
 1049              		.cfi_endproc
 1050              	.LFE9:
 1051              		.size	USBUART_TerminateEP, .-USBUART_TerminateEP
 1052              		.section	.text.USBUART_SetEndpointHalt,"ax",%progbits
 1053              		.align	2
 1054              		.global	USBUART_SetEndpointHalt
 1055              		.thumb
 1056              		.thumb_func
 1057              		.type	USBUART_SetEndpointHalt, %function
 1058              	USBUART_SetEndpointHalt:
 1059              	.LFB10:
1095:.\Generated_Source\PSoC5/USBUART_std.c ****         }
1096:.\Generated_Source\PSoC5/USBUART_std.c ****     }
1097:.\Generated_Source\PSoC5/USBUART_std.c **** }
1098:.\Generated_Source\PSoC5/USBUART_std.c **** 
1099:.\Generated_Source\PSoC5/USBUART_std.c **** 
1100:.\Generated_Source\PSoC5/USBUART_std.c **** /*******************************************************************************
1101:.\Generated_Source\PSoC5/USBUART_std.c **** * Function Name: USBUART_SetEndpointHalt
1102:.\Generated_Source\PSoC5/USBUART_std.c **** ****************************************************************************//**
1103:.\Generated_Source\PSoC5/USBUART_std.c **** *
1104:.\Generated_Source\PSoC5/USBUART_std.c **** *  This routine handles set endpoint halt.
1105:.\Generated_Source\PSoC5/USBUART_std.c **** *
1106:.\Generated_Source\PSoC5/USBUART_std.c **** * \return
1107:.\Generated_Source\PSoC5/USBUART_std.c **** *  requestHandled.
1108:.\Generated_Source\PSoC5/USBUART_std.c **** *
1109:.\Generated_Source\PSoC5/USBUART_std.c **** * \reentrant
1110:.\Generated_Source\PSoC5/USBUART_std.c **** *  No.
1111:.\Generated_Source\PSoC5/USBUART_std.c **** *
1112:.\Generated_Source\PSoC5/USBUART_std.c **** *******************************************************************************/
1113:.\Generated_Source\PSoC5/USBUART_std.c **** uint8 USBUART_SetEndpointHalt(void) 
1114:.\Generated_Source\PSoC5/USBUART_std.c **** {
 1060              		.loc 1 1114 0
 1061              		.cfi_startproc
 1062              		@ args = 0, pretend = 0, frame = 0
ARM GAS  C:\Users\student\AppData\Local\Temp\ccpvKyYb.s 			page 41


 1063              		@ frame_needed = 0, uses_anonymous_args = 0
 1064 0000 08B5     		push	{r3, lr}
 1065              		.cfi_def_cfa_offset 8
 1066              		.cfi_offset 3, -8
 1067              		.cfi_offset 14, -4
 1068              	.LVL104:
1115:.\Generated_Source\PSoC5/USBUART_std.c ****     uint8 requestHandled = USBUART_FALSE;
1116:.\Generated_Source\PSoC5/USBUART_std.c ****     uint8 ep;
1117:.\Generated_Source\PSoC5/USBUART_std.c ****     
1118:.\Generated_Source\PSoC5/USBUART_std.c ****     /* Set endpoint halt */
1119:.\Generated_Source\PSoC5/USBUART_std.c ****     ep = USBUART_wIndexLoReg & USBUART_DIR_UNUSED;
 1069              		.loc 1 1119 0
 1070 0002 154B     		ldr	r3, .L93
 1071 0004 1A79     		ldrb	r2, [r3, #4]	@ zero_extendqisi2
 1072 0006 02F07F02 		and	r2, r2, #127
 1073              	.LVL105:
1120:.\Generated_Source\PSoC5/USBUART_std.c **** 
1121:.\Generated_Source\PSoC5/USBUART_std.c ****     if ((ep > USBUART_EP0) && (ep < USBUART_MAX_EP))
 1074              		.loc 1 1121 0
 1075 000a 531E     		subs	r3, r2, #1
 1076 000c DBB2     		uxtb	r3, r3
 1077 000e 072B     		cmp	r3, #7
 1078 0010 20D8     		bhi	.L91
1122:.\Generated_Source\PSoC5/USBUART_std.c ****     {
1123:.\Generated_Source\PSoC5/USBUART_std.c ****         /* Set the endpoint Halt */
1124:.\Generated_Source\PSoC5/USBUART_std.c ****         USBUART_EP[ep].hwEpState |= (USBUART_ENDPOINT_STATUS_HALT);
 1079              		.loc 1 1124 0
 1080 0012 5300     		lsls	r3, r2, #1
 1081 0014 1344     		add	r3, r3, r2
 1082 0016 9B00     		lsls	r3, r3, #2
 1083 0018 1049     		ldr	r1, .L93+4
 1084 001a 0B44     		add	r3, r3, r1
 1085 001c 9978     		ldrb	r1, [r3, #2]	@ zero_extendqisi2
 1086 001e 41F00101 		orr	r1, r1, #1
 1087 0022 9970     		strb	r1, [r3, #2]
1125:.\Generated_Source\PSoC5/USBUART_std.c **** 
1126:.\Generated_Source\PSoC5/USBUART_std.c ****         /* Clear the data toggle */
1127:.\Generated_Source\PSoC5/USBUART_std.c ****         USBUART_EP[ep].epToggle = 0u;
 1088              		.loc 1 1127 0
 1089 0024 0021     		movs	r1, #0
 1090 0026 D970     		strb	r1, [r3, #3]
1128:.\Generated_Source\PSoC5/USBUART_std.c ****         USBUART_EP[ep].apiEpState |= USBUART_NO_EVENT_ALLOWED;
 1091              		.loc 1 1128 0
 1092 0028 5978     		ldrb	r1, [r3, #1]	@ zero_extendqisi2
 1093 002a 41F00201 		orr	r1, r1, #2
 1094 002e 5970     		strb	r1, [r3, #1]
1129:.\Generated_Source\PSoC5/USBUART_std.c **** 
1130:.\Generated_Source\PSoC5/USBUART_std.c ****         if ((USBUART_EP[ep].addr & USBUART_DIR_IN) != 0u)
 1095              		.loc 1 1130 0
 1096 0030 1B79     		ldrb	r3, [r3, #4]	@ zero_extendqisi2
 1097 0032 13F0800F 		tst	r3, #128
 1098 0036 05D0     		beq	.L89
1131:.\Generated_Source\PSoC5/USBUART_std.c ****         {
1132:.\Generated_Source\PSoC5/USBUART_std.c ****             /* IN Endpoint */
1133:.\Generated_Source\PSoC5/USBUART_std.c ****             USBUART_SIE_EP_BASE.sieEp[ep].epCr0 = (USBUART_MODE_STALL_DATA_EP | 
 1099              		.loc 1 1133 0
 1100 0038 1201     		lsls	r2, r2, #4
ARM GAS  C:\Users\student\AppData\Local\Temp\ccpvKyYb.s 			page 42


 1101              	.LVL106:
 1102 003a 094B     		ldr	r3, .L93+8
 1103 003c 1344     		add	r3, r3, r2
 1104 003e 8D22     		movs	r2, #141
 1105 0040 9A70     		strb	r2, [r3, #2]
 1106 0042 04E0     		b	.L90
 1107              	.LVL107:
 1108              	.L89:
1134:.\Generated_Source\PSoC5/USBUART_std.c ****                                                             USBUART_MODE_ACK_IN);
1135:.\Generated_Source\PSoC5/USBUART_std.c ****         }
1136:.\Generated_Source\PSoC5/USBUART_std.c ****         else
1137:.\Generated_Source\PSoC5/USBUART_std.c ****         {
1138:.\Generated_Source\PSoC5/USBUART_std.c ****             /* OUT Endpoint */
1139:.\Generated_Source\PSoC5/USBUART_std.c ****             USBUART_SIE_EP_BASE.sieEp[ep].epCr0 = (USBUART_MODE_STALL_DATA_EP | 
 1109              		.loc 1 1139 0
 1110 0044 1201     		lsls	r2, r2, #4
 1111              	.LVL108:
 1112 0046 064B     		ldr	r3, .L93+8
 1113 0048 1344     		add	r3, r3, r2
 1114 004a 8922     		movs	r2, #137
 1115 004c 9A70     		strb	r2, [r3, #2]
 1116              	.L90:
1140:.\Generated_Source\PSoC5/USBUART_std.c ****                                                             USBUART_MODE_ACK_OUT);
1141:.\Generated_Source\PSoC5/USBUART_std.c ****         }
1142:.\Generated_Source\PSoC5/USBUART_std.c ****         requestHandled = USBUART_InitNoDataControlTransfer();
 1117              		.loc 1 1142 0
 1118 004e FFF7FEFF 		bl	USBUART_InitNoDataControlTransfer
 1119              	.LVL109:
 1120 0052 08BD     		pop	{r3, pc}
 1121              	.LVL110:
 1122              	.L91:
1115:.\Generated_Source\PSoC5/USBUART_std.c ****     uint8 ep;
 1123              		.loc 1 1115 0
 1124 0054 0020     		movs	r0, #0
 1125              	.LVL111:
1143:.\Generated_Source\PSoC5/USBUART_std.c ****     }
1144:.\Generated_Source\PSoC5/USBUART_std.c **** 
1145:.\Generated_Source\PSoC5/USBUART_std.c ****     return (requestHandled);
1146:.\Generated_Source\PSoC5/USBUART_std.c **** }
 1126              		.loc 1 1146 0
 1127 0056 08BD     		pop	{r3, pc}
 1128              	.L94:
 1129              		.align	2
 1130              	.L93:
 1131 0058 00600040 		.word	1073766400
 1132 005c 00000000 		.word	USBUART_EP
 1133 0060 FC5F0040 		.word	1073766396
 1134              		.cfi_endproc
 1135              	.LFE10:
 1136              		.size	USBUART_SetEndpointHalt, .-USBUART_SetEndpointHalt
 1137              		.section	.text.USBUART_ClearEndpointHalt,"ax",%progbits
 1138              		.align	2
 1139              		.global	USBUART_ClearEndpointHalt
 1140              		.thumb
 1141              		.thumb_func
 1142              		.type	USBUART_ClearEndpointHalt, %function
 1143              	USBUART_ClearEndpointHalt:
ARM GAS  C:\Users\student\AppData\Local\Temp\ccpvKyYb.s 			page 43


 1144              	.LFB11:
1147:.\Generated_Source\PSoC5/USBUART_std.c **** 
1148:.\Generated_Source\PSoC5/USBUART_std.c **** 
1149:.\Generated_Source\PSoC5/USBUART_std.c **** /*******************************************************************************
1150:.\Generated_Source\PSoC5/USBUART_std.c **** * Function Name: USBUART_ClearEndpointHalt
1151:.\Generated_Source\PSoC5/USBUART_std.c **** ****************************************************************************//**
1152:.\Generated_Source\PSoC5/USBUART_std.c **** *
1153:.\Generated_Source\PSoC5/USBUART_std.c **** *  This routine handles clear endpoint halt.
1154:.\Generated_Source\PSoC5/USBUART_std.c **** *
1155:.\Generated_Source\PSoC5/USBUART_std.c **** * \return
1156:.\Generated_Source\PSoC5/USBUART_std.c **** *  requestHandled.
1157:.\Generated_Source\PSoC5/USBUART_std.c **** *
1158:.\Generated_Source\PSoC5/USBUART_std.c **** * \reentrant
1159:.\Generated_Source\PSoC5/USBUART_std.c **** *  No.
1160:.\Generated_Source\PSoC5/USBUART_std.c **** *
1161:.\Generated_Source\PSoC5/USBUART_std.c **** *******************************************************************************/
1162:.\Generated_Source\PSoC5/USBUART_std.c **** uint8 USBUART_ClearEndpointHalt(void) 
1163:.\Generated_Source\PSoC5/USBUART_std.c **** {
 1145              		.loc 1 1163 0
 1146              		.cfi_startproc
 1147              		@ args = 0, pretend = 0, frame = 0
 1148              		@ frame_needed = 0, uses_anonymous_args = 0
 1149              	.LVL112:
1164:.\Generated_Source\PSoC5/USBUART_std.c ****     uint8 requestHandled = USBUART_FALSE;
1165:.\Generated_Source\PSoC5/USBUART_std.c ****     uint8 ep;
1166:.\Generated_Source\PSoC5/USBUART_std.c **** 
1167:.\Generated_Source\PSoC5/USBUART_std.c ****     /* Clear endpoint halt */
1168:.\Generated_Source\PSoC5/USBUART_std.c ****     ep = USBUART_wIndexLoReg & USBUART_DIR_UNUSED;
 1150              		.loc 1 1168 0
 1151 0000 264B     		ldr	r3, .L104
 1152 0002 1B79     		ldrb	r3, [r3, #4]	@ zero_extendqisi2
 1153 0004 03F07F03 		and	r3, r3, #127
 1154              	.LVL113:
1169:.\Generated_Source\PSoC5/USBUART_std.c **** 
1170:.\Generated_Source\PSoC5/USBUART_std.c ****     if ((ep > USBUART_EP0) && (ep < USBUART_MAX_EP))
 1155              		.loc 1 1170 0
 1156 0008 5A1E     		subs	r2, r3, #1
 1157 000a D2B2     		uxtb	r2, r2
 1158 000c 072A     		cmp	r2, #7
 1159 000e 43D8     		bhi	.L101
1163:.\Generated_Source\PSoC5/USBUART_std.c ****     uint8 requestHandled = USBUART_FALSE;
 1160              		.loc 1 1163 0
 1161 0010 10B5     		push	{r4, lr}
 1162              		.cfi_def_cfa_offset 8
 1163              		.cfi_offset 4, -8
 1164              		.cfi_offset 14, -4
1171:.\Generated_Source\PSoC5/USBUART_std.c ****     {
1172:.\Generated_Source\PSoC5/USBUART_std.c ****         /* Clear the endpoint Halt */
1173:.\Generated_Source\PSoC5/USBUART_std.c ****         USBUART_EP[ep].hwEpState &= (uint8) ~USBUART_ENDPOINT_STATUS_HALT;
 1165              		.loc 1 1173 0
 1166 0012 5A00     		lsls	r2, r3, #1
 1167 0014 1A44     		add	r2, r2, r3
 1168 0016 9200     		lsls	r2, r2, #2
 1169 0018 2149     		ldr	r1, .L104+4
 1170 001a 0A44     		add	r2, r2, r1
 1171 001c 9178     		ldrb	r1, [r2, #2]	@ zero_extendqisi2
 1172 001e 01F0FE01 		and	r1, r1, #254
ARM GAS  C:\Users\student\AppData\Local\Temp\ccpvKyYb.s 			page 44


 1173 0022 9170     		strb	r1, [r2, #2]
1174:.\Generated_Source\PSoC5/USBUART_std.c **** 
1175:.\Generated_Source\PSoC5/USBUART_std.c ****         /* Clear the data toggle */
1176:.\Generated_Source\PSoC5/USBUART_std.c ****         USBUART_EP[ep].epToggle = 0u;
 1174              		.loc 1 1176 0
 1175 0024 0021     		movs	r1, #0
 1176 0026 D170     		strb	r1, [r2, #3]
1177:.\Generated_Source\PSoC5/USBUART_std.c ****         
1178:.\Generated_Source\PSoC5/USBUART_std.c ****         /* Clear toggle bit for already armed packet */
1179:.\Generated_Source\PSoC5/USBUART_std.c ****         USBUART_SIE_EP_BASE.sieEp[ep].epCnt0 = (uint8) ~(uint8)USBUART_EPX_CNT_DATA_TOGGLE;
 1177              		.loc 1 1179 0
 1178 0028 1901     		lsls	r1, r3, #4
 1179 002a 7F24     		movs	r4, #127
 1180 002c 1D48     		ldr	r0, .L104+8
 1181 002e 4454     		strb	r4, [r0, r1]
1180:.\Generated_Source\PSoC5/USBUART_std.c ****         
1181:.\Generated_Source\PSoC5/USBUART_std.c ****         /* Return API State as it was defined before */
1182:.\Generated_Source\PSoC5/USBUART_std.c ****         USBUART_EP[ep].apiEpState &= (uint8) ~USBUART_NO_EVENT_ALLOWED;
 1182              		.loc 1 1182 0
 1183 0030 5178     		ldrb	r1, [r2, #1]	@ zero_extendqisi2
 1184 0032 01F0FD01 		and	r1, r1, #253
 1185 0036 5170     		strb	r1, [r2, #1]
1183:.\Generated_Source\PSoC5/USBUART_std.c **** 
1184:.\Generated_Source\PSoC5/USBUART_std.c ****         if ((USBUART_EP[ep].addr & USBUART_DIR_IN) != 0u)
 1186              		.loc 1 1184 0
 1187 0038 1279     		ldrb	r2, [r2, #4]	@ zero_extendqisi2
 1188 003a 12F0800F 		tst	r2, #128
 1189 003e 14D0     		beq	.L97
1185:.\Generated_Source\PSoC5/USBUART_std.c ****         {
1186:.\Generated_Source\PSoC5/USBUART_std.c ****             /* IN Endpoint */
1187:.\Generated_Source\PSoC5/USBUART_std.c ****             if(USBUART_EP[ep].apiEpState == USBUART_IN_BUFFER_EMPTY)
 1190              		.loc 1 1187 0
 1191 0040 03EB4302 		add	r2, r3, r3, lsl #1
 1192 0044 9200     		lsls	r2, r2, #2
 1193 0046 1649     		ldr	r1, .L104+4
 1194 0048 0A44     		add	r2, r2, r1
 1195 004a 5278     		ldrb	r2, [r2, #1]	@ zero_extendqisi2
 1196 004c D2B2     		uxtb	r2, r2
 1197 004e 012A     		cmp	r2, #1
 1198 0050 05D1     		bne	.L98
1188:.\Generated_Source\PSoC5/USBUART_std.c ****             {       
1189:.\Generated_Source\PSoC5/USBUART_std.c ****                 /* Wait for next packet from application */
1190:.\Generated_Source\PSoC5/USBUART_std.c ****                 USBUART_SIE_EP_BASE.sieEp[ep].epCr0 = USBUART_MODE_NAK_IN;
 1199              		.loc 1 1190 0
 1200 0052 1B01     		lsls	r3, r3, #4
 1201              	.LVL114:
 1202 0054 0246     		mov	r2, r0
 1203 0056 1A44     		add	r2, r2, r3
 1204 0058 0C23     		movs	r3, #12
 1205 005a 9370     		strb	r3, [r2, #2]
 1206 005c 19E0     		b	.L99
 1207              	.LVL115:
 1208              	.L98:
1191:.\Generated_Source\PSoC5/USBUART_std.c ****             }
1192:.\Generated_Source\PSoC5/USBUART_std.c ****             else    /* Continue armed transfer */
1193:.\Generated_Source\PSoC5/USBUART_std.c ****             {
1194:.\Generated_Source\PSoC5/USBUART_std.c ****                 USBUART_SIE_EP_BASE.sieEp[ep].epCr0 = USBUART_MODE_ACK_IN;
ARM GAS  C:\Users\student\AppData\Local\Temp\ccpvKyYb.s 			page 45


 1209              		.loc 1 1194 0
 1210 005e 1B01     		lsls	r3, r3, #4
 1211              	.LVL116:
 1212 0060 104A     		ldr	r2, .L104+8
 1213 0062 1A44     		add	r2, r2, r3
 1214 0064 0D23     		movs	r3, #13
 1215 0066 9370     		strb	r3, [r2, #2]
 1216 0068 13E0     		b	.L99
 1217              	.LVL117:
 1218              	.L97:
1195:.\Generated_Source\PSoC5/USBUART_std.c ****             }
1196:.\Generated_Source\PSoC5/USBUART_std.c ****         }
1197:.\Generated_Source\PSoC5/USBUART_std.c ****         else
1198:.\Generated_Source\PSoC5/USBUART_std.c ****         {
1199:.\Generated_Source\PSoC5/USBUART_std.c ****             /* OUT Endpoint */
1200:.\Generated_Source\PSoC5/USBUART_std.c ****             if (USBUART_EP[ep].apiEpState == USBUART_OUT_BUFFER_FULL)
 1219              		.loc 1 1200 0
 1220 006a 03EB4302 		add	r2, r3, r3, lsl #1
 1221 006e 9200     		lsls	r2, r2, #2
 1222 0070 0B49     		ldr	r1, .L104+4
 1223 0072 0A44     		add	r2, r2, r1
 1224 0074 5278     		ldrb	r2, [r2, #1]	@ zero_extendqisi2
 1225 0076 D2B2     		uxtb	r2, r2
 1226 0078 012A     		cmp	r2, #1
 1227 007a 05D1     		bne	.L100
1201:.\Generated_Source\PSoC5/USBUART_std.c ****             {       
1202:.\Generated_Source\PSoC5/USBUART_std.c ****                 /* Allow application to read full buffer */
1203:.\Generated_Source\PSoC5/USBUART_std.c ****                 USBUART_SIE_EP_BASE.sieEp[ep].epCr0 = USBUART_MODE_NAK_OUT;
 1228              		.loc 1 1203 0
 1229 007c 1B01     		lsls	r3, r3, #4
 1230              	.LVL118:
 1231 007e 094A     		ldr	r2, .L104+8
 1232 0080 1A44     		add	r2, r2, r3
 1233 0082 0823     		movs	r3, #8
 1234 0084 9370     		strb	r3, [r2, #2]
 1235 0086 04E0     		b	.L99
 1236              	.LVL119:
 1237              	.L100:
1204:.\Generated_Source\PSoC5/USBUART_std.c ****             }
1205:.\Generated_Source\PSoC5/USBUART_std.c ****             else    /* Mark endpoint as empty, so it will be reloaded */
1206:.\Generated_Source\PSoC5/USBUART_std.c ****             {
1207:.\Generated_Source\PSoC5/USBUART_std.c ****                 USBUART_SIE_EP_BASE.sieEp[ep].epCr0 = USBUART_MODE_ACK_OUT;
 1238              		.loc 1 1207 0
 1239 0088 1B01     		lsls	r3, r3, #4
 1240              	.LVL120:
 1241 008a 064A     		ldr	r2, .L104+8
 1242 008c 1A44     		add	r2, r2, r3
 1243 008e 0923     		movs	r3, #9
 1244 0090 9370     		strb	r3, [r2, #2]
 1245              	.L99:
1208:.\Generated_Source\PSoC5/USBUART_std.c ****             }
1209:.\Generated_Source\PSoC5/USBUART_std.c ****         }
1210:.\Generated_Source\PSoC5/USBUART_std.c ****         
1211:.\Generated_Source\PSoC5/USBUART_std.c ****         requestHandled = USBUART_InitNoDataControlTransfer();
 1246              		.loc 1 1211 0
 1247 0092 FFF7FEFF 		bl	USBUART_InitNoDataControlTransfer
 1248              	.LVL121:
ARM GAS  C:\Users\student\AppData\Local\Temp\ccpvKyYb.s 			page 46


 1249 0096 10BD     		pop	{r4, pc}
 1250              	.LVL122:
 1251              	.L101:
 1252              		.cfi_def_cfa_offset 0
 1253              		.cfi_restore 4
 1254              		.cfi_restore 14
1164:.\Generated_Source\PSoC5/USBUART_std.c ****     uint8 ep;
 1255              		.loc 1 1164 0
 1256 0098 0020     		movs	r0, #0
 1257 009a 7047     		bx	lr
 1258              	.L105:
 1259              		.align	2
 1260              	.L104:
 1261 009c 00600040 		.word	1073766400
 1262 00a0 00000000 		.word	USBUART_EP
 1263 00a4 FC5F0040 		.word	1073766396
 1264              		.cfi_endproc
 1265              	.LFE11:
 1266              		.size	USBUART_ClearEndpointHalt, .-USBUART_ClearEndpointHalt
 1267              		.section	.text.USBUART_ValidateAlternateSetting,"ax",%progbits
 1268              		.align	2
 1269              		.global	USBUART_ValidateAlternateSetting
 1270              		.thumb
 1271              		.thumb_func
 1272              		.type	USBUART_ValidateAlternateSetting, %function
 1273              	USBUART_ValidateAlternateSetting:
 1274              	.LFB12:
1212:.\Generated_Source\PSoC5/USBUART_std.c ****     }
1213:.\Generated_Source\PSoC5/USBUART_std.c **** 
1214:.\Generated_Source\PSoC5/USBUART_std.c ****     return(requestHandled);
1215:.\Generated_Source\PSoC5/USBUART_std.c **** }
1216:.\Generated_Source\PSoC5/USBUART_std.c **** 
1217:.\Generated_Source\PSoC5/USBUART_std.c **** 
1218:.\Generated_Source\PSoC5/USBUART_std.c **** /*******************************************************************************
1219:.\Generated_Source\PSoC5/USBUART_std.c **** * Function Name: USBUART_ValidateAlternateSetting
1220:.\Generated_Source\PSoC5/USBUART_std.c **** ****************************************************************************//**
1221:.\Generated_Source\PSoC5/USBUART_std.c **** *
1222:.\Generated_Source\PSoC5/USBUART_std.c **** *  Validates (and records) a SET INTERFACE request.
1223:.\Generated_Source\PSoC5/USBUART_std.c **** *
1224:.\Generated_Source\PSoC5/USBUART_std.c **** * \return
1225:.\Generated_Source\PSoC5/USBUART_std.c **** *  requestHandled.
1226:.\Generated_Source\PSoC5/USBUART_std.c **** *
1227:.\Generated_Source\PSoC5/USBUART_std.c **** * \reentrant
1228:.\Generated_Source\PSoC5/USBUART_std.c **** *  No.
1229:.\Generated_Source\PSoC5/USBUART_std.c **** *
1230:.\Generated_Source\PSoC5/USBUART_std.c **** *******************************************************************************/
1231:.\Generated_Source\PSoC5/USBUART_std.c **** uint8 USBUART_ValidateAlternateSetting(void) 
1232:.\Generated_Source\PSoC5/USBUART_std.c **** {
 1275              		.loc 1 1232 0
 1276              		.cfi_startproc
 1277              		@ args = 0, pretend = 0, frame = 0
 1278              		@ frame_needed = 0, uses_anonymous_args = 0
 1279 0000 10B5     		push	{r4, lr}
 1280              		.cfi_def_cfa_offset 8
 1281              		.cfi_offset 4, -8
 1282              		.cfi_offset 14, -4
 1283              	.LVL123:
ARM GAS  C:\Users\student\AppData\Local\Temp\ccpvKyYb.s 			page 47


1233:.\Generated_Source\PSoC5/USBUART_std.c ****     uint8 requestHandled = USBUART_FALSE;
1234:.\Generated_Source\PSoC5/USBUART_std.c ****     
1235:.\Generated_Source\PSoC5/USBUART_std.c ****     uint8 interfaceNum;
1236:.\Generated_Source\PSoC5/USBUART_std.c ****     uint8 curInterfacesNum;
1237:.\Generated_Source\PSoC5/USBUART_std.c ****     const T_USBUART_LUT CYCODE *pTmp;
1238:.\Generated_Source\PSoC5/USBUART_std.c ****     
1239:.\Generated_Source\PSoC5/USBUART_std.c ****     /* Get interface number from the request. */
1240:.\Generated_Source\PSoC5/USBUART_std.c ****     interfaceNum = (uint8) USBUART_wIndexLoReg;
 1284              		.loc 1 1240 0
 1285 0002 0E4B     		ldr	r3, .L111
 1286 0004 1C79     		ldrb	r4, [r3, #4]	@ zero_extendqisi2
 1287 0006 E4B2     		uxtb	r4, r4
 1288              	.LVL124:
1241:.\Generated_Source\PSoC5/USBUART_std.c ****     
1242:.\Generated_Source\PSoC5/USBUART_std.c ****     /* Get number of interfaces for current configuration. */
1243:.\Generated_Source\PSoC5/USBUART_std.c ****     pTmp = USBUART_GetConfigTablePtr(USBUART_configuration - 1u);
 1289              		.loc 1 1243 0
 1290 0008 0D4B     		ldr	r3, .L111+4
 1291 000a 1878     		ldrb	r0, [r3]	@ zero_extendqisi2
 1292 000c 0138     		subs	r0, r0, #1
 1293 000e C0B2     		uxtb	r0, r0
 1294 0010 FFF7FEFF 		bl	USBUART_GetConfigTablePtr
 1295              	.LVL125:
1244:.\Generated_Source\PSoC5/USBUART_std.c ****     curInterfacesNum  = ((const uint8 *) pTmp->p_list)[USBUART_CONFIG_DESCR_NUM_INTERFACES];
 1296              		.loc 1 1244 0
 1297 0014 4368     		ldr	r3, [r0, #4]
 1298 0016 1B79     		ldrb	r3, [r3, #4]	@ zero_extendqisi2
 1299              	.LVL126:
1245:.\Generated_Source\PSoC5/USBUART_std.c **** 
1246:.\Generated_Source\PSoC5/USBUART_std.c ****     /* Validate that interface number is within range. */
1247:.\Generated_Source\PSoC5/USBUART_std.c ****     if ((interfaceNum <= curInterfacesNum) || (interfaceNum <= USBUART_MAX_INTERFACES_NUMBER))
 1300              		.loc 1 1247 0
 1301 0018 9C42     		cmp	r4, r3
 1302 001a 01D9     		bls	.L107
 1303              		.loc 1 1247 0 is_stmt 0 discriminator 1
 1304 001c 022C     		cmp	r4, #2
 1305 001e 0AD8     		bhi	.L109
 1306              	.L107:
1248:.\Generated_Source\PSoC5/USBUART_std.c ****     {
1249:.\Generated_Source\PSoC5/USBUART_std.c ****         /* Save current and new alternate settings (come with request) to make 
1250:.\Generated_Source\PSoC5/USBUART_std.c ****         * desicion about following endpoint re-configuration.
1251:.\Generated_Source\PSoC5/USBUART_std.c ****         */
1252:.\Generated_Source\PSoC5/USBUART_std.c ****         USBUART_interfaceSettingLast[interfaceNum] = USBUART_interfaceSetting[interfaceNum];
 1307              		.loc 1 1252 0 is_stmt 1
 1308 0020 084A     		ldr	r2, .L111+8
 1309 0022 135D     		ldrb	r3, [r2, r4]	@ zero_extendqisi2
 1310              	.LVL127:
 1311 0024 DBB2     		uxtb	r3, r3
 1312 0026 0849     		ldr	r1, .L111+12
 1313 0028 0B55     		strb	r3, [r1, r4]
1253:.\Generated_Source\PSoC5/USBUART_std.c ****         USBUART_interfaceSetting[interfaceNum]     = (uint8) USBUART_wValueLoReg;
 1314              		.loc 1 1253 0
 1315 002a 044B     		ldr	r3, .L111
 1316 002c 9B78     		ldrb	r3, [r3, #2]	@ zero_extendqisi2
 1317 002e DBB2     		uxtb	r3, r3
 1318 0030 1355     		strb	r3, [r2, r4]
 1319              	.LVL128:
ARM GAS  C:\Users\student\AppData\Local\Temp\ccpvKyYb.s 			page 48


1254:.\Generated_Source\PSoC5/USBUART_std.c ****         
1255:.\Generated_Source\PSoC5/USBUART_std.c ****         requestHandled = USBUART_TRUE;
 1320              		.loc 1 1255 0
 1321 0032 0120     		movs	r0, #1
 1322              	.LVL129:
 1323 0034 10BD     		pop	{r4, pc}
 1324              	.LVL130:
 1325              	.L109:
1233:.\Generated_Source\PSoC5/USBUART_std.c ****     
 1326              		.loc 1 1233 0
 1327 0036 0020     		movs	r0, #0
 1328              	.LVL131:
1256:.\Generated_Source\PSoC5/USBUART_std.c ****     }
1257:.\Generated_Source\PSoC5/USBUART_std.c **** 
1258:.\Generated_Source\PSoC5/USBUART_std.c ****     return (requestHandled);
1259:.\Generated_Source\PSoC5/USBUART_std.c **** }
 1329              		.loc 1 1259 0
 1330 0038 10BD     		pop	{r4, pc}
 1331              	.LVL132:
 1332              	.L112:
 1333 003a 00BF     		.align	2
 1334              	.L111:
 1335 003c 00600040 		.word	1073766400
 1336 0040 00000000 		.word	USBUART_configuration
 1337 0044 00000000 		.word	USBUART_interfaceSetting
 1338 0048 00000000 		.word	USBUART_interfaceSettingLast
 1339              		.cfi_endproc
 1340              	.LFE12:
 1341              		.size	USBUART_ValidateAlternateSetting, .-USBUART_ValidateAlternateSetting
 1342              		.section	.text.USBUART_HandleStandardRqst,"ax",%progbits
 1343              		.align	2
 1344              		.global	USBUART_HandleStandardRqst
 1345              		.thumb
 1346              		.thumb_func
 1347              		.type	USBUART_HandleStandardRqst, %function
 1348              	USBUART_HandleStandardRqst:
 1349              	.LFB0:
  85:.\Generated_Source\PSoC5/USBUART_std.c ****     uint8 requestHandled = USBUART_FALSE;
 1350              		.loc 1 85 0
 1351              		.cfi_startproc
 1352              		@ args = 0, pretend = 0, frame = 0
 1353              		@ frame_needed = 0, uses_anonymous_args = 0
 1354 0000 10B5     		push	{r4, lr}
 1355              		.cfi_def_cfa_offset 8
 1356              		.cfi_offset 4, -8
 1357              		.cfi_offset 14, -4
 1358              	.LVL133:
  89:.\Generated_Source\PSoC5/USBUART_std.c **** 
 1359              		.loc 1 89 0
 1360 0002 9B4B     		ldr	r3, .L168
 1361 0004 1B78     		ldrb	r3, [r3]	@ zero_extendqisi2
 1362 0006 DBB2     		uxtb	r3, r3
 1363              	.LVL134:
 102:.\Generated_Source\PSoC5/USBUART_std.c **** 
 1364              		.loc 1 102 0
 1365 0008 0021     		movs	r1, #0
 1366 000a 9A4A     		ldr	r2, .L168+4
ARM GAS  C:\Users\student\AppData\Local\Temp\ccpvKyYb.s 			page 49


 1367 000c 1180     		strh	r1, [r2]	@ movhi
 104:.\Generated_Source\PSoC5/USBUART_std.c ****     {
 1368              		.loc 1 104 0
 1369 000e 13F0800F 		tst	r3, #128
 1370 0012 00F0AD80 		beq	.L114
 107:.\Generated_Source\PSoC5/USBUART_std.c ****         {
 1371              		.loc 1 107 0
 1372 0016 964A     		ldr	r2, .L168
 1373 0018 5278     		ldrb	r2, [r2, #1]	@ zero_extendqisi2
 1374 001a D2B2     		uxtb	r2, r2
 1375 001c 0A2A     		cmp	r2, #10
 1376 001e 00F27281 		bhi	.L147
 1377 0022 DFE812F0 		tbh	[pc, r2, lsl #1]
 1378              	.L117:
 1379 0026 6900     		.2byte	(.L116-.L117)/2
 1380 0028 7001     		.2byte	(.L147-.L117)/2
 1381 002a 7001     		.2byte	(.L147-.L117)/2
 1382 002c 7001     		.2byte	(.L147-.L117)/2
 1383 002e 7001     		.2byte	(.L147-.L117)/2
 1384 0030 7001     		.2byte	(.L147-.L117)/2
 1385 0032 0B00     		.2byte	(.L118-.L117)/2
 1386 0034 7001     		.2byte	(.L147-.L117)/2
 1387 0036 9200     		.2byte	(.L119-.L117)/2
 1388 0038 7001     		.2byte	(.L147-.L117)/2
 1389 003a 9A00     		.2byte	(.L120-.L117)/2
 1390              		.p2align 1
 1391              	.L118:
 110:.\Generated_Source\PSoC5/USBUART_std.c ****                 {
 1392              		.loc 1 110 0
 1393 003c 8C4B     		ldr	r3, .L168
 1394              	.LVL135:
 1395 003e DB78     		ldrb	r3, [r3, #3]	@ zero_extendqisi2
 1396 0040 DBB2     		uxtb	r3, r3
 1397 0042 012B     		cmp	r3, #1
 1398 0044 09D1     		bne	.L121
 112:.\Generated_Source\PSoC5/USBUART_std.c ****                     USBUART_currentTD.pData = (volatile uint8 *)pTmp->p_list;
 1399              		.loc 1 112 0
 1400 0046 FFF7FEFF 		bl	USBUART_GetDeviceTablePtr
 1401              	.LVL136:
 113:.\Generated_Source\PSoC5/USBUART_std.c ****                     USBUART_currentTD.count = USBUART_DEVICE_DESCR_LENGTH;
 1402              		.loc 1 113 0
 1403 004a 4268     		ldr	r2, [r0, #4]
 1404 004c 894B     		ldr	r3, .L168+4
 1405 004e 5A60     		str	r2, [r3, #4]
 114:.\Generated_Source\PSoC5/USBUART_std.c ****                     
 1406              		.loc 1 114 0
 1407 0050 1222     		movs	r2, #18
 1408 0052 1A80     		strh	r2, [r3]	@ movhi
 116:.\Generated_Source\PSoC5/USBUART_std.c ****                 }
 1409              		.loc 1 116 0
 1410 0054 FFF7FEFF 		bl	USBUART_InitControlRead
 1411              	.LVL137:
 1412 0058 10BD     		pop	{r4, pc}
 1413              	.LVL138:
 1414              	.L121:
 118:.\Generated_Source\PSoC5/USBUART_std.c ****                 {
 1415              		.loc 1 118 0
ARM GAS  C:\Users\student\AppData\Local\Temp\ccpvKyYb.s 			page 50


 1416 005a 854B     		ldr	r3, .L168
 1417 005c DB78     		ldrb	r3, [r3, #3]	@ zero_extendqisi2
 1418 005e DBB2     		uxtb	r3, r3
 1419 0060 022B     		cmp	r3, #2
 1420 0062 13D1     		bne	.L122
 120:.\Generated_Source\PSoC5/USBUART_std.c ****                     
 1421              		.loc 1 120 0
 1422 0064 824B     		ldr	r3, .L168
 1423 0066 9878     		ldrb	r0, [r3, #2]	@ zero_extendqisi2
 1424 0068 FFF7FEFF 		bl	USBUART_GetConfigTablePtr
 1425              	.LVL139:
 123:.\Generated_Source\PSoC5/USBUART_std.c ****                     {
 1426              		.loc 1 123 0
 1427 006c 0028     		cmp	r0, #0
 1428 006e 00F04C81 		beq	.L148
 125:.\Generated_Source\PSoC5/USBUART_std.c ****                         USBUART_currentTD.count = (uint16)((uint16)(USBUART_currentTD.pData)[USBUAR
 1429              		.loc 1 125 0
 1430 0072 4268     		ldr	r2, [r0, #4]
 1431 0074 7F4B     		ldr	r3, .L168+4
 1432 0076 5A60     		str	r2, [r3, #4]
 126:.\Generated_Source\PSoC5/USBUART_std.c ****                                                                             (USBUART_currentTD.pDat
 1433              		.loc 1 126 0
 1434 0078 5A68     		ldr	r2, [r3, #4]
 1435 007a D178     		ldrb	r1, [r2, #3]	@ zero_extendqisi2
 127:.\Generated_Source\PSoC5/USBUART_std.c ****                         requestHandled  = USBUART_InitControlRead();
 1436              		.loc 1 127 0
 1437 007c 5A68     		ldr	r2, [r3, #4]
 1438 007e 9278     		ldrb	r2, [r2, #2]	@ zero_extendqisi2
 126:.\Generated_Source\PSoC5/USBUART_std.c ****                                                                             (USBUART_currentTD.pDat
 1439              		.loc 1 126 0
 1440 0080 42EA0122 		orr	r2, r2, r1, lsl #8
 1441 0084 1A80     		strh	r2, [r3]	@ movhi
 128:.\Generated_Source\PSoC5/USBUART_std.c ****                     }
 1442              		.loc 1 128 0
 1443 0086 FFF7FEFF 		bl	USBUART_InitControlRead
 1444              	.LVL140:
 1445 008a 10BD     		pop	{r4, pc}
 1446              	.LVL141:
 1447              	.L122:
 149:.\Generated_Source\PSoC5/USBUART_std.c ****                 {
 1448              		.loc 1 149 0
 1449 008c 784B     		ldr	r3, .L168
 1450 008e DB78     		ldrb	r3, [r3, #3]	@ zero_extendqisi2
 1451 0090 DBB2     		uxtb	r3, r3
 1452 0092 032B     		cmp	r3, #3
 1453 0094 05D0     		beq	.L149
 1454 0096 2CE0     		b	.L163
 1455              	.LVL142:
 1456              	.L126:
 159:.\Generated_Source\PSoC5/USBUART_std.c ****                         /* Move to next string descriptor */
 1457              		.loc 1 159 0
 1458 0098 0A78     		ldrb	r2, [r1]	@ zero_extendqisi2
 1459              	.LVL143:
 161:.\Generated_Source\PSoC5/USBUART_std.c ****                         nStr++;
 1460              		.loc 1 161 0
 1461 009a 1144     		add	r1, r1, r2
 1462              	.LVL144:
ARM GAS  C:\Users\student\AppData\Local\Temp\ccpvKyYb.s 			page 51


 162:.\Generated_Source\PSoC5/USBUART_std.c ****                     }
 1463              		.loc 1 162 0
 1464 009c 0133     		adds	r3, r3, #1
 1465              	.LVL145:
 1466 009e DBB2     		uxtb	r3, r3
 1467              	.LVL146:
 1468 00a0 01E0     		b	.L123
 1469              	.LVL147:
 1470              	.L149:
 1471 00a2 0023     		movs	r3, #0
 1472 00a4 7449     		ldr	r1, .L168+8
 1473              	.LVL148:
 1474              	.L123:
 156:.\Generated_Source\PSoC5/USBUART_std.c ****                     {
 1475              		.loc 1 156 0
 1476 00a6 724A     		ldr	r2, .L168
 1477 00a8 9278     		ldrb	r2, [r2, #2]	@ zero_extendqisi2
 1478 00aa D2B2     		uxtb	r2, r2
 1479 00ac 9A42     		cmp	r2, r3
 1480 00ae 03D9     		bls	.L125
 156:.\Generated_Source\PSoC5/USBUART_std.c ****                     {
 1481              		.loc 1 156 0 is_stmt 0 discriminator 1
 1482 00b0 0A78     		ldrb	r2, [r1]	@ zero_extendqisi2
 1483 00b2 12F0FF0F 		tst	r2, #255
 1484 00b6 EFD1     		bne	.L126
 1485              	.L125:
 176:.\Generated_Source\PSoC5/USBUART_std.c ****                         (USBUART_wValueLoReg == USBUART_DEVICE0_DESCR[USBUART_DEVICE_DESCR_SN_SHIFT
 1486              		.loc 1 176 0 is_stmt 1
 1487 00b8 6D4B     		ldr	r3, .L168
 1488              	.LVL149:
 1489 00ba 9B78     		ldrb	r3, [r3, #2]	@ zero_extendqisi2
 1490 00bc 13F0FF0F 		tst	r3, #255
 1491 00c0 0BD0     		beq	.L127
 177:.\Generated_Source\PSoC5/USBUART_std.c ****                     {
 1492              		.loc 1 177 0 discriminator 1
 1493 00c2 6B4B     		ldr	r3, .L168
 1494 00c4 9B78     		ldrb	r3, [r3, #2]	@ zero_extendqisi2
 1495 00c6 DBB2     		uxtb	r3, r3
 1496 00c8 6C4A     		ldr	r2, .L168+12
 1497 00ca 127C     		ldrb	r2, [r2, #16]	@ zero_extendqisi2
 176:.\Generated_Source\PSoC5/USBUART_std.c ****                         (USBUART_wValueLoReg == USBUART_DEVICE0_DESCR[USBUART_DEVICE_DESCR_SN_SHIFT
 1498              		.loc 1 176 0 discriminator 1
 1499 00cc 9342     		cmp	r3, r2
 1500 00ce 04D1     		bne	.L127
 181:.\Generated_Source\PSoC5/USBUART_std.c ****                         pStr = USBUART_idSerialNumberStringDescriptor;
 1501              		.loc 1 181 0
 1502 00d0 6B4C     		ldr	r4, .L168+16
 1503 00d2 2046     		mov	r0, r4
 1504 00d4 FFF7FEFF 		bl	USBUART_ReadDieID
 1505              	.LVL150:
 182:.\Generated_Source\PSoC5/USBUART_std.c ****                     #elif defined(USBUART_ENABLE_FWSN_STRING)
 1506              		.loc 1 182 0
 1507 00d8 2146     		mov	r1, r4
 1508              	.LVL151:
 1509              	.L127:
 199:.\Generated_Source\PSoC5/USBUART_std.c ****                     {
 1510              		.loc 1 199 0
ARM GAS  C:\Users\student\AppData\Local\Temp\ccpvKyYb.s 			page 52


 1511 00da 0B78     		ldrb	r3, [r1]	@ zero_extendqisi2
 1512 00dc 13F0FF0F 		tst	r3, #255
 1513 00e0 00F01581 		beq	.L150
 201:.\Generated_Source\PSoC5/USBUART_std.c ****                         USBUART_currentTD.pData = pStr;
 1514              		.loc 1 201 0
 1515 00e4 0B78     		ldrb	r3, [r1]	@ zero_extendqisi2
 1516 00e6 634A     		ldr	r2, .L168+4
 1517 00e8 1380     		strh	r3, [r2]	@ movhi
 202:.\Generated_Source\PSoC5/USBUART_std.c ****                         requestHandled  = USBUART_InitControlRead();
 1518              		.loc 1 202 0
 1519 00ea 5160     		str	r1, [r2, #4]
 203:.\Generated_Source\PSoC5/USBUART_std.c ****                     }
 1520              		.loc 1 203 0
 1521 00ec FFF7FEFF 		bl	USBUART_InitControlRead
 1522              	.LVL152:
 1523 00f0 10BD     		pop	{r4, pc}
 1524              	.LVL153:
 1525              	.L163:
 209:.\Generated_Source\PSoC5/USBUART_std.c ****                 }
 1526              		.loc 1 209 0
 1527 00f2 FFF7FEFF 		bl	USBUART_DispatchClassRqst
 1528              	.LVL154:
 1529 00f6 10BD     		pop	{r4, pc}
 1530              	.LVL155:
 1531              	.L116:
 214:.\Generated_Source\PSoC5/USBUART_std.c ****                 {
 1532              		.loc 1 214 0
 1533 00f8 13F00303 		ands	r3, r3, #3
 1534              	.LVL156:
 1535 00fc 17D0     		beq	.L128
 1536 00fe 022B     		cmp	r3, #2
 1537 0100 40F00781 		bne	.L164
 217:.\Generated_Source\PSoC5/USBUART_std.c ****                         USBUART_tBuffer[0u]     = USBUART_EP[USBUART_wIndexLoReg & USBUART_DIR_UNUS
 1538              		.loc 1 217 0
 1539 0104 5B49     		ldr	r1, .L168+4
 1540 0106 0B80     		strh	r3, [r1]	@ movhi
 218:.\Generated_Source\PSoC5/USBUART_std.c ****                         USBUART_tBuffer[1u]     = 0u;
 1541              		.loc 1 218 0
 1542 0108 594B     		ldr	r3, .L168
 1543 010a 1B79     		ldrb	r3, [r3, #4]	@ zero_extendqisi2
 1544 010c 03F07F03 		and	r3, r3, #127
 1545 0110 03EB4303 		add	r3, r3, r3, lsl #1
 1546 0114 9B00     		lsls	r3, r3, #2
 1547 0116 5B4A     		ldr	r2, .L168+20
 1548 0118 1344     		add	r3, r3, r2
 1549 011a 9A78     		ldrb	r2, [r3, #2]	@ zero_extendqisi2
 1550 011c D2B2     		uxtb	r2, r2
 1551 011e 5A4B     		ldr	r3, .L168+24
 1552 0120 1A70     		strb	r2, [r3]
 219:.\Generated_Source\PSoC5/USBUART_std.c ****                         USBUART_currentTD.pData = &USBUART_tBuffer[0u];
 1553              		.loc 1 219 0
 1554 0122 0022     		movs	r2, #0
 1555 0124 5A70     		strb	r2, [r3, #1]
 220:.\Generated_Source\PSoC5/USBUART_std.c ****                         
 1556              		.loc 1 220 0
 1557 0126 4B60     		str	r3, [r1, #4]
 222:.\Generated_Source\PSoC5/USBUART_std.c ****                         break;
ARM GAS  C:\Users\student\AppData\Local\Temp\ccpvKyYb.s 			page 53


 1558              		.loc 1 222 0
 1559 0128 FFF7FEFF 		bl	USBUART_InitControlRead
 1560              	.LVL157:
 223:.\Generated_Source\PSoC5/USBUART_std.c ****                     case USBUART_RQST_RCPT_DEV:
 1561              		.loc 1 223 0
 1562 012c 10BD     		pop	{r4, pc}
 1563              	.LVL158:
 1564              	.L128:
 225:.\Generated_Source\PSoC5/USBUART_std.c ****                         USBUART_tBuffer[0u]     = USBUART_deviceStatus;
 1565              		.loc 1 225 0
 1566 012e 5149     		ldr	r1, .L168+4
 1567 0130 0223     		movs	r3, #2
 1568 0132 0B80     		strh	r3, [r1]	@ movhi
 226:.\Generated_Source\PSoC5/USBUART_std.c ****                         USBUART_tBuffer[1u]     = 0u;
 1569              		.loc 1 226 0
 1570 0134 554B     		ldr	r3, .L168+28
 1571 0136 1A78     		ldrb	r2, [r3]	@ zero_extendqisi2
 1572 0138 D2B2     		uxtb	r2, r2
 1573 013a 534B     		ldr	r3, .L168+24
 1574 013c 1A70     		strb	r2, [r3]
 227:.\Generated_Source\PSoC5/USBUART_std.c ****                         USBUART_currentTD.pData = &USBUART_tBuffer[0u];
 1575              		.loc 1 227 0
 1576 013e 0022     		movs	r2, #0
 1577 0140 5A70     		strb	r2, [r3, #1]
 228:.\Generated_Source\PSoC5/USBUART_std.c ****                         
 1578              		.loc 1 228 0
 1579 0142 4B60     		str	r3, [r1, #4]
 230:.\Generated_Source\PSoC5/USBUART_std.c ****                         break;
 1580              		.loc 1 230 0
 1581 0144 FFF7FEFF 		bl	USBUART_InitControlRead
 1582              	.LVL159:
 231:.\Generated_Source\PSoC5/USBUART_std.c ****                     default:    /* requestHandled is initialized as FALSE by default */
 1583              		.loc 1 231 0
 1584 0148 10BD     		pop	{r4, pc}
 1585              	.LVL160:
 1586              	.L119:
 238:.\Generated_Source\PSoC5/USBUART_std.c ****                 USBUART_currentTD.pData = (volatile uint8 *) &USBUART_configuration;
 1587              		.loc 1 238 0
 1588 014a 4A4B     		ldr	r3, .L168+4
 1589              	.LVL161:
 1590 014c 0122     		movs	r2, #1
 1591 014e 1A80     		strh	r2, [r3]	@ movhi
 239:.\Generated_Source\PSoC5/USBUART_std.c ****                 requestHandled  = USBUART_InitControlRead();
 1592              		.loc 1 239 0
 1593 0150 4F4A     		ldr	r2, .L168+32
 1594 0152 5A60     		str	r2, [r3, #4]
 240:.\Generated_Source\PSoC5/USBUART_std.c ****                 break;
 1595              		.loc 1 240 0
 1596 0154 FFF7FEFF 		bl	USBUART_InitControlRead
 1597              	.LVL162:
 241:.\Generated_Source\PSoC5/USBUART_std.c ****                 
 1598              		.loc 1 241 0
 1599 0158 10BD     		pop	{r4, pc}
 1600              	.LVL163:
 1601              	.L120:
 244:.\Generated_Source\PSoC5/USBUART_std.c ****                 USBUART_currentTD.pData = (volatile uint8 *) &USBUART_interfaceSetting[USBUART_wInd
 1602              		.loc 1 244 0
ARM GAS  C:\Users\student\AppData\Local\Temp\ccpvKyYb.s 			page 54


 1603 015a 464A     		ldr	r2, .L168+4
 1604 015c 0123     		movs	r3, #1
 1605              	.LVL164:
 1606 015e 1380     		strh	r3, [r2]	@ movhi
 245:.\Generated_Source\PSoC5/USBUART_std.c ****                 requestHandled  = USBUART_InitControlRead();
 1607              		.loc 1 245 0
 1608 0160 434B     		ldr	r3, .L168
 1609 0162 1B79     		ldrb	r3, [r3, #4]	@ zero_extendqisi2
 1610 0164 4B49     		ldr	r1, .L168+36
 1611 0166 0B44     		add	r3, r3, r1
 1612 0168 5360     		str	r3, [r2, #4]
 246:.\Generated_Source\PSoC5/USBUART_std.c ****                 break;
 1613              		.loc 1 246 0
 1614 016a FFF7FEFF 		bl	USBUART_InitControlRead
 1615              	.LVL165:
 247:.\Generated_Source\PSoC5/USBUART_std.c ****                 
 1616              		.loc 1 247 0
 1617 016e 10BD     		pop	{r4, pc}
 1618              	.LVL166:
 1619              	.L114:
 256:.\Generated_Source\PSoC5/USBUART_std.c ****         {
 1620              		.loc 1 256 0
 1621 0170 3F4A     		ldr	r2, .L168
 1622 0172 5278     		ldrb	r2, [r2, #1]	@ zero_extendqisi2
 1623 0174 013A     		subs	r2, r2, #1
 1624 0176 0A2A     		cmp	r2, #10
 1625 0178 00F2CD80 		bhi	.L152
 1626 017c DFE812F0 		tbh	[pc, r2, lsl #1]
 1627              	.L131:
 1628 0180 4B00     		.2byte	(.L130-.L131)/2
 1629 0182 CB00     		.2byte	(.L152-.L131)/2
 1630 0184 9600     		.2byte	(.L132-.L131)/2
 1631 0186 CB00     		.2byte	(.L152-.L131)/2
 1632 0188 0B00     		.2byte	(.L133-.L131)/2
 1633 018a CB00     		.2byte	(.L152-.L131)/2
 1634 018c CB00     		.2byte	(.L152-.L131)/2
 1635 018e CB00     		.2byte	(.L152-.L131)/2
 1636 0190 1300     		.2byte	(.L134-.L131)/2
 1637 0192 CB00     		.2byte	(.L152-.L131)/2
 1638 0194 3000     		.2byte	(.L135-.L131)/2
 1639              		.p2align 1
 1640              	.L133:
 260:.\Generated_Source\PSoC5/USBUART_std.c ****                 requestHandled = USBUART_InitNoDataControlTransfer();
 1641              		.loc 1 260 0
 1642 0196 364B     		ldr	r3, .L168
 1643              	.LVL167:
 1644 0198 9B78     		ldrb	r3, [r3, #2]	@ zero_extendqisi2
 1645 019a DBB2     		uxtb	r3, r3
 1646 019c 3E4A     		ldr	r2, .L168+40
 1647 019e 1370     		strb	r3, [r2]
 261:.\Generated_Source\PSoC5/USBUART_std.c ****                 break;
 1648              		.loc 1 261 0
 1649 01a0 FFF7FEFF 		bl	USBUART_InitNoDataControlTransfer
 1650              	.LVL168:
 262:.\Generated_Source\PSoC5/USBUART_std.c ****                 
 1651              		.loc 1 262 0
 1652 01a4 10BD     		pop	{r4, pc}
ARM GAS  C:\Users\student\AppData\Local\Temp\ccpvKyYb.s 			page 55


 1653              	.LVL169:
 1654              	.L134:
 265:.\Generated_Source\PSoC5/USBUART_std.c ****                 
 1655              		.loc 1 265 0
 1656 01a6 324B     		ldr	r3, .L168
 1657              	.LVL170:
 1658 01a8 9B78     		ldrb	r3, [r3, #2]	@ zero_extendqisi2
 1659              	.LVL171:
 268:.\Generated_Source\PSoC5/USBUART_std.c ****                 {
 1660              		.loc 1 268 0
 1661 01aa 03F0FF04 		and	r4, r3, #255
 1662 01ae 1BB1     		cbz	r3, .L136
 270:.\Generated_Source\PSoC5/USBUART_std.c ****                 }
 1663              		.loc 1 270 0
 1664 01b0 601E     		subs	r0, r4, #1
 1665 01b2 C0B2     		uxtb	r0, r0
 1666 01b4 FFF7FEFF 		bl	USBUART_GetConfigTablePtr
 1667              	.LVL172:
 1668              	.L136:
 274:.\Generated_Source\PSoC5/USBUART_std.c ****                 {
 1669              		.loc 1 274 0
 1670 01b8 04B1     		cbz	r4, .L137
 274:.\Generated_Source\PSoC5/USBUART_std.c ****                 {
 1671              		.loc 1 274 0 is_stmt 0 discriminator 1
 1672 01ba 10B9     		cbnz	r0, .L138
 1673              	.L137:
 274:.\Generated_Source\PSoC5/USBUART_std.c ****                 {
 1674              		.loc 1 274 0 discriminator 3
 1675 01bc 002C     		cmp	r4, #0
 1676 01be 40F0AC80 		bne	.L153
 1677              	.L138:
 277:.\Generated_Source\PSoC5/USBUART_std.c ****                     {
 1678              		.loc 1 277 0 is_stmt 1
 1679 01c2 334B     		ldr	r3, .L168+32
 1680 01c4 1B78     		ldrb	r3, [r3]	@ zero_extendqisi2
 1681 01c6 DBB2     		uxtb	r3, r3
 1682 01c8 9C42     		cmp	r4, r3
 1683 01ca 06D0     		beq	.L139
 279:.\Generated_Source\PSoC5/USBUART_std.c ****                         USBUART_configurationChanged = USBUART_TRUE;
 1684              		.loc 1 279 0
 1685 01cc 304B     		ldr	r3, .L168+32
 1686 01ce 1C70     		strb	r4, [r3]
 280:.\Generated_Source\PSoC5/USBUART_std.c ****                         USBUART_Config(USBUART_TRUE);
 1687              		.loc 1 280 0
 1688 01d0 0120     		movs	r0, #1
 1689              	.LVL173:
 1690 01d2 324B     		ldr	r3, .L168+44
 1691 01d4 1870     		strb	r0, [r3]
 281:.\Generated_Source\PSoC5/USBUART_std.c ****                     }
 1692              		.loc 1 281 0
 1693 01d6 FFF7FEFF 		bl	USBUART_Config
 1694              	.LVL174:
 1695              	.L139:
 283:.\Generated_Source\PSoC5/USBUART_std.c ****                 }
 1696              		.loc 1 283 0
 1697 01da FFF7FEFF 		bl	USBUART_InitNoDataControlTransfer
 1698              	.LVL175:
ARM GAS  C:\Users\student\AppData\Local\Temp\ccpvKyYb.s 			page 56


 1699 01de 10BD     		pop	{r4, pc}
 1700              	.LVL176:
 1701              	.L135:
 288:.\Generated_Source\PSoC5/USBUART_std.c ****                 {
 1702              		.loc 1 288 0
 1703 01e0 FFF7FEFF 		bl	USBUART_ValidateAlternateSetting
 1704              	.LVL177:
 1705 01e4 0028     		cmp	r0, #0
 1706 01e6 00F09A80 		beq	.L154
 291:.\Generated_Source\PSoC5/USBUART_std.c ****                     USBUART_interfaceNumber = (uint8) USBUART_wIndexLoReg;
 1707              		.loc 1 291 0
 1708 01ea 214A     		ldr	r2, .L168
 1709 01ec 1379     		ldrb	r3, [r2, #4]	@ zero_extendqisi2
 1710 01ee DBB2     		uxtb	r3, r3
 1711              	.LVL178:
 292:.\Generated_Source\PSoC5/USBUART_std.c ****                      
 1712              		.loc 1 292 0
 1713 01f0 1279     		ldrb	r2, [r2, #4]	@ zero_extendqisi2
 1714 01f2 D2B2     		uxtb	r2, r2
 1715 01f4 2A49     		ldr	r1, .L168+48
 1716 01f6 0A70     		strb	r2, [r1]
 295:.\Generated_Source\PSoC5/USBUART_std.c ****                     {
 1717              		.loc 1 295 0
 1718 01f8 2A4A     		ldr	r2, .L168+52
 1719 01fa D25C     		ldrb	r2, [r2, r3]	@ zero_extendqisi2
 1720 01fc 2549     		ldr	r1, .L168+36
 1721 01fe C95C     		ldrb	r1, [r1, r3]	@ zero_extendqisi2
 1722 0200 D3B2     		uxtb	r3, r2
 1723              	.LVL179:
 1724 0202 8B42     		cmp	r3, r1
 1725 0204 04D0     		beq	.L140
 297:.\Generated_Source\PSoC5/USBUART_std.c ****                     
 1726              		.loc 1 297 0
 1727 0206 0122     		movs	r2, #1
 1728 0208 244B     		ldr	r3, .L168+44
 1729 020a 1A70     		strb	r2, [r3]
 303:.\Generated_Source\PSoC5/USBUART_std.c ****                     #endif /* (USBUART_EP_MANAGEMENT_MANUAL && USBUART_EP_ALLOC_DYNAMIC) */
 1730              		.loc 1 303 0
 1731 020c FFF7FEFF 		bl	USBUART_ConfigAltChanged
 1732              	.LVL180:
 1733              	.L140:
 307:.\Generated_Source\PSoC5/USBUART_std.c ****                 }
 1734              		.loc 1 307 0
 1735 0210 FFF7FEFF 		bl	USBUART_InitNoDataControlTransfer
 1736              	.LVL181:
 1737 0214 10BD     		pop	{r4, pc}
 1738              	.LVL182:
 1739              	.L130:
 312:.\Generated_Source\PSoC5/USBUART_std.c ****                 {
 1740              		.loc 1 312 0
 1741 0216 03F00303 		and	r3, r3, #3
 1742              	.LVL183:
 1743 021a 012B     		cmp	r3, #1
 1744 021c 17D0     		beq	.L141
 1745 021e 4BB1     		cbz	r3, .L142
 1746 0220 022B     		cmp	r3, #2
 1747 0222 7ED1     		bne	.L165
ARM GAS  C:\Users\student\AppData\Local\Temp\ccpvKyYb.s 			page 57


 315:.\Generated_Source\PSoC5/USBUART_std.c ****                         {
 1748              		.loc 1 315 0
 1749 0224 124B     		ldr	r3, .L168
 1750 0226 9B78     		ldrb	r3, [r3, #2]	@ zero_extendqisi2
 1751 0228 13F0FF0F 		tst	r3, #255
 1752 022c 7BD1     		bne	.L156
 317:.\Generated_Source\PSoC5/USBUART_std.c ****                         }
 1753              		.loc 1 317 0
 1754 022e FFF7FEFF 		bl	USBUART_ClearEndpointHalt
 1755              	.LVL184:
 1756 0232 10BD     		pop	{r4, pc}
 1757              	.LVL185:
 1758              	.L142:
 322:.\Generated_Source\PSoC5/USBUART_std.c ****                         {
 1759              		.loc 1 322 0
 1760 0234 0E4B     		ldr	r3, .L168
 1761 0236 9B78     		ldrb	r3, [r3, #2]	@ zero_extendqisi2
 1762 0238 DBB2     		uxtb	r3, r3
 1763 023a 012B     		cmp	r3, #1
 1764 023c 75D1     		bne	.L157
 324:.\Generated_Source\PSoC5/USBUART_std.c ****                             requestHandled = USBUART_InitNoDataControlTransfer();
 1765              		.loc 1 324 0
 1766 023e 134A     		ldr	r2, .L168+28
 1767 0240 1378     		ldrb	r3, [r2]	@ zero_extendqisi2
 1768 0242 03F0FD03 		and	r3, r3, #253
 1769 0246 1370     		strb	r3, [r2]
 325:.\Generated_Source\PSoC5/USBUART_std.c ****                         }
 1770              		.loc 1 325 0
 1771 0248 FFF7FEFF 		bl	USBUART_InitNoDataControlTransfer
 1772              	.LVL186:
 1773 024c 10BD     		pop	{r4, pc}
 1774              	.LVL187:
 1775              	.L141:
 330:.\Generated_Source\PSoC5/USBUART_std.c ****                         {
 1776              		.loc 1 330 0
 1777 024e 084B     		ldr	r3, .L168
 1778 0250 1B79     		ldrb	r3, [r3, #4]	@ zero_extendqisi2
 1779 0252 DBB2     		uxtb	r3, r3
 1780 0254 012B     		cmp	r3, #1
 1781 0256 6AD8     		bhi	.L158
 332:.\Generated_Source\PSoC5/USBUART_std.c ****                             requestHandled = USBUART_InitNoDataControlTransfer();
 1782              		.loc 1 332 0
 1783 0258 054B     		ldr	r3, .L168
 1784 025a 9878     		ldrb	r0, [r3, #2]	@ zero_extendqisi2
 1785 025c 1B79     		ldrb	r3, [r3, #4]	@ zero_extendqisi2
 1786 025e DBB2     		uxtb	r3, r3
 1787 0260 1149     		ldr	r1, .L168+56
 1788 0262 CA5C     		ldrb	r2, [r1, r3]	@ zero_extendqisi2
 1789 0264 22EA0002 		bic	r2, r2, r0
 1790 0268 CA54     		strb	r2, [r1, r3]
 333:.\Generated_Source\PSoC5/USBUART_std.c ****                         }
 1791              		.loc 1 333 0
 1792 026a FFF7FEFF 		bl	USBUART_InitNoDataControlTransfer
 1793              	.LVL188:
 1794 026e 10BD     		pop	{r4, pc}
 1795              	.L169:
 1796              		.align	2
ARM GAS  C:\Users\student\AppData\Local\Temp\ccpvKyYb.s 			page 58


 1797              	.L168:
 1798 0270 00600040 		.word	1073766400
 1799 0274 00000000 		.word	USBUART_currentTD
 1800 0278 00000000 		.word	USBUART_STRING_DESCRIPTORS
 1801 027c 00000000 		.word	USBUART_DEVICE0_DESCR
 1802 0280 00000000 		.word	USBUART_idSerialNumberStringDescriptor
 1803 0284 00000000 		.word	USBUART_EP
 1804 0288 00000000 		.word	.LANCHOR0
 1805 028c 00000000 		.word	USBUART_deviceStatus
 1806 0290 00000000 		.word	USBUART_configuration
 1807 0294 00000000 		.word	USBUART_interfaceSetting
 1808 0298 00000000 		.word	USBUART_deviceAddress
 1809 029c 00000000 		.word	USBUART_configurationChanged
 1810 02a0 00000000 		.word	USBUART_interfaceNumber
 1811 02a4 00000000 		.word	USBUART_interfaceSettingLast
 1812 02a8 00000000 		.word	USBUART_interfaceStatus
 1813              	.LVL189:
 1814              	.L132:
 342:.\Generated_Source\PSoC5/USBUART_std.c ****                 {
 1815              		.loc 1 342 0
 1816 02ac 03F00303 		and	r3, r3, #3
 1817              	.LVL190:
 1818 02b0 012B     		cmp	r3, #1
 1819 02b2 17D0     		beq	.L144
 1820 02b4 4BB1     		cbz	r3, .L145
 1821 02b6 022B     		cmp	r3, #2
 1822 02b8 3BD1     		bne	.L166
 345:.\Generated_Source\PSoC5/USBUART_std.c ****                         {
 1823              		.loc 1 345 0
 1824 02ba 224B     		ldr	r3, .L170
 1825 02bc 9B78     		ldrb	r3, [r3, #2]	@ zero_extendqisi2
 1826 02be 13F0FF0F 		tst	r3, #255
 1827 02c2 38D1     		bne	.L160
 347:.\Generated_Source\PSoC5/USBUART_std.c ****                         }
 1828              		.loc 1 347 0
 1829 02c4 FFF7FEFF 		bl	USBUART_SetEndpointHalt
 1830              	.LVL191:
 1831 02c8 10BD     		pop	{r4, pc}
 1832              	.LVL192:
 1833              	.L145:
 353:.\Generated_Source\PSoC5/USBUART_std.c ****                         {
 1834              		.loc 1 353 0
 1835 02ca 1E4B     		ldr	r3, .L170
 1836 02cc 9B78     		ldrb	r3, [r3, #2]	@ zero_extendqisi2
 1837 02ce DBB2     		uxtb	r3, r3
 1838 02d0 012B     		cmp	r3, #1
 1839 02d2 32D1     		bne	.L161
 355:.\Generated_Source\PSoC5/USBUART_std.c ****                             requestHandled = USBUART_InitNoDataControlTransfer();
 1840              		.loc 1 355 0
 1841 02d4 1C4A     		ldr	r2, .L170+4
 1842 02d6 1378     		ldrb	r3, [r2]	@ zero_extendqisi2
 1843 02d8 43F00203 		orr	r3, r3, #2
 1844 02dc 1370     		strb	r3, [r2]
 356:.\Generated_Source\PSoC5/USBUART_std.c ****                         }
 1845              		.loc 1 356 0
 1846 02de FFF7FEFF 		bl	USBUART_InitNoDataControlTransfer
 1847              	.LVL193:
ARM GAS  C:\Users\student\AppData\Local\Temp\ccpvKyYb.s 			page 59


 1848 02e2 10BD     		pop	{r4, pc}
 1849              	.LVL194:
 1850              	.L144:
 362:.\Generated_Source\PSoC5/USBUART_std.c ****                         {
 1851              		.loc 1 362 0
 1852 02e4 174B     		ldr	r3, .L170
 1853 02e6 1B79     		ldrb	r3, [r3, #4]	@ zero_extendqisi2
 1854 02e8 DBB2     		uxtb	r3, r3
 1855 02ea 012B     		cmp	r3, #1
 1856 02ec 27D8     		bhi	.L162
 364:.\Generated_Source\PSoC5/USBUART_std.c ****                             requestHandled = USBUART_InitNoDataControlTransfer();
 1857              		.loc 1 364 0
 1858 02ee 154B     		ldr	r3, .L170
 1859 02f0 9878     		ldrb	r0, [r3, #2]	@ zero_extendqisi2
 1860 02f2 1B79     		ldrb	r3, [r3, #4]	@ zero_extendqisi2
 1861 02f4 DBB2     		uxtb	r3, r3
 1862 02f6 1549     		ldr	r1, .L170+8
 1863 02f8 CA5C     		ldrb	r2, [r1, r3]	@ zero_extendqisi2
 1864 02fa 22EA0002 		bic	r2, r2, r0
 1865 02fe CA54     		strb	r2, [r1, r3]
 365:.\Generated_Source\PSoC5/USBUART_std.c ****                         }
 1866              		.loc 1 365 0
 1867 0300 FFF7FEFF 		bl	USBUART_InitNoDataControlTransfer
 1868              	.LVL195:
 1869 0304 10BD     		pop	{r4, pc}
 1870              	.LVL196:
 1871              	.L147:
  86:.\Generated_Source\PSoC5/USBUART_std.c ****     uint8 interfaceNumber;
 1872              		.loc 1 86 0
 1873 0306 0020     		movs	r0, #0
 1874 0308 10BD     		pop	{r4, pc}
 1875              	.LVL197:
 1876              	.L148:
 1877 030a 0020     		movs	r0, #0
 1878              	.LVL198:
 1879 030c 10BD     		pop	{r4, pc}
 1880              	.LVL199:
 1881              	.L150:
 1882 030e 0020     		movs	r0, #0
 1883 0310 10BD     		pop	{r4, pc}
 1884              	.LVL200:
 1885              	.L164:
 1886 0312 0020     		movs	r0, #0
 1887 0314 10BD     		pop	{r4, pc}
 1888              	.LVL201:
 1889              	.L152:
 1890 0316 0020     		movs	r0, #0
 1891 0318 10BD     		pop	{r4, pc}
 1892              	.LVL202:
 1893              	.L153:
 1894 031a 0020     		movs	r0, #0
 1895              	.LVL203:
 1896 031c 10BD     		pop	{r4, pc}
 1897              	.L154:
 1898 031e 0020     		movs	r0, #0
 1899 0320 10BD     		pop	{r4, pc}
 1900              	.L165:
ARM GAS  C:\Users\student\AppData\Local\Temp\ccpvKyYb.s 			page 60


 1901 0322 0020     		movs	r0, #0
 1902 0324 10BD     		pop	{r4, pc}
 1903              	.L156:
 1904 0326 0020     		movs	r0, #0
 1905 0328 10BD     		pop	{r4, pc}
 1906              	.L157:
 1907 032a 0020     		movs	r0, #0
 1908 032c 10BD     		pop	{r4, pc}
 1909              	.L158:
 1910 032e 0020     		movs	r0, #0
 1911 0330 10BD     		pop	{r4, pc}
 1912              	.L166:
 1913 0332 0020     		movs	r0, #0
 1914 0334 10BD     		pop	{r4, pc}
 1915              	.L160:
 1916 0336 0020     		movs	r0, #0
 1917 0338 10BD     		pop	{r4, pc}
 1918              	.L161:
 1919 033a 0020     		movs	r0, #0
 1920 033c 10BD     		pop	{r4, pc}
 1921              	.L162:
 1922 033e 0020     		movs	r0, #0
 1923              	.LVL204:
 380:.\Generated_Source\PSoC5/USBUART_std.c **** 
 1924              		.loc 1 380 0
 1925 0340 10BD     		pop	{r4, pc}
 1926              	.L171:
 1927 0342 00BF     		.align	2
 1928              	.L170:
 1929 0344 00600040 		.word	1073766400
 1930 0348 00000000 		.word	USBUART_deviceStatus
 1931 034c 00000000 		.word	USBUART_interfaceStatus
 1932              		.cfi_endproc
 1933              	.LFE0:
 1934              		.size	USBUART_HandleStandardRqst, .-USBUART_HandleStandardRqst
 1935              		.section	.rodata.str1.4,"aMS",%progbits,1
 1936              		.align	2
 1937              	.LC0:
 1938 0000 30313233 		.ascii	"0123456789ABCDEF\000"
 1938      34353637 
 1938      38394142 
 1938      43444546 
 1938      00
 1939 0011 000000   		.bss
 1940              		.align	2
 1941              		.set	.LANCHOR0,. + 0
 1942              		.type	USBUART_tBuffer.5121, %object
 1943              		.size	USBUART_tBuffer.5121, 2
 1944              	USBUART_tBuffer.5121:
 1945 0000 0000     		.space	2
 1946 0002 0000     		.text
 1947              	.Letext0:
 1948              		.file 2 ".\\Generated_Source\\PSoC5\\cytypes.h"
 1949              		.file 3 ".\\Generated_Source\\PSoC5\\USBUART.h"
 1950              		.file 4 ".\\Generated_Source\\PSoC5\\USBUART_pvt.h"
 1951              		.file 5 ".\\Generated_Source\\PSoC5\\CyLib.h"
 1952              		.section	.debug_info,"",%progbits
ARM GAS  C:\Users\student\AppData\Local\Temp\ccpvKyYb.s 			page 61


 1953              	.Ldebug_info0:
 1954 0000 380B0000 		.4byte	0xb38
 1955 0004 0400     		.2byte	0x4
 1956 0006 00000000 		.4byte	.Ldebug_abbrev0
 1957 000a 04       		.byte	0x4
 1958 000b 01       		.uleb128 0x1
 1959 000c 0F030000 		.4byte	.LASF116
 1960 0010 01       		.byte	0x1
 1961 0011 E8020000 		.4byte	.LASF117
 1962 0015 66040000 		.4byte	.LASF118
 1963 0019 00000000 		.4byte	.Ldebug_ranges0+0
 1964 001d 00000000 		.4byte	0
 1965 0021 00000000 		.4byte	.Ldebug_line0
 1966 0025 02       		.uleb128 0x2
 1967 0026 01       		.byte	0x1
 1968 0027 06       		.byte	0x6
 1969 0028 B1000000 		.4byte	.LASF0
 1970 002c 02       		.uleb128 0x2
 1971 002d 01       		.byte	0x1
 1972 002e 08       		.byte	0x8
 1973 002f 07060000 		.4byte	.LASF1
 1974 0033 02       		.uleb128 0x2
 1975 0034 02       		.byte	0x2
 1976 0035 05       		.byte	0x5
 1977 0036 15060000 		.4byte	.LASF2
 1978 003a 02       		.uleb128 0x2
 1979 003b 02       		.byte	0x2
 1980 003c 07       		.byte	0x7
 1981 003d DD030000 		.4byte	.LASF3
 1982 0041 02       		.uleb128 0x2
 1983 0042 04       		.byte	0x4
 1984 0043 05       		.byte	0x5
 1985 0044 6D010000 		.4byte	.LASF4
 1986 0048 02       		.uleb128 0x2
 1987 0049 04       		.byte	0x4
 1988 004a 07       		.byte	0x7
 1989 004b D6020000 		.4byte	.LASF5
 1990 004f 02       		.uleb128 0x2
 1991 0050 08       		.byte	0x8
 1992 0051 05       		.byte	0x5
 1993 0052 A3000000 		.4byte	.LASF6
 1994 0056 02       		.uleb128 0x2
 1995 0057 08       		.byte	0x8
 1996 0058 07       		.byte	0x7
 1997 0059 43000000 		.4byte	.LASF7
 1998 005d 03       		.uleb128 0x3
 1999 005e 04       		.byte	0x4
 2000 005f 05       		.byte	0x5
 2001 0060 696E7400 		.ascii	"int\000"
 2002 0064 02       		.uleb128 0x2
 2003 0065 04       		.byte	0x4
 2004 0066 07       		.byte	0x7
 2005 0067 A7020000 		.4byte	.LASF8
 2006 006b 04       		.uleb128 0x4
 2007 006c A9010000 		.4byte	.LASF9
 2008 0070 02       		.byte	0x2
 2009 0071 9201     		.2byte	0x192
ARM GAS  C:\Users\student\AppData\Local\Temp\ccpvKyYb.s 			page 62


 2010 0073 2C000000 		.4byte	0x2c
 2011 0077 04       		.uleb128 0x4
 2012 0078 13000000 		.4byte	.LASF10
 2013 007c 02       		.byte	0x2
 2014 007d 9301     		.2byte	0x193
 2015 007f 3A000000 		.4byte	0x3a
 2016 0083 04       		.uleb128 0x4
 2017 0084 11020000 		.4byte	.LASF11
 2018 0088 02       		.byte	0x2
 2019 0089 9401     		.2byte	0x194
 2020 008b 48000000 		.4byte	0x48
 2021 008f 02       		.uleb128 0x2
 2022 0090 04       		.byte	0x4
 2023 0091 04       		.byte	0x4
 2024 0092 AA050000 		.4byte	.LASF12
 2025 0096 02       		.uleb128 0x2
 2026 0097 08       		.byte	0x8
 2027 0098 04       		.byte	0x4
 2028 0099 E4010000 		.4byte	.LASF13
 2029 009d 04       		.uleb128 0x4
 2030 009e ED060000 		.4byte	.LASF14
 2031 00a2 02       		.byte	0x2
 2032 00a3 A301     		.2byte	0x1a3
 2033 00a5 A9000000 		.4byte	0xa9
 2034 00a9 02       		.uleb128 0x2
 2035 00aa 01       		.byte	0x1
 2036 00ab 08       		.byte	0x8
 2037 00ac 97060000 		.4byte	.LASF15
 2038 00b0 04       		.uleb128 0x4
 2039 00b1 E3050000 		.4byte	.LASF16
 2040 00b5 02       		.byte	0x2
 2041 00b6 3C02     		.2byte	0x23c
 2042 00b8 BC000000 		.4byte	0xbc
 2043 00bc 05       		.uleb128 0x5
 2044 00bd 6B000000 		.4byte	0x6b
 2045 00c1 02       		.uleb128 0x2
 2046 00c2 08       		.byte	0x8
 2047 00c3 04       		.byte	0x4
 2048 00c4 E1040000 		.4byte	.LASF17
 2049 00c8 02       		.uleb128 0x2
 2050 00c9 04       		.byte	0x4
 2051 00ca 07       		.byte	0x7
 2052 00cb D8040000 		.4byte	.LASF18
 2053 00cf 06       		.uleb128 0x6
 2054 00d0 0C       		.byte	0xc
 2055 00d1 03       		.byte	0x3
 2056 00d2 8D       		.byte	0x8d
 2057 00d3 44010000 		.4byte	0x144
 2058 00d7 07       		.uleb128 0x7
 2059 00d8 1C050000 		.4byte	.LASF19
 2060 00dc 03       		.byte	0x3
 2061 00dd 8F       		.byte	0x8f
 2062 00de 6B000000 		.4byte	0x6b
 2063 00e2 00       		.byte	0
 2064 00e3 07       		.uleb128 0x7
 2065 00e4 B0050000 		.4byte	.LASF20
 2066 00e8 03       		.byte	0x3
ARM GAS  C:\Users\student\AppData\Local\Temp\ccpvKyYb.s 			page 63


 2067 00e9 90       		.byte	0x90
 2068 00ea 6B000000 		.4byte	0x6b
 2069 00ee 01       		.byte	0x1
 2070 00ef 07       		.uleb128 0x7
 2071 00f0 B7040000 		.4byte	.LASF21
 2072 00f4 03       		.byte	0x3
 2073 00f5 91       		.byte	0x91
 2074 00f6 6B000000 		.4byte	0x6b
 2075 00fa 02       		.byte	0x2
 2076 00fb 07       		.uleb128 0x7
 2077 00fc AF010000 		.4byte	.LASF22
 2078 0100 03       		.byte	0x3
 2079 0101 92       		.byte	0x92
 2080 0102 6B000000 		.4byte	0x6b
 2081 0106 03       		.byte	0x3
 2082 0107 07       		.uleb128 0x7
 2083 0108 5A000000 		.4byte	.LASF23
 2084 010c 03       		.byte	0x3
 2085 010d 93       		.byte	0x93
 2086 010e 6B000000 		.4byte	0x6b
 2087 0112 04       		.byte	0x4
 2088 0113 07       		.uleb128 0x7
 2089 0114 3E020000 		.4byte	.LASF24
 2090 0118 03       		.byte	0x3
 2091 0119 94       		.byte	0x94
 2092 011a 6B000000 		.4byte	0x6b
 2093 011e 05       		.byte	0x5
 2094 011f 07       		.uleb128 0x7
 2095 0120 E2060000 		.4byte	.LASF25
 2096 0124 03       		.byte	0x3
 2097 0125 95       		.byte	0x95
 2098 0126 77000000 		.4byte	0x77
 2099 012a 06       		.byte	0x6
 2100 012b 07       		.uleb128 0x7
 2101 012c 9C060000 		.4byte	.LASF26
 2102 0130 03       		.byte	0x3
 2103 0131 96       		.byte	0x96
 2104 0132 77000000 		.4byte	0x77
 2105 0136 08       		.byte	0x8
 2106 0137 07       		.uleb128 0x7
 2107 0138 20040000 		.4byte	.LASF27
 2108 013c 03       		.byte	0x3
 2109 013d 97       		.byte	0x97
 2110 013e 6B000000 		.4byte	0x6b
 2111 0142 0A       		.byte	0xa
 2112 0143 00       		.byte	0
 2113 0144 08       		.uleb128 0x8
 2114 0145 CB060000 		.4byte	.LASF28
 2115 0149 03       		.byte	0x3
 2116 014a 98       		.byte	0x98
 2117 014b CF000000 		.4byte	0xcf
 2118 014f 06       		.uleb128 0x6
 2119 0150 08       		.byte	0x8
 2120 0151 03       		.byte	0x3
 2121 0152 9A       		.byte	0x9a
 2122 0153 A0010000 		.4byte	0x1a0
 2123 0157 07       		.uleb128 0x7
ARM GAS  C:\Users\student\AppData\Local\Temp\ccpvKyYb.s 			page 64


 2124 0158 20040000 		.4byte	.LASF27
 2125 015c 03       		.byte	0x3
 2126 015d 9C       		.byte	0x9c
 2127 015e 6B000000 		.4byte	0x6b
 2128 0162 00       		.byte	0
 2129 0163 07       		.uleb128 0x7
 2130 0164 8C060000 		.4byte	.LASF29
 2131 0168 03       		.byte	0x3
 2132 0169 9D       		.byte	0x9d
 2133 016a 6B000000 		.4byte	0x6b
 2134 016e 01       		.byte	0x1
 2135 016f 07       		.uleb128 0x7
 2136 0170 5A000000 		.4byte	.LASF23
 2137 0174 03       		.byte	0x3
 2138 0175 9E       		.byte	0x9e
 2139 0176 6B000000 		.4byte	0x6b
 2140 017a 02       		.byte	0x2
 2141 017b 07       		.uleb128 0x7
 2142 017c 67060000 		.4byte	.LASF30
 2143 0180 03       		.byte	0x3
 2144 0181 9F       		.byte	0x9f
 2145 0182 6B000000 		.4byte	0x6b
 2146 0186 03       		.byte	0x3
 2147 0187 07       		.uleb128 0x7
 2148 0188 9C060000 		.4byte	.LASF26
 2149 018c 03       		.byte	0x3
 2150 018d A0       		.byte	0xa0
 2151 018e 77000000 		.4byte	0x77
 2152 0192 04       		.byte	0x4
 2153 0193 07       		.uleb128 0x7
 2154 0194 90070000 		.4byte	.LASF31
 2155 0198 03       		.byte	0x3
 2156 0199 A1       		.byte	0xa1
 2157 019a 6B000000 		.4byte	0x6b
 2158 019e 06       		.byte	0x6
 2159 019f 00       		.byte	0
 2160 01a0 08       		.uleb128 0x8
 2161 01a1 F3060000 		.4byte	.LASF32
 2162 01a5 03       		.byte	0x3
 2163 01a6 A2       		.byte	0xa2
 2164 01a7 4F010000 		.4byte	0x14f
 2165 01ab 06       		.uleb128 0x6
 2166 01ac 04       		.byte	0x4
 2167 01ad 03       		.byte	0x3
 2168 01ae A4       		.byte	0xa4
 2169 01af CC010000 		.4byte	0x1cc
 2170 01b3 07       		.uleb128 0x7
 2171 01b4 56070000 		.4byte	.LASF33
 2172 01b8 03       		.byte	0x3
 2173 01b9 A6       		.byte	0xa6
 2174 01ba 6B000000 		.4byte	0x6b
 2175 01be 00       		.byte	0
 2176 01bf 07       		.uleb128 0x7
 2177 01c0 3E070000 		.4byte	.LASF34
 2178 01c4 03       		.byte	0x3
 2179 01c5 A7       		.byte	0xa7
 2180 01c6 77000000 		.4byte	0x77
ARM GAS  C:\Users\student\AppData\Local\Temp\ccpvKyYb.s 			page 65


 2181 01ca 02       		.byte	0x2
 2182 01cb 00       		.byte	0
 2183 01cc 08       		.uleb128 0x8
 2184 01cd 65000000 		.4byte	.LASF35
 2185 01d1 03       		.byte	0x3
 2186 01d2 A8       		.byte	0xa8
 2187 01d3 AB010000 		.4byte	0x1ab
 2188 01d7 06       		.uleb128 0x6
 2189 01d8 0C       		.byte	0xc
 2190 01d9 03       		.byte	0x3
 2191 01da AA       		.byte	0xaa
 2192 01db 04020000 		.4byte	0x204
 2193 01df 07       		.uleb128 0x7
 2194 01e0 0D000000 		.4byte	.LASF36
 2195 01e4 03       		.byte	0x3
 2196 01e5 AC       		.byte	0xac
 2197 01e6 77000000 		.4byte	0x77
 2198 01ea 00       		.byte	0
 2199 01eb 07       		.uleb128 0x7
 2200 01ec 32020000 		.4byte	.LASF37
 2201 01f0 03       		.byte	0x3
 2202 01f1 AD       		.byte	0xad
 2203 01f2 04020000 		.4byte	0x204
 2204 01f6 04       		.byte	0x4
 2205 01f7 07       		.uleb128 0x7
 2206 01f8 00000000 		.4byte	.LASF38
 2207 01fc 03       		.byte	0x3
 2208 01fd AE       		.byte	0xae
 2209 01fe 0A020000 		.4byte	0x20a
 2210 0202 08       		.byte	0x8
 2211 0203 00       		.byte	0
 2212 0204 09       		.uleb128 0x9
 2213 0205 04       		.byte	0x4
 2214 0206 BC000000 		.4byte	0xbc
 2215 020a 09       		.uleb128 0x9
 2216 020b 04       		.byte	0x4
 2217 020c CC010000 		.4byte	0x1cc
 2218 0210 08       		.uleb128 0x8
 2219 0211 2C060000 		.4byte	.LASF39
 2220 0215 03       		.byte	0x3
 2221 0216 AF       		.byte	0xaf
 2222 0217 D7010000 		.4byte	0x1d7
 2223 021b 06       		.uleb128 0x6
 2224 021c 08       		.byte	0x8
 2225 021d 03       		.byte	0x3
 2226 021e B1       		.byte	0xb1
 2227 021f 3A020000 		.4byte	0x23a
 2228 0223 0A       		.uleb128 0xa
 2229 0224 6300     		.ascii	"c\000"
 2230 0226 03       		.byte	0x3
 2231 0227 B3       		.byte	0xb3
 2232 0228 6B000000 		.4byte	0x6b
 2233 022c 00       		.byte	0
 2234 022d 07       		.uleb128 0x7
 2235 022e 0B050000 		.4byte	.LASF40
 2236 0232 03       		.byte	0x3
 2237 0233 B4       		.byte	0xb4
ARM GAS  C:\Users\student\AppData\Local\Temp\ccpvKyYb.s 			page 66


 2238 0234 3A020000 		.4byte	0x23a
 2239 0238 04       		.byte	0x4
 2240 0239 00       		.byte	0
 2241 023a 09       		.uleb128 0x9
 2242 023b 04       		.byte	0x4
 2243 023c 40020000 		.4byte	0x240
 2244 0240 0B       		.uleb128 0xb
 2245 0241 08       		.uleb128 0x8
 2246 0242 3C040000 		.4byte	.LASF41
 2247 0246 03       		.byte	0x3
 2248 0247 B5       		.byte	0xb5
 2249 0248 1B020000 		.4byte	0x21b
 2250 024c 06       		.uleb128 0x6
 2251 024d 08       		.byte	0x8
 2252 024e 03       		.byte	0x3
 2253 024f C5       		.byte	0xc5
 2254 0250 61020000 		.4byte	0x261
 2255 0254 07       		.uleb128 0x7
 2256 0255 89070000 		.4byte	.LASF42
 2257 0259 03       		.byte	0x3
 2258 025a C7       		.byte	0xc7
 2259 025b 61020000 		.4byte	0x261
 2260 025f 00       		.byte	0
 2261 0260 00       		.byte	0
 2262 0261 0C       		.uleb128 0xc
 2263 0262 6B000000 		.4byte	0x6b
 2264 0266 71020000 		.4byte	0x271
 2265 026a 0D       		.uleb128 0xd
 2266 026b C8000000 		.4byte	0xc8
 2267 026f 07       		.byte	0x7
 2268 0270 00       		.byte	0
 2269 0271 08       		.uleb128 0x8
 2270 0272 55010000 		.4byte	.LASF43
 2271 0276 03       		.byte	0x3
 2272 0277 C8       		.byte	0xc8
 2273 0278 4C020000 		.4byte	0x24c
 2274 027c 06       		.uleb128 0x6
 2275 027d 10       		.byte	0x10
 2276 027e 03       		.byte	0x3
 2277 027f D4       		.byte	0xd4
 2278 0280 B5020000 		.4byte	0x2b5
 2279 0284 07       		.uleb128 0x7
 2280 0285 6E050000 		.4byte	.LASF44
 2281 0289 03       		.byte	0x3
 2282 028a D6       		.byte	0xd6
 2283 028b 6B000000 		.4byte	0x6b
 2284 028f 00       		.byte	0
 2285 0290 07       		.uleb128 0x7
 2286 0291 75050000 		.4byte	.LASF45
 2287 0295 03       		.byte	0x3
 2288 0296 D7       		.byte	0xd7
 2289 0297 6B000000 		.4byte	0x6b
 2290 029b 01       		.byte	0x1
 2291 029c 07       		.uleb128 0x7
 2292 029d 97050000 		.4byte	.LASF46
 2293 02a1 03       		.byte	0x3
 2294 02a2 D8       		.byte	0xd8
ARM GAS  C:\Users\student\AppData\Local\Temp\ccpvKyYb.s 			page 67


 2295 02a3 6B000000 		.4byte	0x6b
 2296 02a7 02       		.byte	0x2
 2297 02a8 0A       		.uleb128 0xa
 2298 02a9 67617000 		.ascii	"gap\000"
 2299 02ad 03       		.byte	0x3
 2300 02ae D9       		.byte	0xd9
 2301 02af B5020000 		.4byte	0x2b5
 2302 02b3 03       		.byte	0x3
 2303 02b4 00       		.byte	0
 2304 02b5 0C       		.uleb128 0xc
 2305 02b6 6B000000 		.4byte	0x6b
 2306 02ba C5020000 		.4byte	0x2c5
 2307 02be 0D       		.uleb128 0xd
 2308 02bf C8000000 		.4byte	0xc8
 2309 02c3 0C       		.byte	0xc
 2310 02c4 00       		.byte	0
 2311 02c5 08       		.uleb128 0x8
 2312 02c6 51060000 		.4byte	.LASF47
 2313 02ca 03       		.byte	0x3
 2314 02cb DA       		.byte	0xda
 2315 02cc 7C020000 		.4byte	0x27c
 2316 02d0 06       		.uleb128 0x6
 2317 02d1 10       		.byte	0x10
 2318 02d2 03       		.byte	0x3
 2319 02d3 E6       		.byte	0xe6
 2320 02d4 51030000 		.4byte	0x351
 2321 02d8 07       		.uleb128 0x7
 2322 02d9 5F000000 		.4byte	.LASF48
 2323 02dd 03       		.byte	0x3
 2324 02de E8       		.byte	0xe8
 2325 02df 6B000000 		.4byte	0x6b
 2326 02e3 00       		.byte	0
 2327 02e4 07       		.uleb128 0x7
 2328 02e5 AE070000 		.4byte	.LASF49
 2329 02e9 03       		.byte	0x3
 2330 02ea E9       		.byte	0xe9
 2331 02eb 6B000000 		.4byte	0x6b
 2332 02ef 01       		.byte	0x1
 2333 02f0 07       		.uleb128 0x7
 2334 02f1 F4010000 		.4byte	.LASF50
 2335 02f5 03       		.byte	0x3
 2336 02f6 EA       		.byte	0xea
 2337 02f7 6B000000 		.4byte	0x6b
 2338 02fb 02       		.byte	0x2
 2339 02fc 07       		.uleb128 0x7
 2340 02fd 5A020000 		.4byte	.LASF51
 2341 0301 03       		.byte	0x3
 2342 0302 EB       		.byte	0xeb
 2343 0303 6B000000 		.4byte	0x6b
 2344 0307 03       		.byte	0x3
 2345 0308 07       		.uleb128 0x7
 2346 0309 B8010000 		.4byte	.LASF52
 2347 030d 03       		.byte	0x3
 2348 030e EC       		.byte	0xec
 2349 030f 6B000000 		.4byte	0x6b
 2350 0313 04       		.byte	0x4
 2351 0314 07       		.uleb128 0x7
ARM GAS  C:\Users\student\AppData\Local\Temp\ccpvKyYb.s 			page 68


 2352 0315 24060000 		.4byte	.LASF53
 2353 0319 03       		.byte	0x3
 2354 031a ED       		.byte	0xed
 2355 031b 6B000000 		.4byte	0x6b
 2356 031f 05       		.byte	0x5
 2357 0320 07       		.uleb128 0x7
 2358 0321 1F060000 		.4byte	.LASF54
 2359 0325 03       		.byte	0x3
 2360 0326 EE       		.byte	0xee
 2361 0327 6B000000 		.4byte	0x6b
 2362 032b 06       		.byte	0x6
 2363 032c 07       		.uleb128 0x7
 2364 032d 66050000 		.4byte	.LASF55
 2365 0331 03       		.byte	0x3
 2366 0332 EF       		.byte	0xef
 2367 0333 6B000000 		.4byte	0x6b
 2368 0337 07       		.byte	0x7
 2369 0338 07       		.uleb128 0x7
 2370 0339 5D070000 		.4byte	.LASF56
 2371 033d 03       		.byte	0x3
 2372 033e F0       		.byte	0xf0
 2373 033f 6B000000 		.4byte	0x6b
 2374 0343 08       		.byte	0x8
 2375 0344 0A       		.uleb128 0xa
 2376 0345 67617000 		.ascii	"gap\000"
 2377 0349 03       		.byte	0x3
 2378 034a F1       		.byte	0xf1
 2379 034b 51030000 		.4byte	0x351
 2380 034f 09       		.byte	0x9
 2381 0350 00       		.byte	0
 2382 0351 0C       		.uleb128 0xc
 2383 0352 6B000000 		.4byte	0x6b
 2384 0356 61030000 		.4byte	0x361
 2385 035a 0D       		.uleb128 0xd
 2386 035b C8000000 		.4byte	0xc8
 2387 035f 06       		.byte	0x6
 2388 0360 00       		.byte	0
 2389 0361 08       		.uleb128 0x8
 2390 0362 28070000 		.4byte	.LASF57
 2391 0366 03       		.byte	0x3
 2392 0367 F2       		.byte	0xf2
 2393 0368 D0020000 		.4byte	0x2d0
 2394 036c 0E       		.uleb128 0xe
 2395 036d 90       		.byte	0x90
 2396 036e 03       		.byte	0x3
 2397 036f 0E01     		.2byte	0x10e
 2398 0371 83030000 		.4byte	0x383
 2399 0375 0F       		.uleb128 0xf
 2400 0376 38020000 		.4byte	.LASF58
 2401 037a 03       		.byte	0x3
 2402 037b 1001     		.2byte	0x110
 2403 037d 83030000 		.4byte	0x383
 2404 0381 00       		.byte	0
 2405 0382 00       		.byte	0
 2406 0383 0C       		.uleb128 0xc
 2407 0384 C5020000 		.4byte	0x2c5
 2408 0388 93030000 		.4byte	0x393
ARM GAS  C:\Users\student\AppData\Local\Temp\ccpvKyYb.s 			page 69


 2409 038c 0D       		.uleb128 0xd
 2410 038d C8000000 		.4byte	0xc8
 2411 0391 08       		.byte	0x8
 2412 0392 00       		.byte	0
 2413 0393 04       		.uleb128 0x4
 2414 0394 3E010000 		.4byte	.LASF59
 2415 0398 03       		.byte	0x3
 2416 0399 1101     		.2byte	0x111
 2417 039b 6C030000 		.4byte	0x36c
 2418 039f 0E       		.uleb128 0xe
 2419 03a0 90       		.byte	0x90
 2420 03a1 03       		.byte	0x3
 2421 03a2 1401     		.2byte	0x114
 2422 03a4 B6030000 		.4byte	0x3b6
 2423 03a8 0F       		.uleb128 0xf
 2424 03a9 1A040000 		.4byte	.LASF60
 2425 03ad 03       		.byte	0x3
 2426 03ae 1601     		.2byte	0x116
 2427 03b0 B6030000 		.4byte	0x3b6
 2428 03b4 00       		.byte	0
 2429 03b5 00       		.byte	0
 2430 03b6 0C       		.uleb128 0xc
 2431 03b7 61030000 		.4byte	0x361
 2432 03bb C6030000 		.4byte	0x3c6
 2433 03bf 0D       		.uleb128 0xd
 2434 03c0 C8000000 		.4byte	0xc8
 2435 03c4 08       		.byte	0x8
 2436 03c5 00       		.byte	0
 2437 03c6 04       		.uleb128 0x4
 2438 03c7 C1040000 		.4byte	.LASF61
 2439 03cb 03       		.byte	0x3
 2440 03cc 1701     		.2byte	0x117
 2441 03ce 9F030000 		.4byte	0x39f
 2442 03d2 10       		.uleb128 0x10
 2443 03d3 97010000 		.4byte	.LASF63
 2444 03d7 01       		.byte	0x1
 2445 03d8 8E01     		.2byte	0x18e
 2446 03da 00000000 		.4byte	.LFB1
 2447 03de 6C000000 		.4byte	.LFE1-.LFB1
 2448 03e2 01       		.uleb128 0x1
 2449 03e3 9C       		.byte	0x9c
 2450 03e4 43040000 		.4byte	0x443
 2451 03e8 11       		.uleb128 0x11
 2452 03e9 01060000 		.4byte	.LASF66
 2453 03ed 01       		.byte	0x1
 2454 03ee 8E01     		.2byte	0x18e
 2455 03f0 43040000 		.4byte	0x443
 2456 03f4 00000000 		.4byte	.LLST0
 2457 03f8 12       		.uleb128 0x12
 2458 03f9 68657800 		.ascii	"hex\000"
 2459 03fd 01       		.byte	0x1
 2460 03fe 9001     		.2byte	0x190
 2461 0400 59040000 		.4byte	0x459
 2462 0404 02       		.uleb128 0x2
 2463 0405 91       		.byte	0x91
 2464 0406 5C       		.sleb128 -36
 2465 0407 13       		.uleb128 0x13
ARM GAS  C:\Users\student\AppData\Local\Temp\ccpvKyYb.s 			page 70


 2466 0408 6900     		.ascii	"i\000"
 2467 040a 01       		.byte	0x1
 2468 040b 9101     		.2byte	0x191
 2469 040d 6B000000 		.4byte	0x6b
 2470 0411 2C000000 		.4byte	.LLST1
 2471 0415 13       		.uleb128 0x13
 2472 0416 6A00     		.ascii	"j\000"
 2473 0418 01       		.byte	0x1
 2474 0419 9201     		.2byte	0x192
 2475 041b 6B000000 		.4byte	0x6b
 2476 041f 56000000 		.4byte	.LLST2
 2477 0423 14       		.uleb128 0x14
 2478 0424 0F070000 		.4byte	.LASF62
 2479 0428 01       		.byte	0x1
 2480 0429 9301     		.2byte	0x193
 2481 042b 61020000 		.4byte	0x261
 2482 042f 02       		.uleb128 0x2
 2483 0430 91       		.byte	0x91
 2484 0431 54       		.sleb128 -44
 2485 0432 15       		.uleb128 0x15
 2486 0433 22000000 		.4byte	.LVL3
 2487 0437 E20A0000 		.4byte	0xae2
 2488 043b 16       		.uleb128 0x16
 2489 043c 01       		.uleb128 0x1
 2490 043d 50       		.byte	0x50
 2491 043e 02       		.uleb128 0x2
 2492 043f 91       		.byte	0x91
 2493 0440 54       		.sleb128 -44
 2494 0441 00       		.byte	0
 2495 0442 00       		.byte	0
 2496 0443 09       		.uleb128 0x9
 2497 0444 04       		.byte	0x4
 2498 0445 6B000000 		.4byte	0x6b
 2499 0449 0C       		.uleb128 0xc
 2500 044a 9D000000 		.4byte	0x9d
 2501 044e 59040000 		.4byte	0x459
 2502 0452 0D       		.uleb128 0xd
 2503 0453 C8000000 		.4byte	0xc8
 2504 0457 10       		.byte	0x10
 2505 0458 00       		.byte	0
 2506 0459 17       		.uleb128 0x17
 2507 045a 49040000 		.4byte	0x449
 2508 045e 10       		.uleb128 0x10
 2509 045f 2A040000 		.4byte	.LASF64
 2510 0463 01       		.byte	0x1
 2511 0464 B501     		.2byte	0x1b5
 2512 0466 00000000 		.4byte	.LFB2
 2513 046a A4000000 		.4byte	.LFE2-.LFB2
 2514 046e 01       		.uleb128 0x1
 2515 046f 9C       		.byte	0x9c
 2516 0470 84040000 		.4byte	0x484
 2517 0474 13       		.uleb128 0x13
 2518 0475 657000   		.ascii	"ep\000"
 2519 0478 01       		.byte	0x1
 2520 0479 B701     		.2byte	0x1b7
 2521 047b 6B000000 		.4byte	0x6b
 2522 047f 80000000 		.4byte	.LLST3
ARM GAS  C:\Users\student\AppData\Local\Temp\ccpvKyYb.s 			page 71


 2523 0483 00       		.byte	0
 2524 0484 10       		.uleb128 0x10
 2525 0485 0D010000 		.4byte	.LASF65
 2526 0489 01       		.byte	0x1
 2527 048a 1402     		.2byte	0x214
 2528 048c 00000000 		.4byte	.LFB3
 2529 0490 40000000 		.4byte	.LFE3-.LFB3
 2530 0494 01       		.uleb128 0x1
 2531 0495 9C       		.byte	0x9c
 2532 0496 A9040000 		.4byte	0x4a9
 2533 049a 13       		.uleb128 0x13
 2534 049b 6900     		.ascii	"i\000"
 2535 049d 01       		.byte	0x1
 2536 049e 1602     		.2byte	0x216
 2537 04a0 6B000000 		.4byte	0x6b
 2538 04a4 AA000000 		.4byte	.LLST4
 2539 04a8 00       		.byte	0
 2540 04a9 18       		.uleb128 0x18
 2541 04aa 18020000 		.4byte	.LASF73
 2542 04ae 01       		.byte	0x1
 2543 04af AE03     		.2byte	0x3ae
 2544 04b1 E4040000 		.4byte	0x4e4
 2545 04b5 00000000 		.4byte	.LFB6
 2546 04b9 28000000 		.4byte	.LFE6-.LFB6
 2547 04bd 01       		.uleb128 0x1
 2548 04be 9C       		.byte	0x9c
 2549 04bf E4040000 		.4byte	0x4e4
 2550 04c3 11       		.uleb128 0x11
 2551 04c4 39000000 		.4byte	.LASF67
 2552 04c8 01       		.byte	0x1
 2553 04c9 AE03     		.2byte	0x3ae
 2554 04cb 6B000000 		.4byte	0x6b
 2555 04cf D4000000 		.4byte	.LLST5
 2556 04d3 19       		.uleb128 0x19
 2557 04d4 06050000 		.4byte	.LASF68
 2558 04d8 01       		.byte	0x1
 2559 04d9 B203     		.2byte	0x3b2
 2560 04db E4040000 		.4byte	0x4e4
 2561 04df 0E010000 		.4byte	.LLST6
 2562 04e3 00       		.byte	0
 2563 04e4 09       		.uleb128 0x9
 2564 04e5 04       		.byte	0x4
 2565 04e6 EA040000 		.4byte	0x4ea
 2566 04ea 17       		.uleb128 0x17
 2567 04eb 41020000 		.4byte	0x241
 2568 04ef 10       		.uleb128 0x10
 2569 04f0 ED040000 		.4byte	.LASF69
 2570 04f4 01       		.byte	0x1
 2571 04f5 2503     		.2byte	0x325
 2572 04f7 00000000 		.4byte	.LFB5
 2573 04fb 1C010000 		.4byte	.LFE5-.LFB5
 2574 04ff 01       		.uleb128 0x1
 2575 0500 9C       		.byte	0x9c
 2576 0501 7C050000 		.4byte	0x57c
 2577 0505 13       		.uleb128 0x13
 2578 0506 657000   		.ascii	"ep\000"
 2579 0509 01       		.byte	0x1
ARM GAS  C:\Users\student\AppData\Local\Temp\ccpvKyYb.s 			page 72


 2580 050a 2703     		.2byte	0x327
 2581 050c 6B000000 		.4byte	0x6b
 2582 0510 46010000 		.4byte	.LLST7
 2583 0514 19       		.uleb128 0x19
 2584 0515 60040000 		.4byte	.LASF70
 2585 0519 01       		.byte	0x1
 2586 051a 2803     		.2byte	0x328
 2587 051c 6B000000 		.4byte	0x6b
 2588 0520 59010000 		.4byte	.LLST8
 2589 0524 19       		.uleb128 0x19
 2590 0525 45020000 		.4byte	.LASF71
 2591 0529 01       		.byte	0x1
 2592 052a 2903     		.2byte	0x329
 2593 052c 6B000000 		.4byte	0x6b
 2594 0530 6C010000 		.4byte	.LLST9
 2595 0534 13       		.uleb128 0x13
 2596 0535 6900     		.ascii	"i\000"
 2597 0537 01       		.byte	0x1
 2598 0538 2A03     		.2byte	0x32a
 2599 053a 6B000000 		.4byte	0x6b
 2600 053e 8A010000 		.4byte	.LLST10
 2601 0542 19       		.uleb128 0x19
 2602 0543 9D050000 		.4byte	.LASF72
 2603 0547 01       		.byte	0x1
 2604 0548 2B03     		.2byte	0x32b
 2605 054a 6B000000 		.4byte	0x6b
 2606 054e B4010000 		.4byte	.LLST11
 2607 0552 19       		.uleb128 0x19
 2608 0553 06050000 		.4byte	.LASF68
 2609 0557 01       		.byte	0x1
 2610 0558 2D03     		.2byte	0x32d
 2611 055a E4040000 		.4byte	0x4e4
 2612 055e C7010000 		.4byte	.LLST12
 2613 0562 13       		.uleb128 0x13
 2614 0563 70455000 		.ascii	"pEP\000"
 2615 0567 01       		.byte	0x1
 2616 0568 2E03     		.2byte	0x32e
 2617 056a 7C050000 		.4byte	0x57c
 2618 056e DC010000 		.4byte	.LLST13
 2619 0572 1A       		.uleb128 0x1a
 2620 0573 18000000 		.4byte	.LVL26
 2621 0577 A9040000 		.4byte	0x4a9
 2622 057b 00       		.byte	0
 2623 057c 09       		.uleb128 0x9
 2624 057d 04       		.byte	0x4
 2625 057e 82050000 		.4byte	0x582
 2626 0582 17       		.uleb128 0x17
 2627 0583 A0010000 		.4byte	0x1a0
 2628 0587 1B       		.uleb128 0x1b
 2629 0588 C3030000 		.4byte	.LASF119
 2630 058c 01       		.byte	0x1
 2631 058d F303     		.2byte	0x3f3
 2632 058f E4040000 		.4byte	0x4e4
 2633 0593 00000000 		.4byte	.LFB7
 2634 0597 18000000 		.4byte	.LFE7-.LFB7
 2635 059b 01       		.uleb128 0x1
 2636 059c 9C       		.byte	0x9c
ARM GAS  C:\Users\student\AppData\Local\Temp\ccpvKyYb.s 			page 73


 2637 059d 18       		.uleb128 0x18
 2638 059e B4020000 		.4byte	.LASF74
 2639 05a2 01       		.byte	0x1
 2640 05a3 0604     		.2byte	0x406
 2641 05a5 F1050000 		.4byte	0x5f1
 2642 05a9 00000000 		.4byte	.LFB8
 2643 05ad 24000000 		.4byte	.LFE8-.LFB8
 2644 05b1 01       		.uleb128 0x1
 2645 05b2 9C       		.byte	0x9c
 2646 05b3 F1050000 		.4byte	0x5f1
 2647 05b7 19       		.uleb128 0x19
 2648 05b8 06050000 		.4byte	.LASF68
 2649 05bc 01       		.byte	0x1
 2650 05bd 0904     		.2byte	0x409
 2651 05bf E4040000 		.4byte	0x4e4
 2652 05c3 EF010000 		.4byte	.LLST14
 2653 05c7 19       		.uleb128 0x19
 2654 05c8 0A040000 		.4byte	.LASF75
 2655 05cc 01       		.byte	0x1
 2656 05cd 0A04     		.2byte	0x40a
 2657 05cf F1050000 		.4byte	0x5f1
 2658 05d3 1F020000 		.4byte	.LLST15
 2659 05d7 19       		.uleb128 0x19
 2660 05d8 B6060000 		.4byte	.LASF76
 2661 05dc 01       		.byte	0x1
 2662 05dd 0B04     		.2byte	0x40b
 2663 05df 6B000000 		.4byte	0x6b
 2664 05e3 3D020000 		.4byte	.LLST16
 2665 05e7 1A       		.uleb128 0x1a
 2666 05e8 0E000000 		.4byte	.LVL42
 2667 05ec A9040000 		.4byte	0x4a9
 2668 05f0 00       		.byte	0
 2669 05f1 09       		.uleb128 0x9
 2670 05f2 04       		.byte	0x4
 2671 05f3 F7050000 		.4byte	0x5f7
 2672 05f7 17       		.uleb128 0x17
 2673 05f8 6B000000 		.4byte	0x6b
 2674 05fc 10       		.uleb128 0x10
 2675 05fd F3000000 		.4byte	.LASF77
 2676 0601 01       		.byte	0x1
 2677 0602 3A02     		.2byte	0x23a
 2678 0604 00000000 		.4byte	.LFB4
 2679 0608 E4010000 		.4byte	.LFE4-.LFB4
 2680 060c 01       		.uleb128 0x1
 2681 060d 9C       		.byte	0x9c
 2682 060e F5060000 		.4byte	0x6f5
 2683 0612 11       		.uleb128 0x11
 2684 0613 CB000000 		.4byte	.LASF78
 2685 0617 01       		.byte	0x1
 2686 0618 3A02     		.2byte	0x23a
 2687 061a 6B000000 		.4byte	0x6b
 2688 061e 50020000 		.4byte	.LLST17
 2689 0622 13       		.uleb128 0x13
 2690 0623 657000   		.ascii	"ep\000"
 2691 0626 01       		.byte	0x1
 2692 0627 3C02     		.2byte	0x23c
 2693 0629 6B000000 		.4byte	0x6b
ARM GAS  C:\Users\student\AppData\Local\Temp\ccpvKyYb.s 			page 74


 2694 062d 71020000 		.4byte	.LLST18
 2695 0631 19       		.uleb128 0x19
 2696 0632 60040000 		.4byte	.LASF70
 2697 0636 01       		.byte	0x1
 2698 0637 3D02     		.2byte	0x23d
 2699 0639 6B000000 		.4byte	0x6b
 2700 063d D3020000 		.4byte	.LLST19
 2701 0641 13       		.uleb128 0x13
 2702 0642 6900     		.ascii	"i\000"
 2703 0644 01       		.byte	0x1
 2704 0645 3E02     		.2byte	0x23e
 2705 0647 6B000000 		.4byte	0x6b
 2706 064b FD020000 		.4byte	.LLST20
 2707 064f 19       		.uleb128 0x19
 2708 0650 45020000 		.4byte	.LASF71
 2709 0654 01       		.byte	0x1
 2710 0655 3F02     		.2byte	0x23f
 2711 0657 6B000000 		.4byte	0x6b
 2712 065b 6A030000 		.4byte	.LLST21
 2713 065f 19       		.uleb128 0x19
 2714 0660 03040000 		.4byte	.LASF79
 2715 0664 01       		.byte	0x1
 2716 0665 4002     		.2byte	0x240
 2717 0667 F1050000 		.4byte	0x5f1
 2718 066b AA030000 		.4byte	.LLST22
 2719 066f 19       		.uleb128 0x19
 2720 0670 12050000 		.4byte	.LASF80
 2721 0674 01       		.byte	0x1
 2722 0675 4302     		.2byte	0x243
 2723 0677 77000000 		.4byte	0x77
 2724 067b C9030000 		.4byte	.LLST23
 2725 067f 19       		.uleb128 0x19
 2726 0680 06050000 		.4byte	.LASF68
 2727 0684 01       		.byte	0x1
 2728 0685 4602     		.2byte	0x246
 2729 0687 E4040000 		.4byte	0x4e4
 2730 068b 0A040000 		.4byte	.LLST24
 2731 068f 13       		.uleb128 0x13
 2732 0690 70455000 		.ascii	"pEP\000"
 2733 0694 01       		.byte	0x1
 2734 0695 4702     		.2byte	0x247
 2735 0697 7C050000 		.4byte	0x57c
 2736 069b 37040000 		.4byte	.LLST25
 2737 069f 1C       		.uleb128 0x1c
 2738 06a0 50000000 		.4byte	.LBB2
 2739 06a4 94010000 		.4byte	.LBE2-.LBB2
 2740 06a8 19       		.uleb128 0x19
 2741 06a9 76010000 		.4byte	.LASF81
 2742 06ad 01       		.byte	0x1
 2743 06ae 6302     		.2byte	0x263
 2744 06b0 6B000000 		.4byte	0x6b
 2745 06b4 6D040000 		.4byte	.LLST26
 2746 06b8 1A       		.uleb128 0x1a
 2747 06b9 5C000000 		.4byte	.LVL61
 2748 06bd A9040000 		.4byte	0x4a9
 2749 06c1 1D       		.uleb128 0x1d
 2750 06c2 54010000 		.4byte	.LVL76
ARM GAS  C:\Users\student\AppData\Local\Temp\ccpvKyYb.s 			page 75


 2751 06c6 F90A0000 		.4byte	0xaf9
 2752 06ca E1060000 		.4byte	0x6e1
 2753 06ce 16       		.uleb128 0x16
 2754 06cf 01       		.uleb128 0x1
 2755 06d0 52       		.byte	0x52
 2756 06d1 02       		.uleb128 0x2
 2757 06d2 79       		.byte	0x79
 2758 06d3 00       		.sleb128 0
 2759 06d4 16       		.uleb128 0x16
 2760 06d5 01       		.uleb128 0x1
 2761 06d6 51       		.byte	0x51
 2762 06d7 02       		.uleb128 0x2
 2763 06d8 76       		.byte	0x76
 2764 06d9 00       		.sleb128 0
 2765 06da 16       		.uleb128 0x16
 2766 06db 01       		.uleb128 0x1
 2767 06dc 50       		.byte	0x50
 2768 06dd 02       		.uleb128 0x2
 2769 06de 75       		.byte	0x75
 2770 06df 00       		.sleb128 0
 2771 06e0 00       		.byte	0
 2772 06e1 1A       		.uleb128 0x1a
 2773 06e2 92010000 		.4byte	.LVL89
 2774 06e6 9D050000 		.4byte	0x59d
 2775 06ea 1A       		.uleb128 0x1a
 2776 06eb C2010000 		.4byte	.LVL98
 2777 06ef 5E040000 		.4byte	0x45e
 2778 06f3 00       		.byte	0
 2779 06f4 00       		.byte	0
 2780 06f5 10       		.uleb128 0x10
 2781 06f6 BB050000 		.4byte	.LASF82
 2782 06fa 01       		.byte	0x1
 2783 06fb 3004     		.2byte	0x430
 2784 06fd 00000000 		.4byte	.LFB9
 2785 0701 4C000000 		.4byte	.LFE9-.LFB9
 2786 0705 01       		.uleb128 0x1
 2787 0706 9C       		.byte	0x9c
 2788 0707 1C070000 		.4byte	0x71c
 2789 070b 11       		.uleb128 0x11
 2790 070c EB010000 		.4byte	.LASF83
 2791 0710 01       		.byte	0x1
 2792 0711 3004     		.2byte	0x430
 2793 0713 6B000000 		.4byte	0x6b
 2794 0717 8C040000 		.4byte	.LLST27
 2795 071b 00       		.byte	0
 2796 071c 18       		.uleb128 0x18
 2797 071d 96070000 		.4byte	.LASF84
 2798 0721 01       		.byte	0x1
 2799 0722 5904     		.2byte	0x459
 2800 0724 6B000000 		.4byte	0x6b
 2801 0728 00000000 		.4byte	.LFB10
 2802 072c 64000000 		.4byte	.LFE10-.LFB10
 2803 0730 01       		.uleb128 0x1
 2804 0731 9C       		.byte	0x9c
 2805 0732 5F070000 		.4byte	0x75f
 2806 0736 19       		.uleb128 0x19
 2807 0737 A7060000 		.4byte	.LASF85
ARM GAS  C:\Users\student\AppData\Local\Temp\ccpvKyYb.s 			page 76


 2808 073b 01       		.byte	0x1
 2809 073c 5B04     		.2byte	0x45b
 2810 073e 6B000000 		.4byte	0x6b
 2811 0742 B5040000 		.4byte	.LLST28
 2812 0746 13       		.uleb128 0x13
 2813 0747 657000   		.ascii	"ep\000"
 2814 074a 01       		.byte	0x1
 2815 074b 5C04     		.2byte	0x45c
 2816 074d 6B000000 		.4byte	0x6b
 2817 0751 EB040000 		.4byte	.LLST29
 2818 0755 1A       		.uleb128 0x1a
 2819 0756 52000000 		.4byte	.LVL109
 2820 075a 190B0000 		.4byte	0xb19
 2821 075e 00       		.byte	0
 2822 075f 18       		.uleb128 0x18
 2823 0760 72060000 		.4byte	.LASF86
 2824 0764 01       		.byte	0x1
 2825 0765 8A04     		.2byte	0x48a
 2826 0767 6B000000 		.4byte	0x6b
 2827 076b 00000000 		.4byte	.LFB11
 2828 076f A8000000 		.4byte	.LFE11-.LFB11
 2829 0773 01       		.uleb128 0x1
 2830 0774 9C       		.byte	0x9c
 2831 0775 A2070000 		.4byte	0x7a2
 2832 0779 19       		.uleb128 0x19
 2833 077a A7060000 		.4byte	.LASF85
 2834 077e 01       		.byte	0x1
 2835 077f 8C04     		.2byte	0x48c
 2836 0781 6B000000 		.4byte	0x6b
 2837 0785 14050000 		.4byte	.LLST30
 2838 0789 13       		.uleb128 0x13
 2839 078a 657000   		.ascii	"ep\000"
 2840 078d 01       		.byte	0x1
 2841 078e 8D04     		.2byte	0x48d
 2842 0790 6B000000 		.4byte	0x6b
 2843 0794 3F050000 		.4byte	.LLST31
 2844 0798 1A       		.uleb128 0x1a
 2845 0799 96000000 		.4byte	.LVL121
 2846 079d 190B0000 		.4byte	0xb19
 2847 07a1 00       		.byte	0
 2848 07a2 18       		.uleb128 0x18
 2849 07a3 63020000 		.4byte	.LASF87
 2850 07a7 01       		.byte	0x1
 2851 07a8 CF04     		.2byte	0x4cf
 2852 07aa 6B000000 		.4byte	0x6b
 2853 07ae 00000000 		.4byte	.LFB12
 2854 07b2 4C000000 		.4byte	.LFE12-.LFB12
 2855 07b6 01       		.uleb128 0x1
 2856 07b7 9C       		.byte	0x9c
 2857 07b8 06080000 		.4byte	0x806
 2858 07bc 19       		.uleb128 0x19
 2859 07bd A7060000 		.4byte	.LASF85
 2860 07c1 01       		.byte	0x1
 2861 07c2 D104     		.2byte	0x4d1
 2862 07c4 6B000000 		.4byte	0x6b
 2863 07c8 7E050000 		.4byte	.LLST32
 2864 07cc 19       		.uleb128 0x19
ARM GAS  C:\Users\student\AppData\Local\Temp\ccpvKyYb.s 			page 77


 2865 07cd 9D050000 		.4byte	.LASF72
 2866 07d1 01       		.byte	0x1
 2867 07d2 D304     		.2byte	0x4d3
 2868 07d4 6B000000 		.4byte	0x6b
 2869 07d8 B5050000 		.4byte	.LLST33
 2870 07dc 19       		.uleb128 0x19
 2871 07dd 62070000 		.4byte	.LASF88
 2872 07e1 01       		.byte	0x1
 2873 07e2 D404     		.2byte	0x4d4
 2874 07e4 6B000000 		.4byte	0x6b
 2875 07e8 C8050000 		.4byte	.LLST34
 2876 07ec 19       		.uleb128 0x19
 2877 07ed 06050000 		.4byte	.LASF68
 2878 07f1 01       		.byte	0x1
 2879 07f2 D504     		.2byte	0x4d5
 2880 07f4 E4040000 		.4byte	0x4e4
 2881 07f8 F5050000 		.4byte	.LLST35
 2882 07fc 1A       		.uleb128 0x1a
 2883 07fd 14000000 		.4byte	.LVL125
 2884 0801 A9040000 		.4byte	0x4a9
 2885 0805 00       		.byte	0
 2886 0806 1E       		.uleb128 0x1e
 2887 0807 A8030000 		.4byte	.LASF89
 2888 080b 01       		.byte	0x1
 2889 080c 54       		.byte	0x54
 2890 080d 6B000000 		.4byte	0x6b
 2891 0811 00000000 		.4byte	.LFB0
 2892 0815 50030000 		.4byte	.LFE0-.LFB0
 2893 0819 01       		.uleb128 0x1
 2894 081a 9C       		.byte	0x9c
 2895 081b A1090000 		.4byte	0x9a1
 2896 081f 1F       		.uleb128 0x1f
 2897 0820 A7060000 		.4byte	.LASF85
 2898 0824 01       		.byte	0x1
 2899 0825 56       		.byte	0x56
 2900 0826 6B000000 		.4byte	0x6b
 2901 082a 13060000 		.4byte	.LLST36
 2902 082e 1F       		.uleb128 0x1f
 2903 082f 18070000 		.4byte	.LASF90
 2904 0833 01       		.byte	0x1
 2905 0834 57       		.byte	0x57
 2906 0835 6B000000 		.4byte	0x6b
 2907 0839 B9070000 		.4byte	.LLST37
 2908 083d 1F       		.uleb128 0x1f
 2909 083e CF050000 		.4byte	.LASF91
 2910 0842 01       		.byte	0x1
 2911 0843 58       		.byte	0x58
 2912 0844 6B000000 		.4byte	0x6b
 2913 0848 CC070000 		.4byte	.LLST38
 2914 084c 1F       		.uleb128 0x1f
 2915 084d 4C020000 		.4byte	.LASF92
 2916 0851 01       		.byte	0x1
 2917 0852 59       		.byte	0x59
 2918 0853 6B000000 		.4byte	0x6b
 2919 0857 DF070000 		.4byte	.LLST39
 2920 085b 1F       		.uleb128 0x1f
 2921 085c DE050000 		.4byte	.LASF93
ARM GAS  C:\Users\student\AppData\Local\Temp\ccpvKyYb.s 			page 78


 2922 0860 01       		.byte	0x1
 2923 0861 5C       		.byte	0x5c
 2924 0862 04020000 		.4byte	0x204
 2925 0866 60080000 		.4byte	.LLST40
 2926 086a 1F       		.uleb128 0x1f
 2927 086b 45070000 		.4byte	.LASF94
 2928 086f 01       		.byte	0x1
 2929 0870 5E       		.byte	0x5e
 2930 0871 6B000000 		.4byte	0x6b
 2931 0875 C4080000 		.4byte	.LLST41
 2932 0879 1F       		.uleb128 0x1f
 2933 087a 4A070000 		.4byte	.LASF95
 2934 087e 01       		.byte	0x1
 2935 087f 5F       		.byte	0x5f
 2936 0880 6B000000 		.4byte	0x6b
 2937 0884 ED080000 		.4byte	.LLST42
 2938 0888 20       		.uleb128 0x20
 2939 0889 29000000 		.4byte	.LASF96
 2940 088d 01       		.byte	0x1
 2941 088e 63       		.byte	0x63
 2942 088f B1090000 		.4byte	0x9b1
 2943 0893 05       		.uleb128 0x5
 2944 0894 03       		.byte	0x3
 2945 0895 00000000 		.4byte	USBUART_tBuffer.5121
 2946 0899 1F       		.uleb128 0x1f
 2947 089a 06050000 		.4byte	.LASF68
 2948 089e 01       		.byte	0x1
 2949 089f 64       		.byte	0x64
 2950 08a0 E4040000 		.4byte	0x4e4
 2951 08a4 00090000 		.4byte	.LLST43
 2952 08a8 1A       		.uleb128 0x1a
 2953 08a9 4A000000 		.4byte	.LVL136
 2954 08ad 87050000 		.4byte	0x587
 2955 08b1 1A       		.uleb128 0x1a
 2956 08b2 58000000 		.4byte	.LVL137
 2957 08b6 240B0000 		.4byte	0xb24
 2958 08ba 1A       		.uleb128 0x1a
 2959 08bb 6C000000 		.4byte	.LVL139
 2960 08bf A9040000 		.4byte	0x4a9
 2961 08c3 1A       		.uleb128 0x1a
 2962 08c4 8A000000 		.4byte	.LVL140
 2963 08c8 240B0000 		.4byte	0xb24
 2964 08cc 1D       		.uleb128 0x1d
 2965 08cd D8000000 		.4byte	.LVL150
 2966 08d1 D2030000 		.4byte	0x3d2
 2967 08d5 E0080000 		.4byte	0x8e0
 2968 08d9 16       		.uleb128 0x16
 2969 08da 01       		.uleb128 0x1
 2970 08db 50       		.byte	0x50
 2971 08dc 02       		.uleb128 0x2
 2972 08dd 74       		.byte	0x74
 2973 08de 00       		.sleb128 0
 2974 08df 00       		.byte	0
 2975 08e0 1A       		.uleb128 0x1a
 2976 08e1 F0000000 		.4byte	.LVL152
 2977 08e5 240B0000 		.4byte	0xb24
 2978 08e9 1A       		.uleb128 0x1a
ARM GAS  C:\Users\student\AppData\Local\Temp\ccpvKyYb.s 			page 79


 2979 08ea F6000000 		.4byte	.LVL154
 2980 08ee 2F0B0000 		.4byte	0xb2f
 2981 08f2 1A       		.uleb128 0x1a
 2982 08f3 2C010000 		.4byte	.LVL157
 2983 08f7 240B0000 		.4byte	0xb24
 2984 08fb 1A       		.uleb128 0x1a
 2985 08fc 48010000 		.4byte	.LVL159
 2986 0900 240B0000 		.4byte	0xb24
 2987 0904 1A       		.uleb128 0x1a
 2988 0905 58010000 		.4byte	.LVL162
 2989 0909 240B0000 		.4byte	0xb24
 2990 090d 1A       		.uleb128 0x1a
 2991 090e 6E010000 		.4byte	.LVL165
 2992 0912 240B0000 		.4byte	0xb24
 2993 0916 1A       		.uleb128 0x1a
 2994 0917 A4010000 		.4byte	.LVL168
 2995 091b 190B0000 		.4byte	0xb19
 2996 091f 1D       		.uleb128 0x1d
 2997 0920 B8010000 		.4byte	.LVL172
 2998 0924 A9040000 		.4byte	0x4a9
 2999 0928 33090000 		.4byte	0x933
 3000 092c 16       		.uleb128 0x16
 3001 092d 01       		.uleb128 0x1
 3002 092e 50       		.byte	0x50
 3003 092f 02       		.uleb128 0x2
 3004 0930 74       		.byte	0x74
 3005 0931 7F       		.sleb128 -1
 3006 0932 00       		.byte	0
 3007 0933 1D       		.uleb128 0x1d
 3008 0934 DA010000 		.4byte	.LVL174
 3009 0938 FC050000 		.4byte	0x5fc
 3010 093c 46090000 		.4byte	0x946
 3011 0940 16       		.uleb128 0x16
 3012 0941 01       		.uleb128 0x1
 3013 0942 50       		.byte	0x50
 3014 0943 01       		.uleb128 0x1
 3015 0944 31       		.byte	0x31
 3016 0945 00       		.byte	0
 3017 0946 1A       		.uleb128 0x1a
 3018 0947 DE010000 		.4byte	.LVL175
 3019 094b 190B0000 		.4byte	0xb19
 3020 094f 1A       		.uleb128 0x1a
 3021 0950 E4010000 		.4byte	.LVL177
 3022 0954 A2070000 		.4byte	0x7a2
 3023 0958 1A       		.uleb128 0x1a
 3024 0959 10020000 		.4byte	.LVL180
 3025 095d EF040000 		.4byte	0x4ef
 3026 0961 1A       		.uleb128 0x1a
 3027 0962 14020000 		.4byte	.LVL181
 3028 0966 190B0000 		.4byte	0xb19
 3029 096a 1A       		.uleb128 0x1a
 3030 096b 32020000 		.4byte	.LVL184
 3031 096f 5F070000 		.4byte	0x75f
 3032 0973 1A       		.uleb128 0x1a
 3033 0974 4C020000 		.4byte	.LVL186
 3034 0978 190B0000 		.4byte	0xb19
 3035 097c 1A       		.uleb128 0x1a
ARM GAS  C:\Users\student\AppData\Local\Temp\ccpvKyYb.s 			page 80


 3036 097d 6E020000 		.4byte	.LVL188
 3037 0981 190B0000 		.4byte	0xb19
 3038 0985 1A       		.uleb128 0x1a
 3039 0986 C8020000 		.4byte	.LVL191
 3040 098a 1C070000 		.4byte	0x71c
 3041 098e 1A       		.uleb128 0x1a
 3042 098f E2020000 		.4byte	.LVL193
 3043 0993 190B0000 		.4byte	0xb19
 3044 0997 1A       		.uleb128 0x1a
 3045 0998 04030000 		.4byte	.LVL195
 3046 099c 190B0000 		.4byte	0xb19
 3047 09a0 00       		.byte	0
 3048 09a1 0C       		.uleb128 0xc
 3049 09a2 6B000000 		.4byte	0x6b
 3050 09a6 B1090000 		.4byte	0x9b1
 3051 09aa 0D       		.uleb128 0xd
 3052 09ab C8000000 		.4byte	0xc8
 3053 09af 01       		.byte	0x1
 3054 09b0 00       		.byte	0
 3055 09b1 05       		.uleb128 0x5
 3056 09b2 A1090000 		.4byte	0x9a1
 3057 09b6 21       		.uleb128 0x21
 3058 09b7 1A000000 		.4byte	.LASF97
 3059 09bb 03       		.byte	0x3
 3060 09bc D202     		.2byte	0x2d2
 3061 09be BC000000 		.4byte	0xbc
 3062 09c2 21       		.uleb128 0x21
 3063 09c3 73070000 		.4byte	.LASF98
 3064 09c7 03       		.byte	0x3
 3065 09c8 D402     		.2byte	0x2d4
 3066 09ca BC000000 		.4byte	0xbc
 3067 09ce 21       		.uleb128 0x21
 3068 09cf B6070000 		.4byte	.LASF99
 3069 09d3 03       		.byte	0x3
 3070 09d4 D502     		.2byte	0x2d5
 3071 09d6 BC000000 		.4byte	0xbc
 3072 09da 21       		.uleb128 0x21
 3073 09db 92020000 		.4byte	.LASF100
 3074 09df 03       		.byte	0x3
 3075 09e0 D602     		.2byte	0x2d6
 3076 09e2 BC000000 		.4byte	0xbc
 3077 09e6 0C       		.uleb128 0xc
 3078 09e7 6B000000 		.4byte	0x6b
 3079 09eb F6090000 		.4byte	0x9f6
 3080 09ef 0D       		.uleb128 0xd
 3081 09f0 C8000000 		.4byte	0xc8
 3082 09f4 11       		.byte	0x11
 3083 09f5 00       		.byte	0
 3084 09f6 22       		.uleb128 0x22
 3085 09f7 81010000 		.4byte	.LASF101
 3086 09fb 04       		.byte	0x4
 3087 09fc 61       		.byte	0x61
 3088 09fd 010A0000 		.4byte	0xa01
 3089 0a01 17       		.uleb128 0x17
 3090 0a02 E6090000 		.4byte	0x9e6
 3091 0a06 0C       		.uleb128 0xc
 3092 0a07 41020000 		.4byte	0x241
ARM GAS  C:\Users\student\AppData\Local\Temp\ccpvKyYb.s 			page 81


 3093 0a0b 160A0000 		.4byte	0xa16
 3094 0a0f 0D       		.uleb128 0xd
 3095 0a10 C8000000 		.4byte	0xc8
 3096 0a14 00       		.byte	0
 3097 0a15 00       		.byte	0
 3098 0a16 22       		.uleb128 0x22
 3099 0a17 BD000000 		.4byte	.LASF102
 3100 0a1b 04       		.byte	0x4
 3101 0a1c 67       		.byte	0x67
 3102 0a1d 210A0000 		.4byte	0xa21
 3103 0a21 17       		.uleb128 0x17
 3104 0a22 060A0000 		.4byte	0xa06
 3105 0a26 0C       		.uleb128 0xc
 3106 0a27 6B000000 		.4byte	0x6b
 3107 0a2b 360A0000 		.4byte	0xa36
 3108 0a2f 0D       		.uleb128 0xd
 3109 0a30 C8000000 		.4byte	0xc8
 3110 0a34 9E       		.byte	0x9e
 3111 0a35 00       		.byte	0
 3112 0a36 22       		.uleb128 0x22
 3113 0a37 7C050000 		.4byte	.LASF103
 3114 0a3b 04       		.byte	0x4
 3115 0a3c 69       		.byte	0x69
 3116 0a3d 410A0000 		.4byte	0xa41
 3117 0a41 17       		.uleb128 0x17
 3118 0a42 260A0000 		.4byte	0xa26
 3119 0a46 0C       		.uleb128 0xc
 3120 0a47 6B000000 		.4byte	0x6b
 3121 0a4b 560A0000 		.4byte	0xa56
 3122 0a4f 0D       		.uleb128 0xd
 3123 0a50 C8000000 		.4byte	0xc8
 3124 0a54 21       		.byte	0x21
 3125 0a55 00       		.byte	0
 3126 0a56 22       		.uleb128 0x22
 3127 0a57 BD010000 		.4byte	.LASF104
 3128 0a5b 04       		.byte	0x4
 3129 0a5c 6F       		.byte	0x6f
 3130 0a5d 460A0000 		.4byte	0xa46
 3131 0a61 22       		.uleb128 0x22
 3132 0a62 F9010000 		.4byte	.LASF105
 3133 0a66 04       		.byte	0x4
 3134 0a67 72       		.byte	0x72
 3135 0a68 BC000000 		.4byte	0xbc
 3136 0a6c 22       		.uleb128 0x22
 3137 0a6d E8050000 		.4byte	.LASF106
 3138 0a71 04       		.byte	0x4
 3139 0a72 73       		.byte	0x73
 3140 0a73 770A0000 		.4byte	0xa77
 3141 0a77 05       		.uleb128 0x5
 3142 0a78 A1090000 		.4byte	0x9a1
 3143 0a7c 22       		.uleb128 0x22
 3144 0a7d 21010000 		.4byte	.LASF107
 3145 0a81 04       		.byte	0x4
 3146 0a82 74       		.byte	0x74
 3147 0a83 870A0000 		.4byte	0xa87
 3148 0a87 05       		.uleb128 0x5
 3149 0a88 A1090000 		.4byte	0x9a1
ARM GAS  C:\Users\student\AppData\Local\Temp\ccpvKyYb.s 			page 82


 3150 0a8c 22       		.uleb128 0x22
 3151 0a8d 4A040000 		.4byte	.LASF108
 3152 0a91 04       		.byte	0x4
 3153 0a92 75       		.byte	0x75
 3154 0a93 BC000000 		.4byte	0xbc
 3155 0a97 22       		.uleb128 0x22
 3156 0a98 39060000 		.4byte	.LASF109
 3157 0a9c 04       		.byte	0x4
 3158 0a9d 76       		.byte	0x76
 3159 0a9e A20A0000 		.4byte	0xaa2
 3160 0aa2 05       		.uleb128 0x5
 3161 0aa3 A1090000 		.4byte	0x9a1
 3162 0aa7 22       		.uleb128 0x22
 3163 0aa8 23050000 		.4byte	.LASF110
 3164 0aac 04       		.byte	0x4
 3165 0aad 77       		.byte	0x77
 3166 0aae F1050000 		.4byte	0x5f1
 3167 0ab2 0C       		.uleb128 0xc
 3168 0ab3 44010000 		.4byte	0x144
 3169 0ab7 C20A0000 		.4byte	0xac2
 3170 0abb 0D       		.uleb128 0xd
 3171 0abc C8000000 		.4byte	0xc8
 3172 0ac0 08       		.byte	0x8
 3173 0ac1 00       		.byte	0
 3174 0ac2 22       		.uleb128 0x22
 3175 0ac3 02010000 		.4byte	.LASF111
 3176 0ac7 04       		.byte	0x4
 3177 0ac8 79       		.byte	0x79
 3178 0ac9 CD0A0000 		.4byte	0xacd
 3179 0acd 05       		.uleb128 0x5
 3180 0ace B20A0000 		.4byte	0xab2
 3181 0ad2 22       		.uleb128 0x22
 3182 0ad3 3A050000 		.4byte	.LASF112
 3183 0ad7 04       		.byte	0x4
 3184 0ad8 7A       		.byte	0x7a
 3185 0ad9 DD0A0000 		.4byte	0xadd
 3186 0add 05       		.uleb128 0x5
 3187 0ade 10020000 		.4byte	0x210
 3188 0ae2 23       		.uleb128 0x23
 3189 0ae3 84020000 		.4byte	.LASF120
 3190 0ae7 05       		.byte	0x5
 3191 0ae8 BE       		.byte	0xbe
 3192 0ae9 F30A0000 		.4byte	0xaf3
 3193 0aed 24       		.uleb128 0x24
 3194 0aee F30A0000 		.4byte	0xaf3
 3195 0af2 00       		.byte	0
 3196 0af3 09       		.uleb128 0x9
 3197 0af4 04       		.byte	0x4
 3198 0af5 83000000 		.4byte	0x83
 3199 0af9 25       		.uleb128 0x25
 3200 0afa F0030000 		.4byte	.LASF121
 3201 0afe 04       		.byte	0x4
 3202 0aff 7B01     		.2byte	0x17b
 3203 0b01 6B000000 		.4byte	0x6b
 3204 0b05 190B0000 		.4byte	0xb19
 3205 0b09 24       		.uleb128 0x24
 3206 0b0a 7C050000 		.4byte	0x57c
ARM GAS  C:\Users\student\AppData\Local\Temp\ccpvKyYb.s 			page 83


 3207 0b0e 24       		.uleb128 0x24
 3208 0b0f 6B000000 		.4byte	0x6b
 3209 0b13 24       		.uleb128 0x24
 3210 0b14 6B000000 		.4byte	0x6b
 3211 0b18 00       		.byte	0
 3212 0b19 26       		.uleb128 0x26
 3213 0b1a 81000000 		.4byte	.LASF113
 3214 0b1e 04       		.byte	0x4
 3215 0b1f B3       		.byte	0xb3
 3216 0b20 6B000000 		.4byte	0x6b
 3217 0b24 26       		.uleb128 0x26
 3218 0b25 DB000000 		.4byte	.LASF114
 3219 0b29 04       		.byte	0x4
 3220 0b2a A9       		.byte	0xa9
 3221 0b2b 6B000000 		.4byte	0x6b
 3222 0b2f 27       		.uleb128 0x27
 3223 0b30 4C050000 		.4byte	.LASF115
 3224 0b34 04       		.byte	0x4
 3225 0b35 4E01     		.2byte	0x14e
 3226 0b37 6B000000 		.4byte	0x6b
 3227 0b3b 00       		.byte	0
 3228              		.section	.debug_abbrev,"",%progbits
 3229              	.Ldebug_abbrev0:
 3230 0000 01       		.uleb128 0x1
 3231 0001 11       		.uleb128 0x11
 3232 0002 01       		.byte	0x1
 3233 0003 25       		.uleb128 0x25
 3234 0004 0E       		.uleb128 0xe
 3235 0005 13       		.uleb128 0x13
 3236 0006 0B       		.uleb128 0xb
 3237 0007 03       		.uleb128 0x3
 3238 0008 0E       		.uleb128 0xe
 3239 0009 1B       		.uleb128 0x1b
 3240 000a 0E       		.uleb128 0xe
 3241 000b 55       		.uleb128 0x55
 3242 000c 17       		.uleb128 0x17
 3243 000d 11       		.uleb128 0x11
 3244 000e 01       		.uleb128 0x1
 3245 000f 10       		.uleb128 0x10
 3246 0010 17       		.uleb128 0x17
 3247 0011 00       		.byte	0
 3248 0012 00       		.byte	0
 3249 0013 02       		.uleb128 0x2
 3250 0014 24       		.uleb128 0x24
 3251 0015 00       		.byte	0
 3252 0016 0B       		.uleb128 0xb
 3253 0017 0B       		.uleb128 0xb
 3254 0018 3E       		.uleb128 0x3e
 3255 0019 0B       		.uleb128 0xb
 3256 001a 03       		.uleb128 0x3
 3257 001b 0E       		.uleb128 0xe
 3258 001c 00       		.byte	0
 3259 001d 00       		.byte	0
 3260 001e 03       		.uleb128 0x3
 3261 001f 24       		.uleb128 0x24
 3262 0020 00       		.byte	0
 3263 0021 0B       		.uleb128 0xb
ARM GAS  C:\Users\student\AppData\Local\Temp\ccpvKyYb.s 			page 84


 3264 0022 0B       		.uleb128 0xb
 3265 0023 3E       		.uleb128 0x3e
 3266 0024 0B       		.uleb128 0xb
 3267 0025 03       		.uleb128 0x3
 3268 0026 08       		.uleb128 0x8
 3269 0027 00       		.byte	0
 3270 0028 00       		.byte	0
 3271 0029 04       		.uleb128 0x4
 3272 002a 16       		.uleb128 0x16
 3273 002b 00       		.byte	0
 3274 002c 03       		.uleb128 0x3
 3275 002d 0E       		.uleb128 0xe
 3276 002e 3A       		.uleb128 0x3a
 3277 002f 0B       		.uleb128 0xb
 3278 0030 3B       		.uleb128 0x3b
 3279 0031 05       		.uleb128 0x5
 3280 0032 49       		.uleb128 0x49
 3281 0033 13       		.uleb128 0x13
 3282 0034 00       		.byte	0
 3283 0035 00       		.byte	0
 3284 0036 05       		.uleb128 0x5
 3285 0037 35       		.uleb128 0x35
 3286 0038 00       		.byte	0
 3287 0039 49       		.uleb128 0x49
 3288 003a 13       		.uleb128 0x13
 3289 003b 00       		.byte	0
 3290 003c 00       		.byte	0
 3291 003d 06       		.uleb128 0x6
 3292 003e 13       		.uleb128 0x13
 3293 003f 01       		.byte	0x1
 3294 0040 0B       		.uleb128 0xb
 3295 0041 0B       		.uleb128 0xb
 3296 0042 3A       		.uleb128 0x3a
 3297 0043 0B       		.uleb128 0xb
 3298 0044 3B       		.uleb128 0x3b
 3299 0045 0B       		.uleb128 0xb
 3300 0046 01       		.uleb128 0x1
 3301 0047 13       		.uleb128 0x13
 3302 0048 00       		.byte	0
 3303 0049 00       		.byte	0
 3304 004a 07       		.uleb128 0x7
 3305 004b 0D       		.uleb128 0xd
 3306 004c 00       		.byte	0
 3307 004d 03       		.uleb128 0x3
 3308 004e 0E       		.uleb128 0xe
 3309 004f 3A       		.uleb128 0x3a
 3310 0050 0B       		.uleb128 0xb
 3311 0051 3B       		.uleb128 0x3b
 3312 0052 0B       		.uleb128 0xb
 3313 0053 49       		.uleb128 0x49
 3314 0054 13       		.uleb128 0x13
 3315 0055 38       		.uleb128 0x38
 3316 0056 0B       		.uleb128 0xb
 3317 0057 00       		.byte	0
 3318 0058 00       		.byte	0
 3319 0059 08       		.uleb128 0x8
 3320 005a 16       		.uleb128 0x16
ARM GAS  C:\Users\student\AppData\Local\Temp\ccpvKyYb.s 			page 85


 3321 005b 00       		.byte	0
 3322 005c 03       		.uleb128 0x3
 3323 005d 0E       		.uleb128 0xe
 3324 005e 3A       		.uleb128 0x3a
 3325 005f 0B       		.uleb128 0xb
 3326 0060 3B       		.uleb128 0x3b
 3327 0061 0B       		.uleb128 0xb
 3328 0062 49       		.uleb128 0x49
 3329 0063 13       		.uleb128 0x13
 3330 0064 00       		.byte	0
 3331 0065 00       		.byte	0
 3332 0066 09       		.uleb128 0x9
 3333 0067 0F       		.uleb128 0xf
 3334 0068 00       		.byte	0
 3335 0069 0B       		.uleb128 0xb
 3336 006a 0B       		.uleb128 0xb
 3337 006b 49       		.uleb128 0x49
 3338 006c 13       		.uleb128 0x13
 3339 006d 00       		.byte	0
 3340 006e 00       		.byte	0
 3341 006f 0A       		.uleb128 0xa
 3342 0070 0D       		.uleb128 0xd
 3343 0071 00       		.byte	0
 3344 0072 03       		.uleb128 0x3
 3345 0073 08       		.uleb128 0x8
 3346 0074 3A       		.uleb128 0x3a
 3347 0075 0B       		.uleb128 0xb
 3348 0076 3B       		.uleb128 0x3b
 3349 0077 0B       		.uleb128 0xb
 3350 0078 49       		.uleb128 0x49
 3351 0079 13       		.uleb128 0x13
 3352 007a 38       		.uleb128 0x38
 3353 007b 0B       		.uleb128 0xb
 3354 007c 00       		.byte	0
 3355 007d 00       		.byte	0
 3356 007e 0B       		.uleb128 0xb
 3357 007f 26       		.uleb128 0x26
 3358 0080 00       		.byte	0
 3359 0081 00       		.byte	0
 3360 0082 00       		.byte	0
 3361 0083 0C       		.uleb128 0xc
 3362 0084 01       		.uleb128 0x1
 3363 0085 01       		.byte	0x1
 3364 0086 49       		.uleb128 0x49
 3365 0087 13       		.uleb128 0x13
 3366 0088 01       		.uleb128 0x1
 3367 0089 13       		.uleb128 0x13
 3368 008a 00       		.byte	0
 3369 008b 00       		.byte	0
 3370 008c 0D       		.uleb128 0xd
 3371 008d 21       		.uleb128 0x21
 3372 008e 00       		.byte	0
 3373 008f 49       		.uleb128 0x49
 3374 0090 13       		.uleb128 0x13
 3375 0091 2F       		.uleb128 0x2f
 3376 0092 0B       		.uleb128 0xb
 3377 0093 00       		.byte	0
ARM GAS  C:\Users\student\AppData\Local\Temp\ccpvKyYb.s 			page 86


 3378 0094 00       		.byte	0
 3379 0095 0E       		.uleb128 0xe
 3380 0096 13       		.uleb128 0x13
 3381 0097 01       		.byte	0x1
 3382 0098 0B       		.uleb128 0xb
 3383 0099 0B       		.uleb128 0xb
 3384 009a 3A       		.uleb128 0x3a
 3385 009b 0B       		.uleb128 0xb
 3386 009c 3B       		.uleb128 0x3b
 3387 009d 05       		.uleb128 0x5
 3388 009e 01       		.uleb128 0x1
 3389 009f 13       		.uleb128 0x13
 3390 00a0 00       		.byte	0
 3391 00a1 00       		.byte	0
 3392 00a2 0F       		.uleb128 0xf
 3393 00a3 0D       		.uleb128 0xd
 3394 00a4 00       		.byte	0
 3395 00a5 03       		.uleb128 0x3
 3396 00a6 0E       		.uleb128 0xe
 3397 00a7 3A       		.uleb128 0x3a
 3398 00a8 0B       		.uleb128 0xb
 3399 00a9 3B       		.uleb128 0x3b
 3400 00aa 05       		.uleb128 0x5
 3401 00ab 49       		.uleb128 0x49
 3402 00ac 13       		.uleb128 0x13
 3403 00ad 38       		.uleb128 0x38
 3404 00ae 0B       		.uleb128 0xb
 3405 00af 00       		.byte	0
 3406 00b0 00       		.byte	0
 3407 00b1 10       		.uleb128 0x10
 3408 00b2 2E       		.uleb128 0x2e
 3409 00b3 01       		.byte	0x1
 3410 00b4 3F       		.uleb128 0x3f
 3411 00b5 19       		.uleb128 0x19
 3412 00b6 03       		.uleb128 0x3
 3413 00b7 0E       		.uleb128 0xe
 3414 00b8 3A       		.uleb128 0x3a
 3415 00b9 0B       		.uleb128 0xb
 3416 00ba 3B       		.uleb128 0x3b
 3417 00bb 05       		.uleb128 0x5
 3418 00bc 27       		.uleb128 0x27
 3419 00bd 19       		.uleb128 0x19
 3420 00be 11       		.uleb128 0x11
 3421 00bf 01       		.uleb128 0x1
 3422 00c0 12       		.uleb128 0x12
 3423 00c1 06       		.uleb128 0x6
 3424 00c2 40       		.uleb128 0x40
 3425 00c3 18       		.uleb128 0x18
 3426 00c4 9742     		.uleb128 0x2117
 3427 00c6 19       		.uleb128 0x19
 3428 00c7 01       		.uleb128 0x1
 3429 00c8 13       		.uleb128 0x13
 3430 00c9 00       		.byte	0
 3431 00ca 00       		.byte	0
 3432 00cb 11       		.uleb128 0x11
 3433 00cc 05       		.uleb128 0x5
 3434 00cd 00       		.byte	0
ARM GAS  C:\Users\student\AppData\Local\Temp\ccpvKyYb.s 			page 87


 3435 00ce 03       		.uleb128 0x3
 3436 00cf 0E       		.uleb128 0xe
 3437 00d0 3A       		.uleb128 0x3a
 3438 00d1 0B       		.uleb128 0xb
 3439 00d2 3B       		.uleb128 0x3b
 3440 00d3 05       		.uleb128 0x5
 3441 00d4 49       		.uleb128 0x49
 3442 00d5 13       		.uleb128 0x13
 3443 00d6 02       		.uleb128 0x2
 3444 00d7 17       		.uleb128 0x17
 3445 00d8 00       		.byte	0
 3446 00d9 00       		.byte	0
 3447 00da 12       		.uleb128 0x12
 3448 00db 34       		.uleb128 0x34
 3449 00dc 00       		.byte	0
 3450 00dd 03       		.uleb128 0x3
 3451 00de 08       		.uleb128 0x8
 3452 00df 3A       		.uleb128 0x3a
 3453 00e0 0B       		.uleb128 0xb
 3454 00e1 3B       		.uleb128 0x3b
 3455 00e2 05       		.uleb128 0x5
 3456 00e3 49       		.uleb128 0x49
 3457 00e4 13       		.uleb128 0x13
 3458 00e5 02       		.uleb128 0x2
 3459 00e6 18       		.uleb128 0x18
 3460 00e7 00       		.byte	0
 3461 00e8 00       		.byte	0
 3462 00e9 13       		.uleb128 0x13
 3463 00ea 34       		.uleb128 0x34
 3464 00eb 00       		.byte	0
 3465 00ec 03       		.uleb128 0x3
 3466 00ed 08       		.uleb128 0x8
 3467 00ee 3A       		.uleb128 0x3a
 3468 00ef 0B       		.uleb128 0xb
 3469 00f0 3B       		.uleb128 0x3b
 3470 00f1 05       		.uleb128 0x5
 3471 00f2 49       		.uleb128 0x49
 3472 00f3 13       		.uleb128 0x13
 3473 00f4 02       		.uleb128 0x2
 3474 00f5 17       		.uleb128 0x17
 3475 00f6 00       		.byte	0
 3476 00f7 00       		.byte	0
 3477 00f8 14       		.uleb128 0x14
 3478 00f9 34       		.uleb128 0x34
 3479 00fa 00       		.byte	0
 3480 00fb 03       		.uleb128 0x3
 3481 00fc 0E       		.uleb128 0xe
 3482 00fd 3A       		.uleb128 0x3a
 3483 00fe 0B       		.uleb128 0xb
 3484 00ff 3B       		.uleb128 0x3b
 3485 0100 05       		.uleb128 0x5
 3486 0101 49       		.uleb128 0x49
 3487 0102 13       		.uleb128 0x13
 3488 0103 02       		.uleb128 0x2
 3489 0104 18       		.uleb128 0x18
 3490 0105 00       		.byte	0
 3491 0106 00       		.byte	0
ARM GAS  C:\Users\student\AppData\Local\Temp\ccpvKyYb.s 			page 88


 3492 0107 15       		.uleb128 0x15
 3493 0108 898201   		.uleb128 0x4109
 3494 010b 01       		.byte	0x1
 3495 010c 11       		.uleb128 0x11
 3496 010d 01       		.uleb128 0x1
 3497 010e 31       		.uleb128 0x31
 3498 010f 13       		.uleb128 0x13
 3499 0110 00       		.byte	0
 3500 0111 00       		.byte	0
 3501 0112 16       		.uleb128 0x16
 3502 0113 8A8201   		.uleb128 0x410a
 3503 0116 00       		.byte	0
 3504 0117 02       		.uleb128 0x2
 3505 0118 18       		.uleb128 0x18
 3506 0119 9142     		.uleb128 0x2111
 3507 011b 18       		.uleb128 0x18
 3508 011c 00       		.byte	0
 3509 011d 00       		.byte	0
 3510 011e 17       		.uleb128 0x17
 3511 011f 26       		.uleb128 0x26
 3512 0120 00       		.byte	0
 3513 0121 49       		.uleb128 0x49
 3514 0122 13       		.uleb128 0x13
 3515 0123 00       		.byte	0
 3516 0124 00       		.byte	0
 3517 0125 18       		.uleb128 0x18
 3518 0126 2E       		.uleb128 0x2e
 3519 0127 01       		.byte	0x1
 3520 0128 3F       		.uleb128 0x3f
 3521 0129 19       		.uleb128 0x19
 3522 012a 03       		.uleb128 0x3
 3523 012b 0E       		.uleb128 0xe
 3524 012c 3A       		.uleb128 0x3a
 3525 012d 0B       		.uleb128 0xb
 3526 012e 3B       		.uleb128 0x3b
 3527 012f 05       		.uleb128 0x5
 3528 0130 27       		.uleb128 0x27
 3529 0131 19       		.uleb128 0x19
 3530 0132 49       		.uleb128 0x49
 3531 0133 13       		.uleb128 0x13
 3532 0134 11       		.uleb128 0x11
 3533 0135 01       		.uleb128 0x1
 3534 0136 12       		.uleb128 0x12
 3535 0137 06       		.uleb128 0x6
 3536 0138 40       		.uleb128 0x40
 3537 0139 18       		.uleb128 0x18
 3538 013a 9742     		.uleb128 0x2117
 3539 013c 19       		.uleb128 0x19
 3540 013d 01       		.uleb128 0x1
 3541 013e 13       		.uleb128 0x13
 3542 013f 00       		.byte	0
 3543 0140 00       		.byte	0
 3544 0141 19       		.uleb128 0x19
 3545 0142 34       		.uleb128 0x34
 3546 0143 00       		.byte	0
 3547 0144 03       		.uleb128 0x3
 3548 0145 0E       		.uleb128 0xe
ARM GAS  C:\Users\student\AppData\Local\Temp\ccpvKyYb.s 			page 89


 3549 0146 3A       		.uleb128 0x3a
 3550 0147 0B       		.uleb128 0xb
 3551 0148 3B       		.uleb128 0x3b
 3552 0149 05       		.uleb128 0x5
 3553 014a 49       		.uleb128 0x49
 3554 014b 13       		.uleb128 0x13
 3555 014c 02       		.uleb128 0x2
 3556 014d 17       		.uleb128 0x17
 3557 014e 00       		.byte	0
 3558 014f 00       		.byte	0
 3559 0150 1A       		.uleb128 0x1a
 3560 0151 898201   		.uleb128 0x4109
 3561 0154 00       		.byte	0
 3562 0155 11       		.uleb128 0x11
 3563 0156 01       		.uleb128 0x1
 3564 0157 31       		.uleb128 0x31
 3565 0158 13       		.uleb128 0x13
 3566 0159 00       		.byte	0
 3567 015a 00       		.byte	0
 3568 015b 1B       		.uleb128 0x1b
 3569 015c 2E       		.uleb128 0x2e
 3570 015d 00       		.byte	0
 3571 015e 3F       		.uleb128 0x3f
 3572 015f 19       		.uleb128 0x19
 3573 0160 03       		.uleb128 0x3
 3574 0161 0E       		.uleb128 0xe
 3575 0162 3A       		.uleb128 0x3a
 3576 0163 0B       		.uleb128 0xb
 3577 0164 3B       		.uleb128 0x3b
 3578 0165 05       		.uleb128 0x5
 3579 0166 27       		.uleb128 0x27
 3580 0167 19       		.uleb128 0x19
 3581 0168 49       		.uleb128 0x49
 3582 0169 13       		.uleb128 0x13
 3583 016a 11       		.uleb128 0x11
 3584 016b 01       		.uleb128 0x1
 3585 016c 12       		.uleb128 0x12
 3586 016d 06       		.uleb128 0x6
 3587 016e 40       		.uleb128 0x40
 3588 016f 18       		.uleb128 0x18
 3589 0170 9742     		.uleb128 0x2117
 3590 0172 19       		.uleb128 0x19
 3591 0173 00       		.byte	0
 3592 0174 00       		.byte	0
 3593 0175 1C       		.uleb128 0x1c
 3594 0176 0B       		.uleb128 0xb
 3595 0177 01       		.byte	0x1
 3596 0178 11       		.uleb128 0x11
 3597 0179 01       		.uleb128 0x1
 3598 017a 12       		.uleb128 0x12
 3599 017b 06       		.uleb128 0x6
 3600 017c 00       		.byte	0
 3601 017d 00       		.byte	0
 3602 017e 1D       		.uleb128 0x1d
 3603 017f 898201   		.uleb128 0x4109
 3604 0182 01       		.byte	0x1
 3605 0183 11       		.uleb128 0x11
ARM GAS  C:\Users\student\AppData\Local\Temp\ccpvKyYb.s 			page 90


 3606 0184 01       		.uleb128 0x1
 3607 0185 31       		.uleb128 0x31
 3608 0186 13       		.uleb128 0x13
 3609 0187 01       		.uleb128 0x1
 3610 0188 13       		.uleb128 0x13
 3611 0189 00       		.byte	0
 3612 018a 00       		.byte	0
 3613 018b 1E       		.uleb128 0x1e
 3614 018c 2E       		.uleb128 0x2e
 3615 018d 01       		.byte	0x1
 3616 018e 3F       		.uleb128 0x3f
 3617 018f 19       		.uleb128 0x19
 3618 0190 03       		.uleb128 0x3
 3619 0191 0E       		.uleb128 0xe
 3620 0192 3A       		.uleb128 0x3a
 3621 0193 0B       		.uleb128 0xb
 3622 0194 3B       		.uleb128 0x3b
 3623 0195 0B       		.uleb128 0xb
 3624 0196 27       		.uleb128 0x27
 3625 0197 19       		.uleb128 0x19
 3626 0198 49       		.uleb128 0x49
 3627 0199 13       		.uleb128 0x13
 3628 019a 11       		.uleb128 0x11
 3629 019b 01       		.uleb128 0x1
 3630 019c 12       		.uleb128 0x12
 3631 019d 06       		.uleb128 0x6
 3632 019e 40       		.uleb128 0x40
 3633 019f 18       		.uleb128 0x18
 3634 01a0 9742     		.uleb128 0x2117
 3635 01a2 19       		.uleb128 0x19
 3636 01a3 01       		.uleb128 0x1
 3637 01a4 13       		.uleb128 0x13
 3638 01a5 00       		.byte	0
 3639 01a6 00       		.byte	0
 3640 01a7 1F       		.uleb128 0x1f
 3641 01a8 34       		.uleb128 0x34
 3642 01a9 00       		.byte	0
 3643 01aa 03       		.uleb128 0x3
 3644 01ab 0E       		.uleb128 0xe
 3645 01ac 3A       		.uleb128 0x3a
 3646 01ad 0B       		.uleb128 0xb
 3647 01ae 3B       		.uleb128 0x3b
 3648 01af 0B       		.uleb128 0xb
 3649 01b0 49       		.uleb128 0x49
 3650 01b1 13       		.uleb128 0x13
 3651 01b2 02       		.uleb128 0x2
 3652 01b3 17       		.uleb128 0x17
 3653 01b4 00       		.byte	0
 3654 01b5 00       		.byte	0
 3655 01b6 20       		.uleb128 0x20
 3656 01b7 34       		.uleb128 0x34
 3657 01b8 00       		.byte	0
 3658 01b9 03       		.uleb128 0x3
 3659 01ba 0E       		.uleb128 0xe
 3660 01bb 3A       		.uleb128 0x3a
 3661 01bc 0B       		.uleb128 0xb
 3662 01bd 3B       		.uleb128 0x3b
ARM GAS  C:\Users\student\AppData\Local\Temp\ccpvKyYb.s 			page 91


 3663 01be 0B       		.uleb128 0xb
 3664 01bf 49       		.uleb128 0x49
 3665 01c0 13       		.uleb128 0x13
 3666 01c1 02       		.uleb128 0x2
 3667 01c2 18       		.uleb128 0x18
 3668 01c3 00       		.byte	0
 3669 01c4 00       		.byte	0
 3670 01c5 21       		.uleb128 0x21
 3671 01c6 34       		.uleb128 0x34
 3672 01c7 00       		.byte	0
 3673 01c8 03       		.uleb128 0x3
 3674 01c9 0E       		.uleb128 0xe
 3675 01ca 3A       		.uleb128 0x3a
 3676 01cb 0B       		.uleb128 0xb
 3677 01cc 3B       		.uleb128 0x3b
 3678 01cd 05       		.uleb128 0x5
 3679 01ce 49       		.uleb128 0x49
 3680 01cf 13       		.uleb128 0x13
 3681 01d0 3F       		.uleb128 0x3f
 3682 01d1 19       		.uleb128 0x19
 3683 01d2 3C       		.uleb128 0x3c
 3684 01d3 19       		.uleb128 0x19
 3685 01d4 00       		.byte	0
 3686 01d5 00       		.byte	0
 3687 01d6 22       		.uleb128 0x22
 3688 01d7 34       		.uleb128 0x34
 3689 01d8 00       		.byte	0
 3690 01d9 03       		.uleb128 0x3
 3691 01da 0E       		.uleb128 0xe
 3692 01db 3A       		.uleb128 0x3a
 3693 01dc 0B       		.uleb128 0xb
 3694 01dd 3B       		.uleb128 0x3b
 3695 01de 0B       		.uleb128 0xb
 3696 01df 49       		.uleb128 0x49
 3697 01e0 13       		.uleb128 0x13
 3698 01e1 3F       		.uleb128 0x3f
 3699 01e2 19       		.uleb128 0x19
 3700 01e3 3C       		.uleb128 0x3c
 3701 01e4 19       		.uleb128 0x19
 3702 01e5 00       		.byte	0
 3703 01e6 00       		.byte	0
 3704 01e7 23       		.uleb128 0x23
 3705 01e8 2E       		.uleb128 0x2e
 3706 01e9 01       		.byte	0x1
 3707 01ea 3F       		.uleb128 0x3f
 3708 01eb 19       		.uleb128 0x19
 3709 01ec 03       		.uleb128 0x3
 3710 01ed 0E       		.uleb128 0xe
 3711 01ee 3A       		.uleb128 0x3a
 3712 01ef 0B       		.uleb128 0xb
 3713 01f0 3B       		.uleb128 0x3b
 3714 01f1 0B       		.uleb128 0xb
 3715 01f2 27       		.uleb128 0x27
 3716 01f3 19       		.uleb128 0x19
 3717 01f4 3C       		.uleb128 0x3c
 3718 01f5 19       		.uleb128 0x19
 3719 01f6 01       		.uleb128 0x1
ARM GAS  C:\Users\student\AppData\Local\Temp\ccpvKyYb.s 			page 92


 3720 01f7 13       		.uleb128 0x13
 3721 01f8 00       		.byte	0
 3722 01f9 00       		.byte	0
 3723 01fa 24       		.uleb128 0x24
 3724 01fb 05       		.uleb128 0x5
 3725 01fc 00       		.byte	0
 3726 01fd 49       		.uleb128 0x49
 3727 01fe 13       		.uleb128 0x13
 3728 01ff 00       		.byte	0
 3729 0200 00       		.byte	0
 3730 0201 25       		.uleb128 0x25
 3731 0202 2E       		.uleb128 0x2e
 3732 0203 01       		.byte	0x1
 3733 0204 3F       		.uleb128 0x3f
 3734 0205 19       		.uleb128 0x19
 3735 0206 03       		.uleb128 0x3
 3736 0207 0E       		.uleb128 0xe
 3737 0208 3A       		.uleb128 0x3a
 3738 0209 0B       		.uleb128 0xb
 3739 020a 3B       		.uleb128 0x3b
 3740 020b 05       		.uleb128 0x5
 3741 020c 27       		.uleb128 0x27
 3742 020d 19       		.uleb128 0x19
 3743 020e 49       		.uleb128 0x49
 3744 020f 13       		.uleb128 0x13
 3745 0210 3C       		.uleb128 0x3c
 3746 0211 19       		.uleb128 0x19
 3747 0212 01       		.uleb128 0x1
 3748 0213 13       		.uleb128 0x13
 3749 0214 00       		.byte	0
 3750 0215 00       		.byte	0
 3751 0216 26       		.uleb128 0x26
 3752 0217 2E       		.uleb128 0x2e
 3753 0218 00       		.byte	0
 3754 0219 3F       		.uleb128 0x3f
 3755 021a 19       		.uleb128 0x19
 3756 021b 03       		.uleb128 0x3
 3757 021c 0E       		.uleb128 0xe
 3758 021d 3A       		.uleb128 0x3a
 3759 021e 0B       		.uleb128 0xb
 3760 021f 3B       		.uleb128 0x3b
 3761 0220 0B       		.uleb128 0xb
 3762 0221 27       		.uleb128 0x27
 3763 0222 19       		.uleb128 0x19
 3764 0223 49       		.uleb128 0x49
 3765 0224 13       		.uleb128 0x13
 3766 0225 3C       		.uleb128 0x3c
 3767 0226 19       		.uleb128 0x19
 3768 0227 00       		.byte	0
 3769 0228 00       		.byte	0
 3770 0229 27       		.uleb128 0x27
 3771 022a 2E       		.uleb128 0x2e
 3772 022b 00       		.byte	0
 3773 022c 3F       		.uleb128 0x3f
 3774 022d 19       		.uleb128 0x19
 3775 022e 03       		.uleb128 0x3
 3776 022f 0E       		.uleb128 0xe
ARM GAS  C:\Users\student\AppData\Local\Temp\ccpvKyYb.s 			page 93


 3777 0230 3A       		.uleb128 0x3a
 3778 0231 0B       		.uleb128 0xb
 3779 0232 3B       		.uleb128 0x3b
 3780 0233 05       		.uleb128 0x5
 3781 0234 27       		.uleb128 0x27
 3782 0235 19       		.uleb128 0x19
 3783 0236 49       		.uleb128 0x49
 3784 0237 13       		.uleb128 0x13
 3785 0238 3C       		.uleb128 0x3c
 3786 0239 19       		.uleb128 0x19
 3787 023a 00       		.byte	0
 3788 023b 00       		.byte	0
 3789 023c 00       		.byte	0
 3790              		.section	.debug_loc,"",%progbits
 3791              	.Ldebug_loc0:
 3792              	.LLST0:
 3793 0000 00000000 		.4byte	.LVL0
 3794 0004 0C000000 		.4byte	.LVL1
 3795 0008 0100     		.2byte	0x1
 3796 000a 50       		.byte	0x50
 3797 000b 0C000000 		.4byte	.LVL1
 3798 000f 66000000 		.4byte	.LVL10
 3799 0013 0100     		.2byte	0x1
 3800 0015 55       		.byte	0x55
 3801 0016 66000000 		.4byte	.LVL10
 3802 001a 6C000000 		.4byte	.LFE1
 3803 001e 0400     		.2byte	0x4
 3804 0020 F3       		.byte	0xf3
 3805 0021 01       		.uleb128 0x1
 3806 0022 50       		.byte	0x50
 3807 0023 9F       		.byte	0x9f
 3808 0024 00000000 		.4byte	0
 3809 0028 00000000 		.4byte	0
 3810              	.LLST1:
 3811 002c 22000000 		.4byte	.LVL3
 3812 0030 28000000 		.4byte	.LVL4
 3813 0034 0200     		.2byte	0x2
 3814 0036 32       		.byte	0x32
 3815 0037 9F       		.byte	0x9f
 3816 0038 28000000 		.4byte	.LVL4
 3817 003c 5C000000 		.4byte	.LVL7
 3818 0040 0100     		.2byte	0x1
 3819 0042 53       		.byte	0x53
 3820 0043 5E000000 		.4byte	.LVL8
 3821 0047 62000000 		.4byte	.LVL9
 3822 004b 0100     		.2byte	0x1
 3823 004d 53       		.byte	0x53
 3824 004e 00000000 		.4byte	0
 3825 0052 00000000 		.4byte	0
 3826              	.LLST2:
 3827 0056 12000000 		.4byte	.LVL2
 3828 005a 28000000 		.4byte	.LVL4
 3829 005e 0200     		.2byte	0x2
 3830 0060 30       		.byte	0x30
 3831 0061 9F       		.byte	0x9f
 3832 0062 28000000 		.4byte	.LVL4
 3833 0066 58000000 		.4byte	.LVL5
ARM GAS  C:\Users\student\AppData\Local\Temp\ccpvKyYb.s 			page 94


 3834 006a 0100     		.2byte	0x1
 3835 006c 54       		.byte	0x54
 3836 006d 5A000000 		.4byte	.LVL6
 3837 0071 62000000 		.4byte	.LVL9
 3838 0075 0100     		.2byte	0x1
 3839 0077 54       		.byte	0x54
 3840 0078 00000000 		.4byte	0
 3841 007c 00000000 		.4byte	0
 3842              	.LLST3:
 3843 0080 02000000 		.4byte	.LVL11
 3844 0084 06000000 		.4byte	.LVL12
 3845 0088 0200     		.2byte	0x2
 3846 008a 31       		.byte	0x31
 3847 008b 9F       		.byte	0x9f
 3848 008c 06000000 		.4byte	.LVL12
 3849 0090 80000000 		.4byte	.LVL13
 3850 0094 0100     		.2byte	0x1
 3851 0096 52       		.byte	0x52
 3852 0097 82000000 		.4byte	.LVL14
 3853 009b 88000000 		.4byte	.LVL15
 3854 009f 0100     		.2byte	0x1
 3855 00a1 52       		.byte	0x52
 3856 00a2 00000000 		.4byte	0
 3857 00a6 00000000 		.4byte	0
 3858              	.LLST4:
 3859 00aa 00000000 		.4byte	.LVL16
 3860 00ae 04000000 		.4byte	.LVL17
 3861 00b2 0200     		.2byte	0x2
 3862 00b4 31       		.byte	0x31
 3863 00b5 9F       		.byte	0x9f
 3864 00b6 04000000 		.4byte	.LVL17
 3865 00ba 34000000 		.4byte	.LVL18
 3866 00be 0100     		.2byte	0x1
 3867 00c0 53       		.byte	0x53
 3868 00c1 36000000 		.4byte	.LVL19
 3869 00c5 40000000 		.4byte	.LFE3
 3870 00c9 0100     		.2byte	0x1
 3871 00cb 53       		.byte	0x53
 3872 00cc 00000000 		.4byte	0
 3873 00d0 00000000 		.4byte	0
 3874              	.LLST5:
 3875 00d4 00000000 		.4byte	.LVL20
 3876 00d8 18000000 		.4byte	.LVL23
 3877 00dc 0100     		.2byte	0x1
 3878 00de 50       		.byte	0x50
 3879 00df 18000000 		.4byte	.LVL23
 3880 00e3 1A000000 		.4byte	.LVL24
 3881 00e7 0400     		.2byte	0x4
 3882 00e9 F3       		.byte	0xf3
 3883 00ea 01       		.uleb128 0x1
 3884 00eb 50       		.byte	0x50
 3885 00ec 9F       		.byte	0x9f
 3886 00ed 1A000000 		.4byte	.LVL24
 3887 00f1 1C000000 		.4byte	.LVL25
 3888 00f5 0100     		.2byte	0x1
 3889 00f7 50       		.byte	0x50
 3890 00f8 1C000000 		.4byte	.LVL25
ARM GAS  C:\Users\student\AppData\Local\Temp\ccpvKyYb.s 			page 95


 3891 00fc 28000000 		.4byte	.LFE6
 3892 0100 0400     		.2byte	0x4
 3893 0102 F3       		.byte	0xf3
 3894 0103 01       		.uleb128 0x1
 3895 0104 50       		.byte	0x50
 3896 0105 9F       		.byte	0x9f
 3897 0106 00000000 		.4byte	0
 3898 010a 00000000 		.4byte	0
 3899              	.LLST6:
 3900 010e 0C000000 		.4byte	.LVL21
 3901 0112 16000000 		.4byte	.LVL22
 3902 0116 0300     		.2byte	0x3
 3903 0118 73       		.byte	0x73
 3904 0119 10       		.sleb128 16
 3905 011a 9F       		.byte	0x9f
 3906 011b 18000000 		.4byte	.LVL23
 3907 011f 1A000000 		.4byte	.LVL24
 3908 0123 0100     		.2byte	0x1
 3909 0125 50       		.byte	0x50
 3910 0126 1A000000 		.4byte	.LVL24
 3911 012a 1C000000 		.4byte	.LVL25
 3912 012e 0300     		.2byte	0x3
 3913 0130 73       		.byte	0x73
 3914 0131 10       		.sleb128 16
 3915 0132 9F       		.byte	0x9f
 3916 0133 1C000000 		.4byte	.LVL25
 3917 0137 28000000 		.4byte	.LFE6
 3918 013b 0100     		.2byte	0x1
 3919 013d 50       		.byte	0x50
 3920 013e 00000000 		.4byte	0
 3921 0142 00000000 		.4byte	0
 3922              	.LLST7:
 3923 0146 1A000000 		.4byte	.LVL27
 3924 014a 00010000 		.4byte	.LVL41
 3925 014e 0100     		.2byte	0x1
 3926 0150 54       		.byte	0x54
 3927 0151 00000000 		.4byte	0
 3928 0155 00000000 		.4byte	0
 3929              	.LLST8:
 3930 0159 3E000000 		.4byte	.LVL32
 3931 015d C0000000 		.4byte	.LVL37
 3932 0161 0100     		.2byte	0x1
 3933 0163 51       		.byte	0x51
 3934 0164 00000000 		.4byte	0
 3935 0168 00000000 		.4byte	0
 3936              	.LLST9:
 3937 016c 44000000 		.4byte	.LVL33
 3938 0170 88000000 		.4byte	.LVL34
 3939 0174 0100     		.2byte	0x1
 3940 0176 56       		.byte	0x56
 3941 0177 92000000 		.4byte	.LVL35
 3942 017b A4000000 		.4byte	.LVL36
 3943 017f 0100     		.2byte	0x1
 3944 0181 56       		.byte	0x56
 3945 0182 00000000 		.4byte	0
 3946 0186 00000000 		.4byte	0
 3947              	.LLST10:
ARM GAS  C:\Users\student\AppData\Local\Temp\ccpvKyYb.s 			page 96


 3948 018a 22000000 		.4byte	.LVL30
 3949 018e 26000000 		.4byte	.LVL31
 3950 0192 0200     		.2byte	0x2
 3951 0194 30       		.byte	0x30
 3952 0195 9F       		.byte	0x9f
 3953 0196 26000000 		.4byte	.LVL31
 3954 019a FA000000 		.4byte	.LVL39
 3955 019e 0100     		.2byte	0x1
 3956 01a0 53       		.byte	0x53
 3957 01a1 FC000000 		.4byte	.LVL40
 3958 01a5 00010000 		.4byte	.LVL41
 3959 01a9 0100     		.2byte	0x1
 3960 01ab 53       		.byte	0x53
 3961 01ac 00000000 		.4byte	0
 3962 01b0 00000000 		.4byte	0
 3963              	.LLST11:
 3964 01b4 22000000 		.4byte	.LVL30
 3965 01b8 00010000 		.4byte	.LVL41
 3966 01bc 0100     		.2byte	0x1
 3967 01be 50       		.byte	0x50
 3968 01bf 00000000 		.4byte	0
 3969 01c3 00000000 		.4byte	0
 3970              	.LLST12:
 3971 01c7 18000000 		.4byte	.LVL26
 3972 01cb 20000000 		.4byte	.LVL29
 3973 01cf 0300     		.2byte	0x3
 3974 01d1 70       		.byte	0x70
 3975 01d2 08       		.sleb128 8
 3976 01d3 9F       		.byte	0x9f
 3977 01d4 00000000 		.4byte	0
 3978 01d8 00000000 		.4byte	0
 3979              	.LLST13:
 3980 01dc 1C000000 		.4byte	.LVL28
 3981 01e0 00010000 		.4byte	.LVL41
 3982 01e4 0100     		.2byte	0x1
 3983 01e6 52       		.byte	0x52
 3984 01e7 00000000 		.4byte	0
 3985 01eb 00000000 		.4byte	0
 3986              	.LLST14:
 3987 01ef 0E000000 		.4byte	.LVL42
 3988 01f3 18000000 		.4byte	.LVL44
 3989 01f7 0100     		.2byte	0x1
 3990 01f9 50       		.byte	0x50
 3991 01fa 18000000 		.4byte	.LVL44
 3992 01fe 1A000000 		.4byte	.LVL45
 3993 0202 0800     		.2byte	0x8
 3994 0204 72       		.byte	0x72
 3995 0205 02       		.sleb128 2
 3996 0206 33       		.byte	0x33
 3997 0207 24       		.byte	0x24
 3998 0208 70       		.byte	0x70
 3999 0209 00       		.sleb128 0
 4000 020a 22       		.byte	0x22
 4001 020b 9F       		.byte	0x9f
 4002 020c 1C000000 		.4byte	.LVL46
 4003 0210 1E000000 		.4byte	.LVL47
 4004 0214 0100     		.2byte	0x1
ARM GAS  C:\Users\student\AppData\Local\Temp\ccpvKyYb.s 			page 97


 4005 0216 50       		.byte	0x50
 4006 0217 00000000 		.4byte	0
 4007 021b 00000000 		.4byte	0
 4008              	.LLST15:
 4009 021f 1A000000 		.4byte	.LVL45
 4010 0223 1C000000 		.4byte	.LVL46
 4011 0227 0100     		.2byte	0x1
 4012 0229 50       		.byte	0x50
 4013 022a 1E000000 		.4byte	.LVL47
 4014 022e 24000000 		.4byte	.LFE8
 4015 0232 0100     		.2byte	0x1
 4016 0234 50       		.byte	0x50
 4017 0235 00000000 		.4byte	0
 4018 0239 00000000 		.4byte	0
 4019              	.LLST16:
 4020 023d 14000000 		.4byte	.LVL43
 4021 0241 1C000000 		.4byte	.LVL46
 4022 0245 0100     		.2byte	0x1
 4023 0247 52       		.byte	0x52
 4024 0248 00000000 		.4byte	0
 4025 024c 00000000 		.4byte	0
 4026              	.LLST17:
 4027 0250 00000000 		.4byte	.LVL48
 4028 0254 54000000 		.4byte	.LVL60
 4029 0258 0100     		.2byte	0x1
 4030 025a 50       		.byte	0x50
 4031 025b 54000000 		.4byte	.LVL60
 4032 025f E4010000 		.4byte	.LFE4
 4033 0263 0400     		.2byte	0x4
 4034 0265 F3       		.byte	0xf3
 4035 0266 01       		.uleb128 0x1
 4036 0267 50       		.byte	0x50
 4037 0268 9F       		.byte	0x9f
 4038 0269 00000000 		.4byte	0
 4039 026d 00000000 		.4byte	0
 4040              	.LLST18:
 4041 0271 04000000 		.4byte	.LVL49
 4042 0275 08000000 		.4byte	.LVL50
 4043 0279 0200     		.2byte	0x2
 4044 027b 30       		.byte	0x30
 4045 027c 9F       		.byte	0x9f
 4046 027d 08000000 		.4byte	.LVL50
 4047 0281 24000000 		.4byte	.LVL51
 4048 0285 0100     		.2byte	0x1
 4049 0287 52       		.byte	0x52
 4050 0288 26000000 		.4byte	.LVL52
 4051 028c 2E000000 		.4byte	.LVL53
 4052 0290 0100     		.2byte	0x1
 4053 0292 52       		.byte	0x52
 4054 0293 3E000000 		.4byte	.LVL56
 4055 0297 40000000 		.4byte	.LVL57
 4056 029b 0100     		.2byte	0x1
 4057 029d 52       		.byte	0x52
 4058 029e 82000000 		.4byte	.LVL66
 4059 02a2 96010000 		.4byte	.LVL90
 4060 02a6 0100     		.2byte	0x1
 4061 02a8 57       		.byte	0x57
ARM GAS  C:\Users\student\AppData\Local\Temp\ccpvKyYb.s 			page 98


 4062 02a9 96010000 		.4byte	.LVL90
 4063 02ad 9C010000 		.4byte	.LVL91
 4064 02b1 0200     		.2byte	0x2
 4065 02b3 31       		.byte	0x31
 4066 02b4 9F       		.byte	0x9f
 4067 02b5 9C010000 		.4byte	.LVL91
 4068 02b9 B8010000 		.4byte	.LVL96
 4069 02bd 0100     		.2byte	0x1
 4070 02bf 51       		.byte	0x51
 4071 02c0 BA010000 		.4byte	.LVL97
 4072 02c4 C1010000 		.4byte	.LVL98-1
 4073 02c8 0100     		.2byte	0x1
 4074 02ca 51       		.byte	0x51
 4075 02cb 00000000 		.4byte	0
 4076 02cf 00000000 		.4byte	0
 4077              	.LLST19:
 4078 02d3 8E000000 		.4byte	.LVL68
 4079 02d7 92000000 		.4byte	.LVL69
 4080 02db 0200     		.2byte	0x2
 4081 02dd 30       		.byte	0x30
 4082 02de 9F       		.byte	0x9f
 4083 02df 92000000 		.4byte	.LVL69
 4084 02e3 5A010000 		.4byte	.LVL79
 4085 02e7 0100     		.2byte	0x1
 4086 02e9 54       		.byte	0x54
 4087 02ea 5C010000 		.4byte	.LVL80
 4088 02ee 64010000 		.4byte	.LVL82
 4089 02f2 0100     		.2byte	0x1
 4090 02f4 54       		.byte	0x54
 4091 02f5 00000000 		.4byte	0
 4092 02f9 00000000 		.4byte	0
 4093              	.LLST20:
 4094 02fd 2E000000 		.4byte	.LVL53
 4095 0301 3A000000 		.4byte	.LVL54
 4096 0305 0100     		.2byte	0x1
 4097 0307 53       		.byte	0x53
 4098 0308 3C000000 		.4byte	.LVL55
 4099 030c 3E000000 		.4byte	.LVL56
 4100 0310 0100     		.2byte	0x1
 4101 0312 53       		.byte	0x53
 4102 0313 40000000 		.4byte	.LVL57
 4103 0317 44000000 		.4byte	.LVL58
 4104 031b 0100     		.2byte	0x1
 4105 031d 53       		.byte	0x53
 4106 031e 82000000 		.4byte	.LVL66
 4107 0322 8A000000 		.4byte	.LVL67
 4108 0326 0200     		.2byte	0x2
 4109 0328 31       		.byte	0x31
 4110 0329 9F       		.byte	0x9f
 4111 032a 8A000000 		.4byte	.LVL67
 4112 032e 62010000 		.4byte	.LVL81
 4113 0332 0100     		.2byte	0x1
 4114 0334 56       		.byte	0x56
 4115 0335 64010000 		.4byte	.LVL82
 4116 0339 6C010000 		.4byte	.LVL83
 4117 033d 0100     		.2byte	0x1
 4118 033f 56       		.byte	0x56
ARM GAS  C:\Users\student\AppData\Local\Temp\ccpvKyYb.s 			page 99


 4119 0340 6C010000 		.4byte	.LVL83
 4120 0344 70010000 		.4byte	.LVL84
 4121 0348 0200     		.2byte	0x2
 4122 034a 30       		.byte	0x30
 4123 034b 9F       		.byte	0x9f
 4124 034c 70010000 		.4byte	.LVL84
 4125 0350 88010000 		.4byte	.LVL87
 4126 0354 0100     		.2byte	0x1
 4127 0356 52       		.byte	0x52
 4128 0357 8A010000 		.4byte	.LVL88
 4129 035b 91010000 		.4byte	.LVL89-1
 4130 035f 0100     		.2byte	0x1
 4131 0361 52       		.byte	0x52
 4132 0362 00000000 		.4byte	0
 4133 0366 00000000 		.4byte	0
 4134              	.LLST21:
 4135 036a EE000000 		.4byte	.LVL70
 4136 036e 0A010000 		.4byte	.LVL71
 4137 0372 0100     		.2byte	0x1
 4138 0374 53       		.byte	0x53
 4139 0375 0A010000 		.4byte	.LVL71
 4140 0379 14010000 		.4byte	.LVL72
 4141 037d 0700     		.2byte	0x7
 4142 037f 75       		.byte	0x75
 4143 0380 03       		.sleb128 3
 4144 0381 94       		.byte	0x94
 4145 0382 01       		.byte	0x1
 4146 0383 33       		.byte	0x33
 4147 0384 1A       		.byte	0x1a
 4148 0385 9F       		.byte	0x9f
 4149 0386 1A010000 		.4byte	.LVL73
 4150 038a 32010000 		.4byte	.LVL74
 4151 038e 0100     		.2byte	0x1
 4152 0390 53       		.byte	0x53
 4153 0391 32010000 		.4byte	.LVL74
 4154 0395 3A010000 		.4byte	.LVL75
 4155 0399 0700     		.2byte	0x7
 4156 039b 75       		.byte	0x75
 4157 039c 03       		.sleb128 3
 4158 039d 94       		.byte	0x94
 4159 039e 01       		.byte	0x1
 4160 039f 33       		.byte	0x33
 4161 03a0 1A       		.byte	0x1a
 4162 03a1 9F       		.byte	0x9f
 4163 03a2 00000000 		.4byte	0
 4164 03a6 00000000 		.4byte	0
 4165              	.LLST22:
 4166 03aa 60000000 		.4byte	.LVL63
 4167 03ae 62000000 		.4byte	.LVL64
 4168 03b2 0100     		.2byte	0x1
 4169 03b4 53       		.byte	0x53
 4170 03b5 62000000 		.4byte	.LVL64
 4171 03b9 8A000000 		.4byte	.LVL67
 4172 03bd 0200     		.2byte	0x2
 4173 03bf 70       		.byte	0x70
 4174 03c0 04       		.sleb128 4
 4175 03c1 00000000 		.4byte	0
ARM GAS  C:\Users\student\AppData\Local\Temp\ccpvKyYb.s 			page 100


 4176 03c5 00000000 		.4byte	0
 4177              	.LLST23:
 4178 03c9 04000000 		.4byte	.LVL49
 4179 03cd 9C010000 		.4byte	.LVL91
 4180 03d1 0200     		.2byte	0x2
 4181 03d3 30       		.byte	0x30
 4182 03d4 9F       		.byte	0x9f
 4183 03d5 9C010000 		.4byte	.LVL91
 4184 03d9 AC010000 		.4byte	.LVL92
 4185 03dd 0100     		.2byte	0x1
 4186 03df 53       		.byte	0x53
 4187 03e0 AC010000 		.4byte	.LVL92
 4188 03e4 AE010000 		.4byte	.LVL93
 4189 03e8 0200     		.2byte	0x2
 4190 03ea 70       		.byte	0x70
 4191 03eb 06       		.sleb128 6
 4192 03ec AE010000 		.4byte	.LVL93
 4193 03f0 B4010000 		.4byte	.LVL94
 4194 03f4 0100     		.2byte	0x1
 4195 03f6 53       		.byte	0x53
 4196 03f7 B6010000 		.4byte	.LVL95
 4197 03fb C1010000 		.4byte	.LVL98-1
 4198 03ff 0100     		.2byte	0x1
 4199 0401 53       		.byte	0x53
 4200 0402 00000000 		.4byte	0
 4201 0406 00000000 		.4byte	0
 4202              	.LLST24:
 4203 040a 5E000000 		.4byte	.LVL62
 4204 040e 7E000000 		.4byte	.LVL65
 4205 0412 0100     		.2byte	0x1
 4206 0414 50       		.byte	0x50
 4207 0415 7E000000 		.4byte	.LVL65
 4208 0419 8A000000 		.4byte	.LVL67
 4209 041d 0300     		.2byte	0x3
 4210 041f 70       		.byte	0x70
 4211 0420 08       		.sleb128 8
 4212 0421 9F       		.byte	0x9f
 4213 0422 8A000000 		.4byte	.LVL67
 4214 0426 C2010000 		.4byte	.LVL98
 4215 042a 0300     		.2byte	0x3
 4216 042c 78       		.byte	0x78
 4217 042d 08       		.sleb128 8
 4218 042e 9F       		.byte	0x9f
 4219 042f 00000000 		.4byte	0
 4220 0433 00000000 		.4byte	0
 4221              	.LLST25:
 4222 0437 8E000000 		.4byte	.LVL68
 4223 043b 64010000 		.4byte	.LVL82
 4224 043f 0100     		.2byte	0x1
 4225 0441 55       		.byte	0x55
 4226 0442 6C010000 		.4byte	.LVL83
 4227 0446 7A010000 		.4byte	.LVL85
 4228 044a 0100     		.2byte	0x1
 4229 044c 50       		.byte	0x50
 4230 044d 7A010000 		.4byte	.LVL85
 4231 0451 86010000 		.4byte	.LVL86
 4232 0455 0300     		.2byte	0x3
ARM GAS  C:\Users\student\AppData\Local\Temp\ccpvKyYb.s 			page 101


 4233 0457 70       		.byte	0x70
 4234 0458 78       		.sleb128 -8
 4235 0459 9F       		.byte	0x9f
 4236 045a 86010000 		.4byte	.LVL86
 4237 045e 91010000 		.4byte	.LVL89-1
 4238 0462 0100     		.2byte	0x1
 4239 0464 50       		.byte	0x50
 4240 0465 00000000 		.4byte	0
 4241 0469 00000000 		.4byte	0
 4242              	.LLST26:
 4243 046d 50000000 		.4byte	.LVL59
 4244 0471 8A000000 		.4byte	.LVL67
 4245 0475 0200     		.2byte	0x2
 4246 0477 30       		.byte	0x30
 4247 0478 9F       		.byte	0x9f
 4248 0479 8A000000 		.4byte	.LVL67
 4249 047d C2010000 		.4byte	.LVL98
 4250 0481 0100     		.2byte	0x1
 4251 0483 59       		.byte	0x59
 4252 0484 00000000 		.4byte	0
 4253 0488 00000000 		.4byte	0
 4254              	.LLST27:
 4255 048c 00000000 		.4byte	.LVL99
 4256 0490 04000000 		.4byte	.LVL100
 4257 0494 0100     		.2byte	0x1
 4258 0496 50       		.byte	0x50
 4259 0497 04000000 		.4byte	.LVL100
 4260 049b 30000000 		.4byte	.LVL101
 4261 049f 0100     		.2byte	0x1
 4262 04a1 50       		.byte	0x50
 4263 04a2 38000000 		.4byte	.LVL102
 4264 04a6 3A000000 		.4byte	.LVL103
 4265 04aa 0100     		.2byte	0x1
 4266 04ac 50       		.byte	0x50
 4267 04ad 00000000 		.4byte	0
 4268 04b1 00000000 		.4byte	0
 4269              	.LLST28:
 4270 04b5 02000000 		.4byte	.LVL104
 4271 04b9 52000000 		.4byte	.LVL109
 4272 04bd 0200     		.2byte	0x2
 4273 04bf 30       		.byte	0x30
 4274 04c0 9F       		.byte	0x9f
 4275 04c1 52000000 		.4byte	.LVL109
 4276 04c5 54000000 		.4byte	.LVL110
 4277 04c9 0100     		.2byte	0x1
 4278 04cb 50       		.byte	0x50
 4279 04cc 54000000 		.4byte	.LVL110
 4280 04d0 56000000 		.4byte	.LVL111
 4281 04d4 0200     		.2byte	0x2
 4282 04d6 30       		.byte	0x30
 4283 04d7 9F       		.byte	0x9f
 4284 04d8 56000000 		.4byte	.LVL111
 4285 04dc 64000000 		.4byte	.LFE10
 4286 04e0 0100     		.2byte	0x1
 4287 04e2 50       		.byte	0x50
 4288 04e3 00000000 		.4byte	0
 4289 04e7 00000000 		.4byte	0
ARM GAS  C:\Users\student\AppData\Local\Temp\ccpvKyYb.s 			page 102


 4290              	.LLST29:
 4291 04eb 0A000000 		.4byte	.LVL105
 4292 04ef 3A000000 		.4byte	.LVL106
 4293 04f3 0100     		.2byte	0x1
 4294 04f5 52       		.byte	0x52
 4295 04f6 44000000 		.4byte	.LVL107
 4296 04fa 46000000 		.4byte	.LVL108
 4297 04fe 0100     		.2byte	0x1
 4298 0500 52       		.byte	0x52
 4299 0501 54000000 		.4byte	.LVL110
 4300 0505 64000000 		.4byte	.LFE10
 4301 0509 0100     		.2byte	0x1
 4302 050b 52       		.byte	0x52
 4303 050c 00000000 		.4byte	0
 4304 0510 00000000 		.4byte	0
 4305              	.LLST30:
 4306 0514 00000000 		.4byte	.LVL112
 4307 0518 96000000 		.4byte	.LVL121
 4308 051c 0200     		.2byte	0x2
 4309 051e 30       		.byte	0x30
 4310 051f 9F       		.byte	0x9f
 4311 0520 96000000 		.4byte	.LVL121
 4312 0524 98000000 		.4byte	.LVL122
 4313 0528 0100     		.2byte	0x1
 4314 052a 50       		.byte	0x50
 4315 052b 98000000 		.4byte	.LVL122
 4316 052f A8000000 		.4byte	.LFE11
 4317 0533 0200     		.2byte	0x2
 4318 0535 30       		.byte	0x30
 4319 0536 9F       		.byte	0x9f
 4320 0537 00000000 		.4byte	0
 4321 053b 00000000 		.4byte	0
 4322              	.LLST31:
 4323 053f 08000000 		.4byte	.LVL113
 4324 0543 54000000 		.4byte	.LVL114
 4325 0547 0100     		.2byte	0x1
 4326 0549 53       		.byte	0x53
 4327 054a 5E000000 		.4byte	.LVL115
 4328 054e 60000000 		.4byte	.LVL116
 4329 0552 0100     		.2byte	0x1
 4330 0554 53       		.byte	0x53
 4331 0555 6A000000 		.4byte	.LVL117
 4332 0559 7E000000 		.4byte	.LVL118
 4333 055d 0100     		.2byte	0x1
 4334 055f 53       		.byte	0x53
 4335 0560 88000000 		.4byte	.LVL119
 4336 0564 8A000000 		.4byte	.LVL120
 4337 0568 0100     		.2byte	0x1
 4338 056a 53       		.byte	0x53
 4339 056b 98000000 		.4byte	.LVL122
 4340 056f A8000000 		.4byte	.LFE11
 4341 0573 0100     		.2byte	0x1
 4342 0575 53       		.byte	0x53
 4343 0576 00000000 		.4byte	0
 4344 057a 00000000 		.4byte	0
 4345              	.LLST32:
 4346 057e 02000000 		.4byte	.LVL123
ARM GAS  C:\Users\student\AppData\Local\Temp\ccpvKyYb.s 			page 103


 4347 0582 32000000 		.4byte	.LVL128
 4348 0586 0200     		.2byte	0x2
 4349 0588 30       		.byte	0x30
 4350 0589 9F       		.byte	0x9f
 4351 058a 32000000 		.4byte	.LVL128
 4352 058e 36000000 		.4byte	.LVL130
 4353 0592 0200     		.2byte	0x2
 4354 0594 31       		.byte	0x31
 4355 0595 9F       		.byte	0x9f
 4356 0596 36000000 		.4byte	.LVL130
 4357 059a 38000000 		.4byte	.LVL131
 4358 059e 0200     		.2byte	0x2
 4359 05a0 30       		.byte	0x30
 4360 05a1 9F       		.byte	0x9f
 4361 05a2 38000000 		.4byte	.LVL131
 4362 05a6 4C000000 		.4byte	.LFE12
 4363 05aa 0100     		.2byte	0x1
 4364 05ac 50       		.byte	0x50
 4365 05ad 00000000 		.4byte	0
 4366 05b1 00000000 		.4byte	0
 4367              	.LLST33:
 4368 05b5 08000000 		.4byte	.LVL124
 4369 05b9 3A000000 		.4byte	.LVL132
 4370 05bd 0100     		.2byte	0x1
 4371 05bf 54       		.byte	0x54
 4372 05c0 00000000 		.4byte	0
 4373 05c4 00000000 		.4byte	0
 4374              	.LLST34:
 4375 05c8 18000000 		.4byte	.LVL126
 4376 05cc 24000000 		.4byte	.LVL127
 4377 05d0 0100     		.2byte	0x1
 4378 05d2 53       		.byte	0x53
 4379 05d3 24000000 		.4byte	.LVL127
 4380 05d7 34000000 		.4byte	.LVL129
 4381 05db 0500     		.2byte	0x5
 4382 05dd 70       		.byte	0x70
 4383 05de 04       		.sleb128 4
 4384 05df 06       		.byte	0x6
 4385 05e0 23       		.byte	0x23
 4386 05e1 04       		.uleb128 0x4
 4387 05e2 36000000 		.4byte	.LVL130
 4388 05e6 4C000000 		.4byte	.LFE12
 4389 05ea 0100     		.2byte	0x1
 4390 05ec 53       		.byte	0x53
 4391 05ed 00000000 		.4byte	0
 4392 05f1 00000000 		.4byte	0
 4393              	.LLST35:
 4394 05f5 14000000 		.4byte	.LVL125
 4395 05f9 34000000 		.4byte	.LVL129
 4396 05fd 0100     		.2byte	0x1
 4397 05ff 50       		.byte	0x50
 4398 0600 36000000 		.4byte	.LVL130
 4399 0604 38000000 		.4byte	.LVL131
 4400 0608 0100     		.2byte	0x1
 4401 060a 50       		.byte	0x50
 4402 060b 00000000 		.4byte	0
 4403 060f 00000000 		.4byte	0
ARM GAS  C:\Users\student\AppData\Local\Temp\ccpvKyYb.s 			page 104


 4404              	.LLST36:
 4405 0613 02000000 		.4byte	.LVL133
 4406 0617 58000000 		.4byte	.LVL137
 4407 061b 0200     		.2byte	0x2
 4408 061d 30       		.byte	0x30
 4409 061e 9F       		.byte	0x9f
 4410 061f 58000000 		.4byte	.LVL137
 4411 0623 5A000000 		.4byte	.LVL138
 4412 0627 0100     		.2byte	0x1
 4413 0629 50       		.byte	0x50
 4414 062a 5A000000 		.4byte	.LVL138
 4415 062e 8A000000 		.4byte	.LVL140
 4416 0632 0200     		.2byte	0x2
 4417 0634 30       		.byte	0x30
 4418 0635 9F       		.byte	0x9f
 4419 0636 8A000000 		.4byte	.LVL140
 4420 063a 8C000000 		.4byte	.LVL141
 4421 063e 0100     		.2byte	0x1
 4422 0640 50       		.byte	0x50
 4423 0641 8C000000 		.4byte	.LVL141
 4424 0645 F0000000 		.4byte	.LVL152
 4425 0649 0200     		.2byte	0x2
 4426 064b 30       		.byte	0x30
 4427 064c 9F       		.byte	0x9f
 4428 064d F0000000 		.4byte	.LVL152
 4429 0651 F2000000 		.4byte	.LVL153
 4430 0655 0100     		.2byte	0x1
 4431 0657 50       		.byte	0x50
 4432 0658 F2000000 		.4byte	.LVL153
 4433 065c F6000000 		.4byte	.LVL154
 4434 0660 0200     		.2byte	0x2
 4435 0662 30       		.byte	0x30
 4436 0663 9F       		.byte	0x9f
 4437 0664 F6000000 		.4byte	.LVL154
 4438 0668 F8000000 		.4byte	.LVL155
 4439 066c 0100     		.2byte	0x1
 4440 066e 50       		.byte	0x50
 4441 066f F8000000 		.4byte	.LVL155
 4442 0673 2C010000 		.4byte	.LVL157
 4443 0677 0200     		.2byte	0x2
 4444 0679 30       		.byte	0x30
 4445 067a 9F       		.byte	0x9f
 4446 067b 2C010000 		.4byte	.LVL157
 4447 067f 2E010000 		.4byte	.LVL158
 4448 0683 0100     		.2byte	0x1
 4449 0685 50       		.byte	0x50
 4450 0686 2E010000 		.4byte	.LVL158
 4451 068a 48010000 		.4byte	.LVL159
 4452 068e 0200     		.2byte	0x2
 4453 0690 30       		.byte	0x30
 4454 0691 9F       		.byte	0x9f
 4455 0692 48010000 		.4byte	.LVL159
 4456 0696 4A010000 		.4byte	.LVL160
 4457 069a 0100     		.2byte	0x1
 4458 069c 50       		.byte	0x50
 4459 069d 4A010000 		.4byte	.LVL160
 4460 06a1 58010000 		.4byte	.LVL162
ARM GAS  C:\Users\student\AppData\Local\Temp\ccpvKyYb.s 			page 105


 4461 06a5 0200     		.2byte	0x2
 4462 06a7 30       		.byte	0x30
 4463 06a8 9F       		.byte	0x9f
 4464 06a9 58010000 		.4byte	.LVL162
 4465 06ad 5A010000 		.4byte	.LVL163
 4466 06b1 0100     		.2byte	0x1
 4467 06b3 50       		.byte	0x50
 4468 06b4 5A010000 		.4byte	.LVL163
 4469 06b8 6E010000 		.4byte	.LVL165
 4470 06bc 0200     		.2byte	0x2
 4471 06be 30       		.byte	0x30
 4472 06bf 9F       		.byte	0x9f
 4473 06c0 6E010000 		.4byte	.LVL165
 4474 06c4 70010000 		.4byte	.LVL166
 4475 06c8 0100     		.2byte	0x1
 4476 06ca 50       		.byte	0x50
 4477 06cb 70010000 		.4byte	.LVL166
 4478 06cf A4010000 		.4byte	.LVL168
 4479 06d3 0200     		.2byte	0x2
 4480 06d5 30       		.byte	0x30
 4481 06d6 9F       		.byte	0x9f
 4482 06d7 A4010000 		.4byte	.LVL168
 4483 06db A6010000 		.4byte	.LVL169
 4484 06df 0100     		.2byte	0x1
 4485 06e1 50       		.byte	0x50
 4486 06e2 A6010000 		.4byte	.LVL169
 4487 06e6 DE010000 		.4byte	.LVL175
 4488 06ea 0200     		.2byte	0x2
 4489 06ec 30       		.byte	0x30
 4490 06ed 9F       		.byte	0x9f
 4491 06ee DE010000 		.4byte	.LVL175
 4492 06f2 E0010000 		.4byte	.LVL176
 4493 06f6 0100     		.2byte	0x1
 4494 06f8 50       		.byte	0x50
 4495 06f9 E0010000 		.4byte	.LVL176
 4496 06fd 14020000 		.4byte	.LVL181
 4497 0701 0200     		.2byte	0x2
 4498 0703 30       		.byte	0x30
 4499 0704 9F       		.byte	0x9f
 4500 0705 14020000 		.4byte	.LVL181
 4501 0709 16020000 		.4byte	.LVL182
 4502 070d 0100     		.2byte	0x1
 4503 070f 50       		.byte	0x50
 4504 0710 16020000 		.4byte	.LVL182
 4505 0714 32020000 		.4byte	.LVL184
 4506 0718 0200     		.2byte	0x2
 4507 071a 30       		.byte	0x30
 4508 071b 9F       		.byte	0x9f
 4509 071c 32020000 		.4byte	.LVL184
 4510 0720 34020000 		.4byte	.LVL185
 4511 0724 0100     		.2byte	0x1
 4512 0726 50       		.byte	0x50
 4513 0727 34020000 		.4byte	.LVL185
 4514 072b 4C020000 		.4byte	.LVL186
 4515 072f 0200     		.2byte	0x2
 4516 0731 30       		.byte	0x30
 4517 0732 9F       		.byte	0x9f
ARM GAS  C:\Users\student\AppData\Local\Temp\ccpvKyYb.s 			page 106


 4518 0733 4C020000 		.4byte	.LVL186
 4519 0737 4E020000 		.4byte	.LVL187
 4520 073b 0100     		.2byte	0x1
 4521 073d 50       		.byte	0x50
 4522 073e 4E020000 		.4byte	.LVL187
 4523 0742 6E020000 		.4byte	.LVL188
 4524 0746 0200     		.2byte	0x2
 4525 0748 30       		.byte	0x30
 4526 0749 9F       		.byte	0x9f
 4527 074a 6E020000 		.4byte	.LVL188
 4528 074e AC020000 		.4byte	.LVL189
 4529 0752 0100     		.2byte	0x1
 4530 0754 50       		.byte	0x50
 4531 0755 AC020000 		.4byte	.LVL189
 4532 0759 C8020000 		.4byte	.LVL191
 4533 075d 0200     		.2byte	0x2
 4534 075f 30       		.byte	0x30
 4535 0760 9F       		.byte	0x9f
 4536 0761 C8020000 		.4byte	.LVL191
 4537 0765 CA020000 		.4byte	.LVL192
 4538 0769 0100     		.2byte	0x1
 4539 076b 50       		.byte	0x50
 4540 076c CA020000 		.4byte	.LVL192
 4541 0770 E2020000 		.4byte	.LVL193
 4542 0774 0200     		.2byte	0x2
 4543 0776 30       		.byte	0x30
 4544 0777 9F       		.byte	0x9f
 4545 0778 E2020000 		.4byte	.LVL193
 4546 077c E4020000 		.4byte	.LVL194
 4547 0780 0100     		.2byte	0x1
 4548 0782 50       		.byte	0x50
 4549 0783 E4020000 		.4byte	.LVL194
 4550 0787 04030000 		.4byte	.LVL195
 4551 078b 0200     		.2byte	0x2
 4552 078d 30       		.byte	0x30
 4553 078e 9F       		.byte	0x9f
 4554 078f 04030000 		.4byte	.LVL195
 4555 0793 06030000 		.4byte	.LVL196
 4556 0797 0100     		.2byte	0x1
 4557 0799 50       		.byte	0x50
 4558 079a 06030000 		.4byte	.LVL196
 4559 079e 40030000 		.4byte	.LVL204
 4560 07a2 0200     		.2byte	0x2
 4561 07a4 30       		.byte	0x30
 4562 07a5 9F       		.byte	0x9f
 4563 07a6 40030000 		.4byte	.LVL204
 4564 07aa 50030000 		.4byte	.LFE0
 4565 07ae 0100     		.2byte	0x1
 4566 07b0 50       		.byte	0x50
 4567 07b1 00000000 		.4byte	0
 4568 07b5 00000000 		.4byte	0
 4569              	.LLST37:
 4570 07b9 F0010000 		.4byte	.LVL178
 4571 07bd 02020000 		.4byte	.LVL179
 4572 07c1 0100     		.2byte	0x1
 4573 07c3 53       		.byte	0x53
 4574 07c4 00000000 		.4byte	0
ARM GAS  C:\Users\student\AppData\Local\Temp\ccpvKyYb.s 			page 107


 4575 07c8 00000000 		.4byte	0
 4576              	.LLST38:
 4577 07cc AA010000 		.4byte	.LVL171
 4578 07d0 B7010000 		.4byte	.LVL172-1
 4579 07d4 0100     		.2byte	0x1
 4580 07d6 53       		.byte	0x53
 4581 07d7 00000000 		.4byte	0
 4582 07db 00000000 		.4byte	0
 4583              	.LLST39:
 4584 07df 08000000 		.4byte	.LVL134
 4585 07e3 3E000000 		.4byte	.LVL135
 4586 07e7 0100     		.2byte	0x1
 4587 07e9 53       		.byte	0x53
 4588 07ea F8000000 		.4byte	.LVL155
 4589 07ee FC000000 		.4byte	.LVL156
 4590 07f2 0100     		.2byte	0x1
 4591 07f4 53       		.byte	0x53
 4592 07f5 4A010000 		.4byte	.LVL160
 4593 07f9 4C010000 		.4byte	.LVL161
 4594 07fd 0100     		.2byte	0x1
 4595 07ff 53       		.byte	0x53
 4596 0800 5A010000 		.4byte	.LVL163
 4597 0804 5E010000 		.4byte	.LVL164
 4598 0808 0100     		.2byte	0x1
 4599 080a 53       		.byte	0x53
 4600 080b 70010000 		.4byte	.LVL166
 4601 080f 98010000 		.4byte	.LVL167
 4602 0813 0100     		.2byte	0x1
 4603 0815 53       		.byte	0x53
 4604 0816 A6010000 		.4byte	.LVL169
 4605 081a A8010000 		.4byte	.LVL170
 4606 081e 0100     		.2byte	0x1
 4607 0820 53       		.byte	0x53
 4608 0821 E0010000 		.4byte	.LVL176
 4609 0825 E3010000 		.4byte	.LVL177-1
 4610 0829 0100     		.2byte	0x1
 4611 082b 53       		.byte	0x53
 4612 082c 16020000 		.4byte	.LVL182
 4613 0830 1A020000 		.4byte	.LVL183
 4614 0834 0100     		.2byte	0x1
 4615 0836 53       		.byte	0x53
 4616 0837 AC020000 		.4byte	.LVL189
 4617 083b B0020000 		.4byte	.LVL190
 4618 083f 0100     		.2byte	0x1
 4619 0841 53       		.byte	0x53
 4620 0842 06030000 		.4byte	.LVL196
 4621 0846 0A030000 		.4byte	.LVL197
 4622 084a 0100     		.2byte	0x1
 4623 084c 53       		.byte	0x53
 4624 084d 16030000 		.4byte	.LVL201
 4625 0851 1A030000 		.4byte	.LVL202
 4626 0855 0100     		.2byte	0x1
 4627 0857 53       		.byte	0x53
 4628 0858 00000000 		.4byte	0
 4629 085c 00000000 		.4byte	0
 4630              	.LLST40:
 4631 0860 08000000 		.4byte	.LVL134
ARM GAS  C:\Users\student\AppData\Local\Temp\ccpvKyYb.s 			page 108


 4632 0864 98000000 		.4byte	.LVL142
 4633 0868 0200     		.2byte	0x2
 4634 086a 30       		.byte	0x30
 4635 086b 9F       		.byte	0x9f
 4636 086c 98000000 		.4byte	.LVL142
 4637 0870 A2000000 		.4byte	.LVL147
 4638 0874 0100     		.2byte	0x1
 4639 0876 51       		.byte	0x51
 4640 0877 A2000000 		.4byte	.LVL147
 4641 087b A6000000 		.4byte	.LVL148
 4642 087f 0200     		.2byte	0x2
 4643 0881 30       		.byte	0x30
 4644 0882 9F       		.byte	0x9f
 4645 0883 A6000000 		.4byte	.LVL148
 4646 0887 D7000000 		.4byte	.LVL150-1
 4647 088b 0100     		.2byte	0x1
 4648 088d 51       		.byte	0x51
 4649 088e DA000000 		.4byte	.LVL151
 4650 0892 EF000000 		.4byte	.LVL152-1
 4651 0896 0100     		.2byte	0x1
 4652 0898 51       		.byte	0x51
 4653 0899 F2000000 		.4byte	.LVL153
 4654 089d 0E030000 		.4byte	.LVL199
 4655 08a1 0200     		.2byte	0x2
 4656 08a3 30       		.byte	0x30
 4657 08a4 9F       		.byte	0x9f
 4658 08a5 0E030000 		.4byte	.LVL199
 4659 08a9 12030000 		.4byte	.LVL200
 4660 08ad 0100     		.2byte	0x1
 4661 08af 51       		.byte	0x51
 4662 08b0 12030000 		.4byte	.LVL200
 4663 08b4 50030000 		.4byte	.LFE0
 4664 08b8 0200     		.2byte	0x2
 4665 08ba 30       		.byte	0x30
 4666 08bb 9F       		.byte	0x9f
 4667 08bc 00000000 		.4byte	0
 4668 08c0 00000000 		.4byte	0
 4669              	.LLST41:
 4670 08c4 98000000 		.4byte	.LVL142
 4671 08c8 9E000000 		.4byte	.LVL145
 4672 08cc 0100     		.2byte	0x1
 4673 08ce 53       		.byte	0x53
 4674 08cf A0000000 		.4byte	.LVL146
 4675 08d3 A2000000 		.4byte	.LVL147
 4676 08d7 0100     		.2byte	0x1
 4677 08d9 53       		.byte	0x53
 4678 08da A6000000 		.4byte	.LVL148
 4679 08de BA000000 		.4byte	.LVL149
 4680 08e2 0100     		.2byte	0x1
 4681 08e4 53       		.byte	0x53
 4682 08e5 00000000 		.4byte	0
 4683 08e9 00000000 		.4byte	0
 4684              	.LLST42:
 4685 08ed 9A000000 		.4byte	.LVL143
 4686 08f1 A2000000 		.4byte	.LVL147
 4687 08f5 0100     		.2byte	0x1
 4688 08f7 52       		.byte	0x52
ARM GAS  C:\Users\student\AppData\Local\Temp\ccpvKyYb.s 			page 109


 4689 08f8 00000000 		.4byte	0
 4690 08fc 00000000 		.4byte	0
 4691              	.LLST43:
 4692 0900 4A000000 		.4byte	.LVL136
 4693 0904 57000000 		.4byte	.LVL137-1
 4694 0908 0100     		.2byte	0x1
 4695 090a 50       		.byte	0x50
 4696 090b 6C000000 		.4byte	.LVL139
 4697 090f 89000000 		.4byte	.LVL140-1
 4698 0913 0100     		.2byte	0x1
 4699 0915 50       		.byte	0x50
 4700 0916 B8010000 		.4byte	.LVL172
 4701 091a D2010000 		.4byte	.LVL173
 4702 091e 0100     		.2byte	0x1
 4703 0920 50       		.byte	0x50
 4704 0921 0A030000 		.4byte	.LVL197
 4705 0925 0C030000 		.4byte	.LVL198
 4706 0929 0100     		.2byte	0x1
 4707 092b 50       		.byte	0x50
 4708 092c 1A030000 		.4byte	.LVL202
 4709 0930 1C030000 		.4byte	.LVL203
 4710 0934 0100     		.2byte	0x1
 4711 0936 50       		.byte	0x50
 4712 0937 00000000 		.4byte	0
 4713 093b 00000000 		.4byte	0
 4714              		.section	.debug_aranges,"",%progbits
 4715 0000 7C000000 		.4byte	0x7c
 4716 0004 0200     		.2byte	0x2
 4717 0006 00000000 		.4byte	.Ldebug_info0
 4718 000a 04       		.byte	0x4
 4719 000b 00       		.byte	0
 4720 000c 0000     		.2byte	0
 4721 000e 0000     		.2byte	0
 4722 0010 00000000 		.4byte	.LFB1
 4723 0014 6C000000 		.4byte	.LFE1-.LFB1
 4724 0018 00000000 		.4byte	.LFB2
 4725 001c A4000000 		.4byte	.LFE2-.LFB2
 4726 0020 00000000 		.4byte	.LFB3
 4727 0024 40000000 		.4byte	.LFE3-.LFB3
 4728 0028 00000000 		.4byte	.LFB6
 4729 002c 28000000 		.4byte	.LFE6-.LFB6
 4730 0030 00000000 		.4byte	.LFB5
 4731 0034 1C010000 		.4byte	.LFE5-.LFB5
 4732 0038 00000000 		.4byte	.LFB7
 4733 003c 18000000 		.4byte	.LFE7-.LFB7
 4734 0040 00000000 		.4byte	.LFB8
 4735 0044 24000000 		.4byte	.LFE8-.LFB8
 4736 0048 00000000 		.4byte	.LFB4
 4737 004c E4010000 		.4byte	.LFE4-.LFB4
 4738 0050 00000000 		.4byte	.LFB9
 4739 0054 4C000000 		.4byte	.LFE9-.LFB9
 4740 0058 00000000 		.4byte	.LFB10
 4741 005c 64000000 		.4byte	.LFE10-.LFB10
 4742 0060 00000000 		.4byte	.LFB11
 4743 0064 A8000000 		.4byte	.LFE11-.LFB11
 4744 0068 00000000 		.4byte	.LFB12
 4745 006c 4C000000 		.4byte	.LFE12-.LFB12
ARM GAS  C:\Users\student\AppData\Local\Temp\ccpvKyYb.s 			page 110


 4746 0070 00000000 		.4byte	.LFB0
 4747 0074 50030000 		.4byte	.LFE0-.LFB0
 4748 0078 00000000 		.4byte	0
 4749 007c 00000000 		.4byte	0
 4750              		.section	.debug_ranges,"",%progbits
 4751              	.Ldebug_ranges0:
 4752 0000 00000000 		.4byte	.LFB1
 4753 0004 6C000000 		.4byte	.LFE1
 4754 0008 00000000 		.4byte	.LFB2
 4755 000c A4000000 		.4byte	.LFE2
 4756 0010 00000000 		.4byte	.LFB3
 4757 0014 40000000 		.4byte	.LFE3
 4758 0018 00000000 		.4byte	.LFB6
 4759 001c 28000000 		.4byte	.LFE6
 4760 0020 00000000 		.4byte	.LFB5
 4761 0024 1C010000 		.4byte	.LFE5
 4762 0028 00000000 		.4byte	.LFB7
 4763 002c 18000000 		.4byte	.LFE7
 4764 0030 00000000 		.4byte	.LFB8
 4765 0034 24000000 		.4byte	.LFE8
 4766 0038 00000000 		.4byte	.LFB4
 4767 003c E4010000 		.4byte	.LFE4
 4768 0040 00000000 		.4byte	.LFB9
 4769 0044 4C000000 		.4byte	.LFE9
 4770 0048 00000000 		.4byte	.LFB10
 4771 004c 64000000 		.4byte	.LFE10
 4772 0050 00000000 		.4byte	.LFB11
 4773 0054 A8000000 		.4byte	.LFE11
 4774 0058 00000000 		.4byte	.LFB12
 4775 005c 4C000000 		.4byte	.LFE12
 4776 0060 00000000 		.4byte	.LFB0
 4777 0064 50030000 		.4byte	.LFE0
 4778 0068 00000000 		.4byte	0
 4779 006c 00000000 		.4byte	0
 4780              		.section	.debug_line,"",%progbits
 4781              	.Ldebug_line0:
 4782 0000 E0030000 		.section	.debug_str,"MS",%progbits,1
 4782      02007300 
 4782      00000201 
 4782      FB0E0D00 
 4782      01010101 
 4783              	.LASF38:
 4784 0000 70537461 		.ascii	"pStatusBlock\000"
 4784      74757342 
 4784      6C6F636B 
 4784      00
 4785              	.LASF36:
 4786 000d 636F756E 		.ascii	"count\000"
 4786      7400
 4787              	.LASF10:
 4788 0013 75696E74 		.ascii	"uint16\000"
 4788      313600
 4789              	.LASF97:
 4790 001a 55534255 		.ascii	"USBUART_device\000"
 4790      4152545F 
 4790      64657669 
 4790      636500
ARM GAS  C:\Users\student\AppData\Local\Temp\ccpvKyYb.s 			page 111


 4791              	.LASF96:
 4792 0029 55534255 		.ascii	"USBUART_tBuffer\000"
 4792      4152545F 
 4792      74427566 
 4792      66657200 
 4793              	.LASF67:
 4794 0039 636F6E66 		.ascii	"confIndex\000"
 4794      496E6465 
 4794      7800
 4795              	.LASF7:
 4796 0043 6C6F6E67 		.ascii	"long long unsigned int\000"
 4796      206C6F6E 
 4796      6720756E 
 4796      7369676E 
 4796      65642069 
 4797              	.LASF23:
 4798 005a 61646472 		.ascii	"addr\000"
 4798      00
 4799              	.LASF48:
 4800 005f 65704366 		.ascii	"epCfg\000"
 4800      6700
 4801              	.LASF35:
 4802 0065 545F5553 		.ascii	"T_USBUART_XFER_STATUS_BLOCK\000"
 4802      42554152 
 4802      545F5846 
 4802      45525F53 
 4802      54415455 
 4803              	.LASF113:
 4804 0081 55534255 		.ascii	"USBUART_InitNoDataControlTransfer\000"
 4804      4152545F 
 4804      496E6974 
 4804      4E6F4461 
 4804      7461436F 
 4805              	.LASF6:
 4806 00a3 6C6F6E67 		.ascii	"long long int\000"
 4806      206C6F6E 
 4806      6720696E 
 4806      7400
 4807              	.LASF0:
 4808 00b1 7369676E 		.ascii	"signed char\000"
 4808      65642063 
 4808      68617200 
 4809              	.LASF102:
 4810 00bd 55534255 		.ascii	"USBUART_TABLE\000"
 4810      4152545F 
 4810      5441424C 
 4810      4500
 4811              	.LASF78:
 4812 00cb 636C6561 		.ascii	"clearAltSetting\000"
 4812      72416C74 
 4812      53657474 
 4812      696E6700 
 4813              	.LASF114:
 4814 00db 55534255 		.ascii	"USBUART_InitControlRead\000"
 4814      4152545F 
 4814      496E6974 
 4814      436F6E74 
ARM GAS  C:\Users\student\AppData\Local\Temp\ccpvKyYb.s 			page 112


 4814      726F6C52 
 4815              	.LASF77:
 4816 00f3 55534255 		.ascii	"USBUART_Config\000"
 4816      4152545F 
 4816      436F6E66 
 4816      696700
 4817              	.LASF111:
 4818 0102 55534255 		.ascii	"USBUART_EP\000"
 4818      4152545F 
 4818      455000
 4819              	.LASF65:
 4820 010d 55534255 		.ascii	"USBUART_EpStateInit\000"
 4820      4152545F 
 4820      45705374 
 4820      61746549 
 4820      6E697400 
 4821              	.LASF107:
 4822 0121 55534255 		.ascii	"USBUART_interfaceSettingLast\000"
 4822      4152545F 
 4822      696E7465 
 4822      72666163 
 4822      65536574 
 4823              	.LASF59:
 4824 013e 55534255 		.ascii	"USBUART_sie_eps_struct\000"
 4824      4152545F 
 4824      7369655F 
 4824      6570735F 
 4824      73747275 
 4825              	.LASF43:
 4826 0155 55534255 		.ascii	"USBUART_ep0_data_struct\000"
 4826      4152545F 
 4826      6570305F 
 4826      64617461 
 4826      5F737472 
 4827              	.LASF4:
 4828 016d 6C6F6E67 		.ascii	"long int\000"
 4828      20696E74 
 4828      00
 4829              	.LASF81:
 4830 0176 63646343 		.ascii	"cdcComNums\000"
 4830      6F6D4E75 
 4830      6D7300
 4831              	.LASF101:
 4832 0181 55534255 		.ascii	"USBUART_DEVICE0_DESCR\000"
 4832      4152545F 
 4832      44455649 
 4832      4345305F 
 4832      44455343 
 4833              	.LASF63:
 4834 0197 55534255 		.ascii	"USBUART_ReadDieID\000"
 4834      4152545F 
 4834      52656164 
 4834      44696549 
 4834      4400
 4835              	.LASF9:
 4836 01a9 75696E74 		.ascii	"uint8\000"
 4836      3800
ARM GAS  C:\Users\student\AppData\Local\Temp\ccpvKyYb.s 			page 113


 4837              	.LASF22:
 4838 01af 6570546F 		.ascii	"epToggle\000"
 4838      67676C65 
 4838      00
 4839              	.LASF52:
 4840 01b8 72775761 		.ascii	"rwWa\000"
 4840      00
 4841              	.LASF104:
 4842 01bd 55534255 		.ascii	"USBUART_idSerialNumberStringDescriptor\000"
 4842      4152545F 
 4842      69645365 
 4842      7269616C 
 4842      4E756D62 
 4843              	.LASF13:
 4844 01e4 646F7562 		.ascii	"double\000"
 4844      6C6500
 4845              	.LASF83:
 4846 01eb 65704E75 		.ascii	"epNumber\000"
 4846      6D626572 
 4846      00
 4847              	.LASF50:
 4848 01f4 65705372 		.ascii	"epSr\000"
 4848      00
 4849              	.LASF105:
 4850 01f9 55534255 		.ascii	"USBUART_interfaceNumber\000"
 4850      4152545F 
 4850      696E7465 
 4850      72666163 
 4850      654E756D 
 4851              	.LASF11:
 4852 0211 75696E74 		.ascii	"uint32\000"
 4852      333200
 4853              	.LASF73:
 4854 0218 55534255 		.ascii	"USBUART_GetConfigTablePtr\000"
 4854      4152545F 
 4854      47657443 
 4854      6F6E6669 
 4854      67546162 
 4855              	.LASF37:
 4856 0232 70446174 		.ascii	"pData\000"
 4856      6100
 4857              	.LASF58:
 4858 0238 73696545 		.ascii	"sieEp\000"
 4858      7000
 4859              	.LASF24:
 4860 023e 65704D6F 		.ascii	"epMode\000"
 4860      646500
 4861              	.LASF71:
 4862 0245 65705479 		.ascii	"epType\000"
 4862      706500
 4863              	.LASF92:
 4864 024c 626D5265 		.ascii	"bmRequestType\000"
 4864      71756573 
 4864      74547970 
 4864      6500
 4865              	.LASF51:
 4866 025a 72657365 		.ascii	"reserved\000"
ARM GAS  C:\Users\student\AppData\Local\Temp\ccpvKyYb.s 			page 114


 4866      72766564 
 4866      00
 4867              	.LASF87:
 4868 0263 55534255 		.ascii	"USBUART_ValidateAlternateSetting\000"
 4868      4152545F 
 4868      56616C69 
 4868      64617465 
 4868      416C7465 
 4869              	.LASF120:
 4870 0284 43794765 		.ascii	"CyGetUniqueId\000"
 4870      74556E69 
 4870      71756549 
 4870      6400
 4871              	.LASF100:
 4872 0292 55534255 		.ascii	"USBUART_deviceStatus\000"
 4872      4152545F 
 4872      64657669 
 4872      63655374 
 4872      61747573 
 4873              	.LASF8:
 4874 02a7 756E7369 		.ascii	"unsigned int\000"
 4874      676E6564 
 4874      20696E74 
 4874      00
 4875              	.LASF74:
 4876 02b4 55534255 		.ascii	"USBUART_GetInterfaceClassTablePtr\000"
 4876      4152545F 
 4876      47657449 
 4876      6E746572 
 4876      66616365 
 4877              	.LASF5:
 4878 02d6 6C6F6E67 		.ascii	"long unsigned int\000"
 4878      20756E73 
 4878      69676E65 
 4878      6420696E 
 4878      7400
 4879              	.LASF117:
 4880 02e8 2E5C4765 		.ascii	".\\Generated_Source\\PSoC5\\USBUART_std.c\000"
 4880      6E657261 
 4880      7465645F 
 4880      536F7572 
 4880      63655C50 
 4881              	.LASF116:
 4882 030f 474E5520 		.ascii	"GNU C 4.9.3 20150303 (release) [ARM/embedded-4_9-br"
 4882      4320342E 
 4882      392E3320 
 4882      32303135 
 4882      30333033 
 4883 0342 616E6368 		.ascii	"anch revision 221220] -mcpu=cortex-m3 -mthumb -g -O"
 4883      20726576 
 4883      6973696F 
 4883      6E203232 
 4883      31323230 
 4884 0375 67202D73 		.ascii	"g -std=gnu11 -ffunction-sections -ffat-lto-objects\000"
 4884      74643D67 
 4884      6E753131 
 4884      202D6666 
ARM GAS  C:\Users\student\AppData\Local\Temp\ccpvKyYb.s 			page 115


 4884      756E6374 
 4885              	.LASF89:
 4886 03a8 55534255 		.ascii	"USBUART_HandleStandardRqst\000"
 4886      4152545F 
 4886      48616E64 
 4886      6C655374 
 4886      616E6461 
 4887              	.LASF119:
 4888 03c3 55534255 		.ascii	"USBUART_GetDeviceTablePtr\000"
 4888      4152545F 
 4888      47657444 
 4888      65766963 
 4888      65546162 
 4889              	.LASF3:
 4890 03dd 73686F72 		.ascii	"short unsigned int\000"
 4890      7420756E 
 4890      7369676E 
 4890      65642069 
 4890      6E7400
 4891              	.LASF121:
 4892 03f0 55534255 		.ascii	"USBUART_Cdc_EpInit\000"
 4892      4152545F 
 4892      4364635F 
 4892      4570496E 
 4892      697400
 4893              	.LASF79:
 4894 0403 70446573 		.ascii	"pDescr\000"
 4894      637200
 4895              	.LASF75:
 4896 040a 70496E74 		.ascii	"pInterfaceClass\000"
 4896      65726661 
 4896      6365436C 
 4896      61737300 
 4897              	.LASF60:
 4898 041a 61726245 		.ascii	"arbEp\000"
 4898      7000
 4899              	.LASF27:
 4900 0420 696E7465 		.ascii	"interface\000"
 4900      72666163 
 4900      6500
 4901              	.LASF64:
 4902 042a 55534255 		.ascii	"USBUART_ConfigReg\000"
 4902      4152545F 
 4902      436F6E66 
 4902      69675265 
 4902      6700
 4903              	.LASF41:
 4904 043c 545F5553 		.ascii	"T_USBUART_LUT\000"
 4904      42554152 
 4904      545F4C55 
 4904      5400
 4905              	.LASF108:
 4906 044a 55534255 		.ascii	"USBUART_deviceAddress\000"
 4906      4152545F 
 4906      64657669 
 4906      63654164 
 4906      64726573 
ARM GAS  C:\Users\student\AppData\Local\Temp\ccpvKyYb.s 			page 116


 4907              	.LASF70:
 4908 0460 63757245 		.ascii	"curEp\000"
 4908      7000
 4909              	.LASF118:
 4910 0466 433A5C55 		.ascii	"C:\\Users\\student\\Documents\\PSoC Creator\\rbeatt"
 4910      73657273 
 4910      5C737475 
 4910      64656E74 
 4910      5C446F63 
 4911 0494 69655F66 		.ascii	"ie_final_project\\ConnectFour.cydsn\000"
 4911      696E616C 
 4911      5F70726F 
 4911      6A656374 
 4911      5C436F6E 
 4912              	.LASF21:
 4913 04b7 68774570 		.ascii	"hwEpState\000"
 4913      53746174 
 4913      6500
 4914              	.LASF61:
 4915 04c1 55534255 		.ascii	"USBUART_arb_eps_struct\000"
 4915      4152545F 
 4915      6172625F 
 4915      6570735F 
 4915      73747275 
 4916              	.LASF18:
 4917 04d8 73697A65 		.ascii	"sizetype\000"
 4917      74797065 
 4917      00
 4918              	.LASF17:
 4919 04e1 6C6F6E67 		.ascii	"long double\000"
 4919      20646F75 
 4919      626C6500 
 4920              	.LASF69:
 4921 04ed 55534255 		.ascii	"USBUART_ConfigAltChanged\000"
 4921      4152545F 
 4921      436F6E66 
 4921      6967416C 
 4921      74436861 
 4922              	.LASF68:
 4923 0506 70546D70 		.ascii	"pTmp\000"
 4923      00
 4924              	.LASF40:
 4925 050b 705F6C69 		.ascii	"p_list\000"
 4925      737400
 4926              	.LASF80:
 4927 0512 62756666 		.ascii	"buffCount\000"
 4927      436F756E 
 4927      7400
 4928              	.LASF19:
 4929 051c 61747472 		.ascii	"attrib\000"
 4929      696200
 4930              	.LASF110:
 4931 0523 55534255 		.ascii	"USBUART_interfaceClass\000"
 4931      4152545F 
 4931      696E7465 
 4931      72666163 
 4931      65436C61 
ARM GAS  C:\Users\student\AppData\Local\Temp\ccpvKyYb.s 			page 117


 4932              	.LASF112:
 4933 053a 55534255 		.ascii	"USBUART_currentTD\000"
 4933      4152545F 
 4933      63757272 
 4933      656E7454 
 4933      4400
 4934              	.LASF115:
 4935 054c 55534255 		.ascii	"USBUART_DispatchClassRqst\000"
 4935      4152545F 
 4935      44697370 
 4935      61746368 
 4935      436C6173 
 4936              	.LASF55:
 4937 0566 72775261 		.ascii	"rwRaMsb\000"
 4937      4D736200 
 4938              	.LASF44:
 4939 056e 6570436E 		.ascii	"epCnt0\000"
 4939      743000
 4940              	.LASF45:
 4941 0575 6570436E 		.ascii	"epCnt1\000"
 4941      743100
 4942              	.LASF103:
 4943 057c 55534255 		.ascii	"USBUART_STRING_DESCRIPTORS\000"
 4943      4152545F 
 4943      53545249 
 4943      4E475F44 
 4943      45534352 
 4944              	.LASF46:
 4945 0597 65704372 		.ascii	"epCr0\000"
 4945      3000
 4946              	.LASF72:
 4947 059d 696E7465 		.ascii	"interfaceNum\000"
 4947      72666163 
 4947      654E756D 
 4947      00
 4948              	.LASF12:
 4949 05aa 666C6F61 		.ascii	"float\000"
 4949      7400
 4950              	.LASF20:
 4951 05b0 61706945 		.ascii	"apiEpState\000"
 4951      70537461 
 4951      746500
 4952              	.LASF82:
 4953 05bb 55534255 		.ascii	"USBUART_TerminateEP\000"
 4953      4152545F 
 4953      5465726D 
 4953      696E6174 
 4953      65455000 
 4954              	.LASF91:
 4955 05cf 636F6E66 		.ascii	"configurationN\000"
 4955      69677572 
 4955      6174696F 
 4955      6E4E00
 4956              	.LASF93:
 4957 05de 70537472 		.ascii	"pStr\000"
 4957      00
 4958              	.LASF16:
ARM GAS  C:\Users\student\AppData\Local\Temp\ccpvKyYb.s 			page 118


 4959 05e3 72656738 		.ascii	"reg8\000"
 4959      00
 4960              	.LASF106:
 4961 05e8 55534255 		.ascii	"USBUART_interfaceSetting\000"
 4961      4152545F 
 4961      696E7465 
 4961      72666163 
 4961      65536574 
 4962              	.LASF66:
 4963 0601 64657363 		.ascii	"descr\000"
 4963      7200
 4964              	.LASF1:
 4965 0607 756E7369 		.ascii	"unsigned char\000"
 4965      676E6564 
 4965      20636861 
 4965      7200
 4966              	.LASF2:
 4967 0615 73686F72 		.ascii	"short int\000"
 4967      7420696E 
 4967      7400
 4968              	.LASF54:
 4969 061f 72775261 		.ascii	"rwRa\000"
 4969      00
 4970              	.LASF53:
 4971 0624 72775761 		.ascii	"rwWaMsb\000"
 4971      4D736200 
 4972              	.LASF39:
 4973 062c 545F5553 		.ascii	"T_USBUART_TD\000"
 4973      42554152 
 4973      545F5444 
 4973      00
 4974              	.LASF109:
 4975 0639 55534255 		.ascii	"USBUART_interfaceStatus\000"
 4975      4152545F 
 4975      696E7465 
 4975      72666163 
 4975      65537461 
 4976              	.LASF47:
 4977 0651 55534255 		.ascii	"USBUART_sie_ep_struct\000"
 4977      4152545F 
 4977      7369655F 
 4977      65705F73 
 4977      74727563 
 4978              	.LASF30:
 4979 0667 61747472 		.ascii	"attributes\000"
 4979      69627574 
 4979      657300
 4980              	.LASF86:
 4981 0672 55534255 		.ascii	"USBUART_ClearEndpointHalt\000"
 4981      4152545F 
 4981      436C6561 
 4981      72456E64 
 4981      706F696E 
 4982              	.LASF29:
 4983 068c 616C7453 		.ascii	"altSetting\000"
 4983      65747469 
 4983      6E6700
ARM GAS  C:\Users\student\AppData\Local\Temp\ccpvKyYb.s 			page 119


 4984              	.LASF15:
 4985 0697 63686172 		.ascii	"char\000"
 4985      00
 4986              	.LASF26:
 4987 069c 62756666 		.ascii	"bufferSize\000"
 4987      65725369 
 4987      7A6500
 4988              	.LASF85:
 4989 06a7 72657175 		.ascii	"requestHandled\000"
 4989      65737448 
 4989      616E646C 
 4989      656400
 4990              	.LASF76:
 4991 06b6 63757272 		.ascii	"currentInterfacesNum\000"
 4991      656E7449 
 4991      6E746572 
 4991      66616365 
 4991      734E756D 
 4992              	.LASF28:
 4993 06cb 545F5553 		.ascii	"T_USBUART_EP_CTL_BLOCK\000"
 4993      42554152 
 4993      545F4550 
 4993      5F43544C 
 4993      5F424C4F 
 4994              	.LASF25:
 4995 06e2 62756666 		.ascii	"buffOffset\000"
 4995      4F666673 
 4995      657400
 4996              	.LASF14:
 4997 06ed 63686172 		.ascii	"char8\000"
 4997      3800
 4998              	.LASF32:
 4999 06f3 545F5553 		.ascii	"T_USBUART_EP_SETTINGS_BLOCK\000"
 4999      42554152 
 4999      545F4550 
 4999      5F534554 
 4999      54494E47 
 5000              	.LASF62:
 5001 070f 756E6971 		.ascii	"uniqueId\000"
 5001      75654964 
 5001      00
 5002              	.LASF90:
 5003 0718 696E7465 		.ascii	"interfaceNumber\000"
 5003      72666163 
 5003      654E756D 
 5003      62657200 
 5004              	.LASF57:
 5005 0728 55534255 		.ascii	"USBUART_arb_ep_struct\000"
 5005      4152545F 
 5005      6172625F 
 5005      65705F73 
 5005      74727563 
 5006              	.LASF34:
 5007 073e 6C656E67 		.ascii	"length\000"
 5007      746800
 5008              	.LASF94:
 5009 0745 6E537472 		.ascii	"nStr\000"
ARM GAS  C:\Users\student\AppData\Local\Temp\ccpvKyYb.s 			page 120


 5009      00
 5010              	.LASF95:
 5011 074a 64657363 		.ascii	"descrLength\000"
 5011      724C656E 
 5011      67746800 
 5012              	.LASF33:
 5013 0756 73746174 		.ascii	"status\000"
 5013      757300
 5014              	.LASF56:
 5015 075d 72774472 		.ascii	"rwDr\000"
 5015      00
 5016              	.LASF88:
 5017 0762 63757249 		.ascii	"curInterfacesNum\000"
 5017      6E746572 
 5017      66616365 
 5017      734E756D 
 5017      00
 5018              	.LASF98:
 5019 0773 55534255 		.ascii	"USBUART_configuration\000"
 5019      4152545F 
 5019      636F6E66 
 5019      69677572 
 5019      6174696F 
 5020              	.LASF42:
 5021 0789 65704461 		.ascii	"epData\000"
 5021      746100
 5022              	.LASF31:
 5023 0790 624D6973 		.ascii	"bMisc\000"
 5023      6300
 5024              	.LASF84:
 5025 0796 55534255 		.ascii	"USBUART_SetEndpointHalt\000"
 5025      4152545F 
 5025      53657445 
 5025      6E64706F 
 5025      696E7448 
 5026              	.LASF49:
 5027 07ae 6570496E 		.ascii	"epIntEn\000"
 5027      74456E00 
 5028              	.LASF99:
 5029 07b6 55534255 		.ascii	"USBUART_configurationChanged\000"
 5029      4152545F 
 5029      636F6E66 
 5029      69677572 
 5029      6174696F 
 5030              		.ident	"GCC: (GNU Tools for ARM Embedded Processors) 4.9.3 20150303 (release) [ARM/embedded-4_9-br
