ARM GAS  C:\Users\student\AppData\Local\Temp\cckxTosa.s 			page 1


   1              		.syntax unified
   2              		.cpu cortex-m3
   3              		.fpu softvfp
   4              		.eabi_attribute 20, 1
   5              		.eabi_attribute 21, 1
   6              		.eabi_attribute 23, 3
   7              		.eabi_attribute 24, 1
   8              		.eabi_attribute 25, 1
   9              		.eabi_attribute 26, 1
  10              		.eabi_attribute 30, 1
  11              		.eabi_attribute 34, 1
  12              		.eabi_attribute 18, 4
  13              		.thumb
  14              		.file	"USBUART_cdc.c"
  15              		.text
  16              	.Ltext0:
  17              		.cfi_sections	.debug_frame
  18              		.section	.text.USBUART_StrLen,"ax",%progbits
  19              		.align	2
  20              		.thumb
  21              		.thumb_func
  22              		.type	USBUART_StrLen, %function
  23              	USBUART_StrLen:
  24              	.LFB4:
  25              		.file 1 ".\\Generated_Source\\PSoC5\\USBUART_cdc.c"
   1:.\Generated_Source\PSoC5/USBUART_cdc.c **** /***************************************************************************//**
   2:.\Generated_Source\PSoC5/USBUART_cdc.c **** * \file USBUART_cdc.c
   3:.\Generated_Source\PSoC5/USBUART_cdc.c **** * \version 3.0
   4:.\Generated_Source\PSoC5/USBUART_cdc.c **** *
   5:.\Generated_Source\PSoC5/USBUART_cdc.c **** * \brief
   6:.\Generated_Source\PSoC5/USBUART_cdc.c **** *  This file contains the USB CDC class request handler.
   7:.\Generated_Source\PSoC5/USBUART_cdc.c **** *
   8:.\Generated_Source\PSoC5/USBUART_cdc.c **** * Related Document:
   9:.\Generated_Source\PSoC5/USBUART_cdc.c **** *  Universal Serial Bus Class Definitions for Communication Devices Version 1.1
  10:.\Generated_Source\PSoC5/USBUART_cdc.c **** *
  11:.\Generated_Source\PSoC5/USBUART_cdc.c **** ********************************************************************************
  12:.\Generated_Source\PSoC5/USBUART_cdc.c **** * \copyright
  13:.\Generated_Source\PSoC5/USBUART_cdc.c **** * Copyright 2012-2015, Cypress Semiconductor Corporation.  All rights reserved.
  14:.\Generated_Source\PSoC5/USBUART_cdc.c **** * You may use this file only in accordance with the license, terms, conditions,
  15:.\Generated_Source\PSoC5/USBUART_cdc.c **** * disclaimers, and limitations in the end user license agreement accompanying
  16:.\Generated_Source\PSoC5/USBUART_cdc.c **** * the software package with which this file was provided.
  17:.\Generated_Source\PSoC5/USBUART_cdc.c **** *******************************************************************************/
  18:.\Generated_Source\PSoC5/USBUART_cdc.c **** 
  19:.\Generated_Source\PSoC5/USBUART_cdc.c **** #include "USBUART_cdc.h"
  20:.\Generated_Source\PSoC5/USBUART_cdc.c **** #include "USBUART_pvt.h"
  21:.\Generated_Source\PSoC5/USBUART_cdc.c **** #include "cyapicallbacks.h"
  22:.\Generated_Source\PSoC5/USBUART_cdc.c **** 
  23:.\Generated_Source\PSoC5/USBUART_cdc.c **** #if defined(USBUART_ENABLE_CDC_CLASS)
  24:.\Generated_Source\PSoC5/USBUART_cdc.c **** 
  25:.\Generated_Source\PSoC5/USBUART_cdc.c **** /*******************************************************************************
  26:.\Generated_Source\PSoC5/USBUART_cdc.c **** *    CDC Variables
  27:.\Generated_Source\PSoC5/USBUART_cdc.c **** *******************************************************************************/
  28:.\Generated_Source\PSoC5/USBUART_cdc.c **** 
  29:.\Generated_Source\PSoC5/USBUART_cdc.c **** /*PUBLIC*/
  30:.\Generated_Source\PSoC5/USBUART_cdc.c **** /** Contains the current line coding structure. The host sets it using a
  31:.\Generated_Source\PSoC5/USBUART_cdc.c ****  * SET_LINE_CODING request and returns it to the user code using the
  32:.\Generated_Source\PSoC5/USBUART_cdc.c ****  * USBUART_GetDTERate(), USBUART_GetCharFormat(),
ARM GAS  C:\Users\student\AppData\Local\Temp\cckxTosa.s 			page 2


  33:.\Generated_Source\PSoC5/USBUART_cdc.c ****  * USBUART_GetParityType(), and USBUART_GetDataBits() APIs.
  34:.\Generated_Source\PSoC5/USBUART_cdc.c ****  * It is an array of 2 elements for COM port 1 and COM port 2 for MultiCOM port
  35:.\Generated_Source\PSoC5/USBUART_cdc.c ****  * support. In case of 1 COM port, data is in 0 element.*/
  36:.\Generated_Source\PSoC5/USBUART_cdc.c **** volatile uint8 USBUART_linesCoding[USBUART_MAX_MULTI_COM_NUM][USBUART_LINE_CODING_SIZE] =
  37:.\Generated_Source\PSoC5/USBUART_cdc.c **** {
  38:.\Generated_Source\PSoC5/USBUART_cdc.c ****     /*COM Port 1*/
  39:.\Generated_Source\PSoC5/USBUART_cdc.c ****     {
  40:.\Generated_Source\PSoC5/USBUART_cdc.c ****     0x00u, 0xC2u, 0x01u, 0x00u,     /* Data terminal rate 115200 */
  41:.\Generated_Source\PSoC5/USBUART_cdc.c ****     0x00u,                          /* 1 Stop bit */
  42:.\Generated_Source\PSoC5/USBUART_cdc.c ****     0x00u,                          /* None parity */
  43:.\Generated_Source\PSoC5/USBUART_cdc.c ****     0x08u                           /* 8 data bits */
  44:.\Generated_Source\PSoC5/USBUART_cdc.c ****     },
  45:.\Generated_Source\PSoC5/USBUART_cdc.c ****     /*COM Port 2*/
  46:.\Generated_Source\PSoC5/USBUART_cdc.c ****     {
  47:.\Generated_Source\PSoC5/USBUART_cdc.c ****     0x00u, 0xC2u, 0x01u, 0x00u,     /* Data terminal rate 115200 */
  48:.\Generated_Source\PSoC5/USBUART_cdc.c ****     0x00u,                          /* 1 Stop bit */
  49:.\Generated_Source\PSoC5/USBUART_cdc.c ****     0x00u,                          /* None parity */
  50:.\Generated_Source\PSoC5/USBUART_cdc.c ****     0x08u                           /* 8 data bits */
  51:.\Generated_Source\PSoC5/USBUART_cdc.c ****     }
  52:.\Generated_Source\PSoC5/USBUART_cdc.c **** };
  53:.\Generated_Source\PSoC5/USBUART_cdc.c **** 
  54:.\Generated_Source\PSoC5/USBUART_cdc.c **** /**Used as a flag for the USBUART_IsLineChanged() API, to inform it that the
  55:.\Generated_Source\PSoC5/USBUART_cdc.c ****  * host has been sent a request to change line coding or control bitmap. It is 
  56:.\Generated_Source\PSoC5/USBUART_cdc.c ****  * an array of 2 elements for COM port 1 and COM port 2 for MultiCOM port 
  57:.\Generated_Source\PSoC5/USBUART_cdc.c ****  * support. In case of 1 COM port, data is in 0 element.*/
  58:.\Generated_Source\PSoC5/USBUART_cdc.c **** volatile uint8  USBUART_linesChanged[USBUART_MAX_MULTI_COM_NUM];
  59:.\Generated_Source\PSoC5/USBUART_cdc.c **** /** Contains the current control-signal bitmap. The host sets it using a
  60:.\Generated_Source\PSoC5/USBUART_cdc.c ****  * SET_CONTROL_LINE request and returns it to the user code using the 
  61:.\Generated_Source\PSoC5/USBUART_cdc.c ****  * USBUART_GetLineControl() API. It is an array of 2 elements for COM 
  62:.\Generated_Source\PSoC5/USBUART_cdc.c ****  * port 1 and COM port 2 for MultiCOM port support. In case of 1 COM port, data 
  63:.\Generated_Source\PSoC5/USBUART_cdc.c ****  * is in 0 element.*/
  64:.\Generated_Source\PSoC5/USBUART_cdc.c **** volatile uint16 USBUART_linesControlBitmap[USBUART_MAX_MULTI_COM_NUM];
  65:.\Generated_Source\PSoC5/USBUART_cdc.c **** /** Contains the 16-bit serial state value that was sent using the 
  66:.\Generated_Source\PSoC5/USBUART_cdc.c ****  * \ref USBUART_SendSerialState() API. . It is an array of 2 elements 
  67:.\Generated_Source\PSoC5/USBUART_cdc.c ****  * for COM port 1 and COM port 2 for MultiCOM port support. In case of 1 COM 
  68:.\Generated_Source\PSoC5/USBUART_cdc.c ****  * port, data is in 0 element.*/
  69:.\Generated_Source\PSoC5/USBUART_cdc.c **** volatile uint16 USBUART_serialStateBitmap[USBUART_MAX_MULTI_COM_NUM];
  70:.\Generated_Source\PSoC5/USBUART_cdc.c **** /** Contains the data IN endpoint number. It is initialized after a 
  71:.\Generated_Source\PSoC5/USBUART_cdc.c ****  * SET_CONFIGURATION request based on a user descriptor. It is used in CDC APIs 
  72:.\Generated_Source\PSoC5/USBUART_cdc.c ****  * to send data to the PC. It is an array of 2 elements for COM port 1 and COM 
  73:.\Generated_Source\PSoC5/USBUART_cdc.c ****  * port 2 for MultiCOM port support. In case of 1 COM port, data is in 0 element.*/
  74:.\Generated_Source\PSoC5/USBUART_cdc.c **** volatile uint8  USBUART_cdcDataInEp[USBUART_MAX_MULTI_COM_NUM];
  75:.\Generated_Source\PSoC5/USBUART_cdc.c **** /** Contains the data OUT endpoint number. It is initialized after a 
  76:.\Generated_Source\PSoC5/USBUART_cdc.c ****  * SET_CONFIGURATION request based on user descriptor. It is used in CDC APIs to 
  77:.\Generated_Source\PSoC5/USBUART_cdc.c ****  * receive data from the PC. It is an array of 2 elements for COM port 1 and COM  
  78:.\Generated_Source\PSoC5/USBUART_cdc.c ****  * port 2 for MultiCOM port support. In case of 1 COM port, data is in 0 element.*/
  79:.\Generated_Source\PSoC5/USBUART_cdc.c **** volatile uint8  USBUART_cdcDataOutEp[USBUART_MAX_MULTI_COM_NUM];
  80:.\Generated_Source\PSoC5/USBUART_cdc.c **** /** Contains the data IN endpoint number for COMMUNICATION interface. It is 
  81:.\Generated_Source\PSoC5/USBUART_cdc.c ****  * initialized after a SET_CONFIGURATION request based on a user descriptor. It 
  82:.\Generated_Source\PSoC5/USBUART_cdc.c ****  * is used in CDC APIs to send data to the PC. It is an array of 2 elements for 
  83:.\Generated_Source\PSoC5/USBUART_cdc.c ****  * COM port 1 and COM port 2 for MultiCOM port support. In case of 1 COM port, 
  84:.\Generated_Source\PSoC5/USBUART_cdc.c ****  * data is in 0 element.*/
  85:.\Generated_Source\PSoC5/USBUART_cdc.c **** volatile uint8  USBUART_cdcCommInInterruptEp[USBUART_MAX_MULTI_COM_NUM];
  86:.\Generated_Source\PSoC5/USBUART_cdc.c **** 
  87:.\Generated_Source\PSoC5/USBUART_cdc.c **** /*PRIVATE*/
  88:.\Generated_Source\PSoC5/USBUART_cdc.c **** 
  89:.\Generated_Source\PSoC5/USBUART_cdc.c **** #define USBUART_CDC_IN_EP      (0u)
ARM GAS  C:\Users\student\AppData\Local\Temp\cckxTosa.s 			page 3


  90:.\Generated_Source\PSoC5/USBUART_cdc.c **** #define USBUART_CDC_OUT_EP     (1u)
  91:.\Generated_Source\PSoC5/USBUART_cdc.c **** #define USBUART_CDC_NOTE_EP    (2u)
  92:.\Generated_Source\PSoC5/USBUART_cdc.c **** 
  93:.\Generated_Source\PSoC5/USBUART_cdc.c **** #define USBUART_CDC_EP_MASK    (0x01u)
  94:.\Generated_Source\PSoC5/USBUART_cdc.c **** 
  95:.\Generated_Source\PSoC5/USBUART_cdc.c **** #define USBUART_GET_EP_COM_NUM(cdcComNums, epType) (((cdcComNums) >> (epType)) & USBUART_CDC_EP_MAS
  96:.\Generated_Source\PSoC5/USBUART_cdc.c **** 
  97:.\Generated_Source\PSoC5/USBUART_cdc.c **** 
  98:.\Generated_Source\PSoC5/USBUART_cdc.c **** /***************************************
  99:.\Generated_Source\PSoC5/USBUART_cdc.c **** *     Static Function Prototypes
 100:.\Generated_Source\PSoC5/USBUART_cdc.c **** ***************************************/
 101:.\Generated_Source\PSoC5/USBUART_cdc.c **** #if (USBUART_ENABLE_CDC_CLASS_API != 0u)
 102:.\Generated_Source\PSoC5/USBUART_cdc.c ****     static uint16 USBUART_StrLen(const char8 string[]) ;
 103:.\Generated_Source\PSoC5/USBUART_cdc.c ****     static t_USBUART_cdc_notification USBUART_serialStateNotification =
 104:.\Generated_Source\PSoC5/USBUART_cdc.c ****     {
 105:.\Generated_Source\PSoC5/USBUART_cdc.c **** 
 106:.\Generated_Source\PSoC5/USBUART_cdc.c ****         USBUART_SERIAL_STATE_REQUEST_TYPE, /* bRequestType    */
 107:.\Generated_Source\PSoC5/USBUART_cdc.c ****         USBUART_SERIAL_STATE,              /* bNotification   */
 108:.\Generated_Source\PSoC5/USBUART_cdc.c ****         0u,                                         /* wValue          */
 109:.\Generated_Source\PSoC5/USBUART_cdc.c ****         0u,                                         /* wValueMSB       */
 110:.\Generated_Source\PSoC5/USBUART_cdc.c ****         0u,                                         /* wIndex          */
 111:.\Generated_Source\PSoC5/USBUART_cdc.c ****         0u,                                         /* wIndexMSB       */
 112:.\Generated_Source\PSoC5/USBUART_cdc.c ****         USBUART_SERIAL_STATE_LENGTH,       /* wLength         */
 113:.\Generated_Source\PSoC5/USBUART_cdc.c ****         0u,                                         /* wLengthMSB      */
 114:.\Generated_Source\PSoC5/USBUART_cdc.c ****         0u,                                         /* wSerialState    */
 115:.\Generated_Source\PSoC5/USBUART_cdc.c ****         0u,                                         /* wSerialStateMSB */
 116:.\Generated_Source\PSoC5/USBUART_cdc.c ****     };
 117:.\Generated_Source\PSoC5/USBUART_cdc.c ****     static uint8 USBUART_activeCom = 0u;
 118:.\Generated_Source\PSoC5/USBUART_cdc.c **** #endif /* (USBUART_ENABLE_CDC_CLASS_API != 0u) */
 119:.\Generated_Source\PSoC5/USBUART_cdc.c **** 
 120:.\Generated_Source\PSoC5/USBUART_cdc.c **** 
 121:.\Generated_Source\PSoC5/USBUART_cdc.c **** /***************************************
 122:.\Generated_Source\PSoC5/USBUART_cdc.c **** * Custom Declarations
 123:.\Generated_Source\PSoC5/USBUART_cdc.c **** ***************************************/
 124:.\Generated_Source\PSoC5/USBUART_cdc.c **** 
 125:.\Generated_Source\PSoC5/USBUART_cdc.c **** /* `#START CDC_CUSTOM_DECLARATIONS` Place your declaration here */
 126:.\Generated_Source\PSoC5/USBUART_cdc.c **** 
 127:.\Generated_Source\PSoC5/USBUART_cdc.c **** /* `#END` */
 128:.\Generated_Source\PSoC5/USBUART_cdc.c **** 
 129:.\Generated_Source\PSoC5/USBUART_cdc.c **** 
 130:.\Generated_Source\PSoC5/USBUART_cdc.c **** /*******************************************************************************
 131:.\Generated_Source\PSoC5/USBUART_cdc.c **** * Function Name: USBUART_DispatchCDCClassRqst
 132:.\Generated_Source\PSoC5/USBUART_cdc.c **** ****************************************************************************//**
 133:.\Generated_Source\PSoC5/USBUART_cdc.c **** *
 134:.\Generated_Source\PSoC5/USBUART_cdc.c **** *  This routine dispatches CDC class requests.
 135:.\Generated_Source\PSoC5/USBUART_cdc.c **** *
 136:.\Generated_Source\PSoC5/USBUART_cdc.c **** * \return
 137:.\Generated_Source\PSoC5/USBUART_cdc.c **** *  requestHandled
 138:.\Generated_Source\PSoC5/USBUART_cdc.c **** *
 139:.\Generated_Source\PSoC5/USBUART_cdc.c **** * \globalvars
 140:.\Generated_Source\PSoC5/USBUART_cdc.c **** *   USBUART_linesCoding: Contains the current line coding structure.
 141:.\Generated_Source\PSoC5/USBUART_cdc.c **** *     It is set by the Host using SET_LINE_CODING request and returned to the
 142:.\Generated_Source\PSoC5/USBUART_cdc.c **** *     user code by the USBFS_GetDTERate(), USBFS_GetCharFormat(),
 143:.\Generated_Source\PSoC5/USBUART_cdc.c **** *     USBFS_GetParityType(), USBFS_GetDataBits() APIs.
 144:.\Generated_Source\PSoC5/USBUART_cdc.c **** *   USBUART_linesControlBitmap: Contains the current control signal
 145:.\Generated_Source\PSoC5/USBUART_cdc.c **** *     bitmap. It is set by the Host using SET_CONTROL_LINE request and returned
 146:.\Generated_Source\PSoC5/USBUART_cdc.c **** *     to the user code by the USBFS_GetLineControl() API.
ARM GAS  C:\Users\student\AppData\Local\Temp\cckxTosa.s 			page 4


 147:.\Generated_Source\PSoC5/USBUART_cdc.c **** *   USBUART_linesChanged: This variable is used as a flag for the
 148:.\Generated_Source\PSoC5/USBUART_cdc.c **** *     USBFS_IsLineChanged() API, to be aware that Host has been sent request
 149:.\Generated_Source\PSoC5/USBUART_cdc.c **** *     for changing Line Coding or Control Bitmap.
 150:.\Generated_Source\PSoC5/USBUART_cdc.c **** *
 151:.\Generated_Source\PSoC5/USBUART_cdc.c **** * \reentrant
 152:.\Generated_Source\PSoC5/USBUART_cdc.c **** *  No.
 153:.\Generated_Source\PSoC5/USBUART_cdc.c **** *
 154:.\Generated_Source\PSoC5/USBUART_cdc.c **** *******************************************************************************/
 155:.\Generated_Source\PSoC5/USBUART_cdc.c **** uint8 USBUART_DispatchCDCClassRqst(void) 
 156:.\Generated_Source\PSoC5/USBUART_cdc.c **** {
 157:.\Generated_Source\PSoC5/USBUART_cdc.c ****     uint8 requestHandled = USBUART_FALSE;
 158:.\Generated_Source\PSoC5/USBUART_cdc.c ****     uint8 comPort;
 159:.\Generated_Source\PSoC5/USBUART_cdc.c **** 
 160:.\Generated_Source\PSoC5/USBUART_cdc.c ****     comPort = USBUART_GetInterfaceComPort((uint8)USBUART_wIndexLoReg);
 161:.\Generated_Source\PSoC5/USBUART_cdc.c **** 
 162:.\Generated_Source\PSoC5/USBUART_cdc.c ****     /* Check request direction: D2H or H2D. */
 163:.\Generated_Source\PSoC5/USBUART_cdc.c ****     if (0u != (USBUART_bmRequestTypeReg & USBUART_RQST_DIR_D2H))
 164:.\Generated_Source\PSoC5/USBUART_cdc.c ****     {
 165:.\Generated_Source\PSoC5/USBUART_cdc.c ****         /* Handle direction from device to host. */
 166:.\Generated_Source\PSoC5/USBUART_cdc.c **** 
 167:.\Generated_Source\PSoC5/USBUART_cdc.c ****         switch (USBUART_bRequestReg)
 168:.\Generated_Source\PSoC5/USBUART_cdc.c ****         {
 169:.\Generated_Source\PSoC5/USBUART_cdc.c ****             case USBUART_CDC_GET_LINE_CODING:
 170:.\Generated_Source\PSoC5/USBUART_cdc.c ****                 USBUART_currentTD.count = USBUART_LINE_CODING_SIZE;
 171:.\Generated_Source\PSoC5/USBUART_cdc.c ****                 USBUART_currentTD.pData = USBUART_linesCoding[comPort];
 172:.\Generated_Source\PSoC5/USBUART_cdc.c ****                 requestHandled  = USBUART_InitControlRead();
 173:.\Generated_Source\PSoC5/USBUART_cdc.c ****                 break;
 174:.\Generated_Source\PSoC5/USBUART_cdc.c **** 
 175:.\Generated_Source\PSoC5/USBUART_cdc.c ****             /* `#START CDC_READ_REQUESTS` Place other request handler here */
 176:.\Generated_Source\PSoC5/USBUART_cdc.c **** 
 177:.\Generated_Source\PSoC5/USBUART_cdc.c ****             /* `#END` */
 178:.\Generated_Source\PSoC5/USBUART_cdc.c **** 
 179:.\Generated_Source\PSoC5/USBUART_cdc.c ****             default:
 180:.\Generated_Source\PSoC5/USBUART_cdc.c ****             /* Do not handle this request unless callback is defined. */
 181:.\Generated_Source\PSoC5/USBUART_cdc.c ****             #ifdef USBUART_DISPATCH_CDC_CLASS_CDC_READ_REQUESTS_CALLBACK
 182:.\Generated_Source\PSoC5/USBUART_cdc.c ****                 requestHandled = USBUART_DispatchCDCClass_CDC_READ_REQUESTS_Callback();
 183:.\Generated_Source\PSoC5/USBUART_cdc.c ****             #endif /* (USBUART_DISPATCH_CDC_CLASS_CDC_READ_REQUESTS_CALLBACK) */
 184:.\Generated_Source\PSoC5/USBUART_cdc.c ****                 break;
 185:.\Generated_Source\PSoC5/USBUART_cdc.c ****         }
 186:.\Generated_Source\PSoC5/USBUART_cdc.c ****     }
 187:.\Generated_Source\PSoC5/USBUART_cdc.c ****     else
 188:.\Generated_Source\PSoC5/USBUART_cdc.c ****     {
 189:.\Generated_Source\PSoC5/USBUART_cdc.c ****         /* Handle direction from host to device. */
 190:.\Generated_Source\PSoC5/USBUART_cdc.c **** 
 191:.\Generated_Source\PSoC5/USBUART_cdc.c ****         switch (USBUART_bRequestReg)
 192:.\Generated_Source\PSoC5/USBUART_cdc.c ****         {
 193:.\Generated_Source\PSoC5/USBUART_cdc.c ****             case USBUART_CDC_SET_LINE_CODING:
 194:.\Generated_Source\PSoC5/USBUART_cdc.c ****                 USBUART_currentTD.count  = USBUART_LINE_CODING_SIZE;
 195:.\Generated_Source\PSoC5/USBUART_cdc.c ****                 USBUART_currentTD.pData  = USBUART_linesCoding[comPort];
 196:.\Generated_Source\PSoC5/USBUART_cdc.c ****                 USBUART_linesChanged[comPort] |= USBUART_LINE_CODING_CHANGED;
 197:.\Generated_Source\PSoC5/USBUART_cdc.c **** 
 198:.\Generated_Source\PSoC5/USBUART_cdc.c ****                 requestHandled = USBUART_InitControlWrite();
 199:.\Generated_Source\PSoC5/USBUART_cdc.c ****                 break;
 200:.\Generated_Source\PSoC5/USBUART_cdc.c **** 
 201:.\Generated_Source\PSoC5/USBUART_cdc.c ****             case USBUART_CDC_SET_CONTROL_LINE_STATE:
 202:.\Generated_Source\PSoC5/USBUART_cdc.c ****                 USBUART_linesControlBitmap[comPort] = (uint8) USBUART_wValueLoReg;
 203:.\Generated_Source\PSoC5/USBUART_cdc.c ****                 USBUART_linesChanged[comPort]      |= USBUART_LINE_CONTROL_CHANGED;
ARM GAS  C:\Users\student\AppData\Local\Temp\cckxTosa.s 			page 5


 204:.\Generated_Source\PSoC5/USBUART_cdc.c **** 
 205:.\Generated_Source\PSoC5/USBUART_cdc.c ****                 requestHandled = USBUART_InitNoDataControlTransfer();
 206:.\Generated_Source\PSoC5/USBUART_cdc.c ****                 break;
 207:.\Generated_Source\PSoC5/USBUART_cdc.c **** 
 208:.\Generated_Source\PSoC5/USBUART_cdc.c ****             /* `#START CDC_WRITE_REQUESTS` Place other request handler here */
 209:.\Generated_Source\PSoC5/USBUART_cdc.c **** 
 210:.\Generated_Source\PSoC5/USBUART_cdc.c ****             /* `#END` */
 211:.\Generated_Source\PSoC5/USBUART_cdc.c **** 
 212:.\Generated_Source\PSoC5/USBUART_cdc.c ****             default:
 213:.\Generated_Source\PSoC5/USBUART_cdc.c ****                 /* Do not handle this request unless callback is defined. */
 214:.\Generated_Source\PSoC5/USBUART_cdc.c ****             #ifdef USBUART_DISPATCH_CDC_CLASS_CDC_WRITE_REQUESTS_CALLBACK
 215:.\Generated_Source\PSoC5/USBUART_cdc.c ****                 requestHandled = USBUART_DispatchCDCClass_CDC_WRITE_REQUESTS_Callback();
 216:.\Generated_Source\PSoC5/USBUART_cdc.c ****             #endif /* (USBUART_DISPATCH_CDC_CLASS_CDC_WRITE_REQUESTS_CALLBACK) */
 217:.\Generated_Source\PSoC5/USBUART_cdc.c ****                 break;
 218:.\Generated_Source\PSoC5/USBUART_cdc.c ****         }
 219:.\Generated_Source\PSoC5/USBUART_cdc.c ****     }
 220:.\Generated_Source\PSoC5/USBUART_cdc.c **** 
 221:.\Generated_Source\PSoC5/USBUART_cdc.c ****     return(requestHandled);
 222:.\Generated_Source\PSoC5/USBUART_cdc.c **** }
 223:.\Generated_Source\PSoC5/USBUART_cdc.c **** 
 224:.\Generated_Source\PSoC5/USBUART_cdc.c **** 
 225:.\Generated_Source\PSoC5/USBUART_cdc.c **** /***************************************************************************
 226:.\Generated_Source\PSoC5/USBUART_cdc.c **** * Function Name: USBUART_GetInterfaceComPort
 227:.\Generated_Source\PSoC5/USBUART_cdc.c **** ************************************************************************//**
 228:.\Generated_Source\PSoC5/USBUART_cdc.c **** *   \internal
 229:.\Generated_Source\PSoC5/USBUART_cdc.c **** *  Internal function which gets number of COM port by specified interface
 230:.\Generated_Source\PSoC5/USBUART_cdc.c **** *   number.
 231:.\Generated_Source\PSoC5/USBUART_cdc.c **** *
 232:.\Generated_Source\PSoC5/USBUART_cdc.c **** * \param uint8 interface
 233:.\Generated_Source\PSoC5/USBUART_cdc.c **** *  Interface number
 234:.\Generated_Source\PSoC5/USBUART_cdc.c **** *
 235:.\Generated_Source\PSoC5/USBUART_cdc.c **** * \return
 236:.\Generated_Source\PSoC5/USBUART_cdc.c **** *  COM port number (0 or 1) or error 0xFF
 237:.\Generated_Source\PSoC5/USBUART_cdc.c **** *
 238:.\Generated_Source\PSoC5/USBUART_cdc.c **** ***************************************************************************/
 239:.\Generated_Source\PSoC5/USBUART_cdc.c **** uint8 USBUART_GetInterfaceComPort(uint8 interface) 
 240:.\Generated_Source\PSoC5/USBUART_cdc.c **** {
 241:.\Generated_Source\PSoC5/USBUART_cdc.c ****     uint8 comPort = 0u;
 242:.\Generated_Source\PSoC5/USBUART_cdc.c ****     uint8 res = 0xFFu;
 243:.\Generated_Source\PSoC5/USBUART_cdc.c ****     uint8 notEp;
 244:.\Generated_Source\PSoC5/USBUART_cdc.c **** 
 245:.\Generated_Source\PSoC5/USBUART_cdc.c ****     while (comPort < USBUART_MAX_MULTI_COM_NUM)
 246:.\Generated_Source\PSoC5/USBUART_cdc.c ****     {
 247:.\Generated_Source\PSoC5/USBUART_cdc.c ****         notEp = USBUART_cdcCommInInterruptEp[comPort];
 248:.\Generated_Source\PSoC5/USBUART_cdc.c **** 
 249:.\Generated_Source\PSoC5/USBUART_cdc.c ****         if (USBUART_EP[notEp].interface == interface)
 250:.\Generated_Source\PSoC5/USBUART_cdc.c ****         {
 251:.\Generated_Source\PSoC5/USBUART_cdc.c ****             res = comPort;
 252:.\Generated_Source\PSoC5/USBUART_cdc.c ****             comPort = USBUART_MAX_MULTI_COM_NUM;
 253:.\Generated_Source\PSoC5/USBUART_cdc.c ****         }
 254:.\Generated_Source\PSoC5/USBUART_cdc.c **** 
 255:.\Generated_Source\PSoC5/USBUART_cdc.c ****         comPort++;
 256:.\Generated_Source\PSoC5/USBUART_cdc.c ****     }
 257:.\Generated_Source\PSoC5/USBUART_cdc.c ****     return (res);
 258:.\Generated_Source\PSoC5/USBUART_cdc.c **** }
 259:.\Generated_Source\PSoC5/USBUART_cdc.c **** 
 260:.\Generated_Source\PSoC5/USBUART_cdc.c **** 
ARM GAS  C:\Users\student\AppData\Local\Temp\cckxTosa.s 			page 6


 261:.\Generated_Source\PSoC5/USBUART_cdc.c **** /***************************************
 262:.\Generated_Source\PSoC5/USBUART_cdc.c **** * Optional CDC APIs
 263:.\Generated_Source\PSoC5/USBUART_cdc.c **** ***************************************/
 264:.\Generated_Source\PSoC5/USBUART_cdc.c **** #if (USBUART_ENABLE_CDC_CLASS_API != 0u)
 265:.\Generated_Source\PSoC5/USBUART_cdc.c **** /***************************************************************************
 266:.\Generated_Source\PSoC5/USBUART_cdc.c **** * Function Name: USBUART_CDC_Init
 267:.\Generated_Source\PSoC5/USBUART_cdc.c **** ************************************************************************//**
 268:.\Generated_Source\PSoC5/USBUART_cdc.c **** *
 269:.\Generated_Source\PSoC5/USBUART_cdc.c **** *  This function initializes the CDC interface to be ready to receive data
 270:.\Generated_Source\PSoC5/USBUART_cdc.c **** *  from the PC. The API set active communication port to 0 in the case of 
 271:.\Generated_Source\PSoC5/USBUART_cdc.c **** *  multiple communication port support.This API should be called after the 
 272:.\Generated_Source\PSoC5/USBUART_cdc.c **** *  device has been started and configured using USBUART_Start() API to 
 273:.\Generated_Source\PSoC5/USBUART_cdc.c **** *  initialize and start the USBFS component operation. Then call the 
 274:.\Generated_Source\PSoC5/USBUART_cdc.c **** *  USBUART_GetConfiguration() API to wait until the host has enumerated and 
 275:.\Generated_Source\PSoC5/USBUART_cdc.c **** *  configured the device. For example:
 276:.\Generated_Source\PSoC5/USBUART_cdc.c **** *
 277:.\Generated_Source\PSoC5/USBUART_cdc.c **** *  \snippet /USBFS_sut_02.cydsn/main.c wait for enumeration
 278:.\Generated_Source\PSoC5/USBUART_cdc.c **** *
 279:.\Generated_Source\PSoC5/USBUART_cdc.c **** * \return
 280:.\Generated_Source\PSoC5/USBUART_cdc.c **** *  cystatus:
 281:.\Generated_Source\PSoC5/USBUART_cdc.c **** *   Return Value    Description
 282:.\Generated_Source\PSoC5/USBUART_cdc.c **** *   USBUART_SUCCESS   CDC interface was initialized correctly
 283:.\Generated_Source\PSoC5/USBUART_cdc.c **** *   USBUART_FAILURE   CDC interface was not initialized
 284:.\Generated_Source\PSoC5/USBUART_cdc.c **** *
 285:.\Generated_Source\PSoC5/USBUART_cdc.c **** * \globalvars
 286:.\Generated_Source\PSoC5/USBUART_cdc.c **** *   USBUART_linesChanged: Initialized to zero.
 287:.\Generated_Source\PSoC5/USBUART_cdc.c **** *   USBUART_cdcDataOutEp: Used as an OUT endpoint number.
 288:.\Generated_Source\PSoC5/USBUART_cdc.c **** *
 289:.\Generated_Source\PSoC5/USBUART_cdc.c **** * \reentrant
 290:.\Generated_Source\PSoC5/USBUART_cdc.c **** *  No.
 291:.\Generated_Source\PSoC5/USBUART_cdc.c **** *
 292:.\Generated_Source\PSoC5/USBUART_cdc.c **** *******************************************************************************/
 293:.\Generated_Source\PSoC5/USBUART_cdc.c **** uint8 USBUART_CDC_Init(void) 
 294:.\Generated_Source\PSoC5/USBUART_cdc.c **** {
 295:.\Generated_Source\PSoC5/USBUART_cdc.c ****     uint8 comPort;
 296:.\Generated_Source\PSoC5/USBUART_cdc.c ****     uint8 outEp;
 297:.\Generated_Source\PSoC5/USBUART_cdc.c ****     uint8 ret = USBUART_SUCCESS;
 298:.\Generated_Source\PSoC5/USBUART_cdc.c **** 
 299:.\Generated_Source\PSoC5/USBUART_cdc.c ****     USBUART_activeCom = 0u;
 300:.\Generated_Source\PSoC5/USBUART_cdc.c ****     USBUART_linesChanged[USBUART_COM_PORT1] = 0u;
 301:.\Generated_Source\PSoC5/USBUART_cdc.c ****     USBUART_linesChanged[USBUART_COM_PORT2] = 0u;
 302:.\Generated_Source\PSoC5/USBUART_cdc.c **** 
 303:.\Generated_Source\PSoC5/USBUART_cdc.c ****     for(comPort = 0u; comPort<USBUART_MAX_MULTI_COM_NUM; comPort++)
 304:.\Generated_Source\PSoC5/USBUART_cdc.c ****     {
 305:.\Generated_Source\PSoC5/USBUART_cdc.c ****         outEp = USBUART_cdcDataOutEp[comPort];
 306:.\Generated_Source\PSoC5/USBUART_cdc.c ****         if((0u != outEp) && (USBUART_MAX_EP > outEp))
 307:.\Generated_Source\PSoC5/USBUART_cdc.c ****         {
 308:.\Generated_Source\PSoC5/USBUART_cdc.c ****             USBUART_EnableOutEP(outEp);
 309:.\Generated_Source\PSoC5/USBUART_cdc.c ****         }
 310:.\Generated_Source\PSoC5/USBUART_cdc.c **** 
 311:.\Generated_Source\PSoC5/USBUART_cdc.c ****     }
 312:.\Generated_Source\PSoC5/USBUART_cdc.c **** 
 313:.\Generated_Source\PSoC5/USBUART_cdc.c ****     /* COM Port 1 should be correct to proceed. */
 314:.\Generated_Source\PSoC5/USBUART_cdc.c ****     if ((0u == USBUART_cdcDataInEp[USBUART_COM_PORT1]) \
 315:.\Generated_Source\PSoC5/USBUART_cdc.c ****             || (0u == USBUART_cdcDataOutEp[USBUART_COM_PORT1]) \
 316:.\Generated_Source\PSoC5/USBUART_cdc.c ****             || (0u ==  USBUART_cdcCommInInterruptEp[USBUART_COM_PORT1])
 317:.\Generated_Source\PSoC5/USBUART_cdc.c ****             || (USBUART_cdcDataInEp[USBUART_COM_PORT1] >= USBUART_MAX_EP)
ARM GAS  C:\Users\student\AppData\Local\Temp\cckxTosa.s 			page 7


 318:.\Generated_Source\PSoC5/USBUART_cdc.c ****             || (USBUART_cdcDataOutEp[USBUART_COM_PORT1] >= USBUART_MAX_EP)
 319:.\Generated_Source\PSoC5/USBUART_cdc.c ****             || (USBUART_cdcCommInInterruptEp[USBUART_COM_PORT1] >= USBUART_MAX_EP))
 320:.\Generated_Source\PSoC5/USBUART_cdc.c ****     {
 321:.\Generated_Source\PSoC5/USBUART_cdc.c ****         ret = USBUART_FAILURE;
 322:.\Generated_Source\PSoC5/USBUART_cdc.c ****     }
 323:.\Generated_Source\PSoC5/USBUART_cdc.c **** 
 324:.\Generated_Source\PSoC5/USBUART_cdc.c ****     return (ret);
 325:.\Generated_Source\PSoC5/USBUART_cdc.c **** }
 326:.\Generated_Source\PSoC5/USBUART_cdc.c **** 
 327:.\Generated_Source\PSoC5/USBUART_cdc.c **** 
 328:.\Generated_Source\PSoC5/USBUART_cdc.c **** /*******************************************************************************
 329:.\Generated_Source\PSoC5/USBUART_cdc.c **** * Function Name: USBUART_PutData
 330:.\Generated_Source\PSoC5/USBUART_cdc.c **** ****************************************************************************//**
 331:.\Generated_Source\PSoC5/USBUART_cdc.c **** *
 332:.\Generated_Source\PSoC5/USBUART_cdc.c **** *  This function sends a specified number of bytes from the location specified
 333:.\Generated_Source\PSoC5/USBUART_cdc.c **** *  by a pointer to the PC. The USBUART_CDCIsReady() function should be
 334:.\Generated_Source\PSoC5/USBUART_cdc.c **** *  called before sending new data, to be sure that the previous data has
 335:.\Generated_Source\PSoC5/USBUART_cdc.c **** *  finished sending.
 336:.\Generated_Source\PSoC5/USBUART_cdc.c **** *  If the last sent packet is less than maximum packet size the USB transfer
 337:.\Generated_Source\PSoC5/USBUART_cdc.c **** *  of this short packet will identify the end of the segment. If the last sent
 338:.\Generated_Source\PSoC5/USBUART_cdc.c **** *  packet is exactly maximum packet size, it shall be followed by a zero-length
 339:.\Generated_Source\PSoC5/USBUART_cdc.c **** *  packet (which is a short packet) to assure the end of segment is properly
 340:.\Generated_Source\PSoC5/USBUART_cdc.c **** *  identified. To send zero-length packet, use USBUART_PutData() API
 341:.\Generated_Source\PSoC5/USBUART_cdc.c **** *  with length parameter set to zero.
 342:.\Generated_Source\PSoC5/USBUART_cdc.c **** *
 343:.\Generated_Source\PSoC5/USBUART_cdc.c **** *  \param pData: pointer to the buffer containing data to be sent.
 344:.\Generated_Source\PSoC5/USBUART_cdc.c **** *  \param length: Specifies the number of bytes to send from the pData
 345:.\Generated_Source\PSoC5/USBUART_cdc.c **** *  buffer. Maximum length will be limited by the maximum packet
 346:.\Generated_Source\PSoC5/USBUART_cdc.c **** *  size for the endpoint. Data will be lost if length is greater than Max
 347:.\Generated_Source\PSoC5/USBUART_cdc.c **** *  Packet Size.
 348:.\Generated_Source\PSoC5/USBUART_cdc.c **** *
 349:.\Generated_Source\PSoC5/USBUART_cdc.c **** * \globalvars
 350:.\Generated_Source\PSoC5/USBUART_cdc.c **** *
 351:.\Generated_Source\PSoC5/USBUART_cdc.c **** *   USBUART_cdcDataInEp: CDC IN endpoint number used for sending
 352:.\Generated_Source\PSoC5/USBUART_cdc.c **** *     data.
 353:.\Generated_Source\PSoC5/USBUART_cdc.c **** *
 354:.\Generated_Source\PSoC5/USBUART_cdc.c **** * \reentrant
 355:.\Generated_Source\PSoC5/USBUART_cdc.c **** *  No.
 356:.\Generated_Source\PSoC5/USBUART_cdc.c **** *
 357:.\Generated_Source\PSoC5/USBUART_cdc.c **** *******************************************************************************/
 358:.\Generated_Source\PSoC5/USBUART_cdc.c **** void USBUART_PutData(const uint8* pData, uint16 length) 
 359:.\Generated_Source\PSoC5/USBUART_cdc.c **** {
 360:.\Generated_Source\PSoC5/USBUART_cdc.c ****     uint8 epNumber = USBUART_cdcDataInEp[USBUART_activeCom];
 361:.\Generated_Source\PSoC5/USBUART_cdc.c **** 
 362:.\Generated_Source\PSoC5/USBUART_cdc.c ****     /* Limit length to maximum packet size for endpoint. */
 363:.\Generated_Source\PSoC5/USBUART_cdc.c ****     if (length > USBUART_EP[epNumber].bufferSize)
 364:.\Generated_Source\PSoC5/USBUART_cdc.c ****     {
 365:.\Generated_Source\PSoC5/USBUART_cdc.c ****         /* Caution: Data will be lost if length is greater than Max Packet Size. */
 366:.\Generated_Source\PSoC5/USBUART_cdc.c ****         length = USBUART_EP[epNumber].bufferSize;
 367:.\Generated_Source\PSoC5/USBUART_cdc.c **** 
 368:.\Generated_Source\PSoC5/USBUART_cdc.c ****         /* Halt CPU in debug mode */
 369:.\Generated_Source\PSoC5/USBUART_cdc.c ****         CYASSERT(0u != 0u);
 370:.\Generated_Source\PSoC5/USBUART_cdc.c ****     }
 371:.\Generated_Source\PSoC5/USBUART_cdc.c **** 
 372:.\Generated_Source\PSoC5/USBUART_cdc.c ****     USBUART_LoadInEP(epNumber, pData, length);
 373:.\Generated_Source\PSoC5/USBUART_cdc.c **** }
 374:.\Generated_Source\PSoC5/USBUART_cdc.c **** 
ARM GAS  C:\Users\student\AppData\Local\Temp\cckxTosa.s 			page 8


 375:.\Generated_Source\PSoC5/USBUART_cdc.c **** 
 376:.\Generated_Source\PSoC5/USBUART_cdc.c **** /*******************************************************************************
 377:.\Generated_Source\PSoC5/USBUART_cdc.c **** * Function Name: USBUART_StrLen
 378:.\Generated_Source\PSoC5/USBUART_cdc.c **** ****************************************************************************//**
 379:.\Generated_Source\PSoC5/USBUART_cdc.c **** *
 380:.\Generated_Source\PSoC5/USBUART_cdc.c **** *  Calculates length of a null terminated string.
 381:.\Generated_Source\PSoC5/USBUART_cdc.c **** *
 382:.\Generated_Source\PSoC5/USBUART_cdc.c **** *  \param string: pointer to the string.
 383:.\Generated_Source\PSoC5/USBUART_cdc.c **** *
 384:.\Generated_Source\PSoC5/USBUART_cdc.c **** * \return
 385:.\Generated_Source\PSoC5/USBUART_cdc.c **** *  Length of the string
 386:.\Generated_Source\PSoC5/USBUART_cdc.c **** *
 387:.\Generated_Source\PSoC5/USBUART_cdc.c **** *******************************************************************************/
 388:.\Generated_Source\PSoC5/USBUART_cdc.c **** static uint16 USBUART_StrLen(const char8 string[]) 
 389:.\Generated_Source\PSoC5/USBUART_cdc.c **** {
  26              		.loc 1 389 0
  27              		.cfi_startproc
  28              		@ args = 0, pretend = 0, frame = 0
  29              		@ frame_needed = 0, uses_anonymous_args = 0
  30              		@ link register save eliminated.
  31              	.LVL0:
  32 0000 0246     		mov	r2, r0
  33              	.LVL1:
 390:.\Generated_Source\PSoC5/USBUART_cdc.c ****     uint16 len = 0u;
  34              		.loc 1 390 0
  35 0002 0020     		movs	r0, #0
  36              	.LVL2:
 391:.\Generated_Source\PSoC5/USBUART_cdc.c **** 
 392:.\Generated_Source\PSoC5/USBUART_cdc.c ****     while (string[len] != (char8)0)
  37              		.loc 1 392 0
  38 0004 01E0     		b	.L2
  39              	.LVL3:
  40              	.L3:
 393:.\Generated_Source\PSoC5/USBUART_cdc.c ****     {
 394:.\Generated_Source\PSoC5/USBUART_cdc.c ****         len++;
  41              		.loc 1 394 0
  42 0006 0130     		adds	r0, r0, #1
  43              	.LVL4:
  44 0008 80B2     		uxth	r0, r0
  45              	.LVL5:
  46              	.L2:
 392:.\Generated_Source\PSoC5/USBUART_cdc.c ****     {
  47              		.loc 1 392 0
  48 000a 135C     		ldrb	r3, [r2, r0]	@ zero_extendqisi2
  49 000c 002B     		cmp	r3, #0
  50 000e FAD1     		bne	.L3
 395:.\Generated_Source\PSoC5/USBUART_cdc.c ****     }
 396:.\Generated_Source\PSoC5/USBUART_cdc.c **** 
 397:.\Generated_Source\PSoC5/USBUART_cdc.c ****     return ((uint16) len);
 398:.\Generated_Source\PSoC5/USBUART_cdc.c **** }
  51              		.loc 1 398 0
  52 0010 7047     		bx	lr
  53              		.cfi_endproc
  54              	.LFE4:
  55              		.size	USBUART_StrLen, .-USBUART_StrLen
  56 0012 00BF     		.section	.text.USBUART_GetInterfaceComPort,"ax",%progbits
  57              		.align	2
ARM GAS  C:\Users\student\AppData\Local\Temp\cckxTosa.s 			page 9


  58              		.global	USBUART_GetInterfaceComPort
  59              		.thumb
  60              		.thumb_func
  61              		.type	USBUART_GetInterfaceComPort, %function
  62              	USBUART_GetInterfaceComPort:
  63              	.LFB1:
 240:.\Generated_Source\PSoC5/USBUART_cdc.c ****     uint8 comPort = 0u;
  64              		.loc 1 240 0
  65              		.cfi_startproc
  66              		@ args = 0, pretend = 0, frame = 0
  67              		@ frame_needed = 0, uses_anonymous_args = 0
  68              		@ link register save eliminated.
  69              	.LVL6:
  70 0000 10B4     		push	{r4}
  71              		.cfi_def_cfa_offset 4
  72              		.cfi_offset 4, -4
  73              	.LVL7:
 242:.\Generated_Source\PSoC5/USBUART_cdc.c ****     uint8 notEp;
  74              		.loc 1 242 0
  75 0002 FF24     		movs	r4, #255
 241:.\Generated_Source\PSoC5/USBUART_cdc.c ****     uint8 res = 0xFFu;
  76              		.loc 1 241 0
  77 0004 0022     		movs	r2, #0
 245:.\Generated_Source\PSoC5/USBUART_cdc.c ****     {
  78              		.loc 1 245 0
  79 0006 0EE0     		b	.L5
  80              	.LVL8:
  81              	.L7:
 247:.\Generated_Source\PSoC5/USBUART_cdc.c **** 
  82              		.loc 1 247 0
  83 0008 0A4B     		ldr	r3, .L10
  84 000a 9B5C     		ldrb	r3, [r3, r2]	@ zero_extendqisi2
  85              	.LVL9:
 249:.\Generated_Source\PSoC5/USBUART_cdc.c ****         {
  86              		.loc 1 249 0
  87 000c 03EB4303 		add	r3, r3, r3, lsl #1
  88              	.LVL10:
  89 0010 9B00     		lsls	r3, r3, #2
  90 0012 0949     		ldr	r1, .L10+4
  91 0014 0B44     		add	r3, r3, r1
  92 0016 9B78     		ldrb	r3, [r3, #2]	@ zero_extendqisi2
  93 0018 DBB2     		uxtb	r3, r3
  94 001a 8342     		cmp	r3, r0
  95 001c 01D1     		bne	.L6
 251:.\Generated_Source\PSoC5/USBUART_cdc.c ****             comPort = USBUART_MAX_MULTI_COM_NUM;
  96              		.loc 1 251 0
  97 001e 1446     		mov	r4, r2
  98              	.LVL11:
 252:.\Generated_Source\PSoC5/USBUART_cdc.c ****         }
  99              		.loc 1 252 0
 100 0020 0222     		movs	r2, #2
 101              	.LVL12:
 102              	.L6:
 255:.\Generated_Source\PSoC5/USBUART_cdc.c ****     }
 103              		.loc 1 255 0
 104 0022 0132     		adds	r2, r2, #1
 105              	.LVL13:
ARM GAS  C:\Users\student\AppData\Local\Temp\cckxTosa.s 			page 10


 106 0024 D2B2     		uxtb	r2, r2
 107              	.LVL14:
 108              	.L5:
 245:.\Generated_Source\PSoC5/USBUART_cdc.c ****     {
 109              		.loc 1 245 0
 110 0026 012A     		cmp	r2, #1
 111 0028 EED9     		bls	.L7
 258:.\Generated_Source\PSoC5/USBUART_cdc.c **** 
 112              		.loc 1 258 0
 113 002a 2046     		mov	r0, r4
 114              	.LVL15:
 115 002c 5DF8044B 		ldr	r4, [sp], #4
 116              		.cfi_restore 4
 117              		.cfi_def_cfa_offset 0
 118              	.LVL16:
 119 0030 7047     		bx	lr
 120              	.L11:
 121 0032 00BF     		.align	2
 122              	.L10:
 123 0034 00000000 		.word	USBUART_cdcCommInInterruptEp
 124 0038 08000000 		.word	USBUART_EP+8
 125              		.cfi_endproc
 126              	.LFE1:
 127              		.size	USBUART_GetInterfaceComPort, .-USBUART_GetInterfaceComPort
 128              		.section	.text.USBUART_DispatchCDCClassRqst,"ax",%progbits
 129              		.align	2
 130              		.global	USBUART_DispatchCDCClassRqst
 131              		.thumb
 132              		.thumb_func
 133              		.type	USBUART_DispatchCDCClassRqst, %function
 134              	USBUART_DispatchCDCClassRqst:
 135              	.LFB0:
 156:.\Generated_Source\PSoC5/USBUART_cdc.c ****     uint8 requestHandled = USBUART_FALSE;
 136              		.loc 1 156 0
 137              		.cfi_startproc
 138              		@ args = 0, pretend = 0, frame = 0
 139              		@ frame_needed = 0, uses_anonymous_args = 0
 140 0000 10B5     		push	{r4, lr}
 141              		.cfi_def_cfa_offset 8
 142              		.cfi_offset 4, -8
 143              		.cfi_offset 14, -4
 144              	.LVL17:
 160:.\Generated_Source\PSoC5/USBUART_cdc.c **** 
 145              		.loc 1 160 0
 146 0002 204C     		ldr	r4, .L23
 147 0004 2079     		ldrb	r0, [r4, #4]	@ zero_extendqisi2
 148 0006 FFF7FEFF 		bl	USBUART_GetInterfaceComPort
 149              	.LVL18:
 163:.\Generated_Source\PSoC5/USBUART_cdc.c ****     {
 150              		.loc 1 163 0
 151 000a 2378     		ldrb	r3, [r4]	@ zero_extendqisi2
 152 000c 13F0800F 		tst	r3, #128
 153 0010 0ED0     		beq	.L13
 167:.\Generated_Source\PSoC5/USBUART_cdc.c ****         {
 154              		.loc 1 167 0
 155 0012 6378     		ldrb	r3, [r4, #1]	@ zero_extendqisi2
 156 0014 DBB2     		uxtb	r3, r3
ARM GAS  C:\Users\student\AppData\Local\Temp\cckxTosa.s 			page 11


 157 0016 212B     		cmp	r3, #33
 158 0018 2FD1     		bne	.L20
 170:.\Generated_Source\PSoC5/USBUART_cdc.c ****                 USBUART_currentTD.pData = USBUART_linesCoding[comPort];
 159              		.loc 1 170 0
 160 001a 1B4B     		ldr	r3, .L23+4
 161 001c 0722     		movs	r2, #7
 162 001e 1A80     		strh	r2, [r3]	@ movhi
 171:.\Generated_Source\PSoC5/USBUART_cdc.c ****                 requestHandled  = USBUART_InitControlRead();
 163              		.loc 1 171 0
 164 0020 C0EBC000 		rsb	r0, r0, r0, lsl #3
 165              	.LVL19:
 166 0024 194A     		ldr	r2, .L23+8
 167 0026 1044     		add	r0, r0, r2
 168 0028 5860     		str	r0, [r3, #4]
 172:.\Generated_Source\PSoC5/USBUART_cdc.c ****                 break;
 169              		.loc 1 172 0
 170 002a FFF7FEFF 		bl	USBUART_InitControlRead
 171              	.LVL20:
 173:.\Generated_Source\PSoC5/USBUART_cdc.c **** 
 172              		.loc 1 173 0
 173 002e 10BD     		pop	{r4, pc}
 174              	.LVL21:
 175              	.L13:
 191:.\Generated_Source\PSoC5/USBUART_cdc.c ****         {
 176              		.loc 1 191 0
 177 0030 144B     		ldr	r3, .L23
 178 0032 5B78     		ldrb	r3, [r3, #1]	@ zero_extendqisi2
 179 0034 DBB2     		uxtb	r3, r3
 180 0036 202B     		cmp	r3, #32
 181 0038 02D0     		beq	.L16
 182 003a 222B     		cmp	r3, #34
 183 003c 10D0     		beq	.L17
 184 003e 1EE0     		b	.L21
 185              	.L16:
 194:.\Generated_Source\PSoC5/USBUART_cdc.c ****                 USBUART_currentTD.pData  = USBUART_linesCoding[comPort];
 186              		.loc 1 194 0
 187 0040 114A     		ldr	r2, .L23+4
 188 0042 0723     		movs	r3, #7
 189 0044 1380     		strh	r3, [r2]	@ movhi
 195:.\Generated_Source\PSoC5/USBUART_cdc.c ****                 USBUART_linesChanged[comPort] |= USBUART_LINE_CODING_CHANGED;
 190              		.loc 1 195 0
 191 0046 C0EBC003 		rsb	r3, r0, r0, lsl #3
 192 004a 1049     		ldr	r1, .L23+8
 193 004c 0B44     		add	r3, r3, r1
 194 004e 5360     		str	r3, [r2, #4]
 196:.\Generated_Source\PSoC5/USBUART_cdc.c **** 
 195              		.loc 1 196 0
 196 0050 0F4A     		ldr	r2, .L23+12
 197 0052 135C     		ldrb	r3, [r2, r0]	@ zero_extendqisi2
 198 0054 43F00103 		orr	r3, r3, #1
 199 0058 1354     		strb	r3, [r2, r0]
 198:.\Generated_Source\PSoC5/USBUART_cdc.c ****                 break;
 200              		.loc 1 198 0
 201 005a FFF7FEFF 		bl	USBUART_InitControlWrite
 202              	.LVL22:
 199:.\Generated_Source\PSoC5/USBUART_cdc.c **** 
 203              		.loc 1 199 0
ARM GAS  C:\Users\student\AppData\Local\Temp\cckxTosa.s 			page 12


 204 005e 10BD     		pop	{r4, pc}
 205              	.LVL23:
 206              	.L17:
 202:.\Generated_Source\PSoC5/USBUART_cdc.c ****                 USBUART_linesChanged[comPort]      |= USBUART_LINE_CONTROL_CHANGED;
 207              		.loc 1 202 0
 208 0060 084B     		ldr	r3, .L23
 209 0062 9B78     		ldrb	r3, [r3, #2]	@ zero_extendqisi2
 210 0064 0B4A     		ldr	r2, .L23+16
 211 0066 22F81030 		strh	r3, [r2, r0, lsl #1]	@ movhi
 203:.\Generated_Source\PSoC5/USBUART_cdc.c **** 
 212              		.loc 1 203 0
 213 006a 094A     		ldr	r2, .L23+12
 214 006c 135C     		ldrb	r3, [r2, r0]	@ zero_extendqisi2
 215 006e 43F00203 		orr	r3, r3, #2
 216 0072 1354     		strb	r3, [r2, r0]
 205:.\Generated_Source\PSoC5/USBUART_cdc.c ****                 break;
 217              		.loc 1 205 0
 218 0074 FFF7FEFF 		bl	USBUART_InitNoDataControlTransfer
 219              	.LVL24:
 206:.\Generated_Source\PSoC5/USBUART_cdc.c **** 
 220              		.loc 1 206 0
 221 0078 10BD     		pop	{r4, pc}
 222              	.LVL25:
 223              	.L20:
 157:.\Generated_Source\PSoC5/USBUART_cdc.c ****     uint8 comPort;
 224              		.loc 1 157 0
 225 007a 0020     		movs	r0, #0
 226              	.LVL26:
 227 007c 10BD     		pop	{r4, pc}
 228              	.LVL27:
 229              	.L21:
 230 007e 0020     		movs	r0, #0
 231              	.LVL28:
 222:.\Generated_Source\PSoC5/USBUART_cdc.c **** 
 232              		.loc 1 222 0
 233 0080 10BD     		pop	{r4, pc}
 234              	.L24:
 235 0082 00BF     		.align	2
 236              	.L23:
 237 0084 00600040 		.word	1073766400
 238 0088 00000000 		.word	USBUART_currentTD
 239 008c 00000000 		.word	.LANCHOR0
 240 0090 00000000 		.word	USBUART_linesChanged
 241 0094 00000000 		.word	USBUART_linesControlBitmap
 242              		.cfi_endproc
 243              	.LFE0:
 244              		.size	USBUART_DispatchCDCClassRqst, .-USBUART_DispatchCDCClassRqst
 245              		.section	.text.USBUART_CDC_Init,"ax",%progbits
 246              		.align	2
 247              		.global	USBUART_CDC_Init
 248              		.thumb
 249              		.thumb_func
 250              		.type	USBUART_CDC_Init, %function
 251              	USBUART_CDC_Init:
 252              	.LFB2:
 294:.\Generated_Source\PSoC5/USBUART_cdc.c ****     uint8 comPort;
 253              		.loc 1 294 0
ARM GAS  C:\Users\student\AppData\Local\Temp\cckxTosa.s 			page 13


 254              		.cfi_startproc
 255              		@ args = 0, pretend = 0, frame = 0
 256              		@ frame_needed = 0, uses_anonymous_args = 0
 257 0000 10B5     		push	{r4, lr}
 258              		.cfi_def_cfa_offset 8
 259              		.cfi_offset 4, -8
 260              		.cfi_offset 14, -4
 261              	.LVL29:
 299:.\Generated_Source\PSoC5/USBUART_cdc.c ****     USBUART_linesChanged[USBUART_COM_PORT1] = 0u;
 262              		.loc 1 299 0
 263 0002 0024     		movs	r4, #0
 264 0004 1F4B     		ldr	r3, .L37
 265 0006 1C70     		strb	r4, [r3]
 300:.\Generated_Source\PSoC5/USBUART_cdc.c ****     USBUART_linesChanged[USBUART_COM_PORT2] = 0u;
 266              		.loc 1 300 0
 267 0008 1F4B     		ldr	r3, .L37+4
 268 000a 1C70     		strb	r4, [r3]
 301:.\Generated_Source\PSoC5/USBUART_cdc.c **** 
 269              		.loc 1 301 0
 270 000c 5C70     		strb	r4, [r3, #1]
 271              	.LVL30:
 303:.\Generated_Source\PSoC5/USBUART_cdc.c ****     {
 272              		.loc 1 303 0
 273 000e 0AE0     		b	.L26
 274              	.LVL31:
 275              	.L28:
 305:.\Generated_Source\PSoC5/USBUART_cdc.c ****         if((0u != outEp) && (USBUART_MAX_EP > outEp))
 276              		.loc 1 305 0
 277 0010 1E4B     		ldr	r3, .L37+8
 278 0012 185D     		ldrb	r0, [r3, r4]	@ zero_extendqisi2
 279 0014 C0B2     		uxtb	r0, r0
 280              	.LVL32:
 306:.\Generated_Source\PSoC5/USBUART_cdc.c ****         {
 281              		.loc 1 306 0
 282 0016 431E     		subs	r3, r0, #1
 283 0018 DBB2     		uxtb	r3, r3
 284 001a 072B     		cmp	r3, #7
 285 001c 01D8     		bhi	.L27
 308:.\Generated_Source\PSoC5/USBUART_cdc.c ****         }
 286              		.loc 1 308 0
 287 001e FFF7FEFF 		bl	USBUART_EnableOutEP
 288              	.LVL33:
 289              	.L27:
 303:.\Generated_Source\PSoC5/USBUART_cdc.c ****     {
 290              		.loc 1 303 0 discriminator 2
 291 0022 0134     		adds	r4, r4, #1
 292              	.LVL34:
 293 0024 E4B2     		uxtb	r4, r4
 294              	.LVL35:
 295              	.L26:
 303:.\Generated_Source\PSoC5/USBUART_cdc.c ****     {
 296              		.loc 1 303 0 is_stmt 0 discriminator 1
 297 0026 012C     		cmp	r4, #1
 298 0028 F2D9     		bls	.L28
 314:.\Generated_Source\PSoC5/USBUART_cdc.c ****             || (0u == USBUART_cdcDataOutEp[USBUART_COM_PORT1]) \
 299              		.loc 1 314 0 is_stmt 1
 300 002a 194B     		ldr	r3, .L37+12
ARM GAS  C:\Users\student\AppData\Local\Temp\cckxTosa.s 			page 14


 301 002c 1B78     		ldrb	r3, [r3]	@ zero_extendqisi2
 302 002e 13F0FF0F 		tst	r3, #255
 303 0032 1AD0     		beq	.L30
 315:.\Generated_Source\PSoC5/USBUART_cdc.c ****             || (0u ==  USBUART_cdcCommInInterruptEp[USBUART_COM_PORT1])
 304              		.loc 1 315 0
 305 0034 154B     		ldr	r3, .L37+8
 306 0036 1B78     		ldrb	r3, [r3]	@ zero_extendqisi2
 307 0038 13F0FF0F 		tst	r3, #255
 308 003c 17D0     		beq	.L31
 316:.\Generated_Source\PSoC5/USBUART_cdc.c ****             || (USBUART_cdcDataInEp[USBUART_COM_PORT1] >= USBUART_MAX_EP)
 309              		.loc 1 316 0
 310 003e 154B     		ldr	r3, .L37+16
 311 0040 1B78     		ldrb	r3, [r3]	@ zero_extendqisi2
 312 0042 13F0FF0F 		tst	r3, #255
 313 0046 14D0     		beq	.L32
 317:.\Generated_Source\PSoC5/USBUART_cdc.c ****             || (USBUART_cdcDataOutEp[USBUART_COM_PORT1] >= USBUART_MAX_EP)
 314              		.loc 1 317 0
 315 0048 114B     		ldr	r3, .L37+12
 316 004a 1B78     		ldrb	r3, [r3]	@ zero_extendqisi2
 317 004c DBB2     		uxtb	r3, r3
 318 004e 082B     		cmp	r3, #8
 319 0050 11D8     		bhi	.L33
 318:.\Generated_Source\PSoC5/USBUART_cdc.c ****             || (USBUART_cdcCommInInterruptEp[USBUART_COM_PORT1] >= USBUART_MAX_EP))
 320              		.loc 1 318 0
 321 0052 0E4B     		ldr	r3, .L37+8
 322 0054 1B78     		ldrb	r3, [r3]	@ zero_extendqisi2
 323 0056 DBB2     		uxtb	r3, r3
 324 0058 082B     		cmp	r3, #8
 325 005a 0ED8     		bhi	.L34
 319:.\Generated_Source\PSoC5/USBUART_cdc.c ****     {
 326              		.loc 1 319 0
 327 005c 0D4B     		ldr	r3, .L37+16
 328 005e 1B78     		ldrb	r3, [r3]	@ zero_extendqisi2
 329 0060 DBB2     		uxtb	r3, r3
 330 0062 082B     		cmp	r3, #8
 331 0064 0BD8     		bhi	.L35
 297:.\Generated_Source\PSoC5/USBUART_cdc.c **** 
 332              		.loc 1 297 0
 333 0066 0020     		movs	r0, #0
 334 0068 10BD     		pop	{r4, pc}
 335              	.LVL36:
 336              	.L30:
 321:.\Generated_Source\PSoC5/USBUART_cdc.c ****     }
 337              		.loc 1 321 0
 338 006a 0120     		movs	r0, #1
 339 006c 10BD     		pop	{r4, pc}
 340              	.LVL37:
 341              	.L31:
 342 006e 0120     		movs	r0, #1
 343 0070 10BD     		pop	{r4, pc}
 344              	.LVL38:
 345              	.L32:
 346 0072 0120     		movs	r0, #1
 347 0074 10BD     		pop	{r4, pc}
 348              	.LVL39:
 349              	.L33:
 350 0076 0120     		movs	r0, #1
ARM GAS  C:\Users\student\AppData\Local\Temp\cckxTosa.s 			page 15


 351 0078 10BD     		pop	{r4, pc}
 352              	.LVL40:
 353              	.L34:
 354 007a 0120     		movs	r0, #1
 355 007c 10BD     		pop	{r4, pc}
 356              	.LVL41:
 357              	.L35:
 358 007e 0120     		movs	r0, #1
 359              	.LVL42:
 325:.\Generated_Source\PSoC5/USBUART_cdc.c **** 
 360              		.loc 1 325 0
 361 0080 10BD     		pop	{r4, pc}
 362              	.LVL43:
 363              	.L38:
 364 0082 00BF     		.align	2
 365              	.L37:
 366 0084 00000000 		.word	.LANCHOR1
 367 0088 00000000 		.word	USBUART_linesChanged
 368 008c 00000000 		.word	USBUART_cdcDataOutEp
 369 0090 00000000 		.word	USBUART_cdcDataInEp
 370 0094 00000000 		.word	USBUART_cdcCommInInterruptEp
 371              		.cfi_endproc
 372              	.LFE2:
 373              		.size	USBUART_CDC_Init, .-USBUART_CDC_Init
 374              		.section	.text.USBUART_PutData,"ax",%progbits
 375              		.align	2
 376              		.global	USBUART_PutData
 377              		.thumb
 378              		.thumb_func
 379              		.type	USBUART_PutData, %function
 380              	USBUART_PutData:
 381              	.LFB3:
 359:.\Generated_Source\PSoC5/USBUART_cdc.c ****     uint8 epNumber = USBUART_cdcDataInEp[USBUART_activeCom];
 382              		.loc 1 359 0
 383              		.cfi_startproc
 384              		@ args = 0, pretend = 0, frame = 0
 385              		@ frame_needed = 0, uses_anonymous_args = 0
 386              	.LVL44:
 387 0000 70B5     		push	{r4, r5, r6, lr}
 388              		.cfi_def_cfa_offset 16
 389              		.cfi_offset 4, -16
 390              		.cfi_offset 5, -12
 391              		.cfi_offset 6, -8
 392              		.cfi_offset 14, -4
 393 0002 0646     		mov	r6, r0
 394 0004 0D46     		mov	r5, r1
 360:.\Generated_Source\PSoC5/USBUART_cdc.c **** 
 395              		.loc 1 360 0
 396 0006 0E4B     		ldr	r3, .L42
 397 0008 1B78     		ldrb	r3, [r3]	@ zero_extendqisi2
 398 000a 0E4A     		ldr	r2, .L42+4
 399 000c D45C     		ldrb	r4, [r2, r3]	@ zero_extendqisi2
 400 000e E4B2     		uxtb	r4, r4
 401              	.LVL45:
 363:.\Generated_Source\PSoC5/USBUART_cdc.c ****     {
 402              		.loc 1 363 0
 403 0010 04EB4403 		add	r3, r4, r4, lsl #1
ARM GAS  C:\Users\student\AppData\Local\Temp\cckxTosa.s 			page 16


 404 0014 9B00     		lsls	r3, r3, #2
 405 0016 0C4A     		ldr	r2, .L42+8
 406 0018 1344     		add	r3, r3, r2
 407 001a 1B89     		ldrh	r3, [r3, #8]
 408 001c 9BB2     		uxth	r3, r3
 409 001e 8B42     		cmp	r3, r1
 410 0020 08D2     		bcs	.L40
 366:.\Generated_Source\PSoC5/USBUART_cdc.c **** 
 411              		.loc 1 366 0
 412 0022 04EB4403 		add	r3, r4, r4, lsl #1
 413 0026 9B00     		lsls	r3, r3, #2
 414 0028 1344     		add	r3, r3, r2
 415 002a 1D89     		ldrh	r5, [r3, #8]
 416 002c ADB2     		uxth	r5, r5
 417              	.LVL46:
 369:.\Generated_Source\PSoC5/USBUART_cdc.c ****     }
 418              		.loc 1 369 0
 419 002e 0020     		movs	r0, #0
 420              	.LVL47:
 421 0030 FFF7FEFF 		bl	CyHalt
 422              	.LVL48:
 423              	.L40:
 372:.\Generated_Source\PSoC5/USBUART_cdc.c **** }
 424              		.loc 1 372 0
 425 0034 2046     		mov	r0, r4
 426 0036 3146     		mov	r1, r6
 427 0038 2A46     		mov	r2, r5
 428 003a FFF7FEFF 		bl	USBUART_LoadInEP
 429              	.LVL49:
 430 003e 70BD     		pop	{r4, r5, r6, pc}
 431              	.LVL50:
 432              	.L43:
 433              		.align	2
 434              	.L42:
 435 0040 00000000 		.word	.LANCHOR1
 436 0044 00000000 		.word	USBUART_cdcDataInEp
 437 0048 00000000 		.word	USBUART_EP
 438              		.cfi_endproc
 439              	.LFE3:
 440              		.size	USBUART_PutData, .-USBUART_PutData
 441              		.section	.text.USBUART_PutString,"ax",%progbits
 442              		.align	2
 443              		.global	USBUART_PutString
 444              		.thumb
 445              		.thumb_func
 446              		.type	USBUART_PutString, %function
 447              	USBUART_PutString:
 448              	.LFB5:
 399:.\Generated_Source\PSoC5/USBUART_cdc.c **** 
 400:.\Generated_Source\PSoC5/USBUART_cdc.c **** 
 401:.\Generated_Source\PSoC5/USBUART_cdc.c **** /***************************************************************************
 402:.\Generated_Source\PSoC5/USBUART_cdc.c **** * Function Name: USBUART_PutString
 403:.\Generated_Source\PSoC5/USBUART_cdc.c **** ************************************************************************//**
 404:.\Generated_Source\PSoC5/USBUART_cdc.c **** *
 405:.\Generated_Source\PSoC5/USBUART_cdc.c **** *  This function sends a null terminated string to the PC. This function will
 406:.\Generated_Source\PSoC5/USBUART_cdc.c **** *  block if there is not enough memory to place the whole string. It will block
 407:.\Generated_Source\PSoC5/USBUART_cdc.c **** *  until the entire string has been written to the transmit buffer.
ARM GAS  C:\Users\student\AppData\Local\Temp\cckxTosa.s 			page 17


 408:.\Generated_Source\PSoC5/USBUART_cdc.c **** *  The USBUART_CDCIsReady() function should be called before
 409:.\Generated_Source\PSoC5/USBUART_cdc.c **** *  sending data with a new call to USBUART_PutString(), to be sure
 410:.\Generated_Source\PSoC5/USBUART_cdc.c **** *  that the previous data has finished sending. This function sends
 411:.\Generated_Source\PSoC5/USBUART_cdc.c **** *  zero-length packet automatically, if the length of the last packet, sent
 412:.\Generated_Source\PSoC5/USBUART_cdc.c **** *  by this API, is equal to Max Packet Size
 413:.\Generated_Source\PSoC5/USBUART_cdc.c **** *
 414:.\Generated_Source\PSoC5/USBUART_cdc.c **** *  \param string: pointer to the string to be sent to the PC.
 415:.\Generated_Source\PSoC5/USBUART_cdc.c **** *
 416:.\Generated_Source\PSoC5/USBUART_cdc.c **** * \globalvars
 417:.\Generated_Source\PSoC5/USBUART_cdc.c **** *
 418:.\Generated_Source\PSoC5/USBUART_cdc.c **** *   USBUART_cdcDataInEp: CDC IN endpoint number used for sending
 419:.\Generated_Source\PSoC5/USBUART_cdc.c **** *     data.
 420:.\Generated_Source\PSoC5/USBUART_cdc.c **** *
 421:.\Generated_Source\PSoC5/USBUART_cdc.c **** * \reentrant
 422:.\Generated_Source\PSoC5/USBUART_cdc.c **** *  No.
 423:.\Generated_Source\PSoC5/USBUART_cdc.c **** *
 424:.\Generated_Source\PSoC5/USBUART_cdc.c **** ***************************************************************************/
 425:.\Generated_Source\PSoC5/USBUART_cdc.c **** void USBUART_PutString(const char8 string[]) 
 426:.\Generated_Source\PSoC5/USBUART_cdc.c **** {
 449              		.loc 1 426 0
 450              		.cfi_startproc
 451              		@ args = 0, pretend = 0, frame = 0
 452              		@ frame_needed = 0, uses_anonymous_args = 0
 453              	.LVL51:
 454 0000 2DE9F843 		push	{r3, r4, r5, r6, r7, r8, r9, lr}
 455              		.cfi_def_cfa_offset 32
 456              		.cfi_offset 3, -32
 457              		.cfi_offset 4, -28
 458              		.cfi_offset 5, -24
 459              		.cfi_offset 6, -20
 460              		.cfi_offset 7, -16
 461              		.cfi_offset 8, -12
 462              		.cfi_offset 9, -8
 463              		.cfi_offset 14, -4
 464 0004 8046     		mov	r8, r0
 465              	.LVL52:
 427:.\Generated_Source\PSoC5/USBUART_cdc.c ****     uint16 strLength;
 428:.\Generated_Source\PSoC5/USBUART_cdc.c ****     uint16 sendLength;
 429:.\Generated_Source\PSoC5/USBUART_cdc.c ****     uint16 bufIndex = 0u;
 430:.\Generated_Source\PSoC5/USBUART_cdc.c **** 
 431:.\Generated_Source\PSoC5/USBUART_cdc.c ****     uint8  epNumber = USBUART_cdcDataInEp[USBUART_activeCom];
 466              		.loc 1 431 0
 467 0006 224B     		ldr	r3, .L52
 468 0008 1B78     		ldrb	r3, [r3]	@ zero_extendqisi2
 469 000a 224A     		ldr	r2, .L52+4
 470 000c D65C     		ldrb	r6, [r2, r3]	@ zero_extendqisi2
 471 000e F6B2     		uxtb	r6, r6
 472              	.LVL53:
 432:.\Generated_Source\PSoC5/USBUART_cdc.c **** 
 433:.\Generated_Source\PSoC5/USBUART_cdc.c ****     /* Get length string length (it is terminated with zero). */
 434:.\Generated_Source\PSoC5/USBUART_cdc.c ****     strLength = USBUART_StrLen(string);
 473              		.loc 1 434 0
 474 0010 FFF7FEFF 		bl	USBUART_StrLen
 475              	.LVL54:
 476 0014 0546     		mov	r5, r0
 477              	.LVL55:
 429:.\Generated_Source\PSoC5/USBUART_cdc.c **** 
ARM GAS  C:\Users\student\AppData\Local\Temp\cckxTosa.s 			page 18


 478              		.loc 1 429 0
 479 0016 0027     		movs	r7, #0
 480              	.LVL56:
 481              	.L49:
 435:.\Generated_Source\PSoC5/USBUART_cdc.c **** 
 436:.\Generated_Source\PSoC5/USBUART_cdc.c ****     do
 437:.\Generated_Source\PSoC5/USBUART_cdc.c ****     {
 438:.\Generated_Source\PSoC5/USBUART_cdc.c ****         /* Limit length to maximum packet size of endpoint. */
 439:.\Generated_Source\PSoC5/USBUART_cdc.c ****         sendLength = (strLength > USBUART_EP[epNumber].bufferSize) ?
 482              		.loc 1 439 0
 483 0018 3446     		mov	r4, r6
 484 001a 06EB4603 		add	r3, r6, r6, lsl #1
 485 001e 9B00     		lsls	r3, r3, #2
 486 0020 1D4A     		ldr	r2, .L52+8
 487 0022 1344     		add	r3, r3, r2
 488 0024 1B89     		ldrh	r3, [r3, #8]
 489 0026 9BB2     		uxth	r3, r3
 490 0028 AB42     		cmp	r3, r5
 491 002a 08D2     		bcs	.L50
 492              		.loc 1 439 0 is_stmt 0 discriminator 1
 493 002c 06EB4603 		add	r3, r6, r6, lsl #1
 494 0030 9B00     		lsls	r3, r3, #2
 495 0032 1344     		add	r3, r3, r2
 496 0034 B3F80890 		ldrh	r9, [r3, #8]
 497 0038 1FFA89F9 		uxth	r9, r9
 498 003c 00E0     		b	.L45
 499              	.L50:
 500              		.loc 1 439 0
 501 003e A946     		mov	r9, r5
 502              	.L45:
 503              	.LVL57:
 440:.\Generated_Source\PSoC5/USBUART_cdc.c ****                                   USBUART_EP[epNumber].bufferSize : strLength;
 441:.\Generated_Source\PSoC5/USBUART_cdc.c **** 
 442:.\Generated_Source\PSoC5/USBUART_cdc.c ****         /* Load IN endpoint and expose it to host. */
 443:.\Generated_Source\PSoC5/USBUART_cdc.c ****         USBUART_LoadInEP(epNumber, (const uint8 *)&string[bufIndex], sendLength);
 504              		.loc 1 443 0 is_stmt 1 discriminator 4
 505 0040 3046     		mov	r0, r6
 506 0042 08EB0701 		add	r1, r8, r7
 507 0046 4A46     		mov	r2, r9
 508 0048 FFF7FEFF 		bl	USBUART_LoadInEP
 509              	.LVL58:
 444:.\Generated_Source\PSoC5/USBUART_cdc.c ****         strLength -= sendLength;
 510              		.loc 1 444 0 discriminator 4
 511 004c C9EB0505 		rsb	r5, r9, r5
 512              	.LVL59:
 513 0050 ADB2     		uxth	r5, r5
 514              	.LVL60:
 445:.\Generated_Source\PSoC5/USBUART_cdc.c **** 
 446:.\Generated_Source\PSoC5/USBUART_cdc.c ****         /* If more data are present to send or full packet was sent */
 447:.\Generated_Source\PSoC5/USBUART_cdc.c ****         if ((strLength > 0u) || (sendLength == USBUART_EP[epNumber].bufferSize))
 515              		.loc 1 447 0 discriminator 4
 516 0052 45B9     		cbnz	r5, .L46
 517              		.loc 1 447 0 is_stmt 0 discriminator 1
 518 0054 06EB4603 		add	r3, r6, r6, lsl #1
 519 0058 9B00     		lsls	r3, r3, #2
 520 005a 0F4A     		ldr	r2, .L52+8
 521 005c 1344     		add	r3, r3, r2
ARM GAS  C:\Users\student\AppData\Local\Temp\cckxTosa.s 			page 19


 522 005e 1B89     		ldrh	r3, [r3, #8]
 523 0060 9BB2     		uxth	r3, r3
 524 0062 9945     		cmp	r9, r3
 525 0064 10D1     		bne	.L47
 526              	.L46:
 448:.\Generated_Source\PSoC5/USBUART_cdc.c ****         {
 449:.\Generated_Source\PSoC5/USBUART_cdc.c ****             bufIndex += sendLength;
 527              		.loc 1 449 0 is_stmt 1
 528 0066 4F44     		add	r7, r7, r9
 529              	.LVL61:
 530 0068 BFB2     		uxth	r7, r7
 531              	.LVL62:
 532              	.L48:
 450:.\Generated_Source\PSoC5/USBUART_cdc.c **** 
 451:.\Generated_Source\PSoC5/USBUART_cdc.c ****             /* Wait until host read data from IN endpoint buffer. */
 452:.\Generated_Source\PSoC5/USBUART_cdc.c ****             while (USBUART_IN_BUFFER_FULL == USBUART_EP[epNumber].apiEpState)
 533              		.loc 1 452 0 discriminator 1
 534 006a 04EB4403 		add	r3, r4, r4, lsl #1
 535 006e 9B00     		lsls	r3, r3, #2
 536 0070 094A     		ldr	r2, .L52+8
 537 0072 1344     		add	r3, r3, r2
 538 0074 5B78     		ldrb	r3, [r3, #1]	@ zero_extendqisi2
 539 0076 13F0FF0F 		tst	r3, #255
 540 007a F6D0     		beq	.L48
 453:.\Generated_Source\PSoC5/USBUART_cdc.c ****             {
 454:.\Generated_Source\PSoC5/USBUART_cdc.c ****             }
 455:.\Generated_Source\PSoC5/USBUART_cdc.c **** 
 456:.\Generated_Source\PSoC5/USBUART_cdc.c ****             /* If last packet is exactly maximum packet size, it shall be followed
 457:.\Generated_Source\PSoC5/USBUART_cdc.c ****             * by a zero-length packet to assure the end of segment is properly
 458:.\Generated_Source\PSoC5/USBUART_cdc.c ****             * identified by the terminal.
 459:.\Generated_Source\PSoC5/USBUART_cdc.c ****             */
 460:.\Generated_Source\PSoC5/USBUART_cdc.c ****             if (0u == strLength)
 541              		.loc 1 460 0
 542 007c 25B9     		cbnz	r5, .L47
 461:.\Generated_Source\PSoC5/USBUART_cdc.c ****             {
 462:.\Generated_Source\PSoC5/USBUART_cdc.c ****                 USBUART_LoadInEP(epNumber, NULL, 0u);
 543              		.loc 1 462 0
 544 007e 3046     		mov	r0, r6
 545 0080 0021     		movs	r1, #0
 546 0082 0A46     		mov	r2, r1
 547 0084 FFF7FEFF 		bl	USBUART_LoadInEP
 548              	.LVL63:
 549              	.L47:
 463:.\Generated_Source\PSoC5/USBUART_cdc.c ****             }
 464:.\Generated_Source\PSoC5/USBUART_cdc.c ****         }
 465:.\Generated_Source\PSoC5/USBUART_cdc.c ****     }
 466:.\Generated_Source\PSoC5/USBUART_cdc.c ****     while (strLength > 0u);
 550              		.loc 1 466 0
 551 0088 002D     		cmp	r5, #0
 552 008a C5D1     		bne	.L49
 467:.\Generated_Source\PSoC5/USBUART_cdc.c **** }
 553              		.loc 1 467 0
 554 008c BDE8F883 		pop	{r3, r4, r5, r6, r7, r8, r9, pc}
 555              	.LVL64:
 556              	.L53:
 557              		.align	2
 558              	.L52:
ARM GAS  C:\Users\student\AppData\Local\Temp\cckxTosa.s 			page 20


 559 0090 00000000 		.word	.LANCHOR1
 560 0094 00000000 		.word	USBUART_cdcDataInEp
 561 0098 00000000 		.word	USBUART_EP
 562              		.cfi_endproc
 563              	.LFE5:
 564              		.size	USBUART_PutString, .-USBUART_PutString
 565              		.section	.text.USBUART_PutChar,"ax",%progbits
 566              		.align	2
 567              		.global	USBUART_PutChar
 568              		.thumb
 569              		.thumb_func
 570              		.type	USBUART_PutChar, %function
 571              	USBUART_PutChar:
 572              	.LFB6:
 468:.\Generated_Source\PSoC5/USBUART_cdc.c **** 
 469:.\Generated_Source\PSoC5/USBUART_cdc.c **** 
 470:.\Generated_Source\PSoC5/USBUART_cdc.c **** /***************************************************************************
 471:.\Generated_Source\PSoC5/USBUART_cdc.c **** * Function Name: USBUART_PutChar
 472:.\Generated_Source\PSoC5/USBUART_cdc.c **** ************************************************************************//**
 473:.\Generated_Source\PSoC5/USBUART_cdc.c **** *
 474:.\Generated_Source\PSoC5/USBUART_cdc.c **** *  This function writes a single character to the PC at a time. This is an
 475:.\Generated_Source\PSoC5/USBUART_cdc.c **** *  inefficient way to send large amounts of data.
 476:.\Generated_Source\PSoC5/USBUART_cdc.c **** *
 477:.\Generated_Source\PSoC5/USBUART_cdc.c **** *  \param txDataByte: Character to be sent to the PC.
 478:.\Generated_Source\PSoC5/USBUART_cdc.c **** *
 479:.\Generated_Source\PSoC5/USBUART_cdc.c **** *  \globalvars
 480:.\Generated_Source\PSoC5/USBUART_cdc.c **** *
 481:.\Generated_Source\PSoC5/USBUART_cdc.c **** *   USBUART_cdcDataInEp: CDC IN endpoint number used for sending
 482:.\Generated_Source\PSoC5/USBUART_cdc.c **** *     data.
 483:.\Generated_Source\PSoC5/USBUART_cdc.c **** *
 484:.\Generated_Source\PSoC5/USBUART_cdc.c **** *  \reentrant
 485:.\Generated_Source\PSoC5/USBUART_cdc.c **** *  No.
 486:.\Generated_Source\PSoC5/USBUART_cdc.c **** *
 487:.\Generated_Source\PSoC5/USBUART_cdc.c **** ***************************************************************************/
 488:.\Generated_Source\PSoC5/USBUART_cdc.c **** void USBUART_PutChar(char8 txDataByte) 
 489:.\Generated_Source\PSoC5/USBUART_cdc.c **** {
 573              		.loc 1 489 0
 574              		.cfi_startproc
 575              		@ args = 0, pretend = 0, frame = 8
 576              		@ frame_needed = 0, uses_anonymous_args = 0
 577              	.LVL65:
 578 0000 00B5     		push	{lr}
 579              		.cfi_def_cfa_offset 4
 580              		.cfi_offset 14, -4
 581 0002 83B0     		sub	sp, sp, #12
 582              		.cfi_def_cfa_offset 16
 490:.\Generated_Source\PSoC5/USBUART_cdc.c ****     uint8 dataByte;
 491:.\Generated_Source\PSoC5/USBUART_cdc.c ****     dataByte = (uint8) txDataByte;
 583              		.loc 1 491 0
 584 0004 02A9     		add	r1, sp, #8
 585 0006 01F8010D 		strb	r0, [r1, #-1]!
 492:.\Generated_Source\PSoC5/USBUART_cdc.c **** 
 493:.\Generated_Source\PSoC5/USBUART_cdc.c ****     USBUART_LoadInEP(USBUART_cdcDataInEp[USBUART_activeCom], &dataByte, 1u);
 586              		.loc 1 493 0
 587 000a 054B     		ldr	r3, .L56
 588 000c 1B78     		ldrb	r3, [r3]	@ zero_extendqisi2
 589 000e 054A     		ldr	r2, .L56+4
ARM GAS  C:\Users\student\AppData\Local\Temp\cckxTosa.s 			page 21


 590 0010 D05C     		ldrb	r0, [r2, r3]	@ zero_extendqisi2
 591              	.LVL66:
 592 0012 0122     		movs	r2, #1
 593 0014 FFF7FEFF 		bl	USBUART_LoadInEP
 594              	.LVL67:
 494:.\Generated_Source\PSoC5/USBUART_cdc.c **** }
 595              		.loc 1 494 0
 596 0018 03B0     		add	sp, sp, #12
 597              		.cfi_def_cfa_offset 4
 598              		@ sp needed
 599 001a 5DF804FB 		ldr	pc, [sp], #4
 600              	.L57:
 601 001e 00BF     		.align	2
 602              	.L56:
 603 0020 00000000 		.word	.LANCHOR1
 604 0024 00000000 		.word	USBUART_cdcDataInEp
 605              		.cfi_endproc
 606              	.LFE6:
 607              		.size	USBUART_PutChar, .-USBUART_PutChar
 608              		.section	.text.USBUART_PutCRLF,"ax",%progbits
 609              		.align	2
 610              		.global	USBUART_PutCRLF
 611              		.thumb
 612              		.thumb_func
 613              		.type	USBUART_PutCRLF, %function
 614              	USBUART_PutCRLF:
 615              	.LFB7:
 495:.\Generated_Source\PSoC5/USBUART_cdc.c **** 
 496:.\Generated_Source\PSoC5/USBUART_cdc.c **** 
 497:.\Generated_Source\PSoC5/USBUART_cdc.c **** /*******************************************************************************
 498:.\Generated_Source\PSoC5/USBUART_cdc.c **** * Function Name: USBUART_PutCRLF
 499:.\Generated_Source\PSoC5/USBUART_cdc.c **** ****************************************************************************//**
 500:.\Generated_Source\PSoC5/USBUART_cdc.c **** *
 501:.\Generated_Source\PSoC5/USBUART_cdc.c **** *  This function sends a carriage return (0x0D) and line feed (0x0A) to the
 502:.\Generated_Source\PSoC5/USBUART_cdc.c **** *  PC. This APIis provided to mimic API provided by our other UART components
 503:.\Generated_Source\PSoC5/USBUART_cdc.c **** *
 504:.\Generated_Source\PSoC5/USBUART_cdc.c **** * \globalvars
 505:.\Generated_Source\PSoC5/USBUART_cdc.c **** *
 506:.\Generated_Source\PSoC5/USBUART_cdc.c **** *   USBUART_cdcDataInEp: CDC IN endpoint number used for sending
 507:.\Generated_Source\PSoC5/USBUART_cdc.c **** *     data.
 508:.\Generated_Source\PSoC5/USBUART_cdc.c **** *
 509:.\Generated_Source\PSoC5/USBUART_cdc.c **** * \reentrant
 510:.\Generated_Source\PSoC5/USBUART_cdc.c **** *  No.
 511:.\Generated_Source\PSoC5/USBUART_cdc.c **** *
 512:.\Generated_Source\PSoC5/USBUART_cdc.c **** *******************************************************************************/
 513:.\Generated_Source\PSoC5/USBUART_cdc.c **** void USBUART_PutCRLF(void) 
 514:.\Generated_Source\PSoC5/USBUART_cdc.c **** {
 616              		.loc 1 514 0
 617              		.cfi_startproc
 618              		@ args = 0, pretend = 0, frame = 8
 619              		@ frame_needed = 0, uses_anonymous_args = 0
 620 0000 00B5     		push	{lr}
 621              		.cfi_def_cfa_offset 4
 622              		.cfi_offset 14, -4
 623 0002 83B0     		sub	sp, sp, #12
 624              		.cfi_def_cfa_offset 16
 515:.\Generated_Source\PSoC5/USBUART_cdc.c ****     const uint8 CYCODE txData[] = {0x0Du, 0x0Au};
ARM GAS  C:\Users\student\AppData\Local\Temp\cckxTosa.s 			page 22


 625              		.loc 1 515 0
 626 0004 074B     		ldr	r3, .L60
 627 0006 1B88     		ldrh	r3, [r3]	@ unaligned
 628 0008 ADF80430 		strh	r3, [sp, #4]	@ unaligned
 516:.\Generated_Source\PSoC5/USBUART_cdc.c **** 
 517:.\Generated_Source\PSoC5/USBUART_cdc.c ****     USBUART_LoadInEP(USBUART_cdcDataInEp[USBUART_activeCom], (const uint8 *)txData, 2u);
 629              		.loc 1 517 0
 630 000c 064B     		ldr	r3, .L60+4
 631 000e 1B78     		ldrb	r3, [r3]	@ zero_extendqisi2
 632 0010 064A     		ldr	r2, .L60+8
 633 0012 D05C     		ldrb	r0, [r2, r3]	@ zero_extendqisi2
 634 0014 01A9     		add	r1, sp, #4
 635 0016 0222     		movs	r2, #2
 636 0018 FFF7FEFF 		bl	USBUART_LoadInEP
 637              	.LVL68:
 518:.\Generated_Source\PSoC5/USBUART_cdc.c **** }
 638              		.loc 1 518 0
 639 001c 03B0     		add	sp, sp, #12
 640              		.cfi_def_cfa_offset 4
 641              		@ sp needed
 642 001e 5DF804FB 		ldr	pc, [sp], #4
 643              	.L61:
 644 0022 00BF     		.align	2
 645              	.L60:
 646 0024 00000000 		.word	.LANCHOR2
 647 0028 00000000 		.word	.LANCHOR1
 648 002c 00000000 		.word	USBUART_cdcDataInEp
 649              		.cfi_endproc
 650              	.LFE7:
 651              		.size	USBUART_PutCRLF, .-USBUART_PutCRLF
 652              		.section	.text.USBUART_GetCount,"ax",%progbits
 653              		.align	2
 654              		.global	USBUART_GetCount
 655              		.thumb
 656              		.thumb_func
 657              		.type	USBUART_GetCount, %function
 658              	USBUART_GetCount:
 659              	.LFB8:
 519:.\Generated_Source\PSoC5/USBUART_cdc.c **** 
 520:.\Generated_Source\PSoC5/USBUART_cdc.c **** 
 521:.\Generated_Source\PSoC5/USBUART_cdc.c **** /*******************************************************************************
 522:.\Generated_Source\PSoC5/USBUART_cdc.c **** * Function Name: USBUART_GetCount
 523:.\Generated_Source\PSoC5/USBUART_cdc.c **** ****************************************************************************//**
 524:.\Generated_Source\PSoC5/USBUART_cdc.c **** *
 525:.\Generated_Source\PSoC5/USBUART_cdc.c **** *  This function returns the number of bytes that were received from the PC.
 526:.\Generated_Source\PSoC5/USBUART_cdc.c **** *  The returned length value should be passed to USBUART_GetData() as
 527:.\Generated_Source\PSoC5/USBUART_cdc.c **** *  a parameter to read all received data. If all of the received data is not
 528:.\Generated_Source\PSoC5/USBUART_cdc.c **** *  read at one time by the USBUART_GetData() API, the unread data will
 529:.\Generated_Source\PSoC5/USBUART_cdc.c **** *  be lost.
 530:.\Generated_Source\PSoC5/USBUART_cdc.c **** *
 531:.\Generated_Source\PSoC5/USBUART_cdc.c **** * \return
 532:.\Generated_Source\PSoC5/USBUART_cdc.c **** *  Returns the number of received bytes. The maximum amount of received data at
 533:.\Generated_Source\PSoC5/USBUART_cdc.c **** *  a time is limited by the maximum packet size for the endpoint.
 534:.\Generated_Source\PSoC5/USBUART_cdc.c **** *
 535:.\Generated_Source\PSoC5/USBUART_cdc.c **** * \globalvars
 536:.\Generated_Source\PSoC5/USBUART_cdc.c **** *   USBUART_cdcDataOutEp: CDC OUT endpoint number used.
 537:.\Generated_Source\PSoC5/USBUART_cdc.c **** *
ARM GAS  C:\Users\student\AppData\Local\Temp\cckxTosa.s 			page 23


 538:.\Generated_Source\PSoC5/USBUART_cdc.c **** *******************************************************************************/
 539:.\Generated_Source\PSoC5/USBUART_cdc.c **** uint16 USBUART_GetCount(void) 
 540:.\Generated_Source\PSoC5/USBUART_cdc.c **** {
 660              		.loc 1 540 0
 661              		.cfi_startproc
 662              		@ args = 0, pretend = 0, frame = 0
 663              		@ frame_needed = 0, uses_anonymous_args = 0
 664 0000 08B5     		push	{r3, lr}
 665              		.cfi_def_cfa_offset 8
 666              		.cfi_offset 3, -8
 667              		.cfi_offset 14, -4
 541:.\Generated_Source\PSoC5/USBUART_cdc.c ****     uint16 bytesCount;
 542:.\Generated_Source\PSoC5/USBUART_cdc.c **** 
 543:.\Generated_Source\PSoC5/USBUART_cdc.c ****     uint8  epNumber = USBUART_cdcDataOutEp[USBUART_activeCom];
 668              		.loc 1 543 0
 669 0002 094B     		ldr	r3, .L66
 670 0004 1B78     		ldrb	r3, [r3]	@ zero_extendqisi2
 671 0006 094A     		ldr	r2, .L66+4
 672 0008 D05C     		ldrb	r0, [r2, r3]	@ zero_extendqisi2
 673 000a C0B2     		uxtb	r0, r0
 674              	.LVL69:
 544:.\Generated_Source\PSoC5/USBUART_cdc.c **** 
 545:.\Generated_Source\PSoC5/USBUART_cdc.c ****     if (USBUART_OUT_BUFFER_FULL == USBUART_EP[epNumber].apiEpState)
 675              		.loc 1 545 0
 676 000c 00EB4003 		add	r3, r0, r0, lsl #1
 677 0010 9B00     		lsls	r3, r3, #2
 678 0012 074A     		ldr	r2, .L66+8
 679 0014 1344     		add	r3, r3, r2
 680 0016 5B78     		ldrb	r3, [r3, #1]	@ zero_extendqisi2
 681 0018 DBB2     		uxtb	r3, r3
 682 001a 012B     		cmp	r3, #1
 683 001c 02D1     		bne	.L64
 546:.\Generated_Source\PSoC5/USBUART_cdc.c ****     {
 547:.\Generated_Source\PSoC5/USBUART_cdc.c ****         bytesCount = USBUART_GetEPCount(epNumber);
 684              		.loc 1 547 0
 685 001e FFF7FEFF 		bl	USBUART_GetEPCount
 686              	.LVL70:
 687 0022 08BD     		pop	{r3, pc}
 688              	.LVL71:
 689              	.L64:
 548:.\Generated_Source\PSoC5/USBUART_cdc.c ****     }
 549:.\Generated_Source\PSoC5/USBUART_cdc.c ****     else
 550:.\Generated_Source\PSoC5/USBUART_cdc.c ****     {
 551:.\Generated_Source\PSoC5/USBUART_cdc.c ****         bytesCount = 0u;
 690              		.loc 1 551 0
 691 0024 0020     		movs	r0, #0
 692              	.LVL72:
 552:.\Generated_Source\PSoC5/USBUART_cdc.c ****     }
 553:.\Generated_Source\PSoC5/USBUART_cdc.c **** 
 554:.\Generated_Source\PSoC5/USBUART_cdc.c ****     return (bytesCount);
 555:.\Generated_Source\PSoC5/USBUART_cdc.c **** }
 693              		.loc 1 555 0
 694 0026 08BD     		pop	{r3, pc}
 695              	.L67:
 696              		.align	2
 697              	.L66:
 698 0028 00000000 		.word	.LANCHOR1
ARM GAS  C:\Users\student\AppData\Local\Temp\cckxTosa.s 			page 24


 699 002c 00000000 		.word	USBUART_cdcDataOutEp
 700 0030 00000000 		.word	USBUART_EP
 701              		.cfi_endproc
 702              	.LFE8:
 703              		.size	USBUART_GetCount, .-USBUART_GetCount
 704              		.section	.text.USBUART_DataIsReady,"ax",%progbits
 705              		.align	2
 706              		.global	USBUART_DataIsReady
 707              		.thumb
 708              		.thumb_func
 709              		.type	USBUART_DataIsReady, %function
 710              	USBUART_DataIsReady:
 711              	.LFB9:
 556:.\Generated_Source\PSoC5/USBUART_cdc.c **** 
 557:.\Generated_Source\PSoC5/USBUART_cdc.c **** 
 558:.\Generated_Source\PSoC5/USBUART_cdc.c **** /*******************************************************************************
 559:.\Generated_Source\PSoC5/USBUART_cdc.c **** * Function Name: USBUART_DataIsReady
 560:.\Generated_Source\PSoC5/USBUART_cdc.c **** ****************************************************************************//**
 561:.\Generated_Source\PSoC5/USBUART_cdc.c **** *
 562:.\Generated_Source\PSoC5/USBUART_cdc.c **** *  This function returns a non-zero value if the component received data or
 563:.\Generated_Source\PSoC5/USBUART_cdc.c **** *  received zero-length packet. The USBUART_GetAll() or
 564:.\Generated_Source\PSoC5/USBUART_cdc.c **** *  USBUART_GetData() API should be called to read data from the buffer
 565:.\Generated_Source\PSoC5/USBUART_cdc.c **** *  and reinitialize the OUT endpoint even when a zero-length packet is
 566:.\Generated_Source\PSoC5/USBUART_cdc.c **** *  received. These APIs will return zero value when zero-length packet is
 567:.\Generated_Source\PSoC5/USBUART_cdc.c **** *  received.
 568:.\Generated_Source\PSoC5/USBUART_cdc.c **** *
 569:.\Generated_Source\PSoC5/USBUART_cdc.c **** * \return
 570:.\Generated_Source\PSoC5/USBUART_cdc.c **** *  If the OUT packet is received, this function returns a non-zero value.
 571:.\Generated_Source\PSoC5/USBUART_cdc.c **** *  Otherwise, it returns zero.
 572:.\Generated_Source\PSoC5/USBUART_cdc.c **** *
 573:.\Generated_Source\PSoC5/USBUART_cdc.c **** * \globalvars
 574:.\Generated_Source\PSoC5/USBUART_cdc.c **** *   USBUART_cdcDataOutEp: CDC OUT endpoint number used.
 575:.\Generated_Source\PSoC5/USBUART_cdc.c **** *
 576:.\Generated_Source\PSoC5/USBUART_cdc.c **** *******************************************************************************/
 577:.\Generated_Source\PSoC5/USBUART_cdc.c **** uint8 USBUART_DataIsReady(void) 
 578:.\Generated_Source\PSoC5/USBUART_cdc.c **** {
 712              		.loc 1 578 0
 713              		.cfi_startproc
 714              		@ args = 0, pretend = 0, frame = 0
 715              		@ frame_needed = 0, uses_anonymous_args = 0
 716 0000 08B5     		push	{r3, lr}
 717              		.cfi_def_cfa_offset 8
 718              		.cfi_offset 3, -8
 719              		.cfi_offset 14, -4
 579:.\Generated_Source\PSoC5/USBUART_cdc.c ****     return (USBUART_GetEPState(USBUART_cdcDataOutEp[USBUART_activeCom]));
 720              		.loc 1 579 0
 721 0002 034B     		ldr	r3, .L70
 722 0004 1B78     		ldrb	r3, [r3]	@ zero_extendqisi2
 723 0006 034A     		ldr	r2, .L70+4
 724 0008 D05C     		ldrb	r0, [r2, r3]	@ zero_extendqisi2
 725 000a FFF7FEFF 		bl	USBUART_GetEPState
 726              	.LVL73:
 580:.\Generated_Source\PSoC5/USBUART_cdc.c **** }
 727              		.loc 1 580 0
 728 000e 08BD     		pop	{r3, pc}
 729              	.L71:
 730              		.align	2
ARM GAS  C:\Users\student\AppData\Local\Temp\cckxTosa.s 			page 25


 731              	.L70:
 732 0010 00000000 		.word	.LANCHOR1
 733 0014 00000000 		.word	USBUART_cdcDataOutEp
 734              		.cfi_endproc
 735              	.LFE9:
 736              		.size	USBUART_DataIsReady, .-USBUART_DataIsReady
 737              		.section	.text.USBUART_CDCIsReady,"ax",%progbits
 738              		.align	2
 739              		.global	USBUART_CDCIsReady
 740              		.thumb
 741              		.thumb_func
 742              		.type	USBUART_CDCIsReady, %function
 743              	USBUART_CDCIsReady:
 744              	.LFB10:
 581:.\Generated_Source\PSoC5/USBUART_cdc.c **** 
 582:.\Generated_Source\PSoC5/USBUART_cdc.c **** 
 583:.\Generated_Source\PSoC5/USBUART_cdc.c **** /*******************************************************************************
 584:.\Generated_Source\PSoC5/USBUART_cdc.c **** * Function Name: USBUART_CDCIsReady
 585:.\Generated_Source\PSoC5/USBUART_cdc.c **** ****************************************************************************//**
 586:.\Generated_Source\PSoC5/USBUART_cdc.c **** *
 587:.\Generated_Source\PSoC5/USBUART_cdc.c **** *  This function returns a non-zero value if the component is ready to send more
 588:.\Generated_Source\PSoC5/USBUART_cdc.c **** *  data to the PC; otherwise, it returns zero. The function should be called
 589:.\Generated_Source\PSoC5/USBUART_cdc.c **** *  before sending new data when using any of the following APIs:
 590:.\Generated_Source\PSoC5/USBUART_cdc.c **** *  USBUART_PutData(),USBUART_PutString(),
 591:.\Generated_Source\PSoC5/USBUART_cdc.c **** *  USBUART_PutChar or USBUART_PutCRLF(),
 592:.\Generated_Source\PSoC5/USBUART_cdc.c **** *  to be sure that the previous data has finished sending.
 593:.\Generated_Source\PSoC5/USBUART_cdc.c **** *
 594:.\Generated_Source\PSoC5/USBUART_cdc.c **** * \return
 595:.\Generated_Source\PSoC5/USBUART_cdc.c **** *  If the buffer can accept new data, this function returns a non-zero value.
 596:.\Generated_Source\PSoC5/USBUART_cdc.c **** *  Otherwise, it returns zero.
 597:.\Generated_Source\PSoC5/USBUART_cdc.c **** *
 598:.\Generated_Source\PSoC5/USBUART_cdc.c **** * \globalvars
 599:.\Generated_Source\PSoC5/USBUART_cdc.c **** *   USBUART_cdcDataInEp: CDC IN endpoint number used.
 600:.\Generated_Source\PSoC5/USBUART_cdc.c **** *
 601:.\Generated_Source\PSoC5/USBUART_cdc.c **** *******************************************************************************/
 602:.\Generated_Source\PSoC5/USBUART_cdc.c **** uint8 USBUART_CDCIsReady(void) 
 603:.\Generated_Source\PSoC5/USBUART_cdc.c **** {
 745              		.loc 1 603 0
 746              		.cfi_startproc
 747              		@ args = 0, pretend = 0, frame = 0
 748              		@ frame_needed = 0, uses_anonymous_args = 0
 749 0000 08B5     		push	{r3, lr}
 750              		.cfi_def_cfa_offset 8
 751              		.cfi_offset 3, -8
 752              		.cfi_offset 14, -4
 604:.\Generated_Source\PSoC5/USBUART_cdc.c ****     return (USBUART_GetEPState(USBUART_cdcDataInEp[USBUART_activeCom]));
 753              		.loc 1 604 0
 754 0002 034B     		ldr	r3, .L74
 755 0004 1B78     		ldrb	r3, [r3]	@ zero_extendqisi2
 756 0006 034A     		ldr	r2, .L74+4
 757 0008 D05C     		ldrb	r0, [r2, r3]	@ zero_extendqisi2
 758 000a FFF7FEFF 		bl	USBUART_GetEPState
 759              	.LVL74:
 605:.\Generated_Source\PSoC5/USBUART_cdc.c **** }
 760              		.loc 1 605 0
 761 000e 08BD     		pop	{r3, pc}
 762              	.L75:
ARM GAS  C:\Users\student\AppData\Local\Temp\cckxTosa.s 			page 26


 763              		.align	2
 764              	.L74:
 765 0010 00000000 		.word	.LANCHOR1
 766 0014 00000000 		.word	USBUART_cdcDataInEp
 767              		.cfi_endproc
 768              	.LFE10:
 769              		.size	USBUART_CDCIsReady, .-USBUART_CDCIsReady
 770              		.section	.text.USBUART_GetData,"ax",%progbits
 771              		.align	2
 772              		.global	USBUART_GetData
 773              		.thumb
 774              		.thumb_func
 775              		.type	USBUART_GetData, %function
 776              	USBUART_GetData:
 777              	.LFB11:
 606:.\Generated_Source\PSoC5/USBUART_cdc.c **** 
 607:.\Generated_Source\PSoC5/USBUART_cdc.c **** 
 608:.\Generated_Source\PSoC5/USBUART_cdc.c **** /***************************************************************************
 609:.\Generated_Source\PSoC5/USBUART_cdc.c **** * Function Name: USBUART_GetData
 610:.\Generated_Source\PSoC5/USBUART_cdc.c **** ************************************************************************//**
 611:.\Generated_Source\PSoC5/USBUART_cdc.c **** *
 612:.\Generated_Source\PSoC5/USBUART_cdc.c **** *  This function gets a specified number of bytes from the input buffer and
 613:.\Generated_Source\PSoC5/USBUART_cdc.c **** *  places them in a data array specified by the passed pointer.
 614:.\Generated_Source\PSoC5/USBUART_cdc.c **** *  The USBUART_DataIsReady() API should be called first, to be sure
 615:.\Generated_Source\PSoC5/USBUART_cdc.c **** *  that data is received from the host. If all received data will not be read at
 616:.\Generated_Source\PSoC5/USBUART_cdc.c **** *  once, the unread data will be lost. The USBUART_GetData() API should
 617:.\Generated_Source\PSoC5/USBUART_cdc.c **** *  be called to get the number of bytes that were received.
 618:.\Generated_Source\PSoC5/USBUART_cdc.c **** *
 619:.\Generated_Source\PSoC5/USBUART_cdc.c **** *  \param pData: Pointer to the data array where data will be placed.
 620:.\Generated_Source\PSoC5/USBUART_cdc.c **** *  \param Length: Number of bytes to read into the data array from the RX buffer.
 621:.\Generated_Source\PSoC5/USBUART_cdc.c **** *          Maximum length is limited by the the number of received bytes
 622:.\Generated_Source\PSoC5/USBUART_cdc.c **** *          or 64 bytes.
 623:.\Generated_Source\PSoC5/USBUART_cdc.c **** *
 624:.\Generated_Source\PSoC5/USBUART_cdc.c **** * \return
 625:.\Generated_Source\PSoC5/USBUART_cdc.c **** *         Number of bytes which function moves from endpoint RAM into the
 626:.\Generated_Source\PSoC5/USBUART_cdc.c **** *         data array. The function moves fewer than the requested number
 627:.\Generated_Source\PSoC5/USBUART_cdc.c **** *         of bytes if the host sends fewer bytes than requested or sends
 628:.\Generated_Source\PSoC5/USBUART_cdc.c **** *         zero-length packet.
 629:.\Generated_Source\PSoC5/USBUART_cdc.c **** *
 630:.\Generated_Source\PSoC5/USBUART_cdc.c **** * \globalvars
 631:.\Generated_Source\PSoC5/USBUART_cdc.c **** *   USBUART_cdcDataOutEp: CDC OUT endpoint number used.
 632:.\Generated_Source\PSoC5/USBUART_cdc.c **** *
 633:.\Generated_Source\PSoC5/USBUART_cdc.c **** * \reentrant
 634:.\Generated_Source\PSoC5/USBUART_cdc.c **** *  No.
 635:.\Generated_Source\PSoC5/USBUART_cdc.c **** *
 636:.\Generated_Source\PSoC5/USBUART_cdc.c **** ***************************************************************************/
 637:.\Generated_Source\PSoC5/USBUART_cdc.c **** uint16 USBUART_GetData(uint8* pData, uint16 length) 
 638:.\Generated_Source\PSoC5/USBUART_cdc.c **** {
 778              		.loc 1 638 0
 779              		.cfi_startproc
 780              		@ args = 0, pretend = 0, frame = 0
 781              		@ frame_needed = 0, uses_anonymous_args = 0
 782              	.LVL75:
 783 0000 08B5     		push	{r3, lr}
 784              		.cfi_def_cfa_offset 8
 785              		.cfi_offset 3, -8
 786              		.cfi_offset 14, -4
ARM GAS  C:\Users\student\AppData\Local\Temp\cckxTosa.s 			page 27


 787 0002 0346     		mov	r3, r0
 788 0004 0A46     		mov	r2, r1
 639:.\Generated_Source\PSoC5/USBUART_cdc.c ****     uint8 epNumber = USBUART_cdcDataOutEp[USBUART_activeCom];
 789              		.loc 1 639 0
 790 0006 0449     		ldr	r1, .L78
 791              	.LVL76:
 792 0008 0978     		ldrb	r1, [r1]	@ zero_extendqisi2
 793 000a 0448     		ldr	r0, .L78+4
 794              	.LVL77:
 795 000c 405C     		ldrb	r0, [r0, r1]	@ zero_extendqisi2
 796              	.LVL78:
 640:.\Generated_Source\PSoC5/USBUART_cdc.c **** 
 641:.\Generated_Source\PSoC5/USBUART_cdc.c ****     /* Read data from OUT endpoint buffer. */
 642:.\Generated_Source\PSoC5/USBUART_cdc.c ****     length = USBUART_ReadOutEP(epNumber, pData, length);
 797              		.loc 1 642 0
 798 000e 1946     		mov	r1, r3
 799 0010 FFF7FEFF 		bl	USBUART_ReadOutEP
 800              	.LVL79:
 643:.\Generated_Source\PSoC5/USBUART_cdc.c **** 
 644:.\Generated_Source\PSoC5/USBUART_cdc.c **** #if (USBUART_EP_MANAGEMENT_DMA_MANUAL)
 645:.\Generated_Source\PSoC5/USBUART_cdc.c ****     /* Wait until DMA complete transferring data from OUT endpoint buffer. */
 646:.\Generated_Source\PSoC5/USBUART_cdc.c ****     while (USBUART_OUT_BUFFER_FULL == USBUART_GetEPState(epNumber))
 647:.\Generated_Source\PSoC5/USBUART_cdc.c ****     {
 648:.\Generated_Source\PSoC5/USBUART_cdc.c ****     }
 649:.\Generated_Source\PSoC5/USBUART_cdc.c **** 
 650:.\Generated_Source\PSoC5/USBUART_cdc.c ****     /* Enable OUT endpoint to communicate with host. */
 651:.\Generated_Source\PSoC5/USBUART_cdc.c ****     USBUART_EnableOutEP(epNumber);
 652:.\Generated_Source\PSoC5/USBUART_cdc.c **** #endif /* (USBUART_EP_MANAGEMENT_DMA_MANUAL) */
 653:.\Generated_Source\PSoC5/USBUART_cdc.c **** 
 654:.\Generated_Source\PSoC5/USBUART_cdc.c ****     return (length);
 655:.\Generated_Source\PSoC5/USBUART_cdc.c **** }
 801              		.loc 1 655 0
 802 0014 08BD     		pop	{r3, pc}
 803              	.L79:
 804 0016 00BF     		.align	2
 805              	.L78:
 806 0018 00000000 		.word	.LANCHOR1
 807 001c 00000000 		.word	USBUART_cdcDataOutEp
 808              		.cfi_endproc
 809              	.LFE11:
 810              		.size	USBUART_GetData, .-USBUART_GetData
 811              		.section	.text.USBUART_GetAll,"ax",%progbits
 812              		.align	2
 813              		.global	USBUART_GetAll
 814              		.thumb
 815              		.thumb_func
 816              		.type	USBUART_GetAll, %function
 817              	USBUART_GetAll:
 818              	.LFB12:
 656:.\Generated_Source\PSoC5/USBUART_cdc.c **** 
 657:.\Generated_Source\PSoC5/USBUART_cdc.c **** 
 658:.\Generated_Source\PSoC5/USBUART_cdc.c **** /*******************************************************************************
 659:.\Generated_Source\PSoC5/USBUART_cdc.c **** * Function Name: USBUART_GetAll
 660:.\Generated_Source\PSoC5/USBUART_cdc.c **** ****************************************************************************//**
 661:.\Generated_Source\PSoC5/USBUART_cdc.c **** *
 662:.\Generated_Source\PSoC5/USBUART_cdc.c **** *  This function gets all bytes of received data from the input buffer and
 663:.\Generated_Source\PSoC5/USBUART_cdc.c **** *  places them into a specified data array. The
ARM GAS  C:\Users\student\AppData\Local\Temp\cckxTosa.s 			page 28


 664:.\Generated_Source\PSoC5/USBUART_cdc.c **** *  USBUART_DataIsReady() API should be called first, to be sure
 665:.\Generated_Source\PSoC5/USBUART_cdc.c **** *  that data is received from the host.
 666:.\Generated_Source\PSoC5/USBUART_cdc.c **** *
 667:.\Generated_Source\PSoC5/USBUART_cdc.c **** *  \param pData: Pointer to the data array where data will be placed.
 668:.\Generated_Source\PSoC5/USBUART_cdc.c **** *
 669:.\Generated_Source\PSoC5/USBUART_cdc.c **** * \return
 670:.\Generated_Source\PSoC5/USBUART_cdc.c **** *  Number of bytes received. The maximum amount of the received at a time
 671:.\Generated_Source\PSoC5/USBUART_cdc.c **** *  data is 64 bytes.
 672:.\Generated_Source\PSoC5/USBUART_cdc.c **** *
 673:.\Generated_Source\PSoC5/USBUART_cdc.c **** * \globalvars
 674:.\Generated_Source\PSoC5/USBUART_cdc.c **** *   - \ref USBUART_cdcDataOutEp: CDC OUT endpoint number used.
 675:.\Generated_Source\PSoC5/USBUART_cdc.c **** *   - \ref USBUART_EP[].bufferSize: EP max packet size is used as a
 676:.\Generated_Source\PSoC5/USBUART_cdc.c **** *     length to read all data from the EP buffer.
 677:.\Generated_Source\PSoC5/USBUART_cdc.c **** *
 678:.\Generated_Source\PSoC5/USBUART_cdc.c **** * \reentrant
 679:.\Generated_Source\PSoC5/USBUART_cdc.c **** *  No.
 680:.\Generated_Source\PSoC5/USBUART_cdc.c **** *
 681:.\Generated_Source\PSoC5/USBUART_cdc.c **** *******************************************************************************/
 682:.\Generated_Source\PSoC5/USBUART_cdc.c **** uint16 USBUART_GetAll(uint8* pData) 
 683:.\Generated_Source\PSoC5/USBUART_cdc.c **** {
 819              		.loc 1 683 0
 820              		.cfi_startproc
 821              		@ args = 0, pretend = 0, frame = 0
 822              		@ frame_needed = 0, uses_anonymous_args = 0
 823              	.LVL80:
 824 0000 08B5     		push	{r3, lr}
 825              		.cfi_def_cfa_offset 8
 826              		.cfi_offset 3, -8
 827              		.cfi_offset 14, -4
 828 0002 0146     		mov	r1, r0
 684:.\Generated_Source\PSoC5/USBUART_cdc.c ****     uint8 epNumber = USBUART_cdcDataOutEp[USBUART_activeCom];
 829              		.loc 1 684 0
 830 0004 074B     		ldr	r3, .L82
 831 0006 1B78     		ldrb	r3, [r3]	@ zero_extendqisi2
 832 0008 074A     		ldr	r2, .L82+4
 833 000a D05C     		ldrb	r0, [r2, r3]	@ zero_extendqisi2
 834              	.LVL81:
 835 000c C0B2     		uxtb	r0, r0
 836              	.LVL82:
 685:.\Generated_Source\PSoC5/USBUART_cdc.c ****     uint16 dataLength;
 686:.\Generated_Source\PSoC5/USBUART_cdc.c **** 
 687:.\Generated_Source\PSoC5/USBUART_cdc.c ****     /* Read data from OUT endpoint buffer. */
 688:.\Generated_Source\PSoC5/USBUART_cdc.c ****     dataLength = USBUART_ReadOutEP(epNumber, pData, USBUART_EP[epNumber].bufferSize);
 837              		.loc 1 688 0
 838 000e 00EB4003 		add	r3, r0, r0, lsl #1
 839 0012 9B00     		lsls	r3, r3, #2
 840 0014 054A     		ldr	r2, .L82+8
 841 0016 1344     		add	r3, r3, r2
 842 0018 1A89     		ldrh	r2, [r3, #8]
 843 001a 92B2     		uxth	r2, r2
 844 001c FFF7FEFF 		bl	USBUART_ReadOutEP
 845              	.LVL83:
 689:.\Generated_Source\PSoC5/USBUART_cdc.c **** 
 690:.\Generated_Source\PSoC5/USBUART_cdc.c **** #if (USBUART_EP_MANAGEMENT_DMA_MANUAL)
 691:.\Generated_Source\PSoC5/USBUART_cdc.c ****     /* Wait until DMA complete transferring data from OUT endpoint buffer. */
 692:.\Generated_Source\PSoC5/USBUART_cdc.c ****     while (USBUART_OUT_BUFFER_FULL == USBUART_GetEPState(epNumber))
 693:.\Generated_Source\PSoC5/USBUART_cdc.c ****     {
ARM GAS  C:\Users\student\AppData\Local\Temp\cckxTosa.s 			page 29


 694:.\Generated_Source\PSoC5/USBUART_cdc.c ****     }
 695:.\Generated_Source\PSoC5/USBUART_cdc.c **** 
 696:.\Generated_Source\PSoC5/USBUART_cdc.c ****     /* Enable OUT endpoint to communicate with host. */
 697:.\Generated_Source\PSoC5/USBUART_cdc.c ****     USBUART_EnableOutEP(epNumber);
 698:.\Generated_Source\PSoC5/USBUART_cdc.c **** #endif /* (USBUART_EP_MANAGEMENT_DMA_MANUAL) */
 699:.\Generated_Source\PSoC5/USBUART_cdc.c **** 
 700:.\Generated_Source\PSoC5/USBUART_cdc.c ****     return (dataLength);
 701:.\Generated_Source\PSoC5/USBUART_cdc.c **** }
 846              		.loc 1 701 0
 847 0020 08BD     		pop	{r3, pc}
 848              	.L83:
 849 0022 00BF     		.align	2
 850              	.L82:
 851 0024 00000000 		.word	.LANCHOR1
 852 0028 00000000 		.word	USBUART_cdcDataOutEp
 853 002c 00000000 		.word	USBUART_EP
 854              		.cfi_endproc
 855              	.LFE12:
 856              		.size	USBUART_GetAll, .-USBUART_GetAll
 857              		.section	.text.USBUART_GetChar,"ax",%progbits
 858              		.align	2
 859              		.global	USBUART_GetChar
 860              		.thumb
 861              		.thumb_func
 862              		.type	USBUART_GetChar, %function
 863              	USBUART_GetChar:
 864              	.LFB13:
 702:.\Generated_Source\PSoC5/USBUART_cdc.c **** 
 703:.\Generated_Source\PSoC5/USBUART_cdc.c **** 
 704:.\Generated_Source\PSoC5/USBUART_cdc.c **** /***************************************************************************
 705:.\Generated_Source\PSoC5/USBUART_cdc.c **** * Function Name: USBUART_GetChar
 706:.\Generated_Source\PSoC5/USBUART_cdc.c **** ************************************************************************//**
 707:.\Generated_Source\PSoC5/USBUART_cdc.c **** *
 708:.\Generated_Source\PSoC5/USBUART_cdc.c **** *  This function reads one byte of received data from the buffer. If more than
 709:.\Generated_Source\PSoC5/USBUART_cdc.c **** *  one byte has been received from the host, the rest of the data will be lost.
 710:.\Generated_Source\PSoC5/USBUART_cdc.c **** *
 711:.\Generated_Source\PSoC5/USBUART_cdc.c **** * \return
 712:.\Generated_Source\PSoC5/USBUART_cdc.c **** *  Received one character.
 713:.\Generated_Source\PSoC5/USBUART_cdc.c **** *
 714:.\Generated_Source\PSoC5/USBUART_cdc.c **** * \globalvars
 715:.\Generated_Source\PSoC5/USBUART_cdc.c **** *   USBUART_cdcDataOutEp: CDC OUT endpoint number used.
 716:.\Generated_Source\PSoC5/USBUART_cdc.c **** *
 717:.\Generated_Source\PSoC5/USBUART_cdc.c **** * \reentrant
 718:.\Generated_Source\PSoC5/USBUART_cdc.c **** *  No.
 719:.\Generated_Source\PSoC5/USBUART_cdc.c **** *
 720:.\Generated_Source\PSoC5/USBUART_cdc.c **** ***************************************************************************/
 721:.\Generated_Source\PSoC5/USBUART_cdc.c **** uint8 USBUART_GetChar(void) 
 722:.\Generated_Source\PSoC5/USBUART_cdc.c **** {
 865              		.loc 1 722 0
 866              		.cfi_startproc
 867              		@ args = 0, pretend = 0, frame = 8
 868              		@ frame_needed = 0, uses_anonymous_args = 0
 869 0000 00B5     		push	{lr}
 870              		.cfi_def_cfa_offset 4
 871              		.cfi_offset 14, -4
 872 0002 83B0     		sub	sp, sp, #12
 873              		.cfi_def_cfa_offset 16
ARM GAS  C:\Users\student\AppData\Local\Temp\cckxTosa.s 			page 30


 723:.\Generated_Source\PSoC5/USBUART_cdc.c ****      uint8 rxData;
 724:.\Generated_Source\PSoC5/USBUART_cdc.c ****      uint8 epNumber = USBUART_cdcDataOutEp[USBUART_activeCom];
 874              		.loc 1 724 0
 875 0004 064B     		ldr	r3, .L86
 876 0006 1B78     		ldrb	r3, [r3]	@ zero_extendqisi2
 877 0008 064A     		ldr	r2, .L86+4
 878 000a D05C     		ldrb	r0, [r2, r3]	@ zero_extendqisi2
 879              	.LVL84:
 725:.\Generated_Source\PSoC5/USBUART_cdc.c **** 
 726:.\Generated_Source\PSoC5/USBUART_cdc.c ****     (void) USBUART_ReadOutEP(epNumber, &rxData, 1u);
 880              		.loc 1 726 0
 881 000c 0DF10701 		add	r1, sp, #7
 882 0010 0122     		movs	r2, #1
 883 0012 FFF7FEFF 		bl	USBUART_ReadOutEP
 884              	.LVL85:
 727:.\Generated_Source\PSoC5/USBUART_cdc.c **** 
 728:.\Generated_Source\PSoC5/USBUART_cdc.c **** #if (USBUART_EP_MANAGEMENT_DMA_MANUAL)
 729:.\Generated_Source\PSoC5/USBUART_cdc.c ****     /* Wait until DMA complete transferring data from OUT endpoint buffer. */
 730:.\Generated_Source\PSoC5/USBUART_cdc.c ****     while (USBUART_OUT_BUFFER_FULL == USBUART_GetEPState(epNumber))
 731:.\Generated_Source\PSoC5/USBUART_cdc.c ****     {
 732:.\Generated_Source\PSoC5/USBUART_cdc.c ****     }
 733:.\Generated_Source\PSoC5/USBUART_cdc.c **** 
 734:.\Generated_Source\PSoC5/USBUART_cdc.c ****     /* Enable OUT endpoint to communicate with host. */
 735:.\Generated_Source\PSoC5/USBUART_cdc.c ****     USBUART_EnableOutEP(epNumber);
 736:.\Generated_Source\PSoC5/USBUART_cdc.c **** #endif /* (USBUART_EP_MANAGEMENT_DMA_MANUAL) */
 737:.\Generated_Source\PSoC5/USBUART_cdc.c **** 
 738:.\Generated_Source\PSoC5/USBUART_cdc.c ****     return (rxData);
 739:.\Generated_Source\PSoC5/USBUART_cdc.c **** }
 885              		.loc 1 739 0
 886 0016 9DF80700 		ldrb	r0, [sp, #7]	@ zero_extendqisi2
 887 001a 03B0     		add	sp, sp, #12
 888              		.cfi_def_cfa_offset 4
 889              		@ sp needed
 890 001c 5DF804FB 		ldr	pc, [sp], #4
 891              	.L87:
 892              		.align	2
 893              	.L86:
 894 0020 00000000 		.word	.LANCHOR1
 895 0024 00000000 		.word	USBUART_cdcDataOutEp
 896              		.cfi_endproc
 897              	.LFE13:
 898              		.size	USBUART_GetChar, .-USBUART_GetChar
 899              		.section	.text.USBUART_IsLineChanged,"ax",%progbits
 900              		.align	2
 901              		.global	USBUART_IsLineChanged
 902              		.thumb
 903              		.thumb_func
 904              		.type	USBUART_IsLineChanged, %function
 905              	USBUART_IsLineChanged:
 906              	.LFB14:
 740:.\Generated_Source\PSoC5/USBUART_cdc.c **** 
 741:.\Generated_Source\PSoC5/USBUART_cdc.c **** 
 742:.\Generated_Source\PSoC5/USBUART_cdc.c **** /*******************************************************************************
 743:.\Generated_Source\PSoC5/USBUART_cdc.c **** * Function Name: USBUART_IsLineChanged
 744:.\Generated_Source\PSoC5/USBUART_cdc.c **** ****************************************************************************//**
 745:.\Generated_Source\PSoC5/USBUART_cdc.c **** *
 746:.\Generated_Source\PSoC5/USBUART_cdc.c **** *  This function returns clear on read status of the line. It returns not zero
ARM GAS  C:\Users\student\AppData\Local\Temp\cckxTosa.s 			page 31


 747:.\Generated_Source\PSoC5/USBUART_cdc.c **** *  value when the host sends updated coding or control information to the
 748:.\Generated_Source\PSoC5/USBUART_cdc.c **** *  device. The USBUART_GetDTERate(), USBUART_GetCharFormat()
 749:.\Generated_Source\PSoC5/USBUART_cdc.c **** *  or USBUART_GetParityType() or USBUART_GetDataBits() API
 750:.\Generated_Source\PSoC5/USBUART_cdc.c **** *  should be called to read data coding information.
 751:.\Generated_Source\PSoC5/USBUART_cdc.c **** *  The USBUART_GetLineControl() API should be called to read line
 752:.\Generated_Source\PSoC5/USBUART_cdc.c **** *  control information.
 753:.\Generated_Source\PSoC5/USBUART_cdc.c **** *
 754:.\Generated_Source\PSoC5/USBUART_cdc.c **** * \return
 755:.\Generated_Source\PSoC5/USBUART_cdc.c **** *  If SET_LINE_CODING or CDC_SET_CONTROL_LINE_STATE requests are received, it
 756:.\Generated_Source\PSoC5/USBUART_cdc.c **** *  returns a non-zero value. Otherwise, it returns zero.
 757:.\Generated_Source\PSoC5/USBUART_cdc.c **** *  Return Value                 | Description
 758:.\Generated_Source\PSoC5/USBUART_cdc.c **** *  -----------------------------|--------------------------
 759:.\Generated_Source\PSoC5/USBUART_cdc.c **** *  USBUART_LINE_CODING_CHANGED  | Line coding changed
 760:.\Generated_Source\PSoC5/USBUART_cdc.c **** *  USBUART_LINE_CONTROL_CHANGED |   Line control changed
 761:.\Generated_Source\PSoC5/USBUART_cdc.c **** *
 762:.\Generated_Source\PSoC5/USBUART_cdc.c **** * \globalvars
 763:.\Generated_Source\PSoC5/USBUART_cdc.c **** *  - \ref USBUART_transferState: it is checked to be sure then OUT
 764:.\Generated_Source\PSoC5/USBUART_cdc.c **** *    data phase has been complete, and data written to the lineCoding or
 765:.\Generated_Source\PSoC5/USBUART_cdc.c **** *    Control Bitmap buffer.
 766:.\Generated_Source\PSoC5/USBUART_cdc.c **** *  - \ref USBUART_linesChanged: used as a flag to be aware that
 767:.\Generated_Source\PSoC5/USBUART_cdc.c **** *    Host has been sent request for changing Line Coding or Control Bitmap.
 768:.\Generated_Source\PSoC5/USBUART_cdc.c **** *
 769:.\Generated_Source\PSoC5/USBUART_cdc.c **** *******************************************************************************/
 770:.\Generated_Source\PSoC5/USBUART_cdc.c **** uint8 USBUART_IsLineChanged(void) 
 771:.\Generated_Source\PSoC5/USBUART_cdc.c **** {
 907              		.loc 1 771 0
 908              		.cfi_startproc
 909              		@ args = 0, pretend = 0, frame = 0
 910              		@ frame_needed = 0, uses_anonymous_args = 0
 911              		@ link register save eliminated.
 912              	.LVL86:
 772:.\Generated_Source\PSoC5/USBUART_cdc.c ****     uint8 state = 0u;
 773:.\Generated_Source\PSoC5/USBUART_cdc.c **** 
 774:.\Generated_Source\PSoC5/USBUART_cdc.c ****     /* transferState is checked to be sure then OUT data phase has been complete */
 775:.\Generated_Source\PSoC5/USBUART_cdc.c ****     if (USBUART_transferState == USBUART_TRANS_STATE_IDLE)
 913              		.loc 1 775 0
 914 0000 0A4B     		ldr	r3, .L92
 915 0002 1B78     		ldrb	r3, [r3]	@ zero_extendqisi2
 916 0004 13F0FF0F 		tst	r3, #255
 917 0008 0CD1     		bne	.L90
 776:.\Generated_Source\PSoC5/USBUART_cdc.c ****     {
 777:.\Generated_Source\PSoC5/USBUART_cdc.c ****         if (USBUART_linesChanged[USBUART_activeCom] != 0u)
 918              		.loc 1 777 0
 919 000a 094B     		ldr	r3, .L92+4
 920 000c 1B78     		ldrb	r3, [r3]	@ zero_extendqisi2
 921 000e 094A     		ldr	r2, .L92+8
 922 0010 D25C     		ldrb	r2, [r2, r3]	@ zero_extendqisi2
 923 0012 12F0FF0F 		tst	r2, #255
 924 0016 07D0     		beq	.L91
 778:.\Generated_Source\PSoC5/USBUART_cdc.c ****         {
 779:.\Generated_Source\PSoC5/USBUART_cdc.c ****             state = USBUART_linesChanged[USBUART_activeCom];
 925              		.loc 1 779 0
 926 0018 064A     		ldr	r2, .L92+8
 927 001a D05C     		ldrb	r0, [r2, r3]	@ zero_extendqisi2
 928 001c C0B2     		uxtb	r0, r0
 929              	.LVL87:
 780:.\Generated_Source\PSoC5/USBUART_cdc.c ****             USBUART_linesChanged[USBUART_activeCom] = 0u;
ARM GAS  C:\Users\student\AppData\Local\Temp\cckxTosa.s 			page 32


 930              		.loc 1 780 0
 931 001e 0021     		movs	r1, #0
 932 0020 D154     		strb	r1, [r2, r3]
 933 0022 7047     		bx	lr
 934              	.LVL88:
 935              	.L90:
 772:.\Generated_Source\PSoC5/USBUART_cdc.c **** 
 936              		.loc 1 772 0
 937 0024 0020     		movs	r0, #0
 938 0026 7047     		bx	lr
 939              	.L91:
 940 0028 0020     		movs	r0, #0
 941              	.LVL89:
 781:.\Generated_Source\PSoC5/USBUART_cdc.c ****         }
 782:.\Generated_Source\PSoC5/USBUART_cdc.c ****     }
 783:.\Generated_Source\PSoC5/USBUART_cdc.c **** 
 784:.\Generated_Source\PSoC5/USBUART_cdc.c ****     return (state);
 785:.\Generated_Source\PSoC5/USBUART_cdc.c **** }
 942              		.loc 1 785 0
 943 002a 7047     		bx	lr
 944              	.L93:
 945              		.align	2
 946              	.L92:
 947 002c 00000000 		.word	USBUART_transferState
 948 0030 00000000 		.word	.LANCHOR1
 949 0034 00000000 		.word	USBUART_linesChanged
 950              		.cfi_endproc
 951              	.LFE14:
 952              		.size	USBUART_IsLineChanged, .-USBUART_IsLineChanged
 953              		.section	.text.USBUART_GetDTERate,"ax",%progbits
 954              		.align	2
 955              		.global	USBUART_GetDTERate
 956              		.thumb
 957              		.thumb_func
 958              		.type	USBUART_GetDTERate, %function
 959              	USBUART_GetDTERate:
 960              	.LFB15:
 786:.\Generated_Source\PSoC5/USBUART_cdc.c **** 
 787:.\Generated_Source\PSoC5/USBUART_cdc.c **** 
 788:.\Generated_Source\PSoC5/USBUART_cdc.c **** /***************************************************************************
 789:.\Generated_Source\PSoC5/USBUART_cdc.c **** * Function Name: USBUART_GetDTERate
 790:.\Generated_Source\PSoC5/USBUART_cdc.c **** ************************************************************************//**
 791:.\Generated_Source\PSoC5/USBUART_cdc.c **** *
 792:.\Generated_Source\PSoC5/USBUART_cdc.c **** *  This function returns the data terminal rate set for this port in bits
 793:.\Generated_Source\PSoC5/USBUART_cdc.c **** *  per second.
 794:.\Generated_Source\PSoC5/USBUART_cdc.c **** *
 795:.\Generated_Source\PSoC5/USBUART_cdc.c **** * \return
 796:.\Generated_Source\PSoC5/USBUART_cdc.c **** *  Returns a uint32 value of the data rate in bits per second.
 797:.\Generated_Source\PSoC5/USBUART_cdc.c **** *
 798:.\Generated_Source\PSoC5/USBUART_cdc.c **** * \globalvars
 799:.\Generated_Source\PSoC5/USBUART_cdc.c **** *  USBUART_linesCoding: First four bytes converted to uint32
 800:.\Generated_Source\PSoC5/USBUART_cdc.c **** *    depend on compiler, and returned as a data rate.
 801:.\Generated_Source\PSoC5/USBUART_cdc.c **** *
 802:.\Generated_Source\PSoC5/USBUART_cdc.c **** *******************************************************************************/
 803:.\Generated_Source\PSoC5/USBUART_cdc.c **** uint32 USBUART_GetDTERate(void) 
 804:.\Generated_Source\PSoC5/USBUART_cdc.c **** {
 961              		.loc 1 804 0
ARM GAS  C:\Users\student\AppData\Local\Temp\cckxTosa.s 			page 33


 962              		.cfi_startproc
 963              		@ args = 0, pretend = 0, frame = 0
 964              		@ frame_needed = 0, uses_anonymous_args = 0
 965              		@ link register save eliminated.
 966 0000 10B4     		push	{r4}
 967              		.cfi_def_cfa_offset 4
 968              		.cfi_offset 4, -4
 805:.\Generated_Source\PSoC5/USBUART_cdc.c ****     uint32 rate;
 806:.\Generated_Source\PSoC5/USBUART_cdc.c **** 
 807:.\Generated_Source\PSoC5/USBUART_cdc.c ****     rate = USBUART_linesCoding[USBUART_activeCom][USBUART_LINE_CODING_RATE + 3u];
 969              		.loc 1 807 0
 970 0002 094B     		ldr	r3, .L96
 971 0004 1B78     		ldrb	r3, [r3]	@ zero_extendqisi2
 972 0006 094C     		ldr	r4, .L96+4
 973 0008 C3EBC303 		rsb	r3, r3, r3, lsl #3
 974 000c E118     		adds	r1, r4, r3
 975 000e C878     		ldrb	r0, [r1, #3]	@ zero_extendqisi2
 976              	.LVL90:
 808:.\Generated_Source\PSoC5/USBUART_cdc.c ****     rate = (rate << 8u) | USBUART_linesCoding[USBUART_activeCom][USBUART_LINE_CODING_RATE + 2u];
 977              		.loc 1 808 0
 978 0010 8A78     		ldrb	r2, [r1, #2]	@ zero_extendqisi2
 979 0012 42EA0020 		orr	r0, r2, r0, lsl #8
 980              	.LVL91:
 809:.\Generated_Source\PSoC5/USBUART_cdc.c ****     rate = (rate << 8u) | USBUART_linesCoding[USBUART_activeCom][USBUART_LINE_CODING_RATE + 1u];
 981              		.loc 1 809 0
 982 0016 4A78     		ldrb	r2, [r1, #1]	@ zero_extendqisi2
 983 0018 42EA0022 		orr	r2, r2, r0, lsl #8
 984              	.LVL92:
 810:.\Generated_Source\PSoC5/USBUART_cdc.c ****     rate = (rate << 8u) | USBUART_linesCoding[USBUART_activeCom][USBUART_LINE_CODING_RATE];
 985              		.loc 1 810 0
 986 001c E05C     		ldrb	r0, [r4, r3]	@ zero_extendqisi2
 987              	.LVL93:
 811:.\Generated_Source\PSoC5/USBUART_cdc.c **** 
 812:.\Generated_Source\PSoC5/USBUART_cdc.c ****     return (rate);
 813:.\Generated_Source\PSoC5/USBUART_cdc.c **** }
 988              		.loc 1 813 0
 989 001e 40EA0220 		orr	r0, r0, r2, lsl #8
 990              	.LVL94:
 991 0022 5DF8044B 		ldr	r4, [sp], #4
 992              		.cfi_restore 4
 993              		.cfi_def_cfa_offset 0
 994 0026 7047     		bx	lr
 995              	.L97:
 996              		.align	2
 997              	.L96:
 998 0028 00000000 		.word	.LANCHOR1
 999 002c 00000000 		.word	.LANCHOR0
 1000              		.cfi_endproc
 1001              	.LFE15:
 1002              		.size	USBUART_GetDTERate, .-USBUART_GetDTERate
 1003              		.section	.text.USBUART_GetCharFormat,"ax",%progbits
 1004              		.align	2
 1005              		.global	USBUART_GetCharFormat
 1006              		.thumb
 1007              		.thumb_func
 1008              		.type	USBUART_GetCharFormat, %function
 1009              	USBUART_GetCharFormat:
ARM GAS  C:\Users\student\AppData\Local\Temp\cckxTosa.s 			page 34


 1010              	.LFB16:
 814:.\Generated_Source\PSoC5/USBUART_cdc.c **** 
 815:.\Generated_Source\PSoC5/USBUART_cdc.c **** 
 816:.\Generated_Source\PSoC5/USBUART_cdc.c **** /*******************************************************************************
 817:.\Generated_Source\PSoC5/USBUART_cdc.c **** * Function Name: USBUART_GetCharFormat
 818:.\Generated_Source\PSoC5/USBUART_cdc.c **** ****************************************************************************//**
 819:.\Generated_Source\PSoC5/USBUART_cdc.c **** *
 820:.\Generated_Source\PSoC5/USBUART_cdc.c **** *  Returns the number of stop bits.
 821:.\Generated_Source\PSoC5/USBUART_cdc.c **** *
 822:.\Generated_Source\PSoC5/USBUART_cdc.c **** * \return
 823:.\Generated_Source\PSoC5/USBUART_cdc.c **** *  Returns the number of stop bits.
 824:.\Generated_Source\PSoC5/USBUART_cdc.c **** *  Return               |Value Description
 825:.\Generated_Source\PSoC5/USBUART_cdc.c **** *  ---------------------|-------------------
 826:.\Generated_Source\PSoC5/USBUART_cdc.c **** *  USBUART_1_STOPBIT    | 1 stop bit
 827:.\Generated_Source\PSoC5/USBUART_cdc.c **** *  USBUART_1_5_STOPBITS | 1,5 stop bits
 828:.\Generated_Source\PSoC5/USBUART_cdc.c **** *  USBUART_2_STOPBITS   | 2 stop bits
 829:.\Generated_Source\PSoC5/USBUART_cdc.c **** *
 830:.\Generated_Source\PSoC5/USBUART_cdc.c **** *
 831:.\Generated_Source\PSoC5/USBUART_cdc.c **** * \globalvars
 832:.\Generated_Source\PSoC5/USBUART_cdc.c **** *  USBUART_linesCoding: used to get a parameter.
 833:.\Generated_Source\PSoC5/USBUART_cdc.c **** *
 834:.\Generated_Source\PSoC5/USBUART_cdc.c **** *******************************************************************************/
 835:.\Generated_Source\PSoC5/USBUART_cdc.c **** uint8 USBUART_GetCharFormat(void) 
 836:.\Generated_Source\PSoC5/USBUART_cdc.c **** {
 1011              		.loc 1 836 0
 1012              		.cfi_startproc
 1013              		@ args = 0, pretend = 0, frame = 0
 1014              		@ frame_needed = 0, uses_anonymous_args = 0
 1015              		@ link register save eliminated.
 837:.\Generated_Source\PSoC5/USBUART_cdc.c ****     return (USBUART_linesCoding[USBUART_activeCom][USBUART_LINE_CODING_STOP_BITS]);
 1016              		.loc 1 837 0
 1017 0000 034B     		ldr	r3, .L99
 1018 0002 1B78     		ldrb	r3, [r3]	@ zero_extendqisi2
 1019 0004 C3EBC303 		rsb	r3, r3, r3, lsl #3
 1020 0008 024A     		ldr	r2, .L99+4
 1021 000a 1344     		add	r3, r3, r2
 1022 000c 1879     		ldrb	r0, [r3, #4]	@ zero_extendqisi2
 838:.\Generated_Source\PSoC5/USBUART_cdc.c **** }
 1023              		.loc 1 838 0
 1024 000e 7047     		bx	lr
 1025              	.L100:
 1026              		.align	2
 1027              	.L99:
 1028 0010 00000000 		.word	.LANCHOR1
 1029 0014 00000000 		.word	.LANCHOR0
 1030              		.cfi_endproc
 1031              	.LFE16:
 1032              		.size	USBUART_GetCharFormat, .-USBUART_GetCharFormat
 1033              		.section	.text.USBUART_GetParityType,"ax",%progbits
 1034              		.align	2
 1035              		.global	USBUART_GetParityType
 1036              		.thumb
 1037              		.thumb_func
 1038              		.type	USBUART_GetParityType, %function
 1039              	USBUART_GetParityType:
 1040              	.LFB17:
 839:.\Generated_Source\PSoC5/USBUART_cdc.c **** 
ARM GAS  C:\Users\student\AppData\Local\Temp\cckxTosa.s 			page 35


 840:.\Generated_Source\PSoC5/USBUART_cdc.c **** 
 841:.\Generated_Source\PSoC5/USBUART_cdc.c **** /*******************************************************************************
 842:.\Generated_Source\PSoC5/USBUART_cdc.c **** * Function Name: USBUART_GetParityType
 843:.\Generated_Source\PSoC5/USBUART_cdc.c **** ****************************************************************************//**
 844:.\Generated_Source\PSoC5/USBUART_cdc.c **** *
 845:.\Generated_Source\PSoC5/USBUART_cdc.c **** *  This function returns the parity type for the CDC port.
 846:.\Generated_Source\PSoC5/USBUART_cdc.c **** *
 847:.\Generated_Source\PSoC5/USBUART_cdc.c **** * \return
 848:.\Generated_Source\PSoC5/USBUART_cdc.c **** *  Returns the parity type.
 849:.\Generated_Source\PSoC5/USBUART_cdc.c **** *   Return               | Value Description
 850:.\Generated_Source\PSoC5/USBUART_cdc.c **** *  ----------------------|-------------------
 851:.\Generated_Source\PSoC5/USBUART_cdc.c **** *  USBUART_PARITY_NONE   | 1 stop bit
 852:.\Generated_Source\PSoC5/USBUART_cdc.c **** *  USBUART_PARITY_ODD    | 1,5 stop bits
 853:.\Generated_Source\PSoC5/USBUART_cdc.c **** *  USBUART_PARITY_EVEN   | 2 stop bits
 854:.\Generated_Source\PSoC5/USBUART_cdc.c **** *  USBUART_PARITY_MARK   | Mark
 855:.\Generated_Source\PSoC5/USBUART_cdc.c **** *  USBUART_PARITY_SPACE  | Space
 856:.\Generated_Source\PSoC5/USBUART_cdc.c **** *
 857:.\Generated_Source\PSoC5/USBUART_cdc.c **** * \globalvars
 858:.\Generated_Source\PSoC5/USBUART_cdc.c **** *  USBUART_linesCoding: used to get a parameter.
 859:.\Generated_Source\PSoC5/USBUART_cdc.c **** *
 860:.\Generated_Source\PSoC5/USBUART_cdc.c **** *******************************************************************************/
 861:.\Generated_Source\PSoC5/USBUART_cdc.c **** uint8 USBUART_GetParityType(void) 
 862:.\Generated_Source\PSoC5/USBUART_cdc.c **** {
 1041              		.loc 1 862 0
 1042              		.cfi_startproc
 1043              		@ args = 0, pretend = 0, frame = 0
 1044              		@ frame_needed = 0, uses_anonymous_args = 0
 1045              		@ link register save eliminated.
 863:.\Generated_Source\PSoC5/USBUART_cdc.c ****     return (USBUART_linesCoding[USBUART_activeCom][USBUART_LINE_CODING_PARITY]);
 1046              		.loc 1 863 0
 1047 0000 034B     		ldr	r3, .L102
 1048 0002 1B78     		ldrb	r3, [r3]	@ zero_extendqisi2
 1049 0004 C3EBC303 		rsb	r3, r3, r3, lsl #3
 1050 0008 024A     		ldr	r2, .L102+4
 1051 000a 1344     		add	r3, r3, r2
 1052 000c 5879     		ldrb	r0, [r3, #5]	@ zero_extendqisi2
 864:.\Generated_Source\PSoC5/USBUART_cdc.c **** }
 1053              		.loc 1 864 0
 1054 000e 7047     		bx	lr
 1055              	.L103:
 1056              		.align	2
 1057              	.L102:
 1058 0010 00000000 		.word	.LANCHOR1
 1059 0014 00000000 		.word	.LANCHOR0
 1060              		.cfi_endproc
 1061              	.LFE17:
 1062              		.size	USBUART_GetParityType, .-USBUART_GetParityType
 1063              		.section	.text.USBUART_GetDataBits,"ax",%progbits
 1064              		.align	2
 1065              		.global	USBUART_GetDataBits
 1066              		.thumb
 1067              		.thumb_func
 1068              		.type	USBUART_GetDataBits, %function
 1069              	USBUART_GetDataBits:
 1070              	.LFB18:
 865:.\Generated_Source\PSoC5/USBUART_cdc.c **** 
 866:.\Generated_Source\PSoC5/USBUART_cdc.c **** 
ARM GAS  C:\Users\student\AppData\Local\Temp\cckxTosa.s 			page 36


 867:.\Generated_Source\PSoC5/USBUART_cdc.c **** /***************************************************************************
 868:.\Generated_Source\PSoC5/USBUART_cdc.c **** * Function Name: USBUART_GetDataBits
 869:.\Generated_Source\PSoC5/USBUART_cdc.c **** ************************************************************************//**
 870:.\Generated_Source\PSoC5/USBUART_cdc.c **** *
 871:.\Generated_Source\PSoC5/USBUART_cdc.c **** *  This function returns the number of data bits for the CDC port.
 872:.\Generated_Source\PSoC5/USBUART_cdc.c **** *
 873:.\Generated_Source\PSoC5/USBUART_cdc.c **** * \return
 874:.\Generated_Source\PSoC5/USBUART_cdc.c **** *  Returns the number of data bits.
 875:.\Generated_Source\PSoC5/USBUART_cdc.c **** *  The number of data bits can be 5, 6, 7, 8 or 16.
 876:.\Generated_Source\PSoC5/USBUART_cdc.c **** *
 877:.\Generated_Source\PSoC5/USBUART_cdc.c **** * \globalvars
 878:.\Generated_Source\PSoC5/USBUART_cdc.c **** *  USBUART_linesCoding: used to get a parameter.
 879:.\Generated_Source\PSoC5/USBUART_cdc.c **** *
 880:.\Generated_Source\PSoC5/USBUART_cdc.c **** *******************************************************************************/
 881:.\Generated_Source\PSoC5/USBUART_cdc.c **** uint8 USBUART_GetDataBits(void) 
 882:.\Generated_Source\PSoC5/USBUART_cdc.c **** {
 1071              		.loc 1 882 0
 1072              		.cfi_startproc
 1073              		@ args = 0, pretend = 0, frame = 0
 1074              		@ frame_needed = 0, uses_anonymous_args = 0
 1075              		@ link register save eliminated.
 883:.\Generated_Source\PSoC5/USBUART_cdc.c ****     return (USBUART_linesCoding[USBUART_activeCom][USBUART_LINE_CODING_DATA_BITS]);
 1076              		.loc 1 883 0
 1077 0000 034B     		ldr	r3, .L105
 1078 0002 1B78     		ldrb	r3, [r3]	@ zero_extendqisi2
 1079 0004 C3EBC303 		rsb	r3, r3, r3, lsl #3
 1080 0008 024A     		ldr	r2, .L105+4
 1081 000a 1344     		add	r3, r3, r2
 1082 000c 9879     		ldrb	r0, [r3, #6]	@ zero_extendqisi2
 884:.\Generated_Source\PSoC5/USBUART_cdc.c **** }
 1083              		.loc 1 884 0
 1084 000e 7047     		bx	lr
 1085              	.L106:
 1086              		.align	2
 1087              	.L105:
 1088 0010 00000000 		.word	.LANCHOR1
 1089 0014 00000000 		.word	.LANCHOR0
 1090              		.cfi_endproc
 1091              	.LFE18:
 1092              		.size	USBUART_GetDataBits, .-USBUART_GetDataBits
 1093              		.section	.text.USBUART_GetLineControl,"ax",%progbits
 1094              		.align	2
 1095              		.global	USBUART_GetLineControl
 1096              		.thumb
 1097              		.thumb_func
 1098              		.type	USBUART_GetLineControl, %function
 1099              	USBUART_GetLineControl:
 1100              	.LFB19:
 885:.\Generated_Source\PSoC5/USBUART_cdc.c **** 
 886:.\Generated_Source\PSoC5/USBUART_cdc.c **** 
 887:.\Generated_Source\PSoC5/USBUART_cdc.c **** /***************************************************************************
 888:.\Generated_Source\PSoC5/USBUART_cdc.c **** * Function Name: USBUART_GetLineControl
 889:.\Generated_Source\PSoC5/USBUART_cdc.c **** ************************************************************************//**
 890:.\Generated_Source\PSoC5/USBUART_cdc.c **** *
 891:.\Generated_Source\PSoC5/USBUART_cdc.c **** *  This function returns Line control bitmap that the host sends to the
 892:.\Generated_Source\PSoC5/USBUART_cdc.c **** *  device.
 893:.\Generated_Source\PSoC5/USBUART_cdc.c **** *
ARM GAS  C:\Users\student\AppData\Local\Temp\cckxTosa.s 			page 37


 894:.\Generated_Source\PSoC5/USBUART_cdc.c **** * \return
 895:.\Generated_Source\PSoC5/USBUART_cdc.c **** *  Returns Line control bitmap.
 896:.\Generated_Source\PSoC5/USBUART_cdc.c **** *  Return                   |Value Notes
 897:.\Generated_Source\PSoC5/USBUART_cdc.c **** *  -------------------------|-----------------------------------------------
 898:.\Generated_Source\PSoC5/USBUART_cdc.c **** *  USBUART_LINE_CONTROL_DTR |Indicates that a DTR signal is present. This signal corresponds to V.2
 899:.\Generated_Source\PSoC5/USBUART_cdc.c **** *  USBUART_LINE_CONTROL_RTS |Carrier control for half-duplex modems. This signal corresponds to V.2
 900:.\Generated_Source\PSoC5/USBUART_cdc.c **** *  RESERVED                 |The rest of the bits are reserved.
 901:.\Generated_Source\PSoC5/USBUART_cdc.c **** *
 902:.\Generated_Source\PSoC5/USBUART_cdc.c **** *  *Note* Some terminal emulation programs do not properly handle these
 903:.\Generated_Source\PSoC5/USBUART_cdc.c **** *  control signals. They update information about DTR and RTS state only
 904:.\Generated_Source\PSoC5/USBUART_cdc.c **** *  when the RTS signal changes the state.
 905:.\Generated_Source\PSoC5/USBUART_cdc.c **** *
 906:.\Generated_Source\PSoC5/USBUART_cdc.c **** * \globalvars
 907:.\Generated_Source\PSoC5/USBUART_cdc.c **** *  USBUART_linesControlBitmap: used to get a parameter.
 908:.\Generated_Source\PSoC5/USBUART_cdc.c **** *
 909:.\Generated_Source\PSoC5/USBUART_cdc.c **** *******************************************************************************/
 910:.\Generated_Source\PSoC5/USBUART_cdc.c **** uint16 USBUART_GetLineControl(void) 
 911:.\Generated_Source\PSoC5/USBUART_cdc.c **** {
 1101              		.loc 1 911 0
 1102              		.cfi_startproc
 1103              		@ args = 0, pretend = 0, frame = 0
 1104              		@ frame_needed = 0, uses_anonymous_args = 0
 1105              		@ link register save eliminated.
 912:.\Generated_Source\PSoC5/USBUART_cdc.c ****     return (USBUART_linesControlBitmap[USBUART_activeCom]);
 1106              		.loc 1 912 0
 1107 0000 034B     		ldr	r3, .L108
 1108 0002 1A78     		ldrb	r2, [r3]	@ zero_extendqisi2
 1109 0004 034B     		ldr	r3, .L108+4
 1110 0006 33F81200 		ldrh	r0, [r3, r2, lsl #1]
 913:.\Generated_Source\PSoC5/USBUART_cdc.c **** }
 1111              		.loc 1 913 0
 1112 000a 80B2     		uxth	r0, r0
 1113 000c 7047     		bx	lr
 1114              	.L109:
 1115 000e 00BF     		.align	2
 1116              	.L108:
 1117 0010 00000000 		.word	.LANCHOR1
 1118 0014 00000000 		.word	USBUART_linesControlBitmap
 1119              		.cfi_endproc
 1120              	.LFE19:
 1121              		.size	USBUART_GetLineControl, .-USBUART_GetLineControl
 1122              		.section	.text.USBUART_SendSerialState,"ax",%progbits
 1123              		.align	2
 1124              		.global	USBUART_SendSerialState
 1125              		.thumb
 1126              		.thumb_func
 1127              		.type	USBUART_SendSerialState, %function
 1128              	USBUART_SendSerialState:
 1129              	.LFB20:
 914:.\Generated_Source\PSoC5/USBUART_cdc.c **** 
 915:.\Generated_Source\PSoC5/USBUART_cdc.c **** 
 916:.\Generated_Source\PSoC5/USBUART_cdc.c **** /*******************************************************************************
 917:.\Generated_Source\PSoC5/USBUART_cdc.c **** * Function Name: USBUART_SendSerialState
 918:.\Generated_Source\PSoC5/USBUART_cdc.c **** ****************************************************************************//**
 919:.\Generated_Source\PSoC5/USBUART_cdc.c **** *
 920:.\Generated_Source\PSoC5/USBUART_cdc.c **** *  Sends the serial state notification to the host using the interrupt
 921:.\Generated_Source\PSoC5/USBUART_cdc.c **** *  endpoint for the COM port selected using the API SetComPort().The
ARM GAS  C:\Users\student\AppData\Local\Temp\cckxTosa.s 			page 38


 922:.\Generated_Source\PSoC5/USBUART_cdc.c **** *  USBUART_NotificationIsReady() API must be called to check if the
 923:.\Generated_Source\PSoC5/USBUART_cdc.c **** *  Component is ready to send more serial state to the host. The API will
 924:.\Generated_Source\PSoC5/USBUART_cdc.c **** *  not send the notification data if the interrupt endpoint Max Packet Size
 925:.\Generated_Source\PSoC5/USBUART_cdc.c **** *  is less than the required 10 bytes.
 926:.\Generated_Source\PSoC5/USBUART_cdc.c **** *
 927:.\Generated_Source\PSoC5/USBUART_cdc.c **** * \param uint16 serialState
 928:.\Generated_Source\PSoC5/USBUART_cdc.c **** *  16-bit value that will be sent from the device to the
 929:.\Generated_Source\PSoC5/USBUART_cdc.c **** *  host as SERIAL_STATE notification using the IN interrupt endpoint. Refer
 930:.\Generated_Source\PSoC5/USBUART_cdc.c **** *  to revision 1.2 of the CDC PSTN Subclass specification for bit field
 931:.\Generated_Source\PSoC5/USBUART_cdc.c **** *  definitions of the 16-bit serial state value.
 932:.\Generated_Source\PSoC5/USBUART_cdc.c **** *
 933:.\Generated_Source\PSoC5/USBUART_cdc.c **** *******************************************************************************/
 934:.\Generated_Source\PSoC5/USBUART_cdc.c **** void USBUART_SendSerialState (uint16 serialState) 
 935:.\Generated_Source\PSoC5/USBUART_cdc.c **** {
 1130              		.loc 1 935 0
 1131              		.cfi_startproc
 1132              		@ args = 0, pretend = 0, frame = 0
 1133              		@ frame_needed = 0, uses_anonymous_args = 0
 1134              	.LVL95:
 1135 0000 10B5     		push	{r4, lr}
 1136              		.cfi_def_cfa_offset 8
 1137              		.cfi_offset 4, -8
 1138              		.cfi_offset 14, -4
 936:.\Generated_Source\PSoC5/USBUART_cdc.c ****     uint8 epNumber = USBUART_cdcCommInInterruptEp[USBUART_activeCom];
 1139              		.loc 1 936 0
 1140 0002 134B     		ldr	r3, .L113
 1141 0004 1C78     		ldrb	r4, [r3]	@ zero_extendqisi2
 1142 0006 134B     		ldr	r3, .L113+4
 1143 0008 1B5D     		ldrb	r3, [r3, r4]	@ zero_extendqisi2
 1144 000a DBB2     		uxtb	r3, r3
 1145              	.LVL96:
 937:.\Generated_Source\PSoC5/USBUART_cdc.c **** 
 938:.\Generated_Source\PSoC5/USBUART_cdc.c ****     if(USBUART_SERIAL_STATE_SIZE <= USBUART_EP[epNumber].bufferSize)
 1146              		.loc 1 938 0
 1147 000c 03EB4302 		add	r2, r3, r3, lsl #1
 1148 0010 9200     		lsls	r2, r2, #2
 1149 0012 1149     		ldr	r1, .L113+8
 1150 0014 0A44     		add	r2, r2, r1
 1151 0016 1289     		ldrh	r2, [r2, #8]
 1152 0018 92B2     		uxth	r2, r2
 1153 001a 092A     		cmp	r2, #9
 1154 001c 17D9     		bls	.L110
 939:.\Generated_Source\PSoC5/USBUART_cdc.c ****     {
 940:.\Generated_Source\PSoC5/USBUART_cdc.c ****         /* Save current SERIAL_STATE bitmap. */
 941:.\Generated_Source\PSoC5/USBUART_cdc.c ****         USBUART_serialStateBitmap[USBUART_activeCom] = serialState;
 1155              		.loc 1 941 0
 1156 001e 0F4A     		ldr	r2, .L113+12
 1157 0020 22F81400 		strh	r0, [r2, r4, lsl #1]	@ movhi
 942:.\Generated_Source\PSoC5/USBUART_cdc.c **** 
 943:.\Generated_Source\PSoC5/USBUART_cdc.c ****         /* Add interface number */
 944:.\Generated_Source\PSoC5/USBUART_cdc.c ****         USBUART_serialStateNotification.wIndex = USBUART_EP[epNumber].interface;
 1158              		.loc 1 944 0
 1159 0024 03EB4300 		add	r0, r3, r3, lsl #1
 1160              	.LVL97:
 1161 0028 8000     		lsls	r0, r0, #2
 1162 002a 0831     		adds	r1, r1, #8
 1163 002c 0144     		add	r1, r1, r0
ARM GAS  C:\Users\student\AppData\Local\Temp\cckxTosa.s 			page 39


 1164 002e 8878     		ldrb	r0, [r1, #2]	@ zero_extendqisi2
 1165 0030 0B49     		ldr	r1, .L113+16
 1166 0032 0875     		strb	r0, [r1, #20]
 945:.\Generated_Source\PSoC5/USBUART_cdc.c **** 
 946:.\Generated_Source\PSoC5/USBUART_cdc.c ****         /*Form SERIAL_STATE data*/
 947:.\Generated_Source\PSoC5/USBUART_cdc.c ****         USBUART_serialStateNotification.wSerialState =    LO8(USBUART_serialStateBitmap[USBUART_act
 1167              		.loc 1 947 0
 1168 0034 32F81400 		ldrh	r0, [r2, r4, lsl #1]
 1169 0038 0876     		strb	r0, [r1, #24]
 948:.\Generated_Source\PSoC5/USBUART_cdc.c ****         USBUART_serialStateNotification.wSerialStateMSB = HI8(USBUART_serialStateBitmap[USBUART_act
 1170              		.loc 1 948 0
 1171 003a 32F81420 		ldrh	r2, [r2, r4, lsl #1]
 1172              	.LVL98:
 1173 003e C2F30722 		ubfx	r2, r2, #8, #8
 1174 0042 4A76     		strb	r2, [r1, #25]
 949:.\Generated_Source\PSoC5/USBUART_cdc.c **** 
 950:.\Generated_Source\PSoC5/USBUART_cdc.c ****         USBUART_LoadInEP(epNumber, (uint8 *) &USBUART_serialStateNotification, sizeof(USBUART_seria
 1175              		.loc 1 950 0
 1176 0044 1846     		mov	r0, r3
 1177 0046 1031     		adds	r1, r1, #16
 1178 0048 0A22     		movs	r2, #10
 1179 004a FFF7FEFF 		bl	USBUART_LoadInEP
 1180              	.LVL99:
 1181              	.L110:
 1182 004e 10BD     		pop	{r4, pc}
 1183              	.L114:
 1184              		.align	2
 1185              	.L113:
 1186 0050 00000000 		.word	.LANCHOR1
 1187 0054 00000000 		.word	USBUART_cdcCommInInterruptEp
 1188 0058 00000000 		.word	USBUART_EP
 1189 005c 00000000 		.word	USBUART_serialStateBitmap
 1190 0060 00000000 		.word	.LANCHOR0
 1191              		.cfi_endproc
 1192              	.LFE20:
 1193              		.size	USBUART_SendSerialState, .-USBUART_SendSerialState
 1194              		.section	.text.USBUART_GetSerialState,"ax",%progbits
 1195              		.align	2
 1196              		.global	USBUART_GetSerialState
 1197              		.thumb
 1198              		.thumb_func
 1199              		.type	USBUART_GetSerialState, %function
 1200              	USBUART_GetSerialState:
 1201              	.LFB21:
 951:.\Generated_Source\PSoC5/USBUART_cdc.c ****     }
 952:.\Generated_Source\PSoC5/USBUART_cdc.c **** }
 953:.\Generated_Source\PSoC5/USBUART_cdc.c **** 
 954:.\Generated_Source\PSoC5/USBUART_cdc.c **** 
 955:.\Generated_Source\PSoC5/USBUART_cdc.c **** /*******************************************************************************
 956:.\Generated_Source\PSoC5/USBUART_cdc.c **** * Function Name: USBUART_GetSerialState
 957:.\Generated_Source\PSoC5/USBUART_cdc.c **** ****************************************************************************//**
 958:.\Generated_Source\PSoC5/USBUART_cdc.c **** *
 959:.\Generated_Source\PSoC5/USBUART_cdc.c **** *  This function returns the current serial state value for the COM port
 960:.\Generated_Source\PSoC5/USBUART_cdc.c **** *  selected using the API SetComPort().
 961:.\Generated_Source\PSoC5/USBUART_cdc.c **** *
 962:.\Generated_Source\PSoC5/USBUART_cdc.c **** * \return
 963:.\Generated_Source\PSoC5/USBUART_cdc.c **** *  16-bit serial state value. Refer to revision 1.2 of the CDC PSTN Subclass
ARM GAS  C:\Users\student\AppData\Local\Temp\cckxTosa.s 			page 40


 964:.\Generated_Source\PSoC5/USBUART_cdc.c **** *  specification for bit field definitions of the 16-bit serial state value.
 965:.\Generated_Source\PSoC5/USBUART_cdc.c **** *
 966:.\Generated_Source\PSoC5/USBUART_cdc.c **** *******************************************************************************/
 967:.\Generated_Source\PSoC5/USBUART_cdc.c **** uint16 USBUART_GetSerialState(void) 
 968:.\Generated_Source\PSoC5/USBUART_cdc.c **** {
 1202              		.loc 1 968 0
 1203              		.cfi_startproc
 1204              		@ args = 0, pretend = 0, frame = 0
 1205              		@ frame_needed = 0, uses_anonymous_args = 0
 1206              		@ link register save eliminated.
 969:.\Generated_Source\PSoC5/USBUART_cdc.c ****     return USBUART_serialStateBitmap[USBUART_activeCom];
 1207              		.loc 1 969 0
 1208 0000 034B     		ldr	r3, .L116
 1209 0002 1A78     		ldrb	r2, [r3]	@ zero_extendqisi2
 1210 0004 034B     		ldr	r3, .L116+4
 1211 0006 33F81200 		ldrh	r0, [r3, r2, lsl #1]
 970:.\Generated_Source\PSoC5/USBUART_cdc.c **** }
 1212              		.loc 1 970 0
 1213 000a 80B2     		uxth	r0, r0
 1214 000c 7047     		bx	lr
 1215              	.L117:
 1216 000e 00BF     		.align	2
 1217              	.L116:
 1218 0010 00000000 		.word	.LANCHOR1
 1219 0014 00000000 		.word	USBUART_serialStateBitmap
 1220              		.cfi_endproc
 1221              	.LFE21:
 1222              		.size	USBUART_GetSerialState, .-USBUART_GetSerialState
 1223              		.section	.text.USBUART_NotificationIsReady,"ax",%progbits
 1224              		.align	2
 1225              		.global	USBUART_NotificationIsReady
 1226              		.thumb
 1227              		.thumb_func
 1228              		.type	USBUART_NotificationIsReady, %function
 1229              	USBUART_NotificationIsReady:
 1230              	.LFB22:
 971:.\Generated_Source\PSoC5/USBUART_cdc.c **** 
 972:.\Generated_Source\PSoC5/USBUART_cdc.c **** 
 973:.\Generated_Source\PSoC5/USBUART_cdc.c **** /*******************************************************************************
 974:.\Generated_Source\PSoC5/USBUART_cdc.c **** * Function Name: USBUART_NotificationIsReady
 975:.\Generated_Source\PSoC5/USBUART_cdc.c **** ****************************************************************************//**
 976:.\Generated_Source\PSoC5/USBUART_cdc.c **** *
 977:.\Generated_Source\PSoC5/USBUART_cdc.c **** *  This function returns a non-zero value if the Component is ready to send
 978:.\Generated_Source\PSoC5/USBUART_cdc.c **** *  more notifications to the host; otherwise, it returns zero. The function
 979:.\Generated_Source\PSoC5/USBUART_cdc.c **** *  should be called before sending new notifications when using
 980:.\Generated_Source\PSoC5/USBUART_cdc.c **** *  USBUART_SendSerialState() to ensure that any previous
 981:.\Generated_Source\PSoC5/USBUART_cdc.c **** *  notification data has been already sent to the host.
 982:.\Generated_Source\PSoC5/USBUART_cdc.c **** *
 983:.\Generated_Source\PSoC5/USBUART_cdc.c **** * \return
 984:.\Generated_Source\PSoC5/USBUART_cdc.c **** *  If the buffer can accept new data(endpoint buffer not full), this
 985:.\Generated_Source\PSoC5/USBUART_cdc.c **** *  function returns a non-zero value. Otherwise, it returns zero.
 986:.\Generated_Source\PSoC5/USBUART_cdc.c **** *
 987:.\Generated_Source\PSoC5/USBUART_cdc.c **** * \globalvars
 988:.\Generated_Source\PSoC5/USBUART_cdc.c **** *   USBUART_cdcDataInEp: CDC IN endpoint number used.
 989:.\Generated_Source\PSoC5/USBUART_cdc.c **** *
 990:.\Generated_Source\PSoC5/USBUART_cdc.c **** *******************************************************************************/
 991:.\Generated_Source\PSoC5/USBUART_cdc.c **** uint8 USBUART_NotificationIsReady(void) 
ARM GAS  C:\Users\student\AppData\Local\Temp\cckxTosa.s 			page 41


 992:.\Generated_Source\PSoC5/USBUART_cdc.c **** {
 1231              		.loc 1 992 0
 1232              		.cfi_startproc
 1233              		@ args = 0, pretend = 0, frame = 0
 1234              		@ frame_needed = 0, uses_anonymous_args = 0
 1235              		@ link register save eliminated.
 993:.\Generated_Source\PSoC5/USBUART_cdc.c ****     return (USBUART_EP[USBUART_cdcCommInInterruptEp[USBUART_activeCom]].apiEpState);
 1236              		.loc 1 993 0
 1237 0000 054B     		ldr	r3, .L119
 1238 0002 1B78     		ldrb	r3, [r3]	@ zero_extendqisi2
 1239 0004 054A     		ldr	r2, .L119+4
 1240 0006 D35C     		ldrb	r3, [r2, r3]	@ zero_extendqisi2
 1241 0008 03EB4303 		add	r3, r3, r3, lsl #1
 1242 000c 9B00     		lsls	r3, r3, #2
 1243 000e 044A     		ldr	r2, .L119+8
 1244 0010 1344     		add	r3, r3, r2
 1245 0012 5878     		ldrb	r0, [r3, #1]	@ zero_extendqisi2
 994:.\Generated_Source\PSoC5/USBUART_cdc.c **** }
 1246              		.loc 1 994 0
 1247 0014 7047     		bx	lr
 1248              	.L120:
 1249 0016 00BF     		.align	2
 1250              	.L119:
 1251 0018 00000000 		.word	.LANCHOR1
 1252 001c 00000000 		.word	USBUART_cdcCommInInterruptEp
 1253 0020 00000000 		.word	USBUART_EP
 1254              		.cfi_endproc
 1255              	.LFE22:
 1256              		.size	USBUART_NotificationIsReady, .-USBUART_NotificationIsReady
 1257              		.section	.text.USBUART_SetComPort,"ax",%progbits
 1258              		.align	2
 1259              		.global	USBUART_SetComPort
 1260              		.thumb
 1261              		.thumb_func
 1262              		.type	USBUART_SetComPort, %function
 1263              	USBUART_SetComPort:
 1264              	.LFB23:
 995:.\Generated_Source\PSoC5/USBUART_cdc.c **** 
 996:.\Generated_Source\PSoC5/USBUART_cdc.c **** 
 997:.\Generated_Source\PSoC5/USBUART_cdc.c **** /*******************************************************************************
 998:.\Generated_Source\PSoC5/USBUART_cdc.c **** * Function Name: USBUART_SetComPort
 999:.\Generated_Source\PSoC5/USBUART_cdc.c **** ****************************************************************************//**
1000:.\Generated_Source\PSoC5/USBUART_cdc.c **** *
1001:.\Generated_Source\PSoC5/USBUART_cdc.c **** *  This function allows the user to select from one of the two COM ports
1002:.\Generated_Source\PSoC5/USBUART_cdc.c **** *  they wish to address in the instance of having multiple COM ports
1003:.\Generated_Source\PSoC5/USBUART_cdc.c **** *  instantiated though the use of a composite device. Once set, all future
1004:.\Generated_Source\PSoC5/USBUART_cdc.c **** *  function calls related to the USBUART will be affected. This addressed
1005:.\Generated_Source\PSoC5/USBUART_cdc.c **** *  COM port can be changed during run time.
1006:.\Generated_Source\PSoC5/USBUART_cdc.c **** *
1007:.\Generated_Source\PSoC5/USBUART_cdc.c **** * \param comNumber
1008:.\Generated_Source\PSoC5/USBUART_cdc.c **** *  Contains the COM interface the user wishes to address. Value can either
1009:.\Generated_Source\PSoC5/USBUART_cdc.c **** *  be 0 or 1 since a maximum of only 2 COM ports can be supported. Note that
1010:.\Generated_Source\PSoC5/USBUART_cdc.c **** *  this COM port number is not the COM port number assigned on the PC side
1011:.\Generated_Source\PSoC5/USBUART_cdc.c **** *  for the UART communication. If a value greater than 1 is passed, the
1012:.\Generated_Source\PSoC5/USBUART_cdc.c **** *  function returns without performing any action.
1013:.\Generated_Source\PSoC5/USBUART_cdc.c **** *
1014:.\Generated_Source\PSoC5/USBUART_cdc.c **** *******************************************************************************/
ARM GAS  C:\Users\student\AppData\Local\Temp\cckxTosa.s 			page 42


1015:.\Generated_Source\PSoC5/USBUART_cdc.c **** void USBUART_SetComPort(uint8 comNumber) 
1016:.\Generated_Source\PSoC5/USBUART_cdc.c **** {
 1265              		.loc 1 1016 0
 1266              		.cfi_startproc
 1267              		@ args = 0, pretend = 0, frame = 0
 1268              		@ frame_needed = 0, uses_anonymous_args = 0
 1269              		@ link register save eliminated.
 1270              	.LVL100:
1017:.\Generated_Source\PSoC5/USBUART_cdc.c ****     if ((USBUART_activeCom != comNumber) && \
 1271              		.loc 1 1017 0
 1272 0000 044B     		ldr	r3, .L123
 1273 0002 1B78     		ldrb	r3, [r3]	@ zero_extendqisi2
 1274 0004 8342     		cmp	r3, r0
 1275 0006 03D0     		beq	.L121
 1276              		.loc 1 1017 0 is_stmt 0 discriminator 1
 1277 0008 0128     		cmp	r0, #1
 1278 000a 01D8     		bhi	.L121
1018:.\Generated_Source\PSoC5/USBUART_cdc.c ****             (comNumber < USBUART_MAX_MULTI_COM_NUM ))
1019:.\Generated_Source\PSoC5/USBUART_cdc.c ****     {
1020:.\Generated_Source\PSoC5/USBUART_cdc.c ****         USBUART_activeCom = comNumber;
 1279              		.loc 1 1020 0 is_stmt 1
 1280 000c 014B     		ldr	r3, .L123
 1281 000e 1870     		strb	r0, [r3]
 1282              	.L121:
 1283 0010 7047     		bx	lr
 1284              	.L124:
 1285 0012 00BF     		.align	2
 1286              	.L123:
 1287 0014 00000000 		.word	.LANCHOR1
 1288              		.cfi_endproc
 1289              	.LFE23:
 1290              		.size	USBUART_SetComPort, .-USBUART_SetComPort
 1291              		.section	.text.USBUART_GetComPort,"ax",%progbits
 1292              		.align	2
 1293              		.global	USBUART_GetComPort
 1294              		.thumb
 1295              		.thumb_func
 1296              		.type	USBUART_GetComPort, %function
 1297              	USBUART_GetComPort:
 1298              	.LFB24:
1021:.\Generated_Source\PSoC5/USBUART_cdc.c ****     }
1022:.\Generated_Source\PSoC5/USBUART_cdc.c **** }
1023:.\Generated_Source\PSoC5/USBUART_cdc.c **** 
1024:.\Generated_Source\PSoC5/USBUART_cdc.c **** 
1025:.\Generated_Source\PSoC5/USBUART_cdc.c **** /*******************************************************************************
1026:.\Generated_Source\PSoC5/USBUART_cdc.c **** * Function Name: USBUART_GetComPort
1027:.\Generated_Source\PSoC5/USBUART_cdc.c **** ****************************************************************************//**
1028:.\Generated_Source\PSoC5/USBUART_cdc.c **** *
1029:.\Generated_Source\PSoC5/USBUART_cdc.c **** *  This function returns the current selected COM port that the user is
1030:.\Generated_Source\PSoC5/USBUART_cdc.c **** *  currently addressing in the instance of having multiple COM ports
1031:.\Generated_Source\PSoC5/USBUART_cdc.c **** *  instantiated though the use of a composite device.
1032:.\Generated_Source\PSoC5/USBUART_cdc.c **** *
1033:.\Generated_Source\PSoC5/USBUART_cdc.c **** * \return
1034:.\Generated_Source\PSoC5/USBUART_cdc.c **** *  Returns the currently selected COM port. Value can either be 0 or 1 since
1035:.\Generated_Source\PSoC5/USBUART_cdc.c **** *  a maximum of only 2 COM ports can be supported. . Note that this COM port
1036:.\Generated_Source\PSoC5/USBUART_cdc.c **** *  number is not the COM port number assigned on the PC side for the UART
1037:.\Generated_Source\PSoC5/USBUART_cdc.c **** *  communication.
ARM GAS  C:\Users\student\AppData\Local\Temp\cckxTosa.s 			page 43


1038:.\Generated_Source\PSoC5/USBUART_cdc.c **** *
1039:.\Generated_Source\PSoC5/USBUART_cdc.c **** *******************************************************************************/
1040:.\Generated_Source\PSoC5/USBUART_cdc.c **** uint8 USBUART_GetComPort(void) 
1041:.\Generated_Source\PSoC5/USBUART_cdc.c **** {
 1299              		.loc 1 1041 0
 1300              		.cfi_startproc
 1301              		@ args = 0, pretend = 0, frame = 0
 1302              		@ frame_needed = 0, uses_anonymous_args = 0
 1303              		@ link register save eliminated.
1042:.\Generated_Source\PSoC5/USBUART_cdc.c ****     return (USBUART_activeCom);
1043:.\Generated_Source\PSoC5/USBUART_cdc.c **** }
 1304              		.loc 1 1043 0
 1305 0000 014B     		ldr	r3, .L126
 1306 0002 1878     		ldrb	r0, [r3]	@ zero_extendqisi2
 1307 0004 7047     		bx	lr
 1308              	.L127:
 1309 0006 00BF     		.align	2
 1310              	.L126:
 1311 0008 00000000 		.word	.LANCHOR1
 1312              		.cfi_endproc
 1313              	.LFE24:
 1314              		.size	USBUART_GetComPort, .-USBUART_GetComPort
 1315              		.section	.text.USBUART_Cdc_EpInit,"ax",%progbits
 1316              		.align	2
 1317              		.global	USBUART_Cdc_EpInit
 1318              		.thumb
 1319              		.thumb_func
 1320              		.type	USBUART_Cdc_EpInit, %function
 1321              	USBUART_Cdc_EpInit:
 1322              	.LFB25:
1044:.\Generated_Source\PSoC5/USBUART_cdc.c **** 
1045:.\Generated_Source\PSoC5/USBUART_cdc.c **** 
1046:.\Generated_Source\PSoC5/USBUART_cdc.c **** #endif  /* (USBUART_ENABLE_CDC_CLASS_API) */
1047:.\Generated_Source\PSoC5/USBUART_cdc.c **** 
1048:.\Generated_Source\PSoC5/USBUART_cdc.c **** 
1049:.\Generated_Source\PSoC5/USBUART_cdc.c **** /***************************************************************************
1050:.\Generated_Source\PSoC5/USBUART_cdc.c **** * Function Name: USBUART_Cdc_EpInit
1051:.\Generated_Source\PSoC5/USBUART_cdc.c **** ************************************************************************//**
1052:.\Generated_Source\PSoC5/USBUART_cdc.c **** *
1053:.\Generated_Source\PSoC5/USBUART_cdc.c **** *  \internal
1054:.\Generated_Source\PSoC5/USBUART_cdc.c **** *  This routine decide type of endpoint (IN, OUT, Notification) and same to
1055:.\Generated_Source\PSoC5/USBUART_cdc.c **** *   appropriate global variables  according to COM port number.
1056:.\Generated_Source\PSoC5/USBUART_cdc.c **** *   USBUART_cdcDataInEp[], USBUART_cdcCommInInterruptEp[],
1057:.\Generated_Source\PSoC5/USBUART_cdc.c **** *   USBUART_cdcDataOutEp[]
1058:.\Generated_Source\PSoC5/USBUART_cdc.c **** *
1059:.\Generated_Source\PSoC5/USBUART_cdc.c **** * \param pEP: Pointer to structure with current EP description.
1060:.\Generated_Source\PSoC5/USBUART_cdc.c **** * \param epNum: EP number
1061:.\Generated_Source\PSoC5/USBUART_cdc.c **** * \param cdcComNums: Bit array of current COM ports for CDC IN, OUT,
1062:.\Generated_Source\PSoC5/USBUART_cdc.c **** *        and notification EPs(0 - COM port 1, 1- COM port 2)
1063:.\Generated_Source\PSoC5/USBUART_cdc.c **** *
1064:.\Generated_Source\PSoC5/USBUART_cdc.c **** * \return
1065:.\Generated_Source\PSoC5/USBUART_cdc.c **** *  Updated cdcComNums
1066:.\Generated_Source\PSoC5/USBUART_cdc.c **** *
1067:.\Generated_Source\PSoC5/USBUART_cdc.c **** * \reentrant
1068:.\Generated_Source\PSoC5/USBUART_cdc.c **** *  No.
1069:.\Generated_Source\PSoC5/USBUART_cdc.c **** *
1070:.\Generated_Source\PSoC5/USBUART_cdc.c **** ***************************************************************************/
ARM GAS  C:\Users\student\AppData\Local\Temp\cckxTosa.s 			page 44


1071:.\Generated_Source\PSoC5/USBUART_cdc.c **** uint8 USBUART_Cdc_EpInit(const T_USBUART_EP_SETTINGS_BLOCK CYCODE *pEP, uint8 epNum, uint8 cdcComNu
1072:.\Generated_Source\PSoC5/USBUART_cdc.c **** {
 1323              		.loc 1 1072 0
 1324              		.cfi_startproc
 1325              		@ args = 0, pretend = 0, frame = 0
 1326              		@ frame_needed = 0, uses_anonymous_args = 0
 1327              		@ link register save eliminated.
 1328              	.LVL101:
1073:.\Generated_Source\PSoC5/USBUART_cdc.c ****     uint8 epType;
1074:.\Generated_Source\PSoC5/USBUART_cdc.c **** 
1075:.\Generated_Source\PSoC5/USBUART_cdc.c ****     epType = pEP->attributes & USBUART_EP_TYPE_MASK;
 1329              		.loc 1 1075 0
 1330 0000 C378     		ldrb	r3, [r0, #3]	@ zero_extendqisi2
 1331 0002 03F00303 		and	r3, r3, #3
 1332              	.LVL102:
1076:.\Generated_Source\PSoC5/USBUART_cdc.c **** 
1077:.\Generated_Source\PSoC5/USBUART_cdc.c ****     if (0u != (pEP->addr & USBUART_DIR_IN))
 1333              		.loc 1 1077 0
 1334 0006 90F90200 		ldrsb	r0, [r0, #2]
 1335              	.LVL103:
 1336 000a 0028     		cmp	r0, #0
 1337 000c 0FDA     		bge	.L129
1078:.\Generated_Source\PSoC5/USBUART_cdc.c ****     {
1079:.\Generated_Source\PSoC5/USBUART_cdc.c ****         if (epType != USBUART_EP_TYPE_INT)
 1338              		.loc 1 1079 0
 1339 000e 032B     		cmp	r3, #3
 1340 0010 06D0     		beq	.L130
1080:.\Generated_Source\PSoC5/USBUART_cdc.c ****         {
1081:.\Generated_Source\PSoC5/USBUART_cdc.c ****             USBUART_cdcDataInEp[USBUART_GET_EP_COM_NUM(cdcComNums, USBUART_CDC_IN_EP)] = epNum;
 1341              		.loc 1 1081 0
 1342 0012 02F00103 		and	r3, r2, #1
 1343              	.LVL104:
 1344 0016 0B48     		ldr	r0, .L132
 1345 0018 C154     		strb	r1, [r0, r3]
1082:.\Generated_Source\PSoC5/USBUART_cdc.c ****             cdcComNums |= (uint8)(USBUART_COM_PORT2 << USBUART_CDC_IN_EP);
 1346              		.loc 1 1082 0
 1347 001a 42F00102 		orr	r2, r2, #1
 1348              	.LVL105:
 1349 001e 0EE0     		b	.L131
 1350              	.LVL106:
 1351              	.L130:
1083:.\Generated_Source\PSoC5/USBUART_cdc.c ****         }
1084:.\Generated_Source\PSoC5/USBUART_cdc.c ****         else
1085:.\Generated_Source\PSoC5/USBUART_cdc.c ****         {
1086:.\Generated_Source\PSoC5/USBUART_cdc.c **** 
1087:.\Generated_Source\PSoC5/USBUART_cdc.c ****             USBUART_cdcCommInInterruptEp[USBUART_GET_EP_COM_NUM(cdcComNums, USBUART_CDC_NOTE_EP)] =
 1352              		.loc 1 1087 0
 1353 0020 C2F38003 		ubfx	r3, r2, #2, #1
 1354              	.LVL107:
 1355 0024 0848     		ldr	r0, .L132+4
 1356 0026 C154     		strb	r1, [r0, r3]
1088:.\Generated_Source\PSoC5/USBUART_cdc.c ****             cdcComNums |= (uint8)(USBUART_COM_PORT2 << USBUART_CDC_NOTE_EP);
 1357              		.loc 1 1088 0
 1358 0028 42F00402 		orr	r2, r2, #4
 1359              	.LVL108:
 1360 002c 07E0     		b	.L131
 1361              	.LVL109:
ARM GAS  C:\Users\student\AppData\Local\Temp\cckxTosa.s 			page 45


 1362              	.L129:
1089:.\Generated_Source\PSoC5/USBUART_cdc.c ****         }
1090:.\Generated_Source\PSoC5/USBUART_cdc.c ****     }
1091:.\Generated_Source\PSoC5/USBUART_cdc.c ****     else
1092:.\Generated_Source\PSoC5/USBUART_cdc.c ****     {
1093:.\Generated_Source\PSoC5/USBUART_cdc.c ****         if (epType != USBUART_EP_TYPE_INT)
 1363              		.loc 1 1093 0
 1364 002e 032B     		cmp	r3, #3
 1365 0030 05D0     		beq	.L131
1094:.\Generated_Source\PSoC5/USBUART_cdc.c ****         {
1095:.\Generated_Source\PSoC5/USBUART_cdc.c ****             USBUART_cdcDataOutEp[USBUART_GET_EP_COM_NUM(cdcComNums, USBUART_CDC_OUT_EP)] = epNum;
 1366              		.loc 1 1095 0
 1367 0032 C2F34003 		ubfx	r3, r2, #1, #1
 1368              	.LVL110:
 1369 0036 0548     		ldr	r0, .L132+8
 1370 0038 C154     		strb	r1, [r0, r3]
1096:.\Generated_Source\PSoC5/USBUART_cdc.c ****             cdcComNums |= (uint8)(USBUART_COM_PORT2 << USBUART_CDC_OUT_EP);
 1371              		.loc 1 1096 0
 1372 003a 42F00202 		orr	r2, r2, #2
 1373              	.LVL111:
 1374              	.L131:
1097:.\Generated_Source\PSoC5/USBUART_cdc.c ****         }
1098:.\Generated_Source\PSoC5/USBUART_cdc.c ****     }
1099:.\Generated_Source\PSoC5/USBUART_cdc.c ****     return (cdcComNums);
1100:.\Generated_Source\PSoC5/USBUART_cdc.c **** }
 1375              		.loc 1 1100 0
 1376 003e 1046     		mov	r0, r2
 1377 0040 7047     		bx	lr
 1378              	.L133:
 1379 0042 00BF     		.align	2
 1380              	.L132:
 1381 0044 00000000 		.word	USBUART_cdcDataInEp
 1382 0048 00000000 		.word	USBUART_cdcCommInInterruptEp
 1383 004c 00000000 		.word	USBUART_cdcDataOutEp
 1384              		.cfi_endproc
 1385              	.LFE25:
 1386              		.size	USBUART_Cdc_EpInit, .-USBUART_Cdc_EpInit
 1387              		.comm	USBUART_cdcCommInInterruptEp,2,4
 1388              		.comm	USBUART_cdcDataOutEp,2,4
 1389              		.comm	USBUART_cdcDataInEp,2,4
 1390              		.comm	USBUART_serialStateBitmap,4,4
 1391              		.comm	USBUART_linesControlBitmap,4,4
 1392              		.comm	USBUART_linesChanged,2,4
 1393              		.global	USBUART_linesCoding
 1394              		.section	.rodata
 1395              		.align	2
 1396              		.set	.LANCHOR2,. + 0
 1397              	.LC0:
 1398 0000 0D       		.byte	13
 1399 0001 0A       		.byte	10
 1400 0002 0000     		.data
 1401              		.align	2
 1402              		.set	.LANCHOR0,. + 0
 1403              		.type	USBUART_linesCoding, %object
 1404              		.size	USBUART_linesCoding, 14
 1405              	USBUART_linesCoding:
 1406 0000 00       		.byte	0
ARM GAS  C:\Users\student\AppData\Local\Temp\cckxTosa.s 			page 46


 1407 0001 C2       		.byte	-62
 1408 0002 01       		.byte	1
 1409 0003 00       		.byte	0
 1410 0004 00       		.byte	0
 1411 0005 00       		.byte	0
 1412 0006 08       		.byte	8
 1413 0007 00       		.byte	0
 1414 0008 C2       		.byte	-62
 1415 0009 01       		.byte	1
 1416 000a 00       		.byte	0
 1417 000b 00       		.byte	0
 1418 000c 00       		.byte	0
 1419 000d 08       		.byte	8
 1420 000e 0000     		.space	2
 1421              		.type	USBUART_serialStateNotification, %object
 1422              		.size	USBUART_serialStateNotification, 10
 1423              	USBUART_serialStateNotification:
 1424 0010 A1       		.byte	-95
 1425 0011 20       		.byte	32
 1426 0012 00       		.byte	0
 1427 0013 00       		.byte	0
 1428 0014 00       		.byte	0
 1429 0015 00       		.byte	0
 1430 0016 02       		.byte	2
 1431 0017 00       		.byte	0
 1432 0018 00       		.byte	0
 1433 0019 00       		.byte	0
 1434 001a 0000     		.bss
 1435              		.set	.LANCHOR1,. + 0
 1436              		.type	USBUART_activeCom, %object
 1437              		.size	USBUART_activeCom, 1
 1438              	USBUART_activeCom:
 1439 0000 00       		.space	1
 1440              		.text
 1441              	.Letext0:
 1442              		.file 2 ".\\Generated_Source\\PSoC5\\cytypes.h"
 1443              		.file 3 ".\\Generated_Source\\PSoC5\\USBUART.h"
 1444              		.file 4 ".\\Generated_Source\\PSoC5\\USBUART_pvt.h"
 1445              		.file 5 ".\\Generated_Source\\PSoC5\\CyLib.h"