ARM GAS  C:\Users\student\AppData\Local\Temp\cckxTosa.s 			page 1


   1              		.syntax unified
   2              		.cpu cortex-m3
   3              		.fpu softvfp
   4              		.eabi_attribute 20, 1
   5              		.eabi_attribute 21, 1
   6              		.eabi_attribute 23, 3
   7              		.eabi_attribute 24, 1
   8              		.eabi_attribute 25, 1
   9              		.eabi_attribute 26, 1
  10              		.eabi_attribute 30, 1
  11              		.eabi_attribute 34, 1
  12              		.eabi_attribute 18, 4
  13              		.thumb
  14              		.file	"USBUART_cdc.c"
  15              		.text
  16              	.Ltext0:
  17              		.cfi_sections	.debug_frame
  18              		.section	.text.USBUART_StrLen,"ax",%progbits
  19              		.align	2
  20              		.thumb
  21              		.thumb_func
  22              		.type	USBUART_StrLen, %function
  23              	USBUART_StrLen:
  24              	.LFB4:
  25              		.file 1 ".\\Generated_Source\\PSoC5\\USBUART_cdc.c"
   1:.\Generated_Source\PSoC5/USBUART_cdc.c **** /***************************************************************************//**
   2:.\Generated_Source\PSoC5/USBUART_cdc.c **** * \file USBUART_cdc.c
   3:.\Generated_Source\PSoC5/USBUART_cdc.c **** * \version 3.0
   4:.\Generated_Source\PSoC5/USBUART_cdc.c **** *
   5:.\Generated_Source\PSoC5/USBUART_cdc.c **** * \brief
   6:.\Generated_Source\PSoC5/USBUART_cdc.c **** *  This file contains the USB CDC class request handler.
   7:.\Generated_Source\PSoC5/USBUART_cdc.c **** *
   8:.\Generated_Source\PSoC5/USBUART_cdc.c **** * Related Document:
   9:.\Generated_Source\PSoC5/USBUART_cdc.c **** *  Universal Serial Bus Class Definitions for Communication Devices Version 1.1
  10:.\Generated_Source\PSoC5/USBUART_cdc.c **** *
  11:.\Generated_Source\PSoC5/USBUART_cdc.c **** ********************************************************************************
  12:.\Generated_Source\PSoC5/USBUART_cdc.c **** * \copyright
  13:.\Generated_Source\PSoC5/USBUART_cdc.c **** * Copyright 2012-2015, Cypress Semiconductor Corporation.  All rights reserved.
  14:.\Generated_Source\PSoC5/USBUART_cdc.c **** * You may use this file only in accordance with the license, terms, conditions,
  15:.\Generated_Source\PSoC5/USBUART_cdc.c **** * disclaimers, and limitations in the end user license agreement accompanying
  16:.\Generated_Source\PSoC5/USBUART_cdc.c **** * the software package with which this file was provided.
  17:.\Generated_Source\PSoC5/USBUART_cdc.c **** *******************************************************************************/
  18:.\Generated_Source\PSoC5/USBUART_cdc.c **** 
  19:.\Generated_Source\PSoC5/USBUART_cdc.c **** #include "USBUART_cdc.h"
  20:.\Generated_Source\PSoC5/USBUART_cdc.c **** #include "USBUART_pvt.h"
  21:.\Generated_Source\PSoC5/USBUART_cdc.c **** #include "cyapicallbacks.h"
  22:.\Generated_Source\PSoC5/USBUART_cdc.c **** 
  23:.\Generated_Source\PSoC5/USBUART_cdc.c **** #if defined(USBUART_ENABLE_CDC_CLASS)
  24:.\Generated_Source\PSoC5/USBUART_cdc.c **** 
  25:.\Generated_Source\PSoC5/USBUART_cdc.c **** /*******************************************************************************
  26:.\Generated_Source\PSoC5/USBUART_cdc.c **** *    CDC Variables
  27:.\Generated_Source\PSoC5/USBUART_cdc.c **** *******************************************************************************/
  28:.\Generated_Source\PSoC5/USBUART_cdc.c **** 
  29:.\Generated_Source\PSoC5/USBUART_cdc.c **** /*PUBLIC*/
  30:.\Generated_Source\PSoC5/USBUART_cdc.c **** /** Contains the current line coding structure. The host sets it using a
  31:.\Generated_Source\PSoC5/USBUART_cdc.c ****  * SET_LINE_CODING request and returns it to the user code using the
  32:.\Generated_Source\PSoC5/USBUART_cdc.c ****  * USBUART_GetDTERate(), USBUART_GetCharFormat(),
ARM GAS  C:\Users\student\AppData\Local\Temp\cckxTosa.s 			page 2


  33:.\Generated_Source\PSoC5/USBUART_cdc.c ****  * USBUART_GetParityType(), and USBUART_GetDataBits() APIs.
  34:.\Generated_Source\PSoC5/USBUART_cdc.c ****  * It is an array of 2 elements for COM port 1 and COM port 2 for MultiCOM port
  35:.\Generated_Source\PSoC5/USBUART_cdc.c ****  * support. In case of 1 COM port, data is in 0 element.*/
  36:.\Generated_Source\PSoC5/USBUART_cdc.c **** volatile uint8 USBUART_linesCoding[USBUART_MAX_MULTI_COM_NUM][USBUART_LINE_CODING_SIZE] =
  37:.\Generated_Source\PSoC5/USBUART_cdc.c **** {
  38:.\Generated_Source\PSoC5/USBUART_cdc.c ****     /*COM Port 1*/
  39:.\Generated_Source\PSoC5/USBUART_cdc.c ****     {
  40:.\Generated_Source\PSoC5/USBUART_cdc.c ****     0x00u, 0xC2u, 0x01u, 0x00u,     /* Data terminal rate 115200 */
  41:.\Generated_Source\PSoC5/USBUART_cdc.c ****     0x00u,                          /* 1 Stop bit */
  42:.\Generated_Source\PSoC5/USBUART_cdc.c ****     0x00u,                          /* None parity */
  43:.\Generated_Source\PSoC5/USBUART_cdc.c ****     0x08u                           /* 8 data bits */
  44:.\Generated_Source\PSoC5/USBUART_cdc.c ****     },
  45:.\Generated_Source\PSoC5/USBUART_cdc.c ****     /*COM Port 2*/
  46:.\Generated_Source\PSoC5/USBUART_cdc.c ****     {
  47:.\Generated_Source\PSoC5/USBUART_cdc.c ****     0x00u, 0xC2u, 0x01u, 0x00u,     /* Data terminal rate 115200 */
  48:.\Generated_Source\PSoC5/USBUART_cdc.c ****     0x00u,                          /* 1 Stop bit */
  49:.\Generated_Source\PSoC5/USBUART_cdc.c ****     0x00u,                          /* None parity */
  50:.\Generated_Source\PSoC5/USBUART_cdc.c ****     0x08u                           /* 8 data bits */
  51:.\Generated_Source\PSoC5/USBUART_cdc.c ****     }
  52:.\Generated_Source\PSoC5/USBUART_cdc.c **** };
  53:.\Generated_Source\PSoC5/USBUART_cdc.c **** 
  54:.\Generated_Source\PSoC5/USBUART_cdc.c **** /**Used as a flag for the USBUART_IsLineChanged() API, to inform it that the
  55:.\Generated_Source\PSoC5/USBUART_cdc.c ****  * host has been sent a request to change line coding or control bitmap. It is 
  56:.\Generated_Source\PSoC5/USBUART_cdc.c ****  * an array of 2 elements for COM port 1 and COM port 2 for MultiCOM port 
  57:.\Generated_Source\PSoC5/USBUART_cdc.c ****  * support. In case of 1 COM port, data is in 0 element.*/
  58:.\Generated_Source\PSoC5/USBUART_cdc.c **** volatile uint8  USBUART_linesChanged[USBUART_MAX_MULTI_COM_NUM];
  59:.\Generated_Source\PSoC5/USBUART_cdc.c **** /** Contains the current control-signal bitmap. The host sets it using a
  60:.\Generated_Source\PSoC5/USBUART_cdc.c ****  * SET_CONTROL_LINE request and returns it to the user code using the 
  61:.\Generated_Source\PSoC5/USBUART_cdc.c ****  * USBUART_GetLineControl() API. It is an array of 2 elements for COM 
  62:.\Generated_Source\PSoC5/USBUART_cdc.c ****  * port 1 and COM port 2 for MultiCOM port support. In case of 1 COM port, data 
  63:.\Generated_Source\PSoC5/USBUART_cdc.c ****  * is in 0 element.*/
  64:.\Generated_Source\PSoC5/USBUART_cdc.c **** volatile uint16 USBUART_linesControlBitmap[USBUART_MAX_MULTI_COM_NUM];
  65:.\Generated_Source\PSoC5/USBUART_cdc.c **** /** Contains the 16-bit serial state value that was sent using the 
  66:.\Generated_Source\PSoC5/USBUART_cdc.c ****  * \ref USBUART_SendSerialState() API. . It is an array of 2 elements 
  67:.\Generated_Source\PSoC5/USBUART_cdc.c ****  * for COM port 1 and COM port 2 for MultiCOM port support. In case of 1 COM 
  68:.\Generated_Source\PSoC5/USBUART_cdc.c ****  * port, data is in 0 element.*/
  69:.\Generated_Source\PSoC5/USBUART_cdc.c **** volatile uint16 USBUART_serialStateBitmap[USBUART_MAX_MULTI_COM_NUM];
  70:.\Generated_Source\PSoC5/USBUART_cdc.c **** /** Contains the data IN endpoint number. It is initialized after a 
  71:.\Generated_Source\PSoC5/USBUART_cdc.c ****  * SET_CONFIGURATION request based on a user descriptor. It is used in CDC APIs 
  72:.\Generated_Source\PSoC5/USBUART_cdc.c ****  * to send data to the PC. It is an array of 2 elements for COM port 1 and COM 
  73:.\Generated_Source\PSoC5/USBUART_cdc.c ****  * port 2 for MultiCOM port support. In case of 1 COM port, data is in 0 element.*/
  74:.\Generated_Source\PSoC5/USBUART_cdc.c **** volatile uint8  USBUART_cdcDataInEp[USBUART_MAX_MULTI_COM_NUM];
  75:.\Generated_Source\PSoC5/USBUART_cdc.c **** /** Contains the data OUT endpoint number. It is initialized after a 
  76:.\Generated_Source\PSoC5/USBUART_cdc.c ****  * SET_CONFIGURATION request based on user descriptor. It is used in CDC APIs to 
  77:.\Generated_Source\PSoC5/USBUART_cdc.c ****  * receive data from the PC. It is an array of 2 elements for COM port 1 and COM  
  78:.\Generated_Source\PSoC5/USBUART_cdc.c ****  * port 2 for MultiCOM port support. In case of 1 COM port, data is in 0 element.*/
  79:.\Generated_Source\PSoC5/USBUART_cdc.c **** volatile uint8  USBUART_cdcDataOutEp[USBUART_MAX_MULTI_COM_NUM];
  80:.\Generated_Source\PSoC5/USBUART_cdc.c **** /** Contains the data IN endpoint number for COMMUNICATION interface. It is 
  81:.\Generated_Source\PSoC5/USBUART_cdc.c ****  * initialized after a SET_CONFIGURATION request based on a user descriptor. It 
  82:.\Generated_Source\PSoC5/USBUART_cdc.c ****  * is used in CDC APIs to send data to the PC. It is an array of 2 elements for 
  83:.\Generated_Source\PSoC5/USBUART_cdc.c ****  * COM port 1 and COM port 2 for MultiCOM port support. In case of 1 COM port, 
  84:.\Generated_Source\PSoC5/USBUART_cdc.c ****  * data is in 0 element.*/
  85:.\Generated_Source\PSoC5/USBUART_cdc.c **** volatile uint8  USBUART_cdcCommInInterruptEp[USBUART_MAX_MULTI_COM_NUM];
  86:.\Generated_Source\PSoC5/USBUART_cdc.c **** 
  87:.\Generated_Source\PSoC5/USBUART_cdc.c **** /*PRIVATE*/
  88:.\Generated_Source\PSoC5/USBUART_cdc.c **** 
  89:.\Generated_Source\PSoC5/USBUART_cdc.c **** #define USBUART_CDC_IN_EP      (0u)
ARM GAS  C:\Users\student\AppData\Local\Temp\cckxTosa.s 			page 3


  90:.\Generated_Source\PSoC5/USBUART_cdc.c **** #define USBUART_CDC_OUT_EP     (1u)
  91:.\Generated_Source\PSoC5/USBUART_cdc.c **** #define USBUART_CDC_NOTE_EP    (2u)
  92:.\Generated_Source\PSoC5/USBUART_cdc.c **** 
  93:.\Generated_Source\PSoC5/USBUART_cdc.c **** #define USBUART_CDC_EP_MASK    (0x01u)
  94:.\Generated_Source\PSoC5/USBUART_cdc.c **** 
  95:.\Generated_Source\PSoC5/USBUART_cdc.c **** #define USBUART_GET_EP_COM_NUM(cdcComNums, epType) (((cdcComNums) >> (epType)) & USBUART_CDC_EP_MAS
  96:.\Generated_Source\PSoC5/USBUART_cdc.c **** 
  97:.\Generated_Source\PSoC5/USBUART_cdc.c **** 
  98:.\Generated_Source\PSoC5/USBUART_cdc.c **** /***************************************
  99:.\Generated_Source\PSoC5/USBUART_cdc.c **** *     Static Function Prototypes
 100:.\Generated_Source\PSoC5/USBUART_cdc.c **** ***************************************/
 101:.\Generated_Source\PSoC5/USBUART_cdc.c **** #if (USBUART_ENABLE_CDC_CLASS_API != 0u)
 102:.\Generated_Source\PSoC5/USBUART_cdc.c ****     static uint16 USBUART_StrLen(const char8 string[]) ;
 103:.\Generated_Source\PSoC5/USBUART_cdc.c ****     static t_USBUART_cdc_notification USBUART_serialStateNotification =
 104:.\Generated_Source\PSoC5/USBUART_cdc.c ****     {
 105:.\Generated_Source\PSoC5/USBUART_cdc.c **** 
 106:.\Generated_Source\PSoC5/USBUART_cdc.c ****         USBUART_SERIAL_STATE_REQUEST_TYPE, /* bRequestType    */
 107:.\Generated_Source\PSoC5/USBUART_cdc.c ****         USBUART_SERIAL_STATE,              /* bNotification   */
 108:.\Generated_Source\PSoC5/USBUART_cdc.c ****         0u,                                         /* wValue          */
 109:.\Generated_Source\PSoC5/USBUART_cdc.c ****         0u,                                         /* wValueMSB       */
 110:.\Generated_Source\PSoC5/USBUART_cdc.c ****         0u,                                         /* wIndex          */
 111:.\Generated_Source\PSoC5/USBUART_cdc.c ****         0u,                                         /* wIndexMSB       */
 112:.\Generated_Source\PSoC5/USBUART_cdc.c ****         USBUART_SERIAL_STATE_LENGTH,       /* wLength         */
 113:.\Generated_Source\PSoC5/USBUART_cdc.c ****         0u,                                         /* wLengthMSB      */
 114:.\Generated_Source\PSoC5/USBUART_cdc.c ****         0u,                                         /* wSerialState    */
 115:.\Generated_Source\PSoC5/USBUART_cdc.c ****         0u,                                         /* wSerialStateMSB */
 116:.\Generated_Source\PSoC5/USBUART_cdc.c ****     };
 117:.\Generated_Source\PSoC5/USBUART_cdc.c ****     static uint8 USBUART_activeCom = 0u;
 118:.\Generated_Source\PSoC5/USBUART_cdc.c **** #endif /* (USBUART_ENABLE_CDC_CLASS_API != 0u) */
 119:.\Generated_Source\PSoC5/USBUART_cdc.c **** 
 120:.\Generated_Source\PSoC5/USBUART_cdc.c **** 
 121:.\Generated_Source\PSoC5/USBUART_cdc.c **** /***************************************
 122:.\Generated_Source\PSoC5/USBUART_cdc.c **** * Custom Declarations
 123:.\Generated_Source\PSoC5/USBUART_cdc.c **** ***************************************/
 124:.\Generated_Source\PSoC5/USBUART_cdc.c **** 
 125:.\Generated_Source\PSoC5/USBUART_cdc.c **** /* `#START CDC_CUSTOM_DECLARATIONS` Place your declaration here */
 126:.\Generated_Source\PSoC5/USBUART_cdc.c **** 
 127:.\Generated_Source\PSoC5/USBUART_cdc.c **** /* `#END` */
 128:.\Generated_Source\PSoC5/USBUART_cdc.c **** 
 129:.\Generated_Source\PSoC5/USBUART_cdc.c **** 
 130:.\Generated_Source\PSoC5/USBUART_cdc.c **** /*******************************************************************************
 131:.\Generated_Source\PSoC5/USBUART_cdc.c **** * Function Name: USBUART_DispatchCDCClassRqst
 132:.\Generated_Source\PSoC5/USBUART_cdc.c **** ****************************************************************************//**
 133:.\Generated_Source\PSoC5/USBUART_cdc.c **** *
 134:.\Generated_Source\PSoC5/USBUART_cdc.c **** *  This routine dispatches CDC class requests.
 135:.\Generated_Source\PSoC5/USBUART_cdc.c **** *
 136:.\Generated_Source\PSoC5/USBUART_cdc.c **** * \return
 137:.\Generated_Source\PSoC5/USBUART_cdc.c **** *  requestHandled
 138:.\Generated_Source\PSoC5/USBUART_cdc.c **** *
 139:.\Generated_Source\PSoC5/USBUART_cdc.c **** * \globalvars
 140:.\Generated_Source\PSoC5/USBUART_cdc.c **** *   USBUART_linesCoding: Contains the current line coding structure.
 141:.\Generated_Source\PSoC5/USBUART_cdc.c **** *     It is set by the Host using SET_LINE_CODING request and returned to the
 142:.\Generated_Source\PSoC5/USBUART_cdc.c **** *     user code by the USBFS_GetDTERate(), USBFS_GetCharFormat(),
 143:.\Generated_Source\PSoC5/USBUART_cdc.c **** *     USBFS_GetParityType(), USBFS_GetDataBits() APIs.
 144:.\Generated_Source\PSoC5/USBUART_cdc.c **** *   USBUART_linesControlBitmap: Contains the current control signal
 145:.\Generated_Source\PSoC5/USBUART_cdc.c **** *     bitmap. It is set by the Host using SET_CONTROL_LINE request and returned
 146:.\Generated_Source\PSoC5/USBUART_cdc.c **** *     to the user code by the USBFS_GetLineControl() API.
ARM GAS  C:\Users\student\AppData\Local\Temp\cckxTosa.s 			page 4


 147:.\Generated_Source\PSoC5/USBUART_cdc.c **** *   USBUART_linesChanged: This variable is used as a flag for the
 148:.\Generated_Source\PSoC5/USBUART_cdc.c **** *     USBFS_IsLineChanged() API, to be aware that Host has been sent request
 149:.\Generated_Source\PSoC5/USBUART_cdc.c **** *     for changing Line Coding or Control Bitmap.
 150:.\Generated_Source\PSoC5/USBUART_cdc.c **** *
 151:.\Generated_Source\PSoC5/USBUART_cdc.c **** * \reentrant
 152:.\Generated_Source\PSoC5/USBUART_cdc.c **** *  No.
 153:.\Generated_Source\PSoC5/USBUART_cdc.c **** *
 154:.\Generated_Source\PSoC5/USBUART_cdc.c **** *******************************************************************************/
 155:.\Generated_Source\PSoC5/USBUART_cdc.c **** uint8 USBUART_DispatchCDCClassRqst(void) 
 156:.\Generated_Source\PSoC5/USBUART_cdc.c **** {
 157:.\Generated_Source\PSoC5/USBUART_cdc.c ****     uint8 requestHandled = USBUART_FALSE;
 158:.\Generated_Source\PSoC5/USBUART_cdc.c ****     uint8 comPort;
 159:.\Generated_Source\PSoC5/USBUART_cdc.c **** 
 160:.\Generated_Source\PSoC5/USBUART_cdc.c ****     comPort = USBUART_GetInterfaceComPort((uint8)USBUART_wIndexLoReg);
 161:.\Generated_Source\PSoC5/USBUART_cdc.c **** 
 162:.\Generated_Source\PSoC5/USBUART_cdc.c ****     /* Check request direction: D2H or H2D. */
 163:.\Generated_Source\PSoC5/USBUART_cdc.c ****     if (0u != (USBUART_bmRequestTypeReg & USBUART_RQST_DIR_D2H))
 164:.\Generated_Source\PSoC5/USBUART_cdc.c ****     {
 165:.\Generated_Source\PSoC5/USBUART_cdc.c ****         /* Handle direction from device to host. */
 166:.\Generated_Source\PSoC5/USBUART_cdc.c **** 
 167:.\Generated_Source\PSoC5/USBUART_cdc.c ****         switch (USBUART_bRequestReg)
 168:.\Generated_Source\PSoC5/USBUART_cdc.c ****         {
 169:.\Generated_Source\PSoC5/USBUART_cdc.c ****             case USBUART_CDC_GET_LINE_CODING:
 170:.\Generated_Source\PSoC5/USBUART_cdc.c ****                 USBUART_currentTD.count = USBUART_LINE_CODING_SIZE;
 171:.\Generated_Source\PSoC5/USBUART_cdc.c ****                 USBUART_currentTD.pData = USBUART_linesCoding[comPort];
 172:.\Generated_Source\PSoC5/USBUART_cdc.c ****                 requestHandled  = USBUART_InitControlRead();
 173:.\Generated_Source\PSoC5/USBUART_cdc.c ****                 break;
 174:.\Generated_Source\PSoC5/USBUART_cdc.c **** 
 175:.\Generated_Source\PSoC5/USBUART_cdc.c ****             /* `#START CDC_READ_REQUESTS` Place other request handler here */
 176:.\Generated_Source\PSoC5/USBUART_cdc.c **** 
 177:.\Generated_Source\PSoC5/USBUART_cdc.c ****             /* `#END` */
 178:.\Generated_Source\PSoC5/USBUART_cdc.c **** 
 179:.\Generated_Source\PSoC5/USBUART_cdc.c ****             default:
 180:.\Generated_Source\PSoC5/USBUART_cdc.c ****             /* Do not handle this request unless callback is defined. */
 181:.\Generated_Source\PSoC5/USBUART_cdc.c ****             #ifdef USBUART_DISPATCH_CDC_CLASS_CDC_READ_REQUESTS_CALLBACK
 182:.\Generated_Source\PSoC5/USBUART_cdc.c ****                 requestHandled = USBUART_DispatchCDCClass_CDC_READ_REQUESTS_Callback();
 183:.\Generated_Source\PSoC5/USBUART_cdc.c ****             #endif /* (USBUART_DISPATCH_CDC_CLASS_CDC_READ_REQUESTS_CALLBACK) */
 184:.\Generated_Source\PSoC5/USBUART_cdc.c ****                 break;
 185:.\Generated_Source\PSoC5/USBUART_cdc.c ****         }
 186:.\Generated_Source\PSoC5/USBUART_cdc.c ****     }
 187:.\Generated_Source\PSoC5/USBUART_cdc.c ****     else
 188:.\Generated_Source\PSoC5/USBUART_cdc.c ****     {
 189:.\Generated_Source\PSoC5/USBUART_cdc.c ****         /* Handle direction from host to device. */
 190:.\Generated_Source\PSoC5/USBUART_cdc.c **** 
 191:.\Generated_Source\PSoC5/USBUART_cdc.c ****         switch (USBUART_bRequestReg)
 192:.\Generated_Source\PSoC5/USBUART_cdc.c ****         {
 193:.\Generated_Source\PSoC5/USBUART_cdc.c ****             case USBUART_CDC_SET_LINE_CODING:
 194:.\Generated_Source\PSoC5/USBUART_cdc.c ****                 USBUART_currentTD.count  = USBUART_LINE_CODING_SIZE;
 195:.\Generated_Source\PSoC5/USBUART_cdc.c ****                 USBUART_currentTD.pData  = USBUART_linesCoding[comPort];
 196:.\Generated_Source\PSoC5/USBUART_cdc.c ****                 USBUART_linesChanged[comPort] |= USBUART_LINE_CODING_CHANGED;
 197:.\Generated_Source\PSoC5/USBUART_cdc.c **** 
 198:.\Generated_Source\PSoC5/USBUART_cdc.c ****                 requestHandled = USBUART_InitControlWrite();
 199:.\Generated_Source\PSoC5/USBUART_cdc.c ****                 break;
 200:.\Generated_Source\PSoC5/USBUART_cdc.c **** 
 201:.\Generated_Source\PSoC5/USBUART_cdc.c ****             case USBUART_CDC_SET_CONTROL_LINE_STATE:
 202:.\Generated_Source\PSoC5/USBUART_cdc.c ****                 USBUART_linesControlBitmap[comPort] = (uint8) USBUART_wValueLoReg;
 203:.\Generated_Source\PSoC5/USBUART_cdc.c ****                 USBUART_linesChanged[comPort]      |= USBUART_LINE_CONTROL_CHANGED;
ARM GAS  C:\Users\student\AppData\Local\Temp\cckxTosa.s 			page 5


 204:.\Generated_Source\PSoC5/USBUART_cdc.c **** 
 205:.\Generated_Source\PSoC5/USBUART_cdc.c ****                 requestHandled = USBUART_InitNoDataControlTransfer();
 206:.\Generated_Source\PSoC5/USBUART_cdc.c ****                 break;
 207:.\Generated_Source\PSoC5/USBUART_cdc.c **** 
 208:.\Generated_Source\PSoC5/USBUART_cdc.c ****             /* `#START CDC_WRITE_REQUESTS` Place other request handler here */
 209:.\Generated_Source\PSoC5/USBUART_cdc.c **** 
 210:.\Generated_Source\PSoC5/USBUART_cdc.c ****             /* `#END` */
 211:.\Generated_Source\PSoC5/USBUART_cdc.c **** 
 212:.\Generated_Source\PSoC5/USBUART_cdc.c ****             default:
 213:.\Generated_Source\PSoC5/USBUART_cdc.c ****                 /* Do not handle this request unless callback is defined. */
 214:.\Generated_Source\PSoC5/USBUART_cdc.c ****             #ifdef USBUART_DISPATCH_CDC_CLASS_CDC_WRITE_REQUESTS_CALLBACK
 215:.\Generated_Source\PSoC5/USBUART_cdc.c ****                 requestHandled = USBUART_DispatchCDCClass_CDC_WRITE_REQUESTS_Callback();
 216:.\Generated_Source\PSoC5/USBUART_cdc.c ****             #endif /* (USBUART_DISPATCH_CDC_CLASS_CDC_WRITE_REQUESTS_CALLBACK) */
 217:.\Generated_Source\PSoC5/USBUART_cdc.c ****                 break;
 218:.\Generated_Source\PSoC5/USBUART_cdc.c ****         }
 219:.\Generated_Source\PSoC5/USBUART_cdc.c ****     }
 220:.\Generated_Source\PSoC5/USBUART_cdc.c **** 
 221:.\Generated_Source\PSoC5/USBUART_cdc.c ****     return(requestHandled);
 222:.\Generated_Source\PSoC5/USBUART_cdc.c **** }
 223:.\Generated_Source\PSoC5/USBUART_cdc.c **** 
 224:.\Generated_Source\PSoC5/USBUART_cdc.c **** 
 225:.\Generated_Source\PSoC5/USBUART_cdc.c **** /***************************************************************************
 226:.\Generated_Source\PSoC5/USBUART_cdc.c **** * Function Name: USBUART_GetInterfaceComPort
 227:.\Generated_Source\PSoC5/USBUART_cdc.c **** ************************************************************************//**
 228:.\Generated_Source\PSoC5/USBUART_cdc.c **** *   \internal
 229:.\Generated_Source\PSoC5/USBUART_cdc.c **** *  Internal function which gets number of COM port by specified interface
 230:.\Generated_Source\PSoC5/USBUART_cdc.c **** *   number.
 231:.\Generated_Source\PSoC5/USBUART_cdc.c **** *
 232:.\Generated_Source\PSoC5/USBUART_cdc.c **** * \param uint8 interface
 233:.\Generated_Source\PSoC5/USBUART_cdc.c **** *  Interface number
 234:.\Generated_Source\PSoC5/USBUART_cdc.c **** *
 235:.\Generated_Source\PSoC5/USBUART_cdc.c **** * \return
 236:.\Generated_Source\PSoC5/USBUART_cdc.c **** *  COM port number (0 or 1) or error 0xFF
 237:.\Generated_Source\PSoC5/USBUART_cdc.c **** *
 238:.\Generated_Source\PSoC5/USBUART_cdc.c **** ***************************************************************************/
 239:.\Generated_Source\PSoC5/USBUART_cdc.c **** uint8 USBUART_GetInterfaceComPort(uint8 interface) 
 240:.\Generated_Source\PSoC5/USBUART_cdc.c **** {
 241:.\Generated_Source\PSoC5/USBUART_cdc.c ****     uint8 comPort = 0u;
 242:.\Generated_Source\PSoC5/USBUART_cdc.c ****     uint8 res = 0xFFu;
 243:.\Generated_Source\PSoC5/USBUART_cdc.c ****     uint8 notEp;
 244:.\Generated_Source\PSoC5/USBUART_cdc.c **** 
 245:.\Generated_Source\PSoC5/USBUART_cdc.c ****     while (comPort < USBUART_MAX_MULTI_COM_NUM)
 246:.\Generated_Source\PSoC5/USBUART_cdc.c ****     {
 247:.\Generated_Source\PSoC5/USBUART_cdc.c ****         notEp = USBUART_cdcCommInInterruptEp[comPort];
 248:.\Generated_Source\PSoC5/USBUART_cdc.c **** 
 249:.\Generated_Source\PSoC5/USBUART_cdc.c ****         if (USBUART_EP[notEp].interface == interface)
 250:.\Generated_Source\PSoC5/USBUART_cdc.c ****         {
 251:.\Generated_Source\PSoC5/USBUART_cdc.c ****             res = comPort;
 252:.\Generated_Source\PSoC5/USBUART_cdc.c ****             comPort = USBUART_MAX_MULTI_COM_NUM;
 253:.\Generated_Source\PSoC5/USBUART_cdc.c ****         }
 254:.\Generated_Source\PSoC5/USBUART_cdc.c **** 
 255:.\Generated_Source\PSoC5/USBUART_cdc.c ****         comPort++;
 256:.\Generated_Source\PSoC5/USBUART_cdc.c ****     }
 257:.\Generated_Source\PSoC5/USBUART_cdc.c ****     return (res);
 258:.\Generated_Source\PSoC5/USBUART_cdc.c **** }
 259:.\Generated_Source\PSoC5/USBUART_cdc.c **** 
 260:.\Generated_Source\PSoC5/USBUART_cdc.c **** 
ARM GAS  C:\Users\student\AppData\Local\Temp\cckxTosa.s 			page 6


 261:.\Generated_Source\PSoC5/USBUART_cdc.c **** /***************************************
 262:.\Generated_Source\PSoC5/USBUART_cdc.c **** * Optional CDC APIs
 263:.\Generated_Source\PSoC5/USBUART_cdc.c **** ***************************************/
 264:.\Generated_Source\PSoC5/USBUART_cdc.c **** #if (USBUART_ENABLE_CDC_CLASS_API != 0u)
 265:.\Generated_Source\PSoC5/USBUART_cdc.c **** /***************************************************************************
 266:.\Generated_Source\PSoC5/USBUART_cdc.c **** * Function Name: USBUART_CDC_Init
 267:.\Generated_Source\PSoC5/USBUART_cdc.c **** ************************************************************************//**
 268:.\Generated_Source\PSoC5/USBUART_cdc.c **** *
 269:.\Generated_Source\PSoC5/USBUART_cdc.c **** *  This function initializes the CDC interface to be ready to receive data
 270:.\Generated_Source\PSoC5/USBUART_cdc.c **** *  from the PC. The API set active communication port to 0 in the case of 
 271:.\Generated_Source\PSoC5/USBUART_cdc.c **** *  multiple communication port support.This API should be called after the 
 272:.\Generated_Source\PSoC5/USBUART_cdc.c **** *  device has been started and configured using USBUART_Start() API to 
 273:.\Generated_Source\PSoC5/USBUART_cdc.c **** *  initialize and start the USBFS component operation. Then call the 
 274:.\Generated_Source\PSoC5/USBUART_cdc.c **** *  USBUART_GetConfiguration() API to wait until the host has enumerated and 
 275:.\Generated_Source\PSoC5/USBUART_cdc.c **** *  configured the device. For example:
 276:.\Generated_Source\PSoC5/USBUART_cdc.c **** *
 277:.\Generated_Source\PSoC5/USBUART_cdc.c **** *  \snippet /USBFS_sut_02.cydsn/main.c wait for enumeration
 278:.\Generated_Source\PSoC5/USBUART_cdc.c **** *
 279:.\Generated_Source\PSoC5/USBUART_cdc.c **** * \return
 280:.\Generated_Source\PSoC5/USBUART_cdc.c **** *  cystatus:
 281:.\Generated_Source\PSoC5/USBUART_cdc.c **** *   Return Value    Description
 282:.\Generated_Source\PSoC5/USBUART_cdc.c **** *   USBUART_SUCCESS   CDC interface was initialized correctly
 283:.\Generated_Source\PSoC5/USBUART_cdc.c **** *   USBUART_FAILURE   CDC interface was not initialized
 284:.\Generated_Source\PSoC5/USBUART_cdc.c **** *
 285:.\Generated_Source\PSoC5/USBUART_cdc.c **** * \globalvars
 286:.\Generated_Source\PSoC5/USBUART_cdc.c **** *   USBUART_linesChanged: Initialized to zero.
 287:.\Generated_Source\PSoC5/USBUART_cdc.c **** *   USBUART_cdcDataOutEp: Used as an OUT endpoint number.
 288:.\Generated_Source\PSoC5/USBUART_cdc.c **** *
 289:.\Generated_Source\PSoC5/USBUART_cdc.c **** * \reentrant
 290:.\Generated_Source\PSoC5/USBUART_cdc.c **** *  No.
 291:.\Generated_Source\PSoC5/USBUART_cdc.c **** *
 292:.\Generated_Source\PSoC5/USBUART_cdc.c **** *******************************************************************************/
 293:.\Generated_Source\PSoC5/USBUART_cdc.c **** uint8 USBUART_CDC_Init(void) 
 294:.\Generated_Source\PSoC5/USBUART_cdc.c **** {
 295:.\Generated_Source\PSoC5/USBUART_cdc.c ****     uint8 comPort;
 296:.\Generated_Source\PSoC5/USBUART_cdc.c ****     uint8 outEp;
 297:.\Generated_Source\PSoC5/USBUART_cdc.c ****     uint8 ret = USBUART_SUCCESS;
 298:.\Generated_Source\PSoC5/USBUART_cdc.c **** 
 299:.\Generated_Source\PSoC5/USBUART_cdc.c ****     USBUART_activeCom = 0u;
 300:.\Generated_Source\PSoC5/USBUART_cdc.c ****     USBUART_linesChanged[USBUART_COM_PORT1] = 0u;
 301:.\Generated_Source\PSoC5/USBUART_cdc.c ****     USBUART_linesChanged[USBUART_COM_PORT2] = 0u;
 302:.\Generated_Source\PSoC5/USBUART_cdc.c **** 
 303:.\Generated_Source\PSoC5/USBUART_cdc.c ****     for(comPort = 0u; comPort<USBUART_MAX_MULTI_COM_NUM; comPort++)
 304:.\Generated_Source\PSoC5/USBUART_cdc.c ****     {
 305:.\Generated_Source\PSoC5/USBUART_cdc.c ****         outEp = USBUART_cdcDataOutEp[comPort];
 306:.\Generated_Source\PSoC5/USBUART_cdc.c ****         if((0u != outEp) && (USBUART_MAX_EP > outEp))
 307:.\Generated_Source\PSoC5/USBUART_cdc.c ****         {
 308:.\Generated_Source\PSoC5/USBUART_cdc.c ****             USBUART_EnableOutEP(outEp);
 309:.\Generated_Source\PSoC5/USBUART_cdc.c ****         }
 310:.\Generated_Source\PSoC5/USBUART_cdc.c **** 
 311:.\Generated_Source\PSoC5/USBUART_cdc.c ****     }
 312:.\Generated_Source\PSoC5/USBUART_cdc.c **** 
 313:.\Generated_Source\PSoC5/USBUART_cdc.c ****     /* COM Port 1 should be correct to proceed. */
 314:.\Generated_Source\PSoC5/USBUART_cdc.c ****     if ((0u == USBUART_cdcDataInEp[USBUART_COM_PORT1]) \
 315:.\Generated_Source\PSoC5/USBUART_cdc.c ****             || (0u == USBUART_cdcDataOutEp[USBUART_COM_PORT1]) \
 316:.\Generated_Source\PSoC5/USBUART_cdc.c ****             || (0u ==  USBUART_cdcCommInInterruptEp[USBUART_COM_PORT1])
 317:.\Generated_Source\PSoC5/USBUART_cdc.c ****             || (USBUART_cdcDataInEp[USBUART_COM_PORT1] >= USBUART_MAX_EP)
ARM GAS  C:\Users\student\AppData\Local\Temp\cckxTosa.s 			page 7


 318:.\Generated_Source\PSoC5/USBUART_cdc.c ****             || (USBUART_cdcDataOutEp[USBUART_COM_PORT1] >= USBUART_MAX_EP)
 319:.\Generated_Source\PSoC5/USBUART_cdc.c ****             || (USBUART_cdcCommInInterruptEp[USBUART_COM_PORT1] >= USBUART_MAX_EP))
 320:.\Generated_Source\PSoC5/USBUART_cdc.c ****     {
 321:.\Generated_Source\PSoC5/USBUART_cdc.c ****         ret = USBUART_FAILURE;
 322:.\Generated_Source\PSoC5/USBUART_cdc.c ****     }
 323:.\Generated_Source\PSoC5/USBUART_cdc.c **** 
 324:.\Generated_Source\PSoC5/USBUART_cdc.c ****     return (ret);
 325:.\Generated_Source\PSoC5/USBUART_cdc.c **** }
 326:.\Generated_Source\PSoC5/USBUART_cdc.c **** 
 327:.\Generated_Source\PSoC5/USBUART_cdc.c **** 
 328:.\Generated_Source\PSoC5/USBUART_cdc.c **** /*******************************************************************************
 329:.\Generated_Source\PSoC5/USBUART_cdc.c **** * Function Name: USBUART_PutData
 330:.\Generated_Source\PSoC5/USBUART_cdc.c **** ****************************************************************************//**
 331:.\Generated_Source\PSoC5/USBUART_cdc.c **** *
 332:.\Generated_Source\PSoC5/USBUART_cdc.c **** *  This function sends a specified number of bytes from the location specified
 333:.\Generated_Source\PSoC5/USBUART_cdc.c **** *  by a pointer to the PC. The USBUART_CDCIsReady() function should be
 334:.\Generated_Source\PSoC5/USBUART_cdc.c **** *  called before sending new data, to be sure that the previous data has
 335:.\Generated_Source\PSoC5/USBUART_cdc.c **** *  finished sending.
 336:.\Generated_Source\PSoC5/USBUART_cdc.c **** *  If the last sent packet is less than maximum packet size the USB transfer
 337:.\Generated_Source\PSoC5/USBUART_cdc.c **** *  of this short packet will identify the end of the segment. If the last sent
 338:.\Generated_Source\PSoC5/USBUART_cdc.c **** *  packet is exactly maximum packet size, it shall be followed by a zero-length
 339:.\Generated_Source\PSoC5/USBUART_cdc.c **** *  packet (which is a short packet) to assure the end of segment is properly
 340:.\Generated_Source\PSoC5/USBUART_cdc.c **** *  identified. To send zero-length packet, use USBUART_PutData() API
 341:.\Generated_Source\PSoC5/USBUART_cdc.c **** *  with length parameter set to zero.
 342:.\Generated_Source\PSoC5/USBUART_cdc.c **** *
 343:.\Generated_Source\PSoC5/USBUART_cdc.c **** *  \param pData: pointer to the buffer containing data to be sent.
 344:.\Generated_Source\PSoC5/USBUART_cdc.c **** *  \param length: Specifies the number of bytes to send from the pData
 345:.\Generated_Source\PSoC5/USBUART_cdc.c **** *  buffer. Maximum length will be limited by the maximum packet
 346:.\Generated_Source\PSoC5/USBUART_cdc.c **** *  size for the endpoint. Data will be lost if length is greater than Max
 347:.\Generated_Source\PSoC5/USBUART_cdc.c **** *  Packet Size.
 348:.\Generated_Source\PSoC5/USBUART_cdc.c **** *
 349:.\Generated_Source\PSoC5/USBUART_cdc.c **** * \globalvars
 350:.\Generated_Source\PSoC5/USBUART_cdc.c **** *
 351:.\Generated_Source\PSoC5/USBUART_cdc.c **** *   USBUART_cdcDataInEp: CDC IN endpoint number used for sending
 352:.\Generated_Source\PSoC5/USBUART_cdc.c **** *     data.
 353:.\Generated_Source\PSoC5/USBUART_cdc.c **** *
 354:.\Generated_Source\PSoC5/USBUART_cdc.c **** * \reentrant
 355:.\Generated_Source\PSoC5/USBUART_cdc.c **** *  No.
 356:.\Generated_Source\PSoC5/USBUART_cdc.c **** *
 357:.\Generated_Source\PSoC5/USBUART_cdc.c **** *******************************************************************************/
 358:.\Generated_Source\PSoC5/USBUART_cdc.c **** void USBUART_PutData(const uint8* pData, uint16 length) 
 359:.\Generated_Source\PSoC5/USBUART_cdc.c **** {
 360:.\Generated_Source\PSoC5/USBUART_cdc.c ****     uint8 epNumber = USBUART_cdcDataInEp[USBUART_activeCom];
 361:.\Generated_Source\PSoC5/USBUART_cdc.c **** 
 362:.\Generated_Source\PSoC5/USBUART_cdc.c ****     /* Limit length to maximum packet size for endpoint. */
 363:.\Generated_Source\PSoC5/USBUART_cdc.c ****     if (length > USBUART_EP[epNumber].bufferSize)
 364:.\Generated_Source\PSoC5/USBUART_cdc.c ****     {
 365:.\Generated_Source\PSoC5/USBUART_cdc.c ****         /* Caution: Data will be lost if length is greater than Max Packet Size. */
 366:.\Generated_Source\PSoC5/USBUART_cdc.c ****         length = USBUART_EP[epNumber].bufferSize;
 367:.\Generated_Source\PSoC5/USBUART_cdc.c **** 
 368:.\Generated_Source\PSoC5/USBUART_cdc.c ****         /* Halt CPU in debug mode */
 369:.\Generated_Source\PSoC5/USBUART_cdc.c ****         CYASSERT(0u != 0u);
 370:.\Generated_Source\PSoC5/USBUART_cdc.c ****     }
 371:.\Generated_Source\PSoC5/USBUART_cdc.c **** 
 372:.\Generated_Source\PSoC5/USBUART_cdc.c ****     USBUART_LoadInEP(epNumber, pData, length);
 373:.\Generated_Source\PSoC5/USBUART_cdc.c **** }
 374:.\Generated_Source\PSoC5/USBUART_cdc.c **** 
ARM GAS  C:\Users\student\AppData\Local\Temp\cckxTosa.s 			page 8


 375:.\Generated_Source\PSoC5/USBUART_cdc.c **** 
 376:.\Generated_Source\PSoC5/USBUART_cdc.c **** /*******************************************************************************
 377:.\Generated_Source\PSoC5/USBUART_cdc.c **** * Function Name: USBUART_StrLen
 378:.\Generated_Source\PSoC5/USBUART_cdc.c **** ****************************************************************************//**
 379:.\Generated_Source\PSoC5/USBUART_cdc.c **** *
 380:.\Generated_Source\PSoC5/USBUART_cdc.c **** *  Calculates length of a null terminated string.
 381:.\Generated_Source\PSoC5/USBUART_cdc.c **** *
 382:.\Generated_Source\PSoC5/USBUART_cdc.c **** *  \param string: pointer to the string.
 383:.\Generated_Source\PSoC5/USBUART_cdc.c **** *
 384:.\Generated_Source\PSoC5/USBUART_cdc.c **** * \return
 385:.\Generated_Source\PSoC5/USBUART_cdc.c **** *  Length of the string
 386:.\Generated_Source\PSoC5/USBUART_cdc.c **** *
 387:.\Generated_Source\PSoC5/USBUART_cdc.c **** *******************************************************************************/
 388:.\Generated_Source\PSoC5/USBUART_cdc.c **** static uint16 USBUART_StrLen(const char8 string[]) 
 389:.\Generated_Source\PSoC5/USBUART_cdc.c **** {
  26              		.loc 1 389 0
  27              		.cfi_startproc
  28              		@ args = 0, pretend = 0, frame = 0
  29              		@ frame_needed = 0, uses_anonymous_args = 0
  30              		@ link register save eliminated.
  31              	.LVL0:
  32 0000 0246     		mov	r2, r0
  33              	.LVL1:
 390:.\Generated_Source\PSoC5/USBUART_cdc.c ****     uint16 len = 0u;
  34              		.loc 1 390 0
  35 0002 0020     		movs	r0, #0
  36              	.LVL2:
 391:.\Generated_Source\PSoC5/USBUART_cdc.c **** 
 392:.\Generated_Source\PSoC5/USBUART_cdc.c ****     while (string[len] != (char8)0)
  37              		.loc 1 392 0
  38 0004 01E0     		b	.L2
  39              	.LVL3:
  40              	.L3:
 393:.\Generated_Source\PSoC5/USBUART_cdc.c ****     {
 394:.\Generated_Source\PSoC5/USBUART_cdc.c ****         len++;
  41              		.loc 1 394 0
  42 0006 0130     		adds	r0, r0, #1
  43              	.LVL4:
  44 0008 80B2     		uxth	r0, r0
  45              	.LVL5:
  46              	.L2:
 392:.\Generated_Source\PSoC5/USBUART_cdc.c ****     {
  47              		.loc 1 392 0
  48 000a 135C     		ldrb	r3, [r2, r0]	@ zero_extendqisi2
  49 000c 002B     		cmp	r3, #0
  50 000e FAD1     		bne	.L3
 395:.\Generated_Source\PSoC5/USBUART_cdc.c ****     }
 396:.\Generated_Source\PSoC5/USBUART_cdc.c **** 
 397:.\Generated_Source\PSoC5/USBUART_cdc.c ****     return ((uint16) len);
 398:.\Generated_Source\PSoC5/USBUART_cdc.c **** }
  51              		.loc 1 398 0
  52 0010 7047     		bx	lr
  53              		.cfi_endproc
  54              	.LFE4:
  55              		.size	USBUART_StrLen, .-USBUART_StrLen
  56 0012 00BF     		.section	.text.USBUART_GetInterfaceComPort,"ax",%progbits
  57              		.align	2
ARM GAS  C:\Users\student\AppData\Local\Temp\cckxTosa.s 			page 9


  58              		.global	USBUART_GetInterfaceComPort
  59              		.thumb
  60              		.thumb_func
  61              		.type	USBUART_GetInterfaceComPort, %function
  62              	USBUART_GetInterfaceComPort:
  63              	.LFB1:
 240:.\Generated_Source\PSoC5/USBUART_cdc.c ****     uint8 comPort = 0u;
  64              		.loc 1 240 0
  65              		.cfi_startproc
  66              		@ args = 0, pretend = 0, frame = 0
  67              		@ frame_needed = 0, uses_anonymous_args = 0
  68              		@ link register save eliminated.
  69              	.LVL6:
  70 0000 10B4     		push	{r4}
  71              		.cfi_def_cfa_offset 4
  72              		.cfi_offset 4, -4
  73              	.LVL7:
 242:.\Generated_Source\PSoC5/USBUART_cdc.c ****     uint8 notEp;
  74              		.loc 1 242 0
  75 0002 FF24     		movs	r4, #255
 241:.\Generated_Source\PSoC5/USBUART_cdc.c ****     uint8 res = 0xFFu;
  76              		.loc 1 241 0
  77 0004 0022     		movs	r2, #0
 245:.\Generated_Source\PSoC5/USBUART_cdc.c ****     {
  78              		.loc 1 245 0
  79 0006 0EE0     		b	.L5
  80              	.LVL8:
  81              	.L7:
 247:.\Generated_Source\PSoC5/USBUART_cdc.c **** 
  82              		.loc 1 247 0
  83 0008 0A4B     		ldr	r3, .L10
  84 000a 9B5C     		ldrb	r3, [r3, r2]	@ zero_extendqisi2
  85              	.LVL9:
 249:.\Generated_Source\PSoC5/USBUART_cdc.c ****         {
  86              		.loc 1 249 0
  87 000c 03EB4303 		add	r3, r3, r3, lsl #1
  88              	.LVL10:
  89 0010 9B00     		lsls	r3, r3, #2
  90 0012 0949     		ldr	r1, .L10+4
  91 0014 0B44     		add	r3, r3, r1
  92 0016 9B78     		ldrb	r3, [r3, #2]	@ zero_extendqisi2
  93 0018 DBB2     		uxtb	r3, r3
  94 001a 8342     		cmp	r3, r0
  95 001c 01D1     		bne	.L6
 251:.\Generated_Source\PSoC5/USBUART_cdc.c ****             comPort = USBUART_MAX_MULTI_COM_NUM;
  96              		.loc 1 251 0
  97 001e 1446     		mov	r4, r2
  98              	.LVL11:
 252:.\Generated_Source\PSoC5/USBUART_cdc.c ****         }
  99              		.loc 1 252 0
 100 0020 0222     		movs	r2, #2
 101              	.LVL12:
 102              	.L6:
 255:.\Generated_Source\PSoC5/USBUART_cdc.c ****     }
 103              		.loc 1 255 0
 104 0022 0132     		adds	r2, r2, #1
 105              	.LVL13:
ARM GAS  C:\Users\student\AppData\Local\Temp\cckxTosa.s 			page 10


 106 0024 D2B2     		uxtb	r2, r2
 107              	.LVL14:
 108              	.L5:
 245:.\Generated_Source\PSoC5/USBUART_cdc.c ****     {
 109              		.loc 1 245 0
 110 0026 012A     		cmp	r2, #1
 111 0028 EED9     		bls	.L7
 258:.\Generated_Source\PSoC5/USBUART_cdc.c **** 
 112              		.loc 1 258 0
 113 002a 2046     		mov	r0, r4
 114              	.LVL15:
 115 002c 5DF8044B 		ldr	r4, [sp], #4
 116              		.cfi_restore 4
 117              		.cfi_def_cfa_offset 0
 118              	.LVL16:
 119 0030 7047     		bx	lr
 120              	.L11:
 121 0032 00BF     		.align	2
 122              	.L10:
 123 0034 00000000 		.word	USBUART_cdcCommInInterruptEp
 124 0038 08000000 		.word	USBUART_EP+8
 125              		.cfi_endproc
 126              	.LFE1:
 127              		.size	USBUART_GetInterfaceComPort, .-USBUART_GetInterfaceComPort
 128              		.section	.text.USBUART_DispatchCDCClassRqst,"ax",%progbits
 129              		.align	2
 130              		.global	USBUART_DispatchCDCClassRqst
 131              		.thumb
 132              		.thumb_func
 133              		.type	USBUART_DispatchCDCClassRqst, %function
 134              	USBUART_DispatchCDCClassRqst:
 135              	.LFB0:
 156:.\Generated_Source\PSoC5/USBUART_cdc.c ****     uint8 requestHandled = USBUART_FALSE;
 136              		.loc 1 156 0
 137              		.cfi_startproc
 138              		@ args = 0, pretend = 0, frame = 0
 139              		@ frame_needed = 0, uses_anonymous_args = 0
 140 0000 10B5     		push	{r4, lr}
 141              		.cfi_def_cfa_offset 8
 142              		.cfi_offset 4, -8
 143              		.cfi_offset 14, -4
 144              	.LVL17:
 160:.\Generated_Source\PSoC5/USBUART_cdc.c **** 
 145              		.loc 1 160 0
 146 0002 204C     		ldr	r4, .L23
 147 0004 2079     		ldrb	r0, [r4, #4]	@ zero_extendqisi2
 148 0006 FFF7FEFF 		bl	USBUART_GetInterfaceComPort
 149              	.LVL18:
 163:.\Generated_Source\PSoC5/USBUART_cdc.c ****     {
 150              		.loc 1 163 0
 151 000a 2378     		ldrb	r3, [r4]	@ zero_extendqisi2
 152 000c 13F0800F 		tst	r3, #128
 153 0010 0ED0     		beq	.L13
 167:.\Generated_Source\PSoC5/USBUART_cdc.c ****         {
 154              		.loc 1 167 0
 155 0012 6378     		ldrb	r3, [r4, #1]	@ zero_extendqisi2
 156 0014 DBB2     		uxtb	r3, r3
ARM GAS  C:\Users\student\AppData\Local\Temp\cckxTosa.s 			page 11


 157 0016 212B     		cmp	r3, #33
 158 0018 2FD1     		bne	.L20
 170:.\Generated_Source\PSoC5/USBUART_cdc.c ****                 USBUART_currentTD.pData = USBUART_linesCoding[comPort];
 159              		.loc 1 170 0
 160 001a 1B4B     		ldr	r3, .L23+4
 161 001c 0722     		movs	r2, #7
 162 001e 1A80     		strh	r2, [r3]	@ movhi
 171:.\Generated_Source\PSoC5/USBUART_cdc.c ****                 requestHandled  = USBUART_InitControlRead();
 163              		.loc 1 171 0
 164 0020 C0EBC000 		rsb	r0, r0, r0, lsl #3
 165              	.LVL19:
 166 0024 194A     		ldr	r2, .L23+8
 167 0026 1044     		add	r0, r0, r2
 168 0028 5860     		str	r0, [r3, #4]
 172:.\Generated_Source\PSoC5/USBUART_cdc.c ****                 break;
 169              		.loc 1 172 0
 170 002a FFF7FEFF 		bl	USBUART_InitControlRead
 171              	.LVL20:
 173:.\Generated_Source\PSoC5/USBUART_cdc.c **** 
 172              		.loc 1 173 0
 173 002e 10BD     		pop	{r4, pc}
 174              	.LVL21:
 175              	.L13:
 191:.\Generated_Source\PSoC5/USBUART_cdc.c ****         {
 176              		.loc 1 191 0
 177 0030 144B     		ldr	r3, .L23
 178 0032 5B78     		ldrb	r3, [r3, #1]	@ zero_extendqisi2
 179 0034 DBB2     		uxtb	r3, r3
 180 0036 202B     		cmp	r3, #32
 181 0038 02D0     		beq	.L16
 182 003a 222B     		cmp	r3, #34
 183 003c 10D0     		beq	.L17
 184 003e 1EE0     		b	.L21
 185              	.L16:
 194:.\Generated_Source\PSoC5/USBUART_cdc.c ****                 USBUART_currentTD.pData  = USBUART_linesCoding[comPort];
 186              		.loc 1 194 0
 187 0040 114A     		ldr	r2, .L23+4
 188 0042 0723     		movs	r3, #7
 189 0044 1380     		strh	r3, [r2]	@ movhi
 195:.\Generated_Source\PSoC5/USBUART_cdc.c ****                 USBUART_linesChanged[comPort] |= USBUART_LINE_CODING_CHANGED;
 190              		.loc 1 195 0
 191 0046 C0EBC003 		rsb	r3, r0, r0, lsl #3
 192 004a 1049     		ldr	r1, .L23+8
 193 004c 0B44     		add	r3, r3, r1
 194 004e 5360     		str	r3, [r2, #4]
 196:.\Generated_Source\PSoC5/USBUART_cdc.c **** 
 195              		.loc 1 196 0
 196 0050 0F4A     		ldr	r2, .L23+12
 197 0052 135C     		ldrb	r3, [r2, r0]	@ zero_extendqisi2
 198 0054 43F00103 		orr	r3, r3, #1
 199 0058 1354     		strb	r3, [r2, r0]
 198:.\Generated_Source\PSoC5/USBUART_cdc.c ****                 break;
 200              		.loc 1 198 0
 201 005a FFF7FEFF 		bl	USBUART_InitControlWrite
 202              	.LVL22:
 199:.\Generated_Source\PSoC5/USBUART_cdc.c **** 
 203              		.loc 1 199 0
ARM GAS  C:\Users\student\AppData\Local\Temp\cckxTosa.s 			page 12


 204 005e 10BD     		pop	{r4, pc}
 205              	.LVL23:
 206              	.L17:
 202:.\Generated_Source\PSoC5/USBUART_cdc.c ****                 USBUART_linesChanged[comPort]      |= USBUART_LINE_CONTROL_CHANGED;
 207              		.loc 1 202 0
 208 0060 084B     		ldr	r3, .L23
 209 0062 9B78     		ldrb	r3, [r3, #2]	@ zero_extendqisi2
 210 0064 0B4A     		ldr	r2, .L23+16
 211 0066 22F81030 		strh	r3, [r2, r0, lsl #1]	@ movhi
 203:.\Generated_Source\PSoC5/USBUART_cdc.c **** 
 212              		.loc 1 203 0
 213 006a 094A     		ldr	r2, .L23+12
 214 006c 135C     		ldrb	r3, [r2, r0]	@ zero_extendqisi2
 215 006e 43F00203 		orr	r3, r3, #2
 216 0072 1354     		strb	r3, [r2, r0]
 205:.\Generated_Source\PSoC5/USBUART_cdc.c ****                 break;
 217              		.loc 1 205 0
 218 0074 FFF7FEFF 		bl	USBUART_InitNoDataControlTransfer
 219              	.LVL24:
 206:.\Generated_Source\PSoC5/USBUART_cdc.c **** 
 220              		.loc 1 206 0
 221 0078 10BD     		pop	{r4, pc}
 222              	.LVL25:
 223              	.L20:
 157:.\Generated_Source\PSoC5/USBUART_cdc.c ****     uint8 comPort;
 224              		.loc 1 157 0
 225 007a 0020     		movs	r0, #0
 226              	.LVL26:
 227 007c 10BD     		pop	{r4, pc}
 228              	.LVL27:
 229              	.L21:
 230 007e 0020     		movs	r0, #0
 231              	.LVL28:
 222:.\Generated_Source\PSoC5/USBUART_cdc.c **** 
 232              		.loc 1 222 0
 233 0080 10BD     		pop	{r4, pc}
 234              	.L24:
 235 0082 00BF     		.align	2
 236              	.L23:
 237 0084 00600040 		.word	1073766400
 238 0088 00000000 		.word	USBUART_currentTD
 239 008c 00000000 		.word	.LANCHOR0
 240 0090 00000000 		.word	USBUART_linesChanged
 241 0094 00000000 		.word	USBUART_linesControlBitmap
 242              		.cfi_endproc
 243              	.LFE0:
 244              		.size	USBUART_DispatchCDCClassRqst, .-USBUART_DispatchCDCClassRqst
 245              		.section	.text.USBUART_CDC_Init,"ax",%progbits
 246              		.align	2
 247              		.global	USBUART_CDC_Init
 248              		.thumb
 249              		.thumb_func
 250              		.type	USBUART_CDC_Init, %function
 251              	USBUART_CDC_Init:
 252              	.LFB2:
 294:.\Generated_Source\PSoC5/USBUART_cdc.c ****     uint8 comPort;
 253              		.loc 1 294 0
ARM GAS  C:\Users\student\AppData\Local\Temp\cckxTosa.s 			page 13


 254              		.cfi_startproc
 255              		@ args = 0, pretend = 0, frame = 0
 256              		@ frame_needed = 0, uses_anonymous_args = 0
 257 0000 10B5     		push	{r4, lr}
 258              		.cfi_def_cfa_offset 8
 259              		.cfi_offset 4, -8
 260              		.cfi_offset 14, -4
 261              	.LVL29:
 299:.\Generated_Source\PSoC5/USBUART_cdc.c ****     USBUART_linesChanged[USBUART_COM_PORT1] = 0u;
 262              		.loc 1 299 0
 263 0002 0024     		movs	r4, #0
 264 0004 1F4B     		ldr	r3, .L37
 265 0006 1C70     		strb	r4, [r3]
 300:.\Generated_Source\PSoC5/USBUART_cdc.c ****     USBUART_linesChanged[USBUART_COM_PORT2] = 0u;
 266              		.loc 1 300 0
 267 0008 1F4B     		ldr	r3, .L37+4
 268 000a 1C70     		strb	r4, [r3]
 301:.\Generated_Source\PSoC5/USBUART_cdc.c **** 
 269              		.loc 1 301 0
 270 000c 5C70     		strb	r4, [r3, #1]
 271              	.LVL30:
 303:.\Generated_Source\PSoC5/USBUART_cdc.c ****     {
 272              		.loc 1 303 0
 273 000e 0AE0     		b	.L26
 274              	.LVL31:
 275              	.L28:
 305:.\Generated_Source\PSoC5/USBUART_cdc.c ****         if((0u != outEp) && (USBUART_MAX_EP > outEp))
 276              		.loc 1 305 0
 277 0010 1E4B     		ldr	r3, .L37+8
 278 0012 185D     		ldrb	r0, [r3, r4]	@ zero_extendqisi2
 279 0014 C0B2     		uxtb	r0, r0
 280              	.LVL32:
 306:.\Generated_Source\PSoC5/USBUART_cdc.c ****         {
 281              		.loc 1 306 0
 282 0016 431E     		subs	r3, r0, #1
 283 0018 DBB2     		uxtb	r3, r3
 284 001a 072B     		cmp	r3, #7
 285 001c 01D8     		bhi	.L27
 308:.\Generated_Source\PSoC5/USBUART_cdc.c ****         }
 286              		.loc 1 308 0
 287 001e FFF7FEFF 		bl	USBUART_EnableOutEP
 288              	.LVL33:
 289              	.L27:
 303:.\Generated_Source\PSoC5/USBUART_cdc.c ****     {
 290              		.loc 1 303 0 discriminator 2
 291 0022 0134     		adds	r4, r4, #1
 292              	.LVL34:
 293 0024 E4B2     		uxtb	r4, r4
 294              	.LVL35:
 295              	.L26:
 303:.\Generated_Source\PSoC5/USBUART_cdc.c ****     {
 296              		.loc 1 303 0 is_stmt 0 discriminator 1
 297 0026 012C     		cmp	r4, #1
 298 0028 F2D9     		bls	.L28
 314:.\Generated_Source\PSoC5/USBUART_cdc.c ****             || (0u == USBUART_cdcDataOutEp[USBUART_COM_PORT1]) \
 299              		.loc 1 314 0 is_stmt 1
 300 002a 194B     		ldr	r3, .L37+12
ARM GAS  C:\Users\student\AppData\Local\Temp\cckxTosa.s 			page 14


 301 002c 1B78     		ldrb	r3, [r3]	@ zero_extendqisi2
 302 002e 13F0FF0F 		tst	r3, #255
 303 0032 1AD0     		beq	.L30
 315:.\Generated_Source\PSoC5/USBUART_cdc.c ****             || (0u ==  USBUART_cdcCommInInterruptEp[USBUART_COM_PORT1])
 304              		.loc 1 315 0
 305 0034 154B     		ldr	r3, .L37+8
 306 0036 1B78     		ldrb	r3, [r3]	@ zero_extendqisi2
 307 0038 13F0FF0F 		tst	r3, #255
 308 003c 17D0     		beq	.L31
 316:.\Generated_Source\PSoC5/USBUART_cdc.c ****             || (USBUART_cdcDataInEp[USBUART_COM_PORT1] >= USBUART_MAX_EP)
 309              		.loc 1 316 0
 310 003e 154B     		ldr	r3, .L37+16
 311 0040 1B78     		ldrb	r3, [r3]	@ zero_extendqisi2
 312 0042 13F0FF0F 		tst	r3, #255
 313 0046 14D0     		beq	.L32
 317:.\Generated_Source\PSoC5/USBUART_cdc.c ****             || (USBUART_cdcDataOutEp[USBUART_COM_PORT1] >= USBUART_MAX_EP)
 314              		.loc 1 317 0
 315 0048 114B     		ldr	r3, .L37+12
 316 004a 1B78     		ldrb	r3, [r3]	@ zero_extendqisi2
 317 004c DBB2     		uxtb	r3, r3
 318 004e 082B     		cmp	r3, #8
 319 0050 11D8     		bhi	.L33
 318:.\Generated_Source\PSoC5/USBUART_cdc.c ****             || (USBUART_cdcCommInInterruptEp[USBUART_COM_PORT1] >= USBUART_MAX_EP))
 320              		.loc 1 318 0
 321 0052 0E4B     		ldr	r3, .L37+8
 322 0054 1B78     		ldrb	r3, [r3]	@ zero_extendqisi2
 323 0056 DBB2     		uxtb	r3, r3
 324 0058 082B     		cmp	r3, #8
 325 005a 0ED8     		bhi	.L34
 319:.\Generated_Source\PSoC5/USBUART_cdc.c ****     {
 326              		.loc 1 319 0
 327 005c 0D4B     		ldr	r3, .L37+16
 328 005e 1B78     		ldrb	r3, [r3]	@ zero_extendqisi2
 329 0060 DBB2     		uxtb	r3, r3
 330 0062 082B     		cmp	r3, #8
 331 0064 0BD8     		bhi	.L35
 297:.\Generated_Source\PSoC5/USBUART_cdc.c **** 
 332              		.loc 1 297 0
 333 0066 0020     		movs	r0, #0
 334 0068 10BD     		pop	{r4, pc}
 335              	.LVL36:
 336              	.L30:
 321:.\Generated_Source\PSoC5/USBUART_cdc.c ****     }
 337              		.loc 1 321 0
 338 006a 0120     		movs	r0, #1
 339 006c 10BD     		pop	{r4, pc}
 340              	.LVL37:
 341              	.L31:
 342 006e 0120     		movs	r0, #1
 343 0070 10BD     		pop	{r4, pc}
 344              	.LVL38:
 345              	.L32:
 346 0072 0120     		movs	r0, #1
 347 0074 10BD     		pop	{r4, pc}
 348              	.LVL39:
 349              	.L33:
 350 0076 0120     		movs	r0, #1
ARM GAS  C:\Users\student\AppData\Local\Temp\cckxTosa.s 			page 15


 351 0078 10BD     		pop	{r4, pc}
 352              	.LVL40:
 353              	.L34:
 354 007a 0120     		movs	r0, #1
 355 007c 10BD     		pop	{r4, pc}
 356              	.LVL41:
 357              	.L35:
 358 007e 0120     		movs	r0, #1
 359              	.LVL42:
 325:.\Generated_Source\PSoC5/USBUART_cdc.c **** 
 360              		.loc 1 325 0
 361 0080 10BD     		pop	{r4, pc}
 362              	.LVL43:
 363              	.L38:
 364 0082 00BF     		.align	2
 365              	.L37:
 366 0084 00000000 		.word	.LANCHOR1
 367 0088 00000000 		.word	USBUART_linesChanged
 368 008c 00000000 		.word	USBUART_cdcDataOutEp
 369 0090 00000000 		.word	USBUART_cdcDataInEp
 370 0094 00000000 		.word	USBUART_cdcCommInInterruptEp
 371              		.cfi_endproc
 372              	.LFE2:
 373              		.size	USBUART_CDC_Init, .-USBUART_CDC_Init
 374              		.section	.text.USBUART_PutData,"ax",%progbits
 375              		.align	2
 376              		.global	USBUART_PutData
 377              		.thumb
 378              		.thumb_func
 379              		.type	USBUART_PutData, %function
 380              	USBUART_PutData:
 381              	.LFB3:
 359:.\Generated_Source\PSoC5/USBUART_cdc.c ****     uint8 epNumber = USBUART_cdcDataInEp[USBUART_activeCom];
 382              		.loc 1 359 0
 383              		.cfi_startproc
 384              		@ args = 0, pretend = 0, frame = 0
 385              		@ frame_needed = 0, uses_anonymous_args = 0
 386              	.LVL44:
 387 0000 70B5     		push	{r4, r5, r6, lr}
 388              		.cfi_def_cfa_offset 16
 389              		.cfi_offset 4, -16
 390              		.cfi_offset 5, -12
 391              		.cfi_offset 6, -8
 392              		.cfi_offset 14, -4
 393 0002 0646     		mov	r6, r0
 394 0004 0D46     		mov	r5, r1
 360:.\Generated_Source\PSoC5/USBUART_cdc.c **** 
 395              		.loc 1 360 0
 396 0006 0E4B     		ldr	r3, .L42
 397 0008 1B78     		ldrb	r3, [r3]	@ zero_extendqisi2
 398 000a 0E4A     		ldr	r2, .L42+4
 399 000c D45C     		ldrb	r4, [r2, r3]	@ zero_extendqisi2
 400 000e E4B2     		uxtb	r4, r4
 401              	.LVL45:
 363:.\Generated_Source\PSoC5/USBUART_cdc.c ****     {
 402              		.loc 1 363 0
 403 0010 04EB4403 		add	r3, r4, r4, lsl #1
ARM GAS  C:\Users\student\AppData\Local\Temp\cckxTosa.s 			page 16


 404 0014 9B00     		lsls	r3, r3, #2
 405 0016 0C4A     		ldr	r2, .L42+8
 406 0018 1344     		add	r3, r3, r2
 407 001a 1B89     		ldrh	r3, [r3, #8]
 408 001c 9BB2     		uxth	r3, r3
 409 001e 8B42     		cmp	r3, r1
 410 0020 08D2     		bcs	.L40
 366:.\Generated_Source\PSoC5/USBUART_cdc.c **** 
 411              		.loc 1 366 0
 412 0022 04EB4403 		add	r3, r4, r4, lsl #1
 413 0026 9B00     		lsls	r3, r3, #2
 414 0028 1344     		add	r3, r3, r2
 415 002a 1D89     		ldrh	r5, [r3, #8]
 416 002c ADB2     		uxth	r5, r5
 417              	.LVL46:
 369:.\Generated_Source\PSoC5/USBUART_cdc.c ****     }
 418              		.loc 1 369 0
 419 002e 0020     		movs	r0, #0
 420              	.LVL47:
 421 0030 FFF7FEFF 		bl	CyHalt
 422              	.LVL48:
 423              	.L40:
 372:.\Generated_Source\PSoC5/USBUART_cdc.c **** }
 424              		.loc 1 372 0
 425 0034 2046     		mov	r0, r4
 426 0036 3146     		mov	r1, r6
 427 0038 2A46     		mov	r2, r5
 428 003a FFF7FEFF 		bl	USBUART_LoadInEP
 429              	.LVL49:
 430 003e 70BD     		pop	{r4, r5, r6, pc}
 431              	.LVL50:
 432              	.L43:
 433              		.align	2
 434              	.L42:
 435 0040 00000000 		.word	.LANCHOR1
 436 0044 00000000 		.word	USBUART_cdcDataInEp
 437 0048 00000000 		.word	USBUART_EP
 438              		.cfi_endproc
 439              	.LFE3:
 440              		.size	USBUART_PutData, .-USBUART_PutData
 441              		.section	.text.USBUART_PutString,"ax",%progbits
 442              		.align	2
 443              		.global	USBUART_PutString
 444              		.thumb
 445              		.thumb_func
 446              		.type	USBUART_PutString, %function
 447              	USBUART_PutString:
 448              	.LFB5:
 399:.\Generated_Source\PSoC5/USBUART_cdc.c **** 
 400:.\Generated_Source\PSoC5/USBUART_cdc.c **** 
 401:.\Generated_Source\PSoC5/USBUART_cdc.c **** /***************************************************************************
 402:.\Generated_Source\PSoC5/USBUART_cdc.c **** * Function Name: USBUART_PutString
 403:.\Generated_Source\PSoC5/USBUART_cdc.c **** ************************************************************************//**
 404:.\Generated_Source\PSoC5/USBUART_cdc.c **** *
 405:.\Generated_Source\PSoC5/USBUART_cdc.c **** *  This function sends a null terminated string to the PC. This function will
 406:.\Generated_Source\PSoC5/USBUART_cdc.c **** *  block if there is not enough memory to place the whole string. It will block
 407:.\Generated_Source\PSoC5/USBUART_cdc.c **** *  until the entire string has been written to the transmit buffer.
ARM GAS  C:\Users\student\AppData\Local\Temp\cckxTosa.s 			page 17


 408:.\Generated_Source\PSoC5/USBUART_cdc.c **** *  The USBUART_CDCIsReady() function should be called before
 409:.\Generated_Source\PSoC5/USBUART_cdc.c **** *  sending data with a new call to USBUART_PutString(), to be sure
 410:.\Generated_Source\PSoC5/USBUART_cdc.c **** *  that the previous data has finished sending. This function sends
 411:.\Generated_Source\PSoC5/USBUART_cdc.c **** *  zero-length packet automatically, if the length of the last packet, sent
 412:.\Generated_Source\PSoC5/USBUART_cdc.c **** *  by this API, is equal to Max Packet Size
 413:.\Generated_Source\PSoC5/USBUART_cdc.c **** *
 414:.\Generated_Source\PSoC5/USBUART_cdc.c **** *  \param string: pointer to the string to be sent to the PC.
 415:.\Generated_Source\PSoC5/USBUART_cdc.c **** *
 416:.\Generated_Source\PSoC5/USBUART_cdc.c **** * \globalvars
 417:.\Generated_Source\PSoC5/USBUART_cdc.c **** *
 418:.\Generated_Source\PSoC5/USBUART_cdc.c **** *   USBUART_cdcDataInEp: CDC IN endpoint number used for sending
 419:.\Generated_Source\PSoC5/USBUART_cdc.c **** *     data.
 420:.\Generated_Source\PSoC5/USBUART_cdc.c **** *
 421:.\Generated_Source\PSoC5/USBUART_cdc.c **** * \reentrant
 422:.\Generated_Source\PSoC5/USBUART_cdc.c **** *  No.
 423:.\Generated_Source\PSoC5/USBUART_cdc.c **** *
 424:.\Generated_Source\PSoC5/USBUART_cdc.c **** ***************************************************************************/
 425:.\Generated_Source\PSoC5/USBUART_cdc.c **** void USBUART_PutString(const char8 string[]) 
 426:.\Generated_Source\PSoC5/USBUART_cdc.c **** {
 449              		.loc 1 426 0
 450              		.cfi_startproc
 451              		@ args = 0, pretend = 0, frame = 0
 452              		@ frame_needed = 0, uses_anonymous_args = 0
 453              	.LVL51:
 454 0000 2DE9F843 		push	{r3, r4, r5, r6, r7, r8, r9, lr}
 455              		.cfi_def_cfa_offset 32
 456              		.cfi_offset 3, -32
 457              		.cfi_offset 4, -28
 458              		.cfi_offset 5, -24
 459              		.cfi_offset 6, -20
 460              		.cfi_offset 7, -16
 461              		.cfi_offset 8, -12
 462              		.cfi_offset 9, -8
 463              		.cfi_offset 14, -4
 464 0004 8046     		mov	r8, r0
 465              	.LVL52:
 427:.\Generated_Source\PSoC5/USBUART_cdc.c ****     uint16 strLength;
 428:.\Generated_Source\PSoC5/USBUART_cdc.c ****     uint16 sendLength;
 429:.\Generated_Source\PSoC5/USBUART_cdc.c ****     uint16 bufIndex = 0u;
 430:.\Generated_Source\PSoC5/USBUART_cdc.c **** 
 431:.\Generated_Source\PSoC5/USBUART_cdc.c ****     uint8  epNumber = USBUART_cdcDataInEp[USBUART_activeCom];
 466              		.loc 1 431 0
 467 0006 224B     		ldr	r3, .L52
 468 0008 1B78     		ldrb	r3, [r3]	@ zero_extendqisi2
 469 000a 224A     		ldr	r2, .L52+4
 470 000c D65C     		ldrb	r6, [r2, r3]	@ zero_extendqisi2
 471 000e F6B2     		uxtb	r6, r6
 472              	.LVL53:
 432:.\Generated_Source\PSoC5/USBUART_cdc.c **** 
 433:.\Generated_Source\PSoC5/USBUART_cdc.c ****     /* Get length string length (it is terminated with zero). */
 434:.\Generated_Source\PSoC5/USBUART_cdc.c ****     strLength = USBUART_StrLen(string);
 473              		.loc 1 434 0
 474 0010 FFF7FEFF 		bl	USBUART_StrLen
 475              	.LVL54:
 476 0014 0546     		mov	r5, r0
 477              	.LVL55:
 429:.\Generated_Source\PSoC5/USBUART_cdc.c **** 
ARM GAS  C:\Users\student\AppData\Local\Temp\cckxTosa.s 			page 18


 478              		.loc 1 429 0
 479 0016 0027     		movs	r7, #0
 480              	.LVL56:
 481              	.L49:
 435:.\Generated_Source\PSoC5/USBUART_cdc.c **** 
 436:.\Generated_Source\PSoC5/USBUART_cdc.c ****     do
 437:.\Generated_Source\PSoC5/USBUART_cdc.c ****     {
 438:.\Generated_Source\PSoC5/USBUART_cdc.c ****         /* Limit length to maximum packet size of endpoint. */
 439:.\Generated_Source\PSoC5/USBUART_cdc.c ****         sendLength = (strLength > USBUART_EP[epNumber].bufferSize) ?
 482              		.loc 1 439 0
 483 0018 3446     		mov	r4, r6
 484 001a 06EB4603 		add	r3, r6, r6, lsl #1
 485 001e 9B00     		lsls	r3, r3, #2
 486 0020 1D4A     		ldr	r2, .L52+8
 487 0022 1344     		add	r3, r3, r2
 488 0024 1B89     		ldrh	r3, [r3, #8]
 489 0026 9BB2     		uxth	r3, r3
 490 0028 AB42     		cmp	r3, r5
 491 002a 08D2     		bcs	.L50
 492              		.loc 1 439 0 is_stmt 0 discriminator 1
 493 002c 06EB4603 		add	r3, r6, r6, lsl #1
 494 0030 9B00     		lsls	r3, r3, #2
 495 0032 1344     		add	r3, r3, r2
 496 0034 B3F80890 		ldrh	r9, [r3, #8]
 497 0038 1FFA89F9 		uxth	r9, r9
 498 003c 00E0     		b	.L45
 499              	.L50:
 500              		.loc 1 439 0
 501 003e A946     		mov	r9, r5
 502              	.L45:
 503              	.LVL57:
 440:.\Generated_Source\PSoC5/USBUART_cdc.c ****                                   USBUART_EP[epNumber].bufferSize : strLength;
 441:.\Generated_Source\PSoC5/USBUART_cdc.c **** 
 442:.\Generated_Source\PSoC5/USBUART_cdc.c ****         /* Load IN endpoint and expose it to host. */
 443:.\Generated_Source\PSoC5/USBUART_cdc.c ****         USBUART_LoadInEP(epNumber, (const uint8 *)&string[bufIndex], sendLength);
 504              		.loc 1 443 0 is_stmt 1 discriminator 4
 505 0040 3046     		mov	r0, r6
 506 0042 08EB0701 		add	r1, r8, r7
 507 0046 4A46     		mov	r2, r9
 508 0048 FFF7FEFF 		bl	USBUART_LoadInEP
 509              	.LVL58:
 444:.\Generated_Source\PSoC5/USBUART_cdc.c ****         strLength -= sendLength;
 510              		.loc 1 444 0 discriminator 4
 511 004c C9EB0505 		rsb	r5, r9, r5
 512              	.LVL59:
 513 0050 ADB2     		uxth	r5, r5
 514              	.LVL60:
 445:.\Generated_Source\PSoC5/USBUART_cdc.c **** 
 446:.\Generated_Source\PSoC5/USBUART_cdc.c ****         /* If more data are present to send or full packet was sent */
 447:.\Generated_Source\PSoC5/USBUART_cdc.c ****         if ((strLength > 0u) || (sendLength == USBUART_EP[epNumber].bufferSize))
 515              		.loc 1 447 0 discriminator 4
 516 0052 45B9     		cbnz	r5, .L46
 517              		.loc 1 447 0 is_stmt 0 discriminator 1
 518 0054 06EB4603 		add	r3, r6, r6, lsl #1
 519 0058 9B00     		lsls	r3, r3, #2
 520 005a 0F4A     		ldr	r2, .L52+8
 521 005c 1344     		add	r3, r3, r2
ARM GAS  C:\Users\student\AppData\Local\Temp\cckxTosa.s 			page 19


 522 005e 1B89     		ldrh	r3, [r3, #8]
 523 0060 9BB2     		uxth	r3, r3
 524 0062 9945     		cmp	r9, r3
 525 0064 10D1     		bne	.L47
 526              	.L46:
 448:.\Generated_Source\PSoC5/USBUART_cdc.c ****         {
 449:.\Generated_Source\PSoC5/USBUART_cdc.c ****             bufIndex += sendLength;
 527              		.loc 1 449 0 is_stmt 1
 528 0066 4F44     		add	r7, r7, r9
 529              	.LVL61:
 530 0068 BFB2     		uxth	r7, r7
 531              	.LVL62:
 532              	.L48:
 450:.\Generated_Source\PSoC5/USBUART_cdc.c **** 
 451:.\Generated_Source\PSoC5/USBUART_cdc.c ****             /* Wait until host read data from IN endpoint buffer. */
 452:.\Generated_Source\PSoC5/USBUART_cdc.c ****             while (USBUART_IN_BUFFER_FULL == USBUART_EP[epNumber].apiEpState)
 533              		.loc 1 452 0 discriminator 1
 534 006a 04EB4403 		add	r3, r4, r4, lsl #1
 535 006e 9B00     		lsls	r3, r3, #2
 536 0070 094A     		ldr	r2, .L52+8
 537 0072 1344     		add	r3, r3, r2
 538 0074 5B78     		ldrb	r3, [r3, #1]	@ zero_extendqisi2
 539 0076 13F0FF0F 		tst	r3, #255
 540 007a F6D0     		beq	.L48
 453:.\Generated_Source\PSoC5/USBUART_cdc.c ****             {
 454:.\Generated_Source\PSoC5/USBUART_cdc.c ****             }
 455:.\Generated_Source\PSoC5/USBUART_cdc.c **** 
 456:.\Generated_Source\PSoC5/USBUART_cdc.c ****             /* If last packet is exactly maximum packet size, it shall be followed
 457:.\Generated_Source\PSoC5/USBUART_cdc.c ****             * by a zero-length packet to assure the end of segment is properly
 458:.\Generated_Source\PSoC5/USBUART_cdc.c ****             * identified by the terminal.
 459:.\Generated_Source\PSoC5/USBUART_cdc.c ****             */
 460:.\Generated_Source\PSoC5/USBUART_cdc.c ****             if (0u == strLength)
 541              		.loc 1 460 0
 542 007c 25B9     		cbnz	r5, .L47
 461:.\Generated_Source\PSoC5/USBUART_cdc.c ****             {
 462:.\Generated_Source\PSoC5/USBUART_cdc.c ****                 USBUART_LoadInEP(epNumber, NULL, 0u);
 543              		.loc 1 462 0
 544 007e 3046     		mov	r0, r6
 545 0080 0021     		movs	r1, #0
 546 0082 0A46     		mov	r2, r1
 547 0084 FFF7FEFF 		bl	USBUART_LoadInEP
 548              	.LVL63:
 549              	.L47:
 463:.\Generated_Source\PSoC5/USBUART_cdc.c ****             }
 464:.\Generated_Source\PSoC5/USBUART_cdc.c ****         }
 465:.\Generated_Source\PSoC5/USBUART_cdc.c ****     }
 466:.\Generated_Source\PSoC5/USBUART_cdc.c ****     while (strLength > 0u);
 550              		.loc 1 466 0
 551 0088 002D     		cmp	r5, #0
 552 008a C5D1     		bne	.L49
 467:.\Generated_Source\PSoC5/USBUART_cdc.c **** }
 553              		.loc 1 467 0
 554 008c BDE8F883 		pop	{r3, r4, r5, r6, r7, r8, r9, pc}
 555              	.LVL64:
 556              	.L53:
 557              		.align	2
 558              	.L52:
ARM GAS  C:\Users\student\AppData\Local\Temp\cckxTosa.s 			page 20


 559 0090 00000000 		.word	.LANCHOR1
 560 0094 00000000 		.word	USBUART_cdcDataInEp
 561 0098 00000000 		.word	USBUART_EP
 562              		.cfi_endproc
 563              	.LFE5:
 564              		.size	USBUART_PutString, .-USBUART_PutString
 565              		.section	.text.USBUART_PutChar,"ax",%progbits
 566              		.align	2
 567              		.global	USBUART_PutChar
 568              		.thumb
 569              		.thumb_func
 570              		.type	USBUART_PutChar, %function
 571              	USBUART_PutChar:
 572              	.LFB6:
 468:.\Generated_Source\PSoC5/USBUART_cdc.c **** 
 469:.\Generated_Source\PSoC5/USBUART_cdc.c **** 
 470:.\Generated_Source\PSoC5/USBUART_cdc.c **** /***************************************************************************
 471:.\Generated_Source\PSoC5/USBUART_cdc.c **** * Function Name: USBUART_PutChar
 472:.\Generated_Source\PSoC5/USBUART_cdc.c **** ************************************************************************//**
 473:.\Generated_Source\PSoC5/USBUART_cdc.c **** *
 474:.\Generated_Source\PSoC5/USBUART_cdc.c **** *  This function writes a single character to the PC at a time. This is an
 475:.\Generated_Source\PSoC5/USBUART_cdc.c **** *  inefficient way to send large amounts of data.
 476:.\Generated_Source\PSoC5/USBUART_cdc.c **** *
 477:.\Generated_Source\PSoC5/USBUART_cdc.c **** *  \param txDataByte: Character to be sent to the PC.
 478:.\Generated_Source\PSoC5/USBUART_cdc.c **** *
 479:.\Generated_Source\PSoC5/USBUART_cdc.c **** *  \globalvars
 480:.\Generated_Source\PSoC5/USBUART_cdc.c **** *
 481:.\Generated_Source\PSoC5/USBUART_cdc.c **** *   USBUART_cdcDataInEp: CDC IN endpoint number used for sending
 482:.\Generated_Source\PSoC5/USBUART_cdc.c **** *     data.
 483:.\Generated_Source\PSoC5/USBUART_cdc.c **** *
 484:.\Generated_Source\PSoC5/USBUART_cdc.c **** *  \reentrant
 485:.\Generated_Source\PSoC5/USBUART_cdc.c **** *  No.
 486:.\Generated_Source\PSoC5/USBUART_cdc.c **** *
 487:.\Generated_Source\PSoC5/USBUART_cdc.c **** ***************************************************************************/
 488:.\Generated_Source\PSoC5/USBUART_cdc.c **** void USBUART_PutChar(char8 txDataByte) 
 489:.\Generated_Source\PSoC5/USBUART_cdc.c **** {
 573              		.loc 1 489 0
 574              		.cfi_startproc
 575              		@ args = 0, pretend = 0, frame = 8
 576              		@ frame_needed = 0, uses_anonymous_args = 0
 577              	.LVL65:
 578 0000 00B5     		push	{lr}
 579              		.cfi_def_cfa_offset 4
 580              		.cfi_offset 14, -4
 581 0002 83B0     		sub	sp, sp, #12
 582              		.cfi_def_cfa_offset 16
 490:.\Generated_Source\PSoC5/USBUART_cdc.c ****     uint8 dataByte;
 491:.\Generated_Source\PSoC5/USBUART_cdc.c ****     dataByte = (uint8) txDataByte;
 583              		.loc 1 491 0
 584 0004 02A9     		add	r1, sp, #8
 585 0006 01F8010D 		strb	r0, [r1, #-1]!
 492:.\Generated_Source\PSoC5/USBUART_cdc.c **** 
 493:.\Generated_Source\PSoC5/USBUART_cdc.c ****     USBUART_LoadInEP(USBUART_cdcDataInEp[USBUART_activeCom], &dataByte, 1u);
 586              		.loc 1 493 0
 587 000a 054B     		ldr	r3, .L56
 588 000c 1B78     		ldrb	r3, [r3]	@ zero_extendqisi2
 589 000e 054A     		ldr	r2, .L56+4
ARM GAS  C:\Users\student\AppData\Local\Temp\cckxTosa.s 			page 21


 590 0010 D05C     		ldrb	r0, [r2, r3]	@ zero_extendqisi2
 591              	.LVL66:
 592 0012 0122     		movs	r2, #1
 593 0014 FFF7FEFF 		bl	USBUART_LoadInEP
 594              	.LVL67:
 494:.\Generated_Source\PSoC5/USBUART_cdc.c **** }
 595              		.loc 1 494 0
 596 0018 03B0     		add	sp, sp, #12
 597              		.cfi_def_cfa_offset 4
 598              		@ sp needed
 599 001a 5DF804FB 		ldr	pc, [sp], #4
 600              	.L57:
 601 001e 00BF     		.align	2
 602              	.L56:
 603 0020 00000000 		.word	.LANCHOR1
 604 0024 00000000 		.word	USBUART_cdcDataInEp
 605              		.cfi_endproc
 606              	.LFE6:
 607              		.size	USBUART_PutChar, .-USBUART_PutChar
 608              		.section	.text.USBUART_PutCRLF,"ax",%progbits
 609              		.align	2
 610              		.global	USBUART_PutCRLF
 611              		.thumb
 612              		.thumb_func
 613              		.type	USBUART_PutCRLF, %function
 614              	USBUART_PutCRLF:
 615              	.LFB7:
 495:.\Generated_Source\PSoC5/USBUART_cdc.c **** 
 496:.\Generated_Source\PSoC5/USBUART_cdc.c **** 
 497:.\Generated_Source\PSoC5/USBUART_cdc.c **** /*******************************************************************************
 498:.\Generated_Source\PSoC5/USBUART_cdc.c **** * Function Name: USBUART_PutCRLF
 499:.\Generated_Source\PSoC5/USBUART_cdc.c **** ****************************************************************************//**
 500:.\Generated_Source\PSoC5/USBUART_cdc.c **** *
 501:.\Generated_Source\PSoC5/USBUART_cdc.c **** *  This function sends a carriage return (0x0D) and line feed (0x0A) to the
 502:.\Generated_Source\PSoC5/USBUART_cdc.c **** *  PC. This APIis provided to mimic API provided by our other UART components
 503:.\Generated_Source\PSoC5/USBUART_cdc.c **** *
 504:.\Generated_Source\PSoC5/USBUART_cdc.c **** * \globalvars
 505:.\Generated_Source\PSoC5/USBUART_cdc.c **** *
 506:.\Generated_Source\PSoC5/USBUART_cdc.c **** *   USBUART_cdcDataInEp: CDC IN endpoint number used for sending
 507:.\Generated_Source\PSoC5/USBUART_cdc.c **** *     data.
 508:.\Generated_Source\PSoC5/USBUART_cdc.c **** *
 509:.\Generated_Source\PSoC5/USBUART_cdc.c **** * \reentrant
 510:.\Generated_Source\PSoC5/USBUART_cdc.c **** *  No.
 511:.\Generated_Source\PSoC5/USBUART_cdc.c **** *
 512:.\Generated_Source\PSoC5/USBUART_cdc.c **** *******************************************************************************/
 513:.\Generated_Source\PSoC5/USBUART_cdc.c **** void USBUART_PutCRLF(void) 
 514:.\Generated_Source\PSoC5/USBUART_cdc.c **** {
 616              		.loc 1 514 0
 617              		.cfi_startproc
 618              		@ args = 0, pretend = 0, frame = 8
 619              		@ frame_needed = 0, uses_anonymous_args = 0
 620 0000 00B5     		push	{lr}
 621              		.cfi_def_cfa_offset 4
 622              		.cfi_offset 14, -4
 623 0002 83B0     		sub	sp, sp, #12
 624              		.cfi_def_cfa_offset 16
 515:.\Generated_Source\PSoC5/USBUART_cdc.c ****     const uint8 CYCODE txData[] = {0x0Du, 0x0Au};
ARM GAS  C:\Users\student\AppData\Local\Temp\cckxTosa.s 			page 22


 625              		.loc 1 515 0
 626 0004 074B     		ldr	r3, .L60
 627 0006 1B88     		ldrh	r3, [r3]	@ unaligned
 628 0008 ADF80430 		strh	r3, [sp, #4]	@ unaligned
 516:.\Generated_Source\PSoC5/USBUART_cdc.c **** 
 517:.\Generated_Source\PSoC5/USBUART_cdc.c ****     USBUART_LoadInEP(USBUART_cdcDataInEp[USBUART_activeCom], (const uint8 *)txData, 2u);
 629              		.loc 1 517 0
 630 000c 064B     		ldr	r3, .L60+4
 631 000e 1B78     		ldrb	r3, [r3]	@ zero_extendqisi2
 632 0010 064A     		ldr	r2, .L60+8
 633 0012 D05C     		ldrb	r0, [r2, r3]	@ zero_extendqisi2
 634 0014 01A9     		add	r1, sp, #4
 635 0016 0222     		movs	r2, #2
 636 0018 FFF7FEFF 		bl	USBUART_LoadInEP
 637              	.LVL68:
 518:.\Generated_Source\PSoC5/USBUART_cdc.c **** }
 638              		.loc 1 518 0
 639 001c 03B0     		add	sp, sp, #12
 640              		.cfi_def_cfa_offset 4
 641              		@ sp needed
 642 001e 5DF804FB 		ldr	pc, [sp], #4
 643              	.L61:
 644 0022 00BF     		.align	2
 645              	.L60:
 646 0024 00000000 		.word	.LANCHOR2
 647 0028 00000000 		.word	.LANCHOR1
 648 002c 00000000 		.word	USBUART_cdcDataInEp
 649              		.cfi_endproc
 650              	.LFE7:
 651              		.size	USBUART_PutCRLF, .-USBUART_PutCRLF
 652              		.section	.text.USBUART_GetCount,"ax",%progbits
 653              		.align	2
 654              		.global	USBUART_GetCount
 655              		.thumb
 656              		.thumb_func
 657              		.type	USBUART_GetCount, %function
 658              	USBUART_GetCount:
 659              	.LFB8:
 519:.\Generated_Source\PSoC5/USBUART_cdc.c **** 
 520:.\Generated_Source\PSoC5/USBUART_cdc.c **** 
 521:.\Generated_Source\PSoC5/USBUART_cdc.c **** /*******************************************************************************
 522:.\Generated_Source\PSoC5/USBUART_cdc.c **** * Function Name: USBUART_GetCount
 523:.\Generated_Source\PSoC5/USBUART_cdc.c **** ****************************************************************************//**
 524:.\Generated_Source\PSoC5/USBUART_cdc.c **** *
 525:.\Generated_Source\PSoC5/USBUART_cdc.c **** *  This function returns the number of bytes that were received from the PC.
 526:.\Generated_Source\PSoC5/USBUART_cdc.c **** *  The returned length value should be passed to USBUART_GetData() as
 527:.\Generated_Source\PSoC5/USBUART_cdc.c **** *  a parameter to read all received data. If all of the received data is not
 528:.\Generated_Source\PSoC5/USBUART_cdc.c **** *  read at one time by the USBUART_GetData() API, the unread data will
 529:.\Generated_Source\PSoC5/USBUART_cdc.c **** *  be lost.
 530:.\Generated_Source\PSoC5/USBUART_cdc.c **** *
 531:.\Generated_Source\PSoC5/USBUART_cdc.c **** * \return
 532:.\Generated_Source\PSoC5/USBUART_cdc.c **** *  Returns the number of received bytes. The maximum amount of received data at
 533:.\Generated_Source\PSoC5/USBUART_cdc.c **** *  a time is limited by the maximum packet size for the endpoint.
 534:.\Generated_Source\PSoC5/USBUART_cdc.c **** *
 535:.\Generated_Source\PSoC5/USBUART_cdc.c **** * \globalvars
 536:.\Generated_Source\PSoC5/USBUART_cdc.c **** *   USBUART_cdcDataOutEp: CDC OUT endpoint number used.
 537:.\Generated_Source\PSoC5/USBUART_cdc.c **** *
ARM GAS  C:\Users\student\AppData\Local\Temp\cckxTosa.s 			page 23


 538:.\Generated_Source\PSoC5/USBUART_cdc.c **** *******************************************************************************/
 539:.\Generated_Source\PSoC5/USBUART_cdc.c **** uint16 USBUART_GetCount(void) 
 540:.\Generated_Source\PSoC5/USBUART_cdc.c **** {
 660              		.loc 1 540 0
 661              		.cfi_startproc
 662              		@ args = 0, pretend = 0, frame = 0
 663              		@ frame_needed = 0, uses_anonymous_args = 0
 664 0000 08B5     		push	{r3, lr}
 665              		.cfi_def_cfa_offset 8
 666              		.cfi_offset 3, -8
 667              		.cfi_offset 14, -4
 541:.\Generated_Source\PSoC5/USBUART_cdc.c ****     uint16 bytesCount;
 542:.\Generated_Source\PSoC5/USBUART_cdc.c **** 
 543:.\Generated_Source\PSoC5/USBUART_cdc.c ****     uint8  epNumber = USBUART_cdcDataOutEp[USBUART_activeCom];
 668              		.loc 1 543 0
 669 0002 094B     		ldr	r3, .L66
 670 0004 1B78     		ldrb	r3, [r3]	@ zero_extendqisi2
 671 0006 094A     		ldr	r2, .L66+4
 672 0008 D05C     		ldrb	r0, [r2, r3]	@ zero_extendqisi2
 673 000a C0B2     		uxtb	r0, r0
 674              	.LVL69:
 544:.\Generated_Source\PSoC5/USBUART_cdc.c **** 
 545:.\Generated_Source\PSoC5/USBUART_cdc.c ****     if (USBUART_OUT_BUFFER_FULL == USBUART_EP[epNumber].apiEpState)
 675              		.loc 1 545 0
 676 000c 00EB4003 		add	r3, r0, r0, lsl #1
 677 0010 9B00     		lsls	r3, r3, #2
 678 0012 074A     		ldr	r2, .L66+8
 679 0014 1344     		add	r3, r3, r2
 680 0016 5B78     		ldrb	r3, [r3, #1]	@ zero_extendqisi2
 681 0018 DBB2     		uxtb	r3, r3
 682 001a 012B     		cmp	r3, #1
 683 001c 02D1     		bne	.L64
 546:.\Generated_Source\PSoC5/USBUART_cdc.c ****     {
 547:.\Generated_Source\PSoC5/USBUART_cdc.c ****         bytesCount = USBUART_GetEPCount(epNumber);
 684              		.loc 1 547 0
 685 001e FFF7FEFF 		bl	USBUART_GetEPCount
 686              	.LVL70:
 687 0022 08BD     		pop	{r3, pc}
 688              	.LVL71:
 689              	.L64:
 548:.\Generated_Source\PSoC5/USBUART_cdc.c ****     }
 549:.\Generated_Source\PSoC5/USBUART_cdc.c ****     else
 550:.\Generated_Source\PSoC5/USBUART_cdc.c ****     {
 551:.\Generated_Source\PSoC5/USBUART_cdc.c ****         bytesCount = 0u;
 690              		.loc 1 551 0
 691 0024 0020     		movs	r0, #0
 692              	.LVL72:
 552:.\Generated_Source\PSoC5/USBUART_cdc.c ****     }
 553:.\Generated_Source\PSoC5/USBUART_cdc.c **** 
 554:.\Generated_Source\PSoC5/USBUART_cdc.c ****     return (bytesCount);
 555:.\Generated_Source\PSoC5/USBUART_cdc.c **** }
 693              		.loc 1 555 0
 694 0026 08BD     		pop	{r3, pc}
 695              	.L67:
 696              		.align	2
 697              	.L66:
 698 0028 00000000 		.word	.LANCHOR1
ARM GAS  C:\Users\student\AppData\Local\Temp\cckxTosa.s 			page 24


 699 002c 00000000 		.word	USBUART_cdcDataOutEp
 700 0030 00000000 		.word	USBUART_EP
 701              		.cfi_endproc
 702              	.LFE8:
 703              		.size	USBUART_GetCount, .-USBUART_GetCount
 704              		.section	.text.USBUART_DataIsReady,"ax",%progbits
 705              		.align	2
 706              		.global	USBUART_DataIsReady
 707              		.thumb
 708              		.thumb_func
 709              		.type	USBUART_DataIsReady, %function
 710              	USBUART_DataIsReady:
 711              	.LFB9:
 556:.\Generated_Source\PSoC5/USBUART_cdc.c **** 
 557:.\Generated_Source\PSoC5/USBUART_cdc.c **** 
 558:.\Generated_Source\PSoC5/USBUART_cdc.c **** /*******************************************************************************
 559:.\Generated_Source\PSoC5/USBUART_cdc.c **** * Function Name: USBUART_DataIsReady
 560:.\Generated_Source\PSoC5/USBUART_cdc.c **** ****************************************************************************//**
 561:.\Generated_Source\PSoC5/USBUART_cdc.c **** *
 562:.\Generated_Source\PSoC5/USBUART_cdc.c **** *  This function returns a non-zero value if the component received data or
 563:.\Generated_Source\PSoC5/USBUART_cdc.c **** *  received zero-length packet. The USBUART_GetAll() or
 564:.\Generated_Source\PSoC5/USBUART_cdc.c **** *  USBUART_GetData() API should be called to read data from the buffer
 565:.\Generated_Source\PSoC5/USBUART_cdc.c **** *  and reinitialize the OUT endpoint even when a zero-length packet is
 566:.\Generated_Source\PSoC5/USBUART_cdc.c **** *  received. These APIs will return zero value when zero-length packet is
 567:.\Generated_Source\PSoC5/USBUART_cdc.c **** *  received.
 568:.\Generated_Source\PSoC5/USBUART_cdc.c **** *
 569:.\Generated_Source\PSoC5/USBUART_cdc.c **** * \return
 570:.\Generated_Source\PSoC5/USBUART_cdc.c **** *  If the OUT packet is received, this function returns a non-zero value.
 571:.\Generated_Source\PSoC5/USBUART_cdc.c **** *  Otherwise, it returns zero.
 572:.\Generated_Source\PSoC5/USBUART_cdc.c **** *
 573:.\Generated_Source\PSoC5/USBUART_cdc.c **** * \globalvars
 574:.\Generated_Source\PSoC5/USBUART_cdc.c **** *   USBUART_cdcDataOutEp: CDC OUT endpoint number used.
 575:.\Generated_Source\PSoC5/USBUART_cdc.c **** *
 576:.\Generated_Source\PSoC5/USBUART_cdc.c **** *******************************************************************************/
 577:.\Generated_Source\PSoC5/USBUART_cdc.c **** uint8 USBUART_DataIsReady(void) 
 578:.\Generated_Source\PSoC5/USBUART_cdc.c **** {
 712              		.loc 1 578 0
 713              		.cfi_startproc
 714              		@ args = 0, pretend = 0, frame = 0
 715              		@ frame_needed = 0, uses_anonymous_args = 0
 716 0000 08B5     		push	{r3, lr}
 717              		.cfi_def_cfa_offset 8
 718              		.cfi_offset 3, -8
 719              		.cfi_offset 14, -4
 579:.\Generated_Source\PSoC5/USBUART_cdc.c ****     return (USBUART_GetEPState(USBUART_cdcDataOutEp[USBUART_activeCom]));
 720              		.loc 1 579 0
 721 0002 034B     		ldr	r3, .L70
 722 0004 1B78     		ldrb	r3, [r3]	@ zero_extendqisi2
 723 0006 034A     		ldr	r2, .L70+4
 724 0008 D05C     		ldrb	r0, [r2, r3]	@ zero_extendqisi2
 725 000a FFF7FEFF 		bl	USBUART_GetEPState
 726              	.LVL73:
 580:.\Generated_Source\PSoC5/USBUART_cdc.c **** }
 727              		.loc 1 580 0
 728 000e 08BD     		pop	{r3, pc}
 729              	.L71:
 730              		.align	2
ARM GAS  C:\Users\student\AppData\Local\Temp\cckxTosa.s 			page 25


 731              	.L70:
 732 0010 00000000 		.word	.LANCHOR1
 733 0014 00000000 		.word	USBUART_cdcDataOutEp
 734              		.cfi_endproc
 735              	.LFE9:
 736              		.size	USBUART_DataIsReady, .-USBUART_DataIsReady
 737              		.section	.text.USBUART_CDCIsReady,"ax",%progbits
 738              		.align	2
 739              		.global	USBUART_CDCIsReady
 740              		.thumb
 741              		.thumb_func
 742              		.type	USBUART_CDCIsReady, %function
 743              	USBUART_CDCIsReady:
 744              	.LFB10:
 581:.\Generated_Source\PSoC5/USBUART_cdc.c **** 
 582:.\Generated_Source\PSoC5/USBUART_cdc.c **** 
 583:.\Generated_Source\PSoC5/USBUART_cdc.c **** /*******************************************************************************
 584:.\Generated_Source\PSoC5/USBUART_cdc.c **** * Function Name: USBUART_CDCIsReady
 585:.\Generated_Source\PSoC5/USBUART_cdc.c **** ****************************************************************************//**
 586:.\Generated_Source\PSoC5/USBUART_cdc.c **** *
 587:.\Generated_Source\PSoC5/USBUART_cdc.c **** *  This function returns a non-zero value if the component is ready to send more
 588:.\Generated_Source\PSoC5/USBUART_cdc.c **** *  data to the PC; otherwise, it returns zero. The function should be called
 589:.\Generated_Source\PSoC5/USBUART_cdc.c **** *  before sending new data when using any of the following APIs:
 590:.\Generated_Source\PSoC5/USBUART_cdc.c **** *  USBUART_PutData(),USBUART_PutString(),
 591:.\Generated_Source\PSoC5/USBUART_cdc.c **** *  USBUART_PutChar or USBUART_PutCRLF(),
 592:.\Generated_Source\PSoC5/USBUART_cdc.c **** *  to be sure that the previous data has finished sending.
 593:.\Generated_Source\PSoC5/USBUART_cdc.c **** *
 594:.\Generated_Source\PSoC5/USBUART_cdc.c **** * \return
 595:.\Generated_Source\PSoC5/USBUART_cdc.c **** *  If the buffer can accept new data, this function returns a non-zero value.
 596:.\Generated_Source\PSoC5/USBUART_cdc.c **** *  Otherwise, it returns zero.
 597:.\Generated_Source\PSoC5/USBUART_cdc.c **** *
 598:.\Generated_Source\PSoC5/USBUART_cdc.c **** * \globalvars
 599:.\Generated_Source\PSoC5/USBUART_cdc.c **** *   USBUART_cdcDataInEp: CDC IN endpoint number used.
 600:.\Generated_Source\PSoC5/USBUART_cdc.c **** *
 601:.\Generated_Source\PSoC5/USBUART_cdc.c **** *******************************************************************************/
 602:.\Generated_Source\PSoC5/USBUART_cdc.c **** uint8 USBUART_CDCIsReady(void) 
 603:.\Generated_Source\PSoC5/USBUART_cdc.c **** {
 745              		.loc 1 603 0
 746              		.cfi_startproc
 747              		@ args = 0, pretend = 0, frame = 0
 748              		@ frame_needed = 0, uses_anonymous_args = 0
 749 0000 08B5     		push	{r3, lr}
 750              		.cfi_def_cfa_offset 8
 751              		.cfi_offset 3, -8
 752              		.cfi_offset 14, -4
 604:.\Generated_Source\PSoC5/USBUART_cdc.c ****     return (USBUART_GetEPState(USBUART_cdcDataInEp[USBUART_activeCom]));
 753              		.loc 1 604 0
 754 0002 034B     		ldr	r3, .L74
 755 0004 1B78     		ldrb	r3, [r3]	@ zero_extendqisi2
 756 0006 034A     		ldr	r2, .L74+4
 757 0008 D05C     		ldrb	r0, [r2, r3]	@ zero_extendqisi2
 758 000a FFF7FEFF 		bl	USBUART_GetEPState
 759              	.LVL74:
 605:.\Generated_Source\PSoC5/USBUART_cdc.c **** }
 760              		.loc 1 605 0
 761 000e 08BD     		pop	{r3, pc}
 762              	.L75:
ARM GAS  C:\Users\student\AppData\Local\Temp\cckxTosa.s 			page 26


 763              		.align	2
 764              	.L74:
 765 0010 00000000 		.word	.LANCHOR1
 766 0014 00000000 		.word	USBUART_cdcDataInEp
 767              		.cfi_endproc
 768              	.LFE10:
 769              		.size	USBUART_CDCIsReady, .-USBUART_CDCIsReady
 770              		.section	.text.USBUART_GetData,"ax",%progbits
 771              		.align	2
 772              		.global	USBUART_GetData
 773              		.thumb
 774              		.thumb_func
 775              		.type	USBUART_GetData, %function
 776              	USBUART_GetData:
 777              	.LFB11:
 606:.\Generated_Source\PSoC5/USBUART_cdc.c **** 
 607:.\Generated_Source\PSoC5/USBUART_cdc.c **** 
 608:.\Generated_Source\PSoC5/USBUART_cdc.c **** /***************************************************************************
 609:.\Generated_Source\PSoC5/USBUART_cdc.c **** * Function Name: USBUART_GetData
 610:.\Generated_Source\PSoC5/USBUART_cdc.c **** ************************************************************************//**
 611:.\Generated_Source\PSoC5/USBUART_cdc.c **** *
 612:.\Generated_Source\PSoC5/USBUART_cdc.c **** *  This function gets a specified number of bytes from the input buffer and
 613:.\Generated_Source\PSoC5/USBUART_cdc.c **** *  places them in a data array specified by the passed pointer.
 614:.\Generated_Source\PSoC5/USBUART_cdc.c **** *  The USBUART_DataIsReady() API should be called first, to be sure
 615:.\Generated_Source\PSoC5/USBUART_cdc.c **** *  that data is received from the host. If all received data will not be read at
 616:.\Generated_Source\PSoC5/USBUART_cdc.c **** *  once, the unread data will be lost. The USBUART_GetData() API should
 617:.\Generated_Source\PSoC5/USBUART_cdc.c **** *  be called to get the number of bytes that were received.
 618:.\Generated_Source\PSoC5/USBUART_cdc.c **** *
 619:.\Generated_Source\PSoC5/USBUART_cdc.c **** *  \param pData: Pointer to the data array where data will be placed.
 620:.\Generated_Source\PSoC5/USBUART_cdc.c **** *  \param Length: Number of bytes to read into the data array from the RX buffer.
 621:.\Generated_Source\PSoC5/USBUART_cdc.c **** *          Maximum length is limited by the the number of received bytes
 622:.\Generated_Source\PSoC5/USBUART_cdc.c **** *          or 64 bytes.
 623:.\Generated_Source\PSoC5/USBUART_cdc.c **** *
 624:.\Generated_Source\PSoC5/USBUART_cdc.c **** * \return
 625:.\Generated_Source\PSoC5/USBUART_cdc.c **** *         Number of bytes which function moves from endpoint RAM into the
 626:.\Generated_Source\PSoC5/USBUART_cdc.c **** *         data array. The function moves fewer than the requested number
 627:.\Generated_Source\PSoC5/USBUART_cdc.c **** *         of bytes if the host sends fewer bytes than requested or sends
 628:.\Generated_Source\PSoC5/USBUART_cdc.c **** *         zero-length packet.
 629:.\Generated_Source\PSoC5/USBUART_cdc.c **** *
 630:.\Generated_Source\PSoC5/USBUART_cdc.c **** * \globalvars
 631:.\Generated_Source\PSoC5/USBUART_cdc.c **** *   USBUART_cdcDataOutEp: CDC OUT endpoint number used.
 632:.\Generated_Source\PSoC5/USBUART_cdc.c **** *
 633:.\Generated_Source\PSoC5/USBUART_cdc.c **** * \reentrant
 634:.\Generated_Source\PSoC5/USBUART_cdc.c **** *  No.
 635:.\Generated_Source\PSoC5/USBUART_cdc.c **** *
 636:.\Generated_Source\PSoC5/USBUART_cdc.c **** ***************************************************************************/
 637:.\Generated_Source\PSoC5/USBUART_cdc.c **** uint16 USBUART_GetData(uint8* pData, uint16 length) 
 638:.\Generated_Source\PSoC5/USBUART_cdc.c **** {
 778              		.loc 1 638 0
 779              		.cfi_startproc
 780              		@ args = 0, pretend = 0, frame = 0
 781              		@ frame_needed = 0, uses_anonymous_args = 0
 782              	.LVL75:
 783 0000 08B5     		push	{r3, lr}
 784              		.cfi_def_cfa_offset 8
 785              		.cfi_offset 3, -8
 786              		.cfi_offset 14, -4
ARM GAS  C:\Users\student\AppData\Local\Temp\cckxTosa.s 			page 27


 787 0002 0346     		mov	r3, r0
 788 0004 0A46     		mov	r2, r1
 639:.\Generated_Source\PSoC5/USBUART_cdc.c ****     uint8 epNumber = USBUART_cdcDataOutEp[USBUART_activeCom];
 789              		.loc 1 639 0
 790 0006 0449     		ldr	r1, .L78
 791              	.LVL76:
 792 0008 0978     		ldrb	r1, [r1]	@ zero_extendqisi2
 793 000a 0448     		ldr	r0, .L78+4
 794              	.LVL77:
 795 000c 405C     		ldrb	r0, [r0, r1]	@ zero_extendqisi2
 796              	.LVL78:
 640:.\Generated_Source\PSoC5/USBUART_cdc.c **** 
 641:.\Generated_Source\PSoC5/USBUART_cdc.c ****     /* Read data from OUT endpoint buffer. */
 642:.\Generated_Source\PSoC5/USBUART_cdc.c ****     length = USBUART_ReadOutEP(epNumber, pData, length);
 797              		.loc 1 642 0
 798 000e 1946     		mov	r1, r3
 799 0010 FFF7FEFF 		bl	USBUART_ReadOutEP
 800              	.LVL79:
 643:.\Generated_Source\PSoC5/USBUART_cdc.c **** 
 644:.\Generated_Source\PSoC5/USBUART_cdc.c **** #if (USBUART_EP_MANAGEMENT_DMA_MANUAL)
 645:.\Generated_Source\PSoC5/USBUART_cdc.c ****     /* Wait until DMA complete transferring data from OUT endpoint buffer. */
 646:.\Generated_Source\PSoC5/USBUART_cdc.c ****     while (USBUART_OUT_BUFFER_FULL == USBUART_GetEPState(epNumber))
 647:.\Generated_Source\PSoC5/USBUART_cdc.c ****     {
 648:.\Generated_Source\PSoC5/USBUART_cdc.c ****     }
 649:.\Generated_Source\PSoC5/USBUART_cdc.c **** 
 650:.\Generated_Source\PSoC5/USBUART_cdc.c ****     /* Enable OUT endpoint to communicate with host. */
 651:.\Generated_Source\PSoC5/USBUART_cdc.c ****     USBUART_EnableOutEP(epNumber);
 652:.\Generated_Source\PSoC5/USBUART_cdc.c **** #endif /* (USBUART_EP_MANAGEMENT_DMA_MANUAL) */
 653:.\Generated_Source\PSoC5/USBUART_cdc.c **** 
 654:.\Generated_Source\PSoC5/USBUART_cdc.c ****     return (length);
 655:.\Generated_Source\PSoC5/USBUART_cdc.c **** }
 801              		.loc 1 655 0
 802 0014 08BD     		pop	{r3, pc}
 803              	.L79:
 804 0016 00BF     		.align	2
 805              	.L78:
 806 0018 00000000 		.word	.LANCHOR1
 807 001c 00000000 		.word	USBUART_cdcDataOutEp
 808              		.cfi_endproc
 809              	.LFE11:
 810              		.size	USBUART_GetData, .-USBUART_GetData
 811              		.section	.text.USBUART_GetAll,"ax",%progbits
 812              		.align	2
 813              		.global	USBUART_GetAll
 814              		.thumb
 815              		.thumb_func
 816              		.type	USBUART_GetAll, %function
 817              	USBUART_GetAll:
 818              	.LFB12:
 656:.\Generated_Source\PSoC5/USBUART_cdc.c **** 
 657:.\Generated_Source\PSoC5/USBUART_cdc.c **** 
 658:.\Generated_Source\PSoC5/USBUART_cdc.c **** /*******************************************************************************
 659:.\Generated_Source\PSoC5/USBUART_cdc.c **** * Function Name: USBUART_GetAll
 660:.\Generated_Source\PSoC5/USBUART_cdc.c **** ****************************************************************************//**
 661:.\Generated_Source\PSoC5/USBUART_cdc.c **** *
 662:.\Generated_Source\PSoC5/USBUART_cdc.c **** *  This function gets all bytes of received data from the input buffer and
 663:.\Generated_Source\PSoC5/USBUART_cdc.c **** *  places them into a specified data array. The
ARM GAS  C:\Users\student\AppData\Local\Temp\cckxTosa.s 			page 28


 664:.\Generated_Source\PSoC5/USBUART_cdc.c **** *  USBUART_DataIsReady() API should be called first, to be sure
 665:.\Generated_Source\PSoC5/USBUART_cdc.c **** *  that data is received from the host.
 666:.\Generated_Source\PSoC5/USBUART_cdc.c **** *
 667:.\Generated_Source\PSoC5/USBUART_cdc.c **** *  \param pData: Pointer to the data array where data will be placed.
 668:.\Generated_Source\PSoC5/USBUART_cdc.c **** *
 669:.\Generated_Source\PSoC5/USBUART_cdc.c **** * \return
 670:.\Generated_Source\PSoC5/USBUART_cdc.c **** *  Number of bytes received. The maximum amount of the received at a time
 671:.\Generated_Source\PSoC5/USBUART_cdc.c **** *  data is 64 bytes.
 672:.\Generated_Source\PSoC5/USBUART_cdc.c **** *
 673:.\Generated_Source\PSoC5/USBUART_cdc.c **** * \globalvars
 674:.\Generated_Source\PSoC5/USBUART_cdc.c **** *   - \ref USBUART_cdcDataOutEp: CDC OUT endpoint number used.
 675:.\Generated_Source\PSoC5/USBUART_cdc.c **** *   - \ref USBUART_EP[].bufferSize: EP max packet size is used as a
 676:.\Generated_Source\PSoC5/USBUART_cdc.c **** *     length to read all data from the EP buffer.
 677:.\Generated_Source\PSoC5/USBUART_cdc.c **** *
 678:.\Generated_Source\PSoC5/USBUART_cdc.c **** * \reentrant
 679:.\Generated_Source\PSoC5/USBUART_cdc.c **** *  No.
 680:.\Generated_Source\PSoC5/USBUART_cdc.c **** *
 681:.\Generated_Source\PSoC5/USBUART_cdc.c **** *******************************************************************************/
 682:.\Generated_Source\PSoC5/USBUART_cdc.c **** uint16 USBUART_GetAll(uint8* pData) 
 683:.\Generated_Source\PSoC5/USBUART_cdc.c **** {
 819              		.loc 1 683 0
 820              		.cfi_startproc
 821              		@ args = 0, pretend = 0, frame = 0
 822              		@ frame_needed = 0, uses_anonymous_args = 0
 823              	.LVL80:
 824 0000 08B5     		push	{r3, lr}
 825              		.cfi_def_cfa_offset 8
 826              		.cfi_offset 3, -8
 827              		.cfi_offset 14, -4
 828 0002 0146     		mov	r1, r0
 684:.\Generated_Source\PSoC5/USBUART_cdc.c ****     uint8 epNumber = USBUART_cdcDataOutEp[USBUART_activeCom];
 829              		.loc 1 684 0
 830 0004 074B     		ldr	r3, .L82
 831 0006 1B78     		ldrb	r3, [r3]	@ zero_extendqisi2
 832 0008 074A     		ldr	r2, .L82+4
 833 000a D05C     		ldrb	r0, [r2, r3]	@ zero_extendqisi2
 834              	.LVL81:
 835 000c C0B2     		uxtb	r0, r0
 836              	.LVL82:
 685:.\Generated_Source\PSoC5/USBUART_cdc.c ****     uint16 dataLength;
 686:.\Generated_Source\PSoC5/USBUART_cdc.c **** 
 687:.\Generated_Source\PSoC5/USBUART_cdc.c ****     /* Read data from OUT endpoint buffer. */
 688:.\Generated_Source\PSoC5/USBUART_cdc.c ****     dataLength = USBUART_ReadOutEP(epNumber, pData, USBUART_EP[epNumber].bufferSize);
 837              		.loc 1 688 0
 838 000e 00EB4003 		add	r3, r0, r0, lsl #1
 839 0012 9B00     		lsls	r3, r3, #2
 840 0014 054A     		ldr	r2, .L82+8
 841 0016 1344     		add	r3, r3, r2
 842 0018 1A89     		ldrh	r2, [r3, #8]
 843 001a 92B2     		uxth	r2, r2
 844 001c FFF7FEFF 		bl	USBUART_ReadOutEP
 845              	.LVL83:
 689:.\Generated_Source\PSoC5/USBUART_cdc.c **** 
 690:.\Generated_Source\PSoC5/USBUART_cdc.c **** #if (USBUART_EP_MANAGEMENT_DMA_MANUAL)
 691:.\Generated_Source\PSoC5/USBUART_cdc.c ****     /* Wait until DMA complete transferring data from OUT endpoint buffer. */
 692:.\Generated_Source\PSoC5/USBUART_cdc.c ****     while (USBUART_OUT_BUFFER_FULL == USBUART_GetEPState(epNumber))
 693:.\Generated_Source\PSoC5/USBUART_cdc.c ****     {
ARM GAS  C:\Users\student\AppData\Local\Temp\cckxTosa.s 			page 29


 694:.\Generated_Source\PSoC5/USBUART_cdc.c ****     }
 695:.\Generated_Source\PSoC5/USBUART_cdc.c **** 
 696:.\Generated_Source\PSoC5/USBUART_cdc.c ****     /* Enable OUT endpoint to communicate with host. */
 697:.\Generated_Source\PSoC5/USBUART_cdc.c ****     USBUART_EnableOutEP(epNumber);
 698:.\Generated_Source\PSoC5/USBUART_cdc.c **** #endif /* (USBUART_EP_MANAGEMENT_DMA_MANUAL) */
 699:.\Generated_Source\PSoC5/USBUART_cdc.c **** 
 700:.\Generated_Source\PSoC5/USBUART_cdc.c ****     return (dataLength);
 701:.\Generated_Source\PSoC5/USBUART_cdc.c **** }
 846              		.loc 1 701 0
 847 0020 08BD     		pop	{r3, pc}
 848              	.L83:
 849 0022 00BF     		.align	2
 850              	.L82:
 851 0024 00000000 		.word	.LANCHOR1
 852 0028 00000000 		.word	USBUART_cdcDataOutEp
 853 002c 00000000 		.word	USBUART_EP
 854              		.cfi_endproc
 855              	.LFE12:
 856              		.size	USBUART_GetAll, .-USBUART_GetAll
 857              		.section	.text.USBUART_GetChar,"ax",%progbits
 858              		.align	2
 859              		.global	USBUART_GetChar
 860              		.thumb
 861              		.thumb_func
 862              		.type	USBUART_GetChar, %function
 863              	USBUART_GetChar:
 864              	.LFB13:
 702:.\Generated_Source\PSoC5/USBUART_cdc.c **** 
 703:.\Generated_Source\PSoC5/USBUART_cdc.c **** 
 704:.\Generated_Source\PSoC5/USBUART_cdc.c **** /***************************************************************************
 705:.\Generated_Source\PSoC5/USBUART_cdc.c **** * Function Name: USBUART_GetChar
 706:.\Generated_Source\PSoC5/USBUART_cdc.c **** ************************************************************************//**
 707:.\Generated_Source\PSoC5/USBUART_cdc.c **** *
 708:.\Generated_Source\PSoC5/USBUART_cdc.c **** *  This function reads one byte of received data from the buffer. If more than
 709:.\Generated_Source\PSoC5/USBUART_cdc.c **** *  one byte has been received from the host, the rest of the data will be lost.
 710:.\Generated_Source\PSoC5/USBUART_cdc.c **** *
 711:.\Generated_Source\PSoC5/USBUART_cdc.c **** * \return
 712:.\Generated_Source\PSoC5/USBUART_cdc.c **** *  Received one character.
 713:.\Generated_Source\PSoC5/USBUART_cdc.c **** *
 714:.\Generated_Source\PSoC5/USBUART_cdc.c **** * \globalvars
 715:.\Generated_Source\PSoC5/USBUART_cdc.c **** *   USBUART_cdcDataOutEp: CDC OUT endpoint number used.
 716:.\Generated_Source\PSoC5/USBUART_cdc.c **** *
 717:.\Generated_Source\PSoC5/USBUART_cdc.c **** * \reentrant
 718:.\Generated_Source\PSoC5/USBUART_cdc.c **** *  No.
 719:.\Generated_Source\PSoC5/USBUART_cdc.c **** *
 720:.\Generated_Source\PSoC5/USBUART_cdc.c **** ***************************************************************************/
 721:.\Generated_Source\PSoC5/USBUART_cdc.c **** uint8 USBUART_GetChar(void) 
 722:.\Generated_Source\PSoC5/USBUART_cdc.c **** {
 865              		.loc 1 722 0
 866              		.cfi_startproc
 867              		@ args = 0, pretend = 0, frame = 8
 868              		@ frame_needed = 0, uses_anonymous_args = 0
 869 0000 00B5     		push	{lr}
 870              		.cfi_def_cfa_offset 4
 871              		.cfi_offset 14, -4
 872 0002 83B0     		sub	sp, sp, #12
 873              		.cfi_def_cfa_offset 16
ARM GAS  C:\Users\student\AppData\Local\Temp\cckxTosa.s 			page 30


 723:.\Generated_Source\PSoC5/USBUART_cdc.c ****      uint8 rxData;
 724:.\Generated_Source\PSoC5/USBUART_cdc.c ****      uint8 epNumber = USBUART_cdcDataOutEp[USBUART_activeCom];
 874              		.loc 1 724 0
 875 0004 064B     		ldr	r3, .L86
 876 0006 1B78     		ldrb	r3, [r3]	@ zero_extendqisi2
 877 0008 064A     		ldr	r2, .L86+4
 878 000a D05C     		ldrb	r0, [r2, r3]	@ zero_extendqisi2
 879              	.LVL84:
 725:.\Generated_Source\PSoC5/USBUART_cdc.c **** 
 726:.\Generated_Source\PSoC5/USBUART_cdc.c ****     (void) USBUART_ReadOutEP(epNumber, &rxData, 1u);
 880              		.loc 1 726 0
 881 000c 0DF10701 		add	r1, sp, #7
 882 0010 0122     		movs	r2, #1
 883 0012 FFF7FEFF 		bl	USBUART_ReadOutEP
 884              	.LVL85:
 727:.\Generated_Source\PSoC5/USBUART_cdc.c **** 
 728:.\Generated_Source\PSoC5/USBUART_cdc.c **** #if (USBUART_EP_MANAGEMENT_DMA_MANUAL)
 729:.\Generated_Source\PSoC5/USBUART_cdc.c ****     /* Wait until DMA complete transferring data from OUT endpoint buffer. */
 730:.\Generated_Source\PSoC5/USBUART_cdc.c ****     while (USBUART_OUT_BUFFER_FULL == USBUART_GetEPState(epNumber))
 731:.\Generated_Source\PSoC5/USBUART_cdc.c ****     {
 732:.\Generated_Source\PSoC5/USBUART_cdc.c ****     }
 733:.\Generated_Source\PSoC5/USBUART_cdc.c **** 
 734:.\Generated_Source\PSoC5/USBUART_cdc.c ****     /* Enable OUT endpoint to communicate with host. */
 735:.\Generated_Source\PSoC5/USBUART_cdc.c ****     USBUART_EnableOutEP(epNumber);
 736:.\Generated_Source\PSoC5/USBUART_cdc.c **** #endif /* (USBUART_EP_MANAGEMENT_DMA_MANUAL) */
 737:.\Generated_Source\PSoC5/USBUART_cdc.c **** 
 738:.\Generated_Source\PSoC5/USBUART_cdc.c ****     return (rxData);
 739:.\Generated_Source\PSoC5/USBUART_cdc.c **** }
 885              		.loc 1 739 0
 886 0016 9DF80700 		ldrb	r0, [sp, #7]	@ zero_extendqisi2
 887 001a 03B0     		add	sp, sp, #12
 888              		.cfi_def_cfa_offset 4
 889              		@ sp needed
 890 001c 5DF804FB 		ldr	pc, [sp], #4
 891              	.L87:
 892              		.align	2
 893              	.L86:
 894 0020 00000000 		.word	.LANCHOR1
 895 0024 00000000 		.word	USBUART_cdcDataOutEp
 896              		.cfi_endproc
 897              	.LFE13:
 898              		.size	USBUART_GetChar, .-USBUART_GetChar
 899              		.section	.text.USBUART_IsLineChanged,"ax",%progbits
 900              		.align	2
 901              		.global	USBUART_IsLineChanged
 902              		.thumb
 903              		.thumb_func
 904              		.type	USBUART_IsLineChanged, %function
 905              	USBUART_IsLineChanged:
 906              	.LFB14:
 740:.\Generated_Source\PSoC5/USBUART_cdc.c **** 
 741:.\Generated_Source\PSoC5/USBUART_cdc.c **** 
 742:.\Generated_Source\PSoC5/USBUART_cdc.c **** /*******************************************************************************
 743:.\Generated_Source\PSoC5/USBUART_cdc.c **** * Function Name: USBUART_IsLineChanged
 744:.\Generated_Source\PSoC5/USBUART_cdc.c **** ****************************************************************************//**
 745:.\Generated_Source\PSoC5/USBUART_cdc.c **** *
 746:.\Generated_Source\PSoC5/USBUART_cdc.c **** *  This function returns clear on read status of the line. It returns not zero
ARM GAS  C:\Users\student\AppData\Local\Temp\cckxTosa.s 			page 31


 747:.\Generated_Source\PSoC5/USBUART_cdc.c **** *  value when the host sends updated coding or control information to the
 748:.\Generated_Source\PSoC5/USBUART_cdc.c **** *  device. The USBUART_GetDTERate(), USBUART_GetCharFormat()
 749:.\Generated_Source\PSoC5/USBUART_cdc.c **** *  or USBUART_GetParityType() or USBUART_GetDataBits() API
 750:.\Generated_Source\PSoC5/USBUART_cdc.c **** *  should be called to read data coding information.
 751:.\Generated_Source\PSoC5/USBUART_cdc.c **** *  The USBUART_GetLineControl() API should be called to read line
 752:.\Generated_Source\PSoC5/USBUART_cdc.c **** *  control information.
 753:.\Generated_Source\PSoC5/USBUART_cdc.c **** *
 754:.\Generated_Source\PSoC5/USBUART_cdc.c **** * \return
 755:.\Generated_Source\PSoC5/USBUART_cdc.c **** *  If SET_LINE_CODING or CDC_SET_CONTROL_LINE_STATE requests are received, it
 756:.\Generated_Source\PSoC5/USBUART_cdc.c **** *  returns a non-zero value. Otherwise, it returns zero.
 757:.\Generated_Source\PSoC5/USBUART_cdc.c **** *  Return Value                 | Description
 758:.\Generated_Source\PSoC5/USBUART_cdc.c **** *  -----------------------------|--------------------------
 759:.\Generated_Source\PSoC5/USBUART_cdc.c **** *  USBUART_LINE_CODING_CHANGED  | Line coding changed
 760:.\Generated_Source\PSoC5/USBUART_cdc.c **** *  USBUART_LINE_CONTROL_CHANGED |   Line control changed
 761:.\Generated_Source\PSoC5/USBUART_cdc.c **** *
 762:.\Generated_Source\PSoC5/USBUART_cdc.c **** * \globalvars
 763:.\Generated_Source\PSoC5/USBUART_cdc.c **** *  - \ref USBUART_transferState: it is checked to be sure then OUT
 764:.\Generated_Source\PSoC5/USBUART_cdc.c **** *    data phase has been complete, and data written to the lineCoding or
 765:.\Generated_Source\PSoC5/USBUART_cdc.c **** *    Control Bitmap buffer.
 766:.\Generated_Source\PSoC5/USBUART_cdc.c **** *  - \ref USBUART_linesChanged: used as a flag to be aware that
 767:.\Generated_Source\PSoC5/USBUART_cdc.c **** *    Host has been sent request for changing Line Coding or Control Bitmap.
 768:.\Generated_Source\PSoC5/USBUART_cdc.c **** *
 769:.\Generated_Source\PSoC5/USBUART_cdc.c **** *******************************************************************************/
 770:.\Generated_Source\PSoC5/USBUART_cdc.c **** uint8 USBUART_IsLineChanged(void) 
 771:.\Generated_Source\PSoC5/USBUART_cdc.c **** {
 907              		.loc 1 771 0
 908              		.cfi_startproc
 909              		@ args = 0, pretend = 0, frame = 0
 910              		@ frame_needed = 0, uses_anonymous_args = 0
 911              		@ link register save eliminated.
 912              	.LVL86:
 772:.\Generated_Source\PSoC5/USBUART_cdc.c ****     uint8 state = 0u;
 773:.\Generated_Source\PSoC5/USBUART_cdc.c **** 
 774:.\Generated_Source\PSoC5/USBUART_cdc.c ****     /* transferState is checked to be sure then OUT data phase has been complete */
 775:.\Generated_Source\PSoC5/USBUART_cdc.c ****     if (USBUART_transferState == USBUART_TRANS_STATE_IDLE)
 913              		.loc 1 775 0
 914 0000 0A4B     		ldr	r3, .L92
 915 0002 1B78     		ldrb	r3, [r3]	@ zero_extendqisi2
 916 0004 13F0FF0F 		tst	r3, #255
 917 0008 0CD1     		bne	.L90
 776:.\Generated_Source\PSoC5/USBUART_cdc.c ****     {
 777:.\Generated_Source\PSoC5/USBUART_cdc.c ****         if (USBUART_linesChanged[USBUART_activeCom] != 0u)
 918              		.loc 1 777 0
 919 000a 094B     		ldr	r3, .L92+4
 920 000c 1B78     		ldrb	r3, [r3]	@ zero_extendqisi2
 921 000e 094A     		ldr	r2, .L92+8
 922 0010 D25C     		ldrb	r2, [r2, r3]	@ zero_extendqisi2
 923 0012 12F0FF0F 		tst	r2, #255
 924 0016 07D0     		beq	.L91
 778:.\Generated_Source\PSoC5/USBUART_cdc.c ****         {
 779:.\Generated_Source\PSoC5/USBUART_cdc.c ****             state = USBUART_linesChanged[USBUART_activeCom];
 925              		.loc 1 779 0
 926 0018 064A     		ldr	r2, .L92+8
 927 001a D05C     		ldrb	r0, [r2, r3]	@ zero_extendqisi2
 928 001c C0B2     		uxtb	r0, r0
 929              	.LVL87:
 780:.\Generated_Source\PSoC5/USBUART_cdc.c ****             USBUART_linesChanged[USBUART_activeCom] = 0u;
ARM GAS  C:\Users\student\AppData\Local\Temp\cckxTosa.s 			page 32


 930              		.loc 1 780 0
 931 001e 0021     		movs	r1, #0
 932 0020 D154     		strb	r1, [r2, r3]
 933 0022 7047     		bx	lr
 934              	.LVL88:
 935              	.L90:
 772:.\Generated_Source\PSoC5/USBUART_cdc.c **** 
 936              		.loc 1 772 0
 937 0024 0020     		movs	r0, #0
 938 0026 7047     		bx	lr
 939              	.L91:
 940 0028 0020     		movs	r0, #0
 941              	.LVL89:
 781:.\Generated_Source\PSoC5/USBUART_cdc.c ****         }
 782:.\Generated_Source\PSoC5/USBUART_cdc.c ****     }
 783:.\Generated_Source\PSoC5/USBUART_cdc.c **** 
 784:.\Generated_Source\PSoC5/USBUART_cdc.c ****     return (state);
 785:.\Generated_Source\PSoC5/USBUART_cdc.c **** }
 942              		.loc 1 785 0
 943 002a 7047     		bx	lr
 944              	.L93:
 945              		.align	2
 946              	.L92:
 947 002c 00000000 		.word	USBUART_transferState
 948 0030 00000000 		.word	.LANCHOR1
 949 0034 00000000 		.word	USBUART_linesChanged
 950              		.cfi_endproc
 951              	.LFE14:
 952              		.size	USBUART_IsLineChanged, .-USBUART_IsLineChanged
 953              		.section	.text.USBUART_GetDTERate,"ax",%progbits
 954              		.align	2
 955              		.global	USBUART_GetDTERate
 956              		.thumb
 957              		.thumb_func
 958              		.type	USBUART_GetDTERate, %function
 959              	USBUART_GetDTERate:
 960              	.LFB15:
 786:.\Generated_Source\PSoC5/USBUART_cdc.c **** 
 787:.\Generated_Source\PSoC5/USBUART_cdc.c **** 
 788:.\Generated_Source\PSoC5/USBUART_cdc.c **** /***************************************************************************
 789:.\Generated_Source\PSoC5/USBUART_cdc.c **** * Function Name: USBUART_GetDTERate
 790:.\Generated_Source\PSoC5/USBUART_cdc.c **** ************************************************************************//**
 791:.\Generated_Source\PSoC5/USBUART_cdc.c **** *
 792:.\Generated_Source\PSoC5/USBUART_cdc.c **** *  This function returns the data terminal rate set for this port in bits
 793:.\Generated_Source\PSoC5/USBUART_cdc.c **** *  per second.
 794:.\Generated_Source\PSoC5/USBUART_cdc.c **** *
 795:.\Generated_Source\PSoC5/USBUART_cdc.c **** * \return
 796:.\Generated_Source\PSoC5/USBUART_cdc.c **** *  Returns a uint32 value of the data rate in bits per second.
 797:.\Generated_Source\PSoC5/USBUART_cdc.c **** *
 798:.\Generated_Source\PSoC5/USBUART_cdc.c **** * \globalvars
 799:.\Generated_Source\PSoC5/USBUART_cdc.c **** *  USBUART_linesCoding: First four bytes converted to uint32
 800:.\Generated_Source\PSoC5/USBUART_cdc.c **** *    depend on compiler, and returned as a data rate.
 801:.\Generated_Source\PSoC5/USBUART_cdc.c **** *
 802:.\Generated_Source\PSoC5/USBUART_cdc.c **** *******************************************************************************/
 803:.\Generated_Source\PSoC5/USBUART_cdc.c **** uint32 USBUART_GetDTERate(void) 
 804:.\Generated_Source\PSoC5/USBUART_cdc.c **** {
 961              		.loc 1 804 0
ARM GAS  C:\Users\student\AppData\Local\Temp\cckxTosa.s 			page 33


 962              		.cfi_startproc
 963              		@ args = 0, pretend = 0, frame = 0
 964              		@ frame_needed = 0, uses_anonymous_args = 0
 965              		@ link register save eliminated.
 966 0000 10B4     		push	{r4}
 967              		.cfi_def_cfa_offset 4
 968              		.cfi_offset 4, -4
 805:.\Generated_Source\PSoC5/USBUART_cdc.c ****     uint32 rate;
 806:.\Generated_Source\PSoC5/USBUART_cdc.c **** 
 807:.\Generated_Source\PSoC5/USBUART_cdc.c ****     rate = USBUART_linesCoding[USBUART_activeCom][USBUART_LINE_CODING_RATE + 3u];
 969              		.loc 1 807 0
 970 0002 094B     		ldr	r3, .L96
 971 0004 1B78     		ldrb	r3, [r3]	@ zero_extendqisi2
 972 0006 094C     		ldr	r4, .L96+4
 973 0008 C3EBC303 		rsb	r3, r3, r3, lsl #3
 974 000c E118     		adds	r1, r4, r3
 975 000e C878     		ldrb	r0, [r1, #3]	@ zero_extendqisi2
 976              	.LVL90:
 808:.\Generated_Source\PSoC5/USBUART_cdc.c ****     rate = (rate << 8u) | USBUART_linesCoding[USBUART_activeCom][USBUART_LINE_CODING_RATE + 2u];
 977              		.loc 1 808 0
 978 0010 8A78     		ldrb	r2, [r1, #2]	@ zero_extendqisi2
 979 0012 42EA0020 		orr	r0, r2, r0, lsl #8
 980              	.LVL91:
 809:.\Generated_Source\PSoC5/USBUART_cdc.c ****     rate = (rate << 8u) | USBUART_linesCoding[USBUART_activeCom][USBUART_LINE_CODING_RATE + 1u];
 981              		.loc 1 809 0
 982 0016 4A78     		ldrb	r2, [r1, #1]	@ zero_extendqisi2
 983 0018 42EA0022 		orr	r2, r2, r0, lsl #8
 984              	.LVL92:
 810:.\Generated_Source\PSoC5/USBUART_cdc.c ****     rate = (rate << 8u) | USBUART_linesCoding[USBUART_activeCom][USBUART_LINE_CODING_RATE];
 985              		.loc 1 810 0
 986 001c E05C     		ldrb	r0, [r4, r3]	@ zero_extendqisi2
 987              	.LVL93:
 811:.\Generated_Source\PSoC5/USBUART_cdc.c **** 
 812:.\Generated_Source\PSoC5/USBUART_cdc.c ****     return (rate);
 813:.\Generated_Source\PSoC5/USBUART_cdc.c **** }
 988              		.loc 1 813 0
 989 001e 40EA0220 		orr	r0, r0, r2, lsl #8
 990              	.LVL94:
 991 0022 5DF8044B 		ldr	r4, [sp], #4
 992              		.cfi_restore 4
 993              		.cfi_def_cfa_offset 0
 994 0026 7047     		bx	lr
 995              	.L97:
 996              		.align	2
 997              	.L96:
 998 0028 00000000 		.word	.LANCHOR1
 999 002c 00000000 		.word	.LANCHOR0
 1000              		.cfi_endproc
 1001              	.LFE15:
 1002              		.size	USBUART_GetDTERate, .-USBUART_GetDTERate
 1003              		.section	.text.USBUART_GetCharFormat,"ax",%progbits
 1004              		.align	2
 1005              		.global	USBUART_GetCharFormat
 1006              		.thumb
 1007              		.thumb_func
 1008              		.type	USBUART_GetCharFormat, %function
 1009              	USBUART_GetCharFormat:
ARM GAS  C:\Users\student\AppData\Local\Temp\cckxTosa.s 			page 34


 1010              	.LFB16:
 814:.\Generated_Source\PSoC5/USBUART_cdc.c **** 
 815:.\Generated_Source\PSoC5/USBUART_cdc.c **** 
 816:.\Generated_Source\PSoC5/USBUART_cdc.c **** /*******************************************************************************
 817:.\Generated_Source\PSoC5/USBUART_cdc.c **** * Function Name: USBUART_GetCharFormat
 818:.\Generated_Source\PSoC5/USBUART_cdc.c **** ****************************************************************************//**
 819:.\Generated_Source\PSoC5/USBUART_cdc.c **** *
 820:.\Generated_Source\PSoC5/USBUART_cdc.c **** *  Returns the number of stop bits.
 821:.\Generated_Source\PSoC5/USBUART_cdc.c **** *
 822:.\Generated_Source\PSoC5/USBUART_cdc.c **** * \return
 823:.\Generated_Source\PSoC5/USBUART_cdc.c **** *  Returns the number of stop bits.
 824:.\Generated_Source\PSoC5/USBUART_cdc.c **** *  Return               |Value Description
 825:.\Generated_Source\PSoC5/USBUART_cdc.c **** *  ---------------------|-------------------
 826:.\Generated_Source\PSoC5/USBUART_cdc.c **** *  USBUART_1_STOPBIT    | 1 stop bit
 827:.\Generated_Source\PSoC5/USBUART_cdc.c **** *  USBUART_1_5_STOPBITS | 1,5 stop bits
 828:.\Generated_Source\PSoC5/USBUART_cdc.c **** *  USBUART_2_STOPBITS   | 2 stop bits
 829:.\Generated_Source\PSoC5/USBUART_cdc.c **** *
 830:.\Generated_Source\PSoC5/USBUART_cdc.c **** *
 831:.\Generated_Source\PSoC5/USBUART_cdc.c **** * \globalvars
 832:.\Generated_Source\PSoC5/USBUART_cdc.c **** *  USBUART_linesCoding: used to get a parameter.
 833:.\Generated_Source\PSoC5/USBUART_cdc.c **** *
 834:.\Generated_Source\PSoC5/USBUART_cdc.c **** *******************************************************************************/
 835:.\Generated_Source\PSoC5/USBUART_cdc.c **** uint8 USBUART_GetCharFormat(void) 
 836:.\Generated_Source\PSoC5/USBUART_cdc.c **** {
 1011              		.loc 1 836 0
 1012              		.cfi_startproc
 1013              		@ args = 0, pretend = 0, frame = 0
 1014              		@ frame_needed = 0, uses_anonymous_args = 0
 1015              		@ link register save eliminated.
 837:.\Generated_Source\PSoC5/USBUART_cdc.c ****     return (USBUART_linesCoding[USBUART_activeCom][USBUART_LINE_CODING_STOP_BITS]);
 1016              		.loc 1 837 0
 1017 0000 034B     		ldr	r3, .L99
 1018 0002 1B78     		ldrb	r3, [r3]	@ zero_extendqisi2
 1019 0004 C3EBC303 		rsb	r3, r3, r3, lsl #3
 1020 0008 024A     		ldr	r2, .L99+4
 1021 000a 1344     		add	r3, r3, r2
 1022 000c 1879     		ldrb	r0, [r3, #4]	@ zero_extendqisi2
 838:.\Generated_Source\PSoC5/USBUART_cdc.c **** }
 1023              		.loc 1 838 0
 1024 000e 7047     		bx	lr
 1025              	.L100:
 1026              		.align	2
 1027              	.L99:
 1028 0010 00000000 		.word	.LANCHOR1
 1029 0014 00000000 		.word	.LANCHOR0
 1030              		.cfi_endproc
 1031              	.LFE16:
 1032              		.size	USBUART_GetCharFormat, .-USBUART_GetCharFormat
 1033              		.section	.text.USBUART_GetParityType,"ax",%progbits
 1034              		.align	2
 1035              		.global	USBUART_GetParityType
 1036              		.thumb
 1037              		.thumb_func
 1038              		.type	USBUART_GetParityType, %function
 1039              	USBUART_GetParityType:
 1040              	.LFB17:
 839:.\Generated_Source\PSoC5/USBUART_cdc.c **** 
ARM GAS  C:\Users\student\AppData\Local\Temp\cckxTosa.s 			page 35


 840:.\Generated_Source\PSoC5/USBUART_cdc.c **** 
 841:.\Generated_Source\PSoC5/USBUART_cdc.c **** /*******************************************************************************
 842:.\Generated_Source\PSoC5/USBUART_cdc.c **** * Function Name: USBUART_GetParityType
 843:.\Generated_Source\PSoC5/USBUART_cdc.c **** ****************************************************************************//**
 844:.\Generated_Source\PSoC5/USBUART_cdc.c **** *
 845:.\Generated_Source\PSoC5/USBUART_cdc.c **** *  This function returns the parity type for the CDC port.
 846:.\Generated_Source\PSoC5/USBUART_cdc.c **** *
 847:.\Generated_Source\PSoC5/USBUART_cdc.c **** * \return
 848:.\Generated_Source\PSoC5/USBUART_cdc.c **** *  Returns the parity type.
 849:.\Generated_Source\PSoC5/USBUART_cdc.c **** *   Return               | Value Description
 850:.\Generated_Source\PSoC5/USBUART_cdc.c **** *  ----------------------|-------------------
 851:.\Generated_Source\PSoC5/USBUART_cdc.c **** *  USBUART_PARITY_NONE   | 1 stop bit
 852:.\Generated_Source\PSoC5/USBUART_cdc.c **** *  USBUART_PARITY_ODD    | 1,5 stop bits
 853:.\Generated_Source\PSoC5/USBUART_cdc.c **** *  USBUART_PARITY_EVEN   | 2 stop bits
 854:.\Generated_Source\PSoC5/USBUART_cdc.c **** *  USBUART_PARITY_MARK   | Mark
 855:.\Generated_Source\PSoC5/USBUART_cdc.c **** *  USBUART_PARITY_SPACE  | Space
 856:.\Generated_Source\PSoC5/USBUART_cdc.c **** *
 857:.\Generated_Source\PSoC5/USBUART_cdc.c **** * \globalvars
 858:.\Generated_Source\PSoC5/USBUART_cdc.c **** *  USBUART_linesCoding: used to get a parameter.
 859:.\Generated_Source\PSoC5/USBUART_cdc.c **** *
 860:.\Generated_Source\PSoC5/USBUART_cdc.c **** *******************************************************************************/
 861:.\Generated_Source\PSoC5/USBUART_cdc.c **** uint8 USBUART_GetParityType(void) 
 862:.\Generated_Source\PSoC5/USBUART_cdc.c **** {
 1041              		.loc 1 862 0
 1042              		.cfi_startproc
 1043              		@ args = 0, pretend = 0, frame = 0
 1044              		@ frame_needed = 0, uses_anonymous_args = 0
 1045              		@ link register save eliminated.
 863:.\Generated_Source\PSoC5/USBUART_cdc.c ****     return (USBUART_linesCoding[USBUART_activeCom][USBUART_LINE_CODING_PARITY]);
 1046              		.loc 1 863 0
 1047 0000 034B     		ldr	r3, .L102
 1048 0002 1B78     		ldrb	r3, [r3]	@ zero_extendqisi2
 1049 0004 C3EBC303 		rsb	r3, r3, r3, lsl #3
 1050 0008 024A     		ldr	r2, .L102+4
 1051 000a 1344     		add	r3, r3, r2
 1052 000c 5879     		ldrb	r0, [r3, #5]	@ zero_extendqisi2
 864:.\Generated_Source\PSoC5/USBUART_cdc.c **** }
 1053              		.loc 1 864 0
 1054 000e 7047     		bx	lr
 1055              	.L103:
 1056              		.align	2
 1057              	.L102:
 1058 0010 00000000 		.word	.LANCHOR1
 1059 0014 00000000 		.word	.LANCHOR0
 1060              		.cfi_endproc
 1061              	.LFE17:
 1062              		.size	USBUART_GetParityType, .-USBUART_GetParityType
 1063              		.section	.text.USBUART_GetDataBits,"ax",%progbits
 1064              		.align	2
 1065              		.global	USBUART_GetDataBits
 1066              		.thumb
 1067              		.thumb_func
 1068              		.type	USBUART_GetDataBits, %function
 1069              	USBUART_GetDataBits:
 1070              	.LFB18:
 865:.\Generated_Source\PSoC5/USBUART_cdc.c **** 
 866:.\Generated_Source\PSoC5/USBUART_cdc.c **** 
ARM GAS  C:\Users\student\AppData\Local\Temp\cckxTosa.s 			page 36


 867:.\Generated_Source\PSoC5/USBUART_cdc.c **** /***************************************************************************
 868:.\Generated_Source\PSoC5/USBUART_cdc.c **** * Function Name: USBUART_GetDataBits
 869:.\Generated_Source\PSoC5/USBUART_cdc.c **** ************************************************************************//**
 870:.\Generated_Source\PSoC5/USBUART_cdc.c **** *
 871:.\Generated_Source\PSoC5/USBUART_cdc.c **** *  This function returns the number of data bits for the CDC port.
 872:.\Generated_Source\PSoC5/USBUART_cdc.c **** *
 873:.\Generated_Source\PSoC5/USBUART_cdc.c **** * \return
 874:.\Generated_Source\PSoC5/USBUART_cdc.c **** *  Returns the number of data bits.
 875:.\Generated_Source\PSoC5/USBUART_cdc.c **** *  The number of data bits can be 5, 6, 7, 8 or 16.
 876:.\Generated_Source\PSoC5/USBUART_cdc.c **** *
 877:.\Generated_Source\PSoC5/USBUART_cdc.c **** * \globalvars
 878:.\Generated_Source\PSoC5/USBUART_cdc.c **** *  USBUART_linesCoding: used to get a parameter.
 879:.\Generated_Source\PSoC5/USBUART_cdc.c **** *
 880:.\Generated_Source\PSoC5/USBUART_cdc.c **** *******************************************************************************/
 881:.\Generated_Source\PSoC5/USBUART_cdc.c **** uint8 USBUART_GetDataBits(void) 
 882:.\Generated_Source\PSoC5/USBUART_cdc.c **** {
 1071              		.loc 1 882 0
 1072              		.cfi_startproc
 1073              		@ args = 0, pretend = 0, frame = 0
 1074              		@ frame_needed = 0, uses_anonymous_args = 0
 1075              		@ link register save eliminated.
 883:.\Generated_Source\PSoC5/USBUART_cdc.c ****     return (USBUART_linesCoding[USBUART_activeCom][USBUART_LINE_CODING_DATA_BITS]);
 1076              		.loc 1 883 0
 1077 0000 034B     		ldr	r3, .L105
 1078 0002 1B78     		ldrb	r3, [r3]	@ zero_extendqisi2
 1079 0004 C3EBC303 		rsb	r3, r3, r3, lsl #3
 1080 0008 024A     		ldr	r2, .L105+4
 1081 000a 1344     		add	r3, r3, r2
 1082 000c 9879     		ldrb	r0, [r3, #6]	@ zero_extendqisi2
 884:.\Generated_Source\PSoC5/USBUART_cdc.c **** }
 1083              		.loc 1 884 0
 1084 000e 7047     		bx	lr
 1085              	.L106:
 1086              		.align	2
 1087              	.L105:
 1088 0010 00000000 		.word	.LANCHOR1
 1089 0014 00000000 		.word	.LANCHOR0
 1090              		.cfi_endproc
 1091              	.LFE18:
 1092              		.size	USBUART_GetDataBits, .-USBUART_GetDataBits
 1093              		.section	.text.USBUART_GetLineControl,"ax",%progbits
 1094              		.align	2
 1095              		.global	USBUART_GetLineControl
 1096              		.thumb
 1097              		.thumb_func
 1098              		.type	USBUART_GetLineControl, %function
 1099              	USBUART_GetLineControl:
 1100              	.LFB19:
 885:.\Generated_Source\PSoC5/USBUART_cdc.c **** 
 886:.\Generated_Source\PSoC5/USBUART_cdc.c **** 
 887:.\Generated_Source\PSoC5/USBUART_cdc.c **** /***************************************************************************
 888:.\Generated_Source\PSoC5/USBUART_cdc.c **** * Function Name: USBUART_GetLineControl
 889:.\Generated_Source\PSoC5/USBUART_cdc.c **** ************************************************************************//**
 890:.\Generated_Source\PSoC5/USBUART_cdc.c **** *
 891:.\Generated_Source\PSoC5/USBUART_cdc.c **** *  This function returns Line control bitmap that the host sends to the
 892:.\Generated_Source\PSoC5/USBUART_cdc.c **** *  device.
 893:.\Generated_Source\PSoC5/USBUART_cdc.c **** *
ARM GAS  C:\Users\student\AppData\Local\Temp\cckxTosa.s 			page 37


 894:.\Generated_Source\PSoC5/USBUART_cdc.c **** * \return
 895:.\Generated_Source\PSoC5/USBUART_cdc.c **** *  Returns Line control bitmap.
 896:.\Generated_Source\PSoC5/USBUART_cdc.c **** *  Return                   |Value Notes
 897:.\Generated_Source\PSoC5/USBUART_cdc.c **** *  -------------------------|-----------------------------------------------
 898:.\Generated_Source\PSoC5/USBUART_cdc.c **** *  USBUART_LINE_CONTROL_DTR |Indicates that a DTR signal is present. This signal corresponds to V.2
 899:.\Generated_Source\PSoC5/USBUART_cdc.c **** *  USBUART_LINE_CONTROL_RTS |Carrier control for half-duplex modems. This signal corresponds to V.2
 900:.\Generated_Source\PSoC5/USBUART_cdc.c **** *  RESERVED                 |The rest of the bits are reserved.
 901:.\Generated_Source\PSoC5/USBUART_cdc.c **** *
 902:.\Generated_Source\PSoC5/USBUART_cdc.c **** *  *Note* Some terminal emulation programs do not properly handle these
 903:.\Generated_Source\PSoC5/USBUART_cdc.c **** *  control signals. They update information about DTR and RTS state only
 904:.\Generated_Source\PSoC5/USBUART_cdc.c **** *  when the RTS signal changes the state.
 905:.\Generated_Source\PSoC5/USBUART_cdc.c **** *
 906:.\Generated_Source\PSoC5/USBUART_cdc.c **** * \globalvars
 907:.\Generated_Source\PSoC5/USBUART_cdc.c **** *  USBUART_linesControlBitmap: used to get a parameter.
 908:.\Generated_Source\PSoC5/USBUART_cdc.c **** *
 909:.\Generated_Source\PSoC5/USBUART_cdc.c **** *******************************************************************************/
 910:.\Generated_Source\PSoC5/USBUART_cdc.c **** uint16 USBUART_GetLineControl(void) 
 911:.\Generated_Source\PSoC5/USBUART_cdc.c **** {
 1101              		.loc 1 911 0
 1102              		.cfi_startproc
 1103              		@ args = 0, pretend = 0, frame = 0
 1104              		@ frame_needed = 0, uses_anonymous_args = 0
 1105              		@ link register save eliminated.
 912:.\Generated_Source\PSoC5/USBUART_cdc.c ****     return (USBUART_linesControlBitmap[USBUART_activeCom]);
 1106              		.loc 1 912 0
 1107 0000 034B     		ldr	r3, .L108
 1108 0002 1A78     		ldrb	r2, [r3]	@ zero_extendqisi2
 1109 0004 034B     		ldr	r3, .L108+4
 1110 0006 33F81200 		ldrh	r0, [r3, r2, lsl #1]
 913:.\Generated_Source\PSoC5/USBUART_cdc.c **** }
 1111              		.loc 1 913 0
 1112 000a 80B2     		uxth	r0, r0
 1113 000c 7047     		bx	lr
 1114              	.L109:
 1115 000e 00BF     		.align	2
 1116              	.L108:
 1117 0010 00000000 		.word	.LANCHOR1
 1118 0014 00000000 		.word	USBUART_linesControlBitmap
 1119              		.cfi_endproc
 1120              	.LFE19:
 1121              		.size	USBUART_GetLineControl, .-USBUART_GetLineControl
 1122              		.section	.text.USBUART_SendSerialState,"ax",%progbits
 1123              		.align	2
 1124              		.global	USBUART_SendSerialState
 1125              		.thumb
 1126              		.thumb_func
 1127              		.type	USBUART_SendSerialState, %function
 1128              	USBUART_SendSerialState:
 1129              	.LFB20:
 914:.\Generated_Source\PSoC5/USBUART_cdc.c **** 
 915:.\Generated_Source\PSoC5/USBUART_cdc.c **** 
 916:.\Generated_Source\PSoC5/USBUART_cdc.c **** /*******************************************************************************
 917:.\Generated_Source\PSoC5/USBUART_cdc.c **** * Function Name: USBUART_SendSerialState
 918:.\Generated_Source\PSoC5/USBUART_cdc.c **** ****************************************************************************//**
 919:.\Generated_Source\PSoC5/USBUART_cdc.c **** *
 920:.\Generated_Source\PSoC5/USBUART_cdc.c **** *  Sends the serial state notification to the host using the interrupt
 921:.\Generated_Source\PSoC5/USBUART_cdc.c **** *  endpoint for the COM port selected using the API SetComPort().The
ARM GAS  C:\Users\student\AppData\Local\Temp\cckxTosa.s 			page 38


 922:.\Generated_Source\PSoC5/USBUART_cdc.c **** *  USBUART_NotificationIsReady() API must be called to check if the
 923:.\Generated_Source\PSoC5/USBUART_cdc.c **** *  Component is ready to send more serial state to the host. The API will
 924:.\Generated_Source\PSoC5/USBUART_cdc.c **** *  not send the notification data if the interrupt endpoint Max Packet Size
 925:.\Generated_Source\PSoC5/USBUART_cdc.c **** *  is less than the required 10 bytes.
 926:.\Generated_Source\PSoC5/USBUART_cdc.c **** *
 927:.\Generated_Source\PSoC5/USBUART_cdc.c **** * \param uint16 serialState
 928:.\Generated_Source\PSoC5/USBUART_cdc.c **** *  16-bit value that will be sent from the device to the
 929:.\Generated_Source\PSoC5/USBUART_cdc.c **** *  host as SERIAL_STATE notification using the IN interrupt endpoint. Refer
 930:.\Generated_Source\PSoC5/USBUART_cdc.c **** *  to revision 1.2 of the CDC PSTN Subclass specification for bit field
 931:.\Generated_Source\PSoC5/USBUART_cdc.c **** *  definitions of the 16-bit serial state value.
 932:.\Generated_Source\PSoC5/USBUART_cdc.c **** *
 933:.\Generated_Source\PSoC5/USBUART_cdc.c **** *******************************************************************************/
 934:.\Generated_Source\PSoC5/USBUART_cdc.c **** void USBUART_SendSerialState (uint16 serialState) 
 935:.\Generated_Source\PSoC5/USBUART_cdc.c **** {
 1130              		.loc 1 935 0
 1131              		.cfi_startproc
 1132              		@ args = 0, pretend = 0, frame = 0
 1133              		@ frame_needed = 0, uses_anonymous_args = 0
 1134              	.LVL95:
 1135 0000 10B5     		push	{r4, lr}
 1136              		.cfi_def_cfa_offset 8
 1137              		.cfi_offset 4, -8
 1138              		.cfi_offset 14, -4
 936:.\Generated_Source\PSoC5/USBUART_cdc.c ****     uint8 epNumber = USBUART_cdcCommInInterruptEp[USBUART_activeCom];
 1139              		.loc 1 936 0
 1140 0002 134B     		ldr	r3, .L113
 1141 0004 1C78     		ldrb	r4, [r3]	@ zero_extendqisi2
 1142 0006 134B     		ldr	r3, .L113+4
 1143 0008 1B5D     		ldrb	r3, [r3, r4]	@ zero_extendqisi2
 1144 000a DBB2     		uxtb	r3, r3
 1145              	.LVL96:
 937:.\Generated_Source\PSoC5/USBUART_cdc.c **** 
 938:.\Generated_Source\PSoC5/USBUART_cdc.c ****     if(USBUART_SERIAL_STATE_SIZE <= USBUART_EP[epNumber].bufferSize)
 1146              		.loc 1 938 0
 1147 000c 03EB4302 		add	r2, r3, r3, lsl #1
 1148 0010 9200     		lsls	r2, r2, #2
 1149 0012 1149     		ldr	r1, .L113+8
 1150 0014 0A44     		add	r2, r2, r1
 1151 0016 1289     		ldrh	r2, [r2, #8]
 1152 0018 92B2     		uxth	r2, r2
 1153 001a 092A     		cmp	r2, #9
 1154 001c 17D9     		bls	.L110
 939:.\Generated_Source\PSoC5/USBUART_cdc.c ****     {
 940:.\Generated_Source\PSoC5/USBUART_cdc.c ****         /* Save current SERIAL_STATE bitmap. */
 941:.\Generated_Source\PSoC5/USBUART_cdc.c ****         USBUART_serialStateBitmap[USBUART_activeCom] = serialState;
 1155              		.loc 1 941 0
 1156 001e 0F4A     		ldr	r2, .L113+12
 1157 0020 22F81400 		strh	r0, [r2, r4, lsl #1]	@ movhi
 942:.\Generated_Source\PSoC5/USBUART_cdc.c **** 
 943:.\Generated_Source\PSoC5/USBUART_cdc.c ****         /* Add interface number */
 944:.\Generated_Source\PSoC5/USBUART_cdc.c ****         USBUART_serialStateNotification.wIndex = USBUART_EP[epNumber].interface;
 1158              		.loc 1 944 0
 1159 0024 03EB4300 		add	r0, r3, r3, lsl #1
 1160              	.LVL97:
 1161 0028 8000     		lsls	r0, r0, #2
 1162 002a 0831     		adds	r1, r1, #8
 1163 002c 0144     		add	r1, r1, r0
ARM GAS  C:\Users\student\AppData\Local\Temp\cckxTosa.s 			page 39


 1164 002e 8878     		ldrb	r0, [r1, #2]	@ zero_extendqisi2
 1165 0030 0B49     		ldr	r1, .L113+16
 1166 0032 0875     		strb	r0, [r1, #20]
 945:.\Generated_Source\PSoC5/USBUART_cdc.c **** 
 946:.\Generated_Source\PSoC5/USBUART_cdc.c ****         /*Form SERIAL_STATE data*/
 947:.\Generated_Source\PSoC5/USBUART_cdc.c ****         USBUART_serialStateNotification.wSerialState =    LO8(USBUART_serialStateBitmap[USBUART_act
 1167              		.loc 1 947 0
 1168 0034 32F81400 		ldrh	r0, [r2, r4, lsl #1]
 1169 0038 0876     		strb	r0, [r1, #24]
 948:.\Generated_Source\PSoC5/USBUART_cdc.c ****         USBUART_serialStateNotification.wSerialStateMSB = HI8(USBUART_serialStateBitmap[USBUART_act
 1170              		.loc 1 948 0
 1171 003a 32F81420 		ldrh	r2, [r2, r4, lsl #1]
 1172              	.LVL98:
 1173 003e C2F30722 		ubfx	r2, r2, #8, #8
 1174 0042 4A76     		strb	r2, [r1, #25]
 949:.\Generated_Source\PSoC5/USBUART_cdc.c **** 
 950:.\Generated_Source\PSoC5/USBUART_cdc.c ****         USBUART_LoadInEP(epNumber, (uint8 *) &USBUART_serialStateNotification, sizeof(USBUART_seria
 1175              		.loc 1 950 0
 1176 0044 1846     		mov	r0, r3
 1177 0046 1031     		adds	r1, r1, #16
 1178 0048 0A22     		movs	r2, #10
 1179 004a FFF7FEFF 		bl	USBUART_LoadInEP
 1180              	.LVL99:
 1181              	.L110:
 1182 004e 10BD     		pop	{r4, pc}
 1183              	.L114:
 1184              		.align	2
 1185              	.L113:
 1186 0050 00000000 		.word	.LANCHOR1
 1187 0054 00000000 		.word	USBUART_cdcCommInInterruptEp
 1188 0058 00000000 		.word	USBUART_EP
 1189 005c 00000000 		.word	USBUART_serialStateBitmap
 1190 0060 00000000 		.word	.LANCHOR0
 1191              		.cfi_endproc
 1192              	.LFE20:
 1193              		.size	USBUART_SendSerialState, .-USBUART_SendSerialState
 1194              		.section	.text.USBUART_GetSerialState,"ax",%progbits
 1195              		.align	2
 1196              		.global	USBUART_GetSerialState
 1197              		.thumb
 1198              		.thumb_func
 1199              		.type	USBUART_GetSerialState, %function
 1200              	USBUART_GetSerialState:
 1201              	.LFB21:
 951:.\Generated_Source\PSoC5/USBUART_cdc.c ****     }
 952:.\Generated_Source\PSoC5/USBUART_cdc.c **** }
 953:.\Generated_Source\PSoC5/USBUART_cdc.c **** 
 954:.\Generated_Source\PSoC5/USBUART_cdc.c **** 
 955:.\Generated_Source\PSoC5/USBUART_cdc.c **** /*******************************************************************************
 956:.\Generated_Source\PSoC5/USBUART_cdc.c **** * Function Name: USBUART_GetSerialState
 957:.\Generated_Source\PSoC5/USBUART_cdc.c **** ****************************************************************************//**
 958:.\Generated_Source\PSoC5/USBUART_cdc.c **** *
 959:.\Generated_Source\PSoC5/USBUART_cdc.c **** *  This function returns the current serial state value for the COM port
 960:.\Generated_Source\PSoC5/USBUART_cdc.c **** *  selected using the API SetComPort().
 961:.\Generated_Source\PSoC5/USBUART_cdc.c **** *
 962:.\Generated_Source\PSoC5/USBUART_cdc.c **** * \return
 963:.\Generated_Source\PSoC5/USBUART_cdc.c **** *  16-bit serial state value. Refer to revision 1.2 of the CDC PSTN Subclass
ARM GAS  C:\Users\student\AppData\Local\Temp\cckxTosa.s 			page 40


 964:.\Generated_Source\PSoC5/USBUART_cdc.c **** *  specification for bit field definitions of the 16-bit serial state value.
 965:.\Generated_Source\PSoC5/USBUART_cdc.c **** *
 966:.\Generated_Source\PSoC5/USBUART_cdc.c **** *******************************************************************************/
 967:.\Generated_Source\PSoC5/USBUART_cdc.c **** uint16 USBUART_GetSerialState(void) 
 968:.\Generated_Source\PSoC5/USBUART_cdc.c **** {
 1202              		.loc 1 968 0
 1203              		.cfi_startproc
 1204              		@ args = 0, pretend = 0, frame = 0
 1205              		@ frame_needed = 0, uses_anonymous_args = 0
 1206              		@ link register save eliminated.
 969:.\Generated_Source\PSoC5/USBUART_cdc.c ****     return USBUART_serialStateBitmap[USBUART_activeCom];
 1207              		.loc 1 969 0
 1208 0000 034B     		ldr	r3, .L116
 1209 0002 1A78     		ldrb	r2, [r3]	@ zero_extendqisi2
 1210 0004 034B     		ldr	r3, .L116+4
 1211 0006 33F81200 		ldrh	r0, [r3, r2, lsl #1]
 970:.\Generated_Source\PSoC5/USBUART_cdc.c **** }
 1212              		.loc 1 970 0
 1213 000a 80B2     		uxth	r0, r0
 1214 000c 7047     		bx	lr
 1215              	.L117:
 1216 000e 00BF     		.align	2
 1217              	.L116:
 1218 0010 00000000 		.word	.LANCHOR1
 1219 0014 00000000 		.word	USBUART_serialStateBitmap
 1220              		.cfi_endproc
 1221              	.LFE21:
 1222              		.size	USBUART_GetSerialState, .-USBUART_GetSerialState
 1223              		.section	.text.USBUART_NotificationIsReady,"ax",%progbits
 1224              		.align	2
 1225              		.global	USBUART_NotificationIsReady
 1226              		.thumb
 1227              		.thumb_func
 1228              		.type	USBUART_NotificationIsReady, %function
 1229              	USBUART_NotificationIsReady:
 1230              	.LFB22:
 971:.\Generated_Source\PSoC5/USBUART_cdc.c **** 
 972:.\Generated_Source\PSoC5/USBUART_cdc.c **** 
 973:.\Generated_Source\PSoC5/USBUART_cdc.c **** /*******************************************************************************
 974:.\Generated_Source\PSoC5/USBUART_cdc.c **** * Function Name: USBUART_NotificationIsReady
 975:.\Generated_Source\PSoC5/USBUART_cdc.c **** ****************************************************************************//**
 976:.\Generated_Source\PSoC5/USBUART_cdc.c **** *
 977:.\Generated_Source\PSoC5/USBUART_cdc.c **** *  This function returns a non-zero value if the Component is ready to send
 978:.\Generated_Source\PSoC5/USBUART_cdc.c **** *  more notifications to the host; otherwise, it returns zero. The function
 979:.\Generated_Source\PSoC5/USBUART_cdc.c **** *  should be called before sending new notifications when using
 980:.\Generated_Source\PSoC5/USBUART_cdc.c **** *  USBUART_SendSerialState() to ensure that any previous
 981:.\Generated_Source\PSoC5/USBUART_cdc.c **** *  notification data has been already sent to the host.
 982:.\Generated_Source\PSoC5/USBUART_cdc.c **** *
 983:.\Generated_Source\PSoC5/USBUART_cdc.c **** * \return
 984:.\Generated_Source\PSoC5/USBUART_cdc.c **** *  If the buffer can accept new data(endpoint buffer not full), this
 985:.\Generated_Source\PSoC5/USBUART_cdc.c **** *  function returns a non-zero value. Otherwise, it returns zero.
 986:.\Generated_Source\PSoC5/USBUART_cdc.c **** *
 987:.\Generated_Source\PSoC5/USBUART_cdc.c **** * \globalvars
 988:.\Generated_Source\PSoC5/USBUART_cdc.c **** *   USBUART_cdcDataInEp: CDC IN endpoint number used.
 989:.\Generated_Source\PSoC5/USBUART_cdc.c **** *
 990:.\Generated_Source\PSoC5/USBUART_cdc.c **** *******************************************************************************/
 991:.\Generated_Source\PSoC5/USBUART_cdc.c **** uint8 USBUART_NotificationIsReady(void) 
ARM GAS  C:\Users\student\AppData\Local\Temp\cckxTosa.s 			page 41


 992:.\Generated_Source\PSoC5/USBUART_cdc.c **** {
 1231              		.loc 1 992 0
 1232              		.cfi_startproc
 1233              		@ args = 0, pretend = 0, frame = 0
 1234              		@ frame_needed = 0, uses_anonymous_args = 0
 1235              		@ link register save eliminated.
 993:.\Generated_Source\PSoC5/USBUART_cdc.c ****     return (USBUART_EP[USBUART_cdcCommInInterruptEp[USBUART_activeCom]].apiEpState);
 1236              		.loc 1 993 0
 1237 0000 054B     		ldr	r3, .L119
 1238 0002 1B78     		ldrb	r3, [r3]	@ zero_extendqisi2
 1239 0004 054A     		ldr	r2, .L119+4
 1240 0006 D35C     		ldrb	r3, [r2, r3]	@ zero_extendqisi2
 1241 0008 03EB4303 		add	r3, r3, r3, lsl #1
 1242 000c 9B00     		lsls	r3, r3, #2
 1243 000e 044A     		ldr	r2, .L119+8
 1244 0010 1344     		add	r3, r3, r2
 1245 0012 5878     		ldrb	r0, [r3, #1]	@ zero_extendqisi2
 994:.\Generated_Source\PSoC5/USBUART_cdc.c **** }
 1246              		.loc 1 994 0
 1247 0014 7047     		bx	lr
 1248              	.L120:
 1249 0016 00BF     		.align	2
 1250              	.L119:
 1251 0018 00000000 		.word	.LANCHOR1
 1252 001c 00000000 		.word	USBUART_cdcCommInInterruptEp
 1253 0020 00000000 		.word	USBUART_EP
 1254              		.cfi_endproc
 1255              	.LFE22:
 1256              		.size	USBUART_NotificationIsReady, .-USBUART_NotificationIsReady
 1257              		.section	.text.USBUART_SetComPort,"ax",%progbits
 1258              		.align	2
 1259              		.global	USBUART_SetComPort
 1260              		.thumb
 1261              		.thumb_func
 1262              		.type	USBUART_SetComPort, %function
 1263              	USBUART_SetComPort:
 1264              	.LFB23:
 995:.\Generated_Source\PSoC5/USBUART_cdc.c **** 
 996:.\Generated_Source\PSoC5/USBUART_cdc.c **** 
 997:.\Generated_Source\PSoC5/USBUART_cdc.c **** /*******************************************************************************
 998:.\Generated_Source\PSoC5/USBUART_cdc.c **** * Function Name: USBUART_SetComPort
 999:.\Generated_Source\PSoC5/USBUART_cdc.c **** ****************************************************************************//**
1000:.\Generated_Source\PSoC5/USBUART_cdc.c **** *
1001:.\Generated_Source\PSoC5/USBUART_cdc.c **** *  This function allows the user to select from one of the two COM ports
1002:.\Generated_Source\PSoC5/USBUART_cdc.c **** *  they wish to address in the instance of having multiple COM ports
1003:.\Generated_Source\PSoC5/USBUART_cdc.c **** *  instantiated though the use of a composite device. Once set, all future
1004:.\Generated_Source\PSoC5/USBUART_cdc.c **** *  function calls related to the USBUART will be affected. This addressed
1005:.\Generated_Source\PSoC5/USBUART_cdc.c **** *  COM port can be changed during run time.
1006:.\Generated_Source\PSoC5/USBUART_cdc.c **** *
1007:.\Generated_Source\PSoC5/USBUART_cdc.c **** * \param comNumber
1008:.\Generated_Source\PSoC5/USBUART_cdc.c **** *  Contains the COM interface the user wishes to address. Value can either
1009:.\Generated_Source\PSoC5/USBUART_cdc.c **** *  be 0 or 1 since a maximum of only 2 COM ports can be supported. Note that
1010:.\Generated_Source\PSoC5/USBUART_cdc.c **** *  this COM port number is not the COM port number assigned on the PC side
1011:.\Generated_Source\PSoC5/USBUART_cdc.c **** *  for the UART communication. If a value greater than 1 is passed, the
1012:.\Generated_Source\PSoC5/USBUART_cdc.c **** *  function returns without performing any action.
1013:.\Generated_Source\PSoC5/USBUART_cdc.c **** *
1014:.\Generated_Source\PSoC5/USBUART_cdc.c **** *******************************************************************************/
ARM GAS  C:\Users\student\AppData\Local\Temp\cckxTosa.s 			page 42


1015:.\Generated_Source\PSoC5/USBUART_cdc.c **** void USBUART_SetComPort(uint8 comNumber) 
1016:.\Generated_Source\PSoC5/USBUART_cdc.c **** {
 1265              		.loc 1 1016 0
 1266              		.cfi_startproc
 1267              		@ args = 0, pretend = 0, frame = 0
 1268              		@ frame_needed = 0, uses_anonymous_args = 0
 1269              		@ link register save eliminated.
 1270              	.LVL100:
1017:.\Generated_Source\PSoC5/USBUART_cdc.c ****     if ((USBUART_activeCom != comNumber) && \
 1271              		.loc 1 1017 0
 1272 0000 044B     		ldr	r3, .L123
 1273 0002 1B78     		ldrb	r3, [r3]	@ zero_extendqisi2
 1274 0004 8342     		cmp	r3, r0
 1275 0006 03D0     		beq	.L121
 1276              		.loc 1 1017 0 is_stmt 0 discriminator 1
 1277 0008 0128     		cmp	r0, #1
 1278 000a 01D8     		bhi	.L121
1018:.\Generated_Source\PSoC5/USBUART_cdc.c ****             (comNumber < USBUART_MAX_MULTI_COM_NUM ))
1019:.\Generated_Source\PSoC5/USBUART_cdc.c ****     {
1020:.\Generated_Source\PSoC5/USBUART_cdc.c ****         USBUART_activeCom = comNumber;
 1279              		.loc 1 1020 0 is_stmt 1
 1280 000c 014B     		ldr	r3, .L123
 1281 000e 1870     		strb	r0, [r3]
 1282              	.L121:
 1283 0010 7047     		bx	lr
 1284              	.L124:
 1285 0012 00BF     		.align	2
 1286              	.L123:
 1287 0014 00000000 		.word	.LANCHOR1
 1288              		.cfi_endproc
 1289              	.LFE23:
 1290              		.size	USBUART_SetComPort, .-USBUART_SetComPort
 1291              		.section	.text.USBUART_GetComPort,"ax",%progbits
 1292              		.align	2
 1293              		.global	USBUART_GetComPort
 1294              		.thumb
 1295              		.thumb_func
 1296              		.type	USBUART_GetComPort, %function
 1297              	USBUART_GetComPort:
 1298              	.LFB24:
1021:.\Generated_Source\PSoC5/USBUART_cdc.c ****     }
1022:.\Generated_Source\PSoC5/USBUART_cdc.c **** }
1023:.\Generated_Source\PSoC5/USBUART_cdc.c **** 
1024:.\Generated_Source\PSoC5/USBUART_cdc.c **** 
1025:.\Generated_Source\PSoC5/USBUART_cdc.c **** /*******************************************************************************
1026:.\Generated_Source\PSoC5/USBUART_cdc.c **** * Function Name: USBUART_GetComPort
1027:.\Generated_Source\PSoC5/USBUART_cdc.c **** ****************************************************************************//**
1028:.\Generated_Source\PSoC5/USBUART_cdc.c **** *
1029:.\Generated_Source\PSoC5/USBUART_cdc.c **** *  This function returns the current selected COM port that the user is
1030:.\Generated_Source\PSoC5/USBUART_cdc.c **** *  currently addressing in the instance of having multiple COM ports
1031:.\Generated_Source\PSoC5/USBUART_cdc.c **** *  instantiated though the use of a composite device.
1032:.\Generated_Source\PSoC5/USBUART_cdc.c **** *
1033:.\Generated_Source\PSoC5/USBUART_cdc.c **** * \return
1034:.\Generated_Source\PSoC5/USBUART_cdc.c **** *  Returns the currently selected COM port. Value can either be 0 or 1 since
1035:.\Generated_Source\PSoC5/USBUART_cdc.c **** *  a maximum of only 2 COM ports can be supported. . Note that this COM port
1036:.\Generated_Source\PSoC5/USBUART_cdc.c **** *  number is not the COM port number assigned on the PC side for the UART
1037:.\Generated_Source\PSoC5/USBUART_cdc.c **** *  communication.
ARM GAS  C:\Users\student\AppData\Local\Temp\cckxTosa.s 			page 43


1038:.\Generated_Source\PSoC5/USBUART_cdc.c **** *
1039:.\Generated_Source\PSoC5/USBUART_cdc.c **** *******************************************************************************/
1040:.\Generated_Source\PSoC5/USBUART_cdc.c **** uint8 USBUART_GetComPort(void) 
1041:.\Generated_Source\PSoC5/USBUART_cdc.c **** {
 1299              		.loc 1 1041 0
 1300              		.cfi_startproc
 1301              		@ args = 0, pretend = 0, frame = 0
 1302              		@ frame_needed = 0, uses_anonymous_args = 0
 1303              		@ link register save eliminated.
1042:.\Generated_Source\PSoC5/USBUART_cdc.c ****     return (USBUART_activeCom);
1043:.\Generated_Source\PSoC5/USBUART_cdc.c **** }
 1304              		.loc 1 1043 0
 1305 0000 014B     		ldr	r3, .L126
 1306 0002 1878     		ldrb	r0, [r3]	@ zero_extendqisi2
 1307 0004 7047     		bx	lr
 1308              	.L127:
 1309 0006 00BF     		.align	2
 1310              	.L126:
 1311 0008 00000000 		.word	.LANCHOR1
 1312              		.cfi_endproc
 1313              	.LFE24:
 1314              		.size	USBUART_GetComPort, .-USBUART_GetComPort
 1315              		.section	.text.USBUART_Cdc_EpInit,"ax",%progbits
 1316              		.align	2
 1317              		.global	USBUART_Cdc_EpInit
 1318              		.thumb
 1319              		.thumb_func
 1320              		.type	USBUART_Cdc_EpInit, %function
 1321              	USBUART_Cdc_EpInit:
 1322              	.LFB25:
1044:.\Generated_Source\PSoC5/USBUART_cdc.c **** 
1045:.\Generated_Source\PSoC5/USBUART_cdc.c **** 
1046:.\Generated_Source\PSoC5/USBUART_cdc.c **** #endif  /* (USBUART_ENABLE_CDC_CLASS_API) */
1047:.\Generated_Source\PSoC5/USBUART_cdc.c **** 
1048:.\Generated_Source\PSoC5/USBUART_cdc.c **** 
1049:.\Generated_Source\PSoC5/USBUART_cdc.c **** /***************************************************************************
1050:.\Generated_Source\PSoC5/USBUART_cdc.c **** * Function Name: USBUART_Cdc_EpInit
1051:.\Generated_Source\PSoC5/USBUART_cdc.c **** ************************************************************************//**
1052:.\Generated_Source\PSoC5/USBUART_cdc.c **** *
1053:.\Generated_Source\PSoC5/USBUART_cdc.c **** *  \internal
1054:.\Generated_Source\PSoC5/USBUART_cdc.c **** *  This routine decide type of endpoint (IN, OUT, Notification) and same to
1055:.\Generated_Source\PSoC5/USBUART_cdc.c **** *   appropriate global variables  according to COM port number.
1056:.\Generated_Source\PSoC5/USBUART_cdc.c **** *   USBUART_cdcDataInEp[], USBUART_cdcCommInInterruptEp[],
1057:.\Generated_Source\PSoC5/USBUART_cdc.c **** *   USBUART_cdcDataOutEp[]
1058:.\Generated_Source\PSoC5/USBUART_cdc.c **** *
1059:.\Generated_Source\PSoC5/USBUART_cdc.c **** * \param pEP: Pointer to structure with current EP description.
1060:.\Generated_Source\PSoC5/USBUART_cdc.c **** * \param epNum: EP number
1061:.\Generated_Source\PSoC5/USBUART_cdc.c **** * \param cdcComNums: Bit array of current COM ports for CDC IN, OUT,
1062:.\Generated_Source\PSoC5/USBUART_cdc.c **** *        and notification EPs(0 - COM port 1, 1- COM port 2)
1063:.\Generated_Source\PSoC5/USBUART_cdc.c **** *
1064:.\Generated_Source\PSoC5/USBUART_cdc.c **** * \return
1065:.\Generated_Source\PSoC5/USBUART_cdc.c **** *  Updated cdcComNums
1066:.\Generated_Source\PSoC5/USBUART_cdc.c **** *
1067:.\Generated_Source\PSoC5/USBUART_cdc.c **** * \reentrant
1068:.\Generated_Source\PSoC5/USBUART_cdc.c **** *  No.
1069:.\Generated_Source\PSoC5/USBUART_cdc.c **** *
1070:.\Generated_Source\PSoC5/USBUART_cdc.c **** ***************************************************************************/
ARM GAS  C:\Users\student\AppData\Local\Temp\cckxTosa.s 			page 44


1071:.\Generated_Source\PSoC5/USBUART_cdc.c **** uint8 USBUART_Cdc_EpInit(const T_USBUART_EP_SETTINGS_BLOCK CYCODE *pEP, uint8 epNum, uint8 cdcComNu
1072:.\Generated_Source\PSoC5/USBUART_cdc.c **** {
 1323              		.loc 1 1072 0
 1324              		.cfi_startproc
 1325              		@ args = 0, pretend = 0, frame = 0
 1326              		@ frame_needed = 0, uses_anonymous_args = 0
 1327              		@ link register save eliminated.
 1328              	.LVL101:
1073:.\Generated_Source\PSoC5/USBUART_cdc.c ****     uint8 epType;
1074:.\Generated_Source\PSoC5/USBUART_cdc.c **** 
1075:.\Generated_Source\PSoC5/USBUART_cdc.c ****     epType = pEP->attributes & USBUART_EP_TYPE_MASK;
 1329              		.loc 1 1075 0
 1330 0000 C378     		ldrb	r3, [r0, #3]	@ zero_extendqisi2
 1331 0002 03F00303 		and	r3, r3, #3
 1332              	.LVL102:
1076:.\Generated_Source\PSoC5/USBUART_cdc.c **** 
1077:.\Generated_Source\PSoC5/USBUART_cdc.c ****     if (0u != (pEP->addr & USBUART_DIR_IN))
 1333              		.loc 1 1077 0
 1334 0006 90F90200 		ldrsb	r0, [r0, #2]
 1335              	.LVL103:
 1336 000a 0028     		cmp	r0, #0
 1337 000c 0FDA     		bge	.L129
1078:.\Generated_Source\PSoC5/USBUART_cdc.c ****     {
1079:.\Generated_Source\PSoC5/USBUART_cdc.c ****         if (epType != USBUART_EP_TYPE_INT)
 1338              		.loc 1 1079 0
 1339 000e 032B     		cmp	r3, #3
 1340 0010 06D0     		beq	.L130
1080:.\Generated_Source\PSoC5/USBUART_cdc.c ****         {
1081:.\Generated_Source\PSoC5/USBUART_cdc.c ****             USBUART_cdcDataInEp[USBUART_GET_EP_COM_NUM(cdcComNums, USBUART_CDC_IN_EP)] = epNum;
 1341              		.loc 1 1081 0
 1342 0012 02F00103 		and	r3, r2, #1
 1343              	.LVL104:
 1344 0016 0B48     		ldr	r0, .L132
 1345 0018 C154     		strb	r1, [r0, r3]
1082:.\Generated_Source\PSoC5/USBUART_cdc.c ****             cdcComNums |= (uint8)(USBUART_COM_PORT2 << USBUART_CDC_IN_EP);
 1346              		.loc 1 1082 0
 1347 001a 42F00102 		orr	r2, r2, #1
 1348              	.LVL105:
 1349 001e 0EE0     		b	.L131
 1350              	.LVL106:
 1351              	.L130:
1083:.\Generated_Source\PSoC5/USBUART_cdc.c ****         }
1084:.\Generated_Source\PSoC5/USBUART_cdc.c ****         else
1085:.\Generated_Source\PSoC5/USBUART_cdc.c ****         {
1086:.\Generated_Source\PSoC5/USBUART_cdc.c **** 
1087:.\Generated_Source\PSoC5/USBUART_cdc.c ****             USBUART_cdcCommInInterruptEp[USBUART_GET_EP_COM_NUM(cdcComNums, USBUART_CDC_NOTE_EP)] =
 1352              		.loc 1 1087 0
 1353 0020 C2F38003 		ubfx	r3, r2, #2, #1
 1354              	.LVL107:
 1355 0024 0848     		ldr	r0, .L132+4
 1356 0026 C154     		strb	r1, [r0, r3]
1088:.\Generated_Source\PSoC5/USBUART_cdc.c ****             cdcComNums |= (uint8)(USBUART_COM_PORT2 << USBUART_CDC_NOTE_EP);
 1357              		.loc 1 1088 0
 1358 0028 42F00402 		orr	r2, r2, #4
 1359              	.LVL108:
 1360 002c 07E0     		b	.L131
 1361              	.LVL109:
ARM GAS  C:\Users\student\AppData\Local\Temp\cckxTosa.s 			page 45


 1362              	.L129:
1089:.\Generated_Source\PSoC5/USBUART_cdc.c ****         }
1090:.\Generated_Source\PSoC5/USBUART_cdc.c ****     }
1091:.\Generated_Source\PSoC5/USBUART_cdc.c ****     else
1092:.\Generated_Source\PSoC5/USBUART_cdc.c ****     {
1093:.\Generated_Source\PSoC5/USBUART_cdc.c ****         if (epType != USBUART_EP_TYPE_INT)
 1363              		.loc 1 1093 0
 1364 002e 032B     		cmp	r3, #3
 1365 0030 05D0     		beq	.L131
1094:.\Generated_Source\PSoC5/USBUART_cdc.c ****         {
1095:.\Generated_Source\PSoC5/USBUART_cdc.c ****             USBUART_cdcDataOutEp[USBUART_GET_EP_COM_NUM(cdcComNums, USBUART_CDC_OUT_EP)] = epNum;
 1366              		.loc 1 1095 0
 1367 0032 C2F34003 		ubfx	r3, r2, #1, #1
 1368              	.LVL110:
 1369 0036 0548     		ldr	r0, .L132+8
 1370 0038 C154     		strb	r1, [r0, r3]
1096:.\Generated_Source\PSoC5/USBUART_cdc.c ****             cdcComNums |= (uint8)(USBUART_COM_PORT2 << USBUART_CDC_OUT_EP);
 1371              		.loc 1 1096 0
 1372 003a 42F00202 		orr	r2, r2, #2
 1373              	.LVL111:
 1374              	.L131:
1097:.\Generated_Source\PSoC5/USBUART_cdc.c ****         }
1098:.\Generated_Source\PSoC5/USBUART_cdc.c ****     }
1099:.\Generated_Source\PSoC5/USBUART_cdc.c ****     return (cdcComNums);
1100:.\Generated_Source\PSoC5/USBUART_cdc.c **** }
 1375              		.loc 1 1100 0
 1376 003e 1046     		mov	r0, r2
 1377 0040 7047     		bx	lr
 1378              	.L133:
 1379 0042 00BF     		.align	2
 1380              	.L132:
 1381 0044 00000000 		.word	USBUART_cdcDataInEp
 1382 0048 00000000 		.word	USBUART_cdcCommInInterruptEp
 1383 004c 00000000 		.word	USBUART_cdcDataOutEp
 1384              		.cfi_endproc
 1385              	.LFE25:
 1386              		.size	USBUART_Cdc_EpInit, .-USBUART_Cdc_EpInit
 1387              		.comm	USBUART_cdcCommInInterruptEp,2,4
 1388              		.comm	USBUART_cdcDataOutEp,2,4
 1389              		.comm	USBUART_cdcDataInEp,2,4
 1390              		.comm	USBUART_serialStateBitmap,4,4
 1391              		.comm	USBUART_linesControlBitmap,4,4
 1392              		.comm	USBUART_linesChanged,2,4
 1393              		.global	USBUART_linesCoding
 1394              		.section	.rodata
 1395              		.align	2
 1396              		.set	.LANCHOR2,. + 0
 1397              	.LC0:
 1398 0000 0D       		.byte	13
 1399 0001 0A       		.byte	10
 1400 0002 0000     		.data
 1401              		.align	2
 1402              		.set	.LANCHOR0,. + 0
 1403              		.type	USBUART_linesCoding, %object
 1404              		.size	USBUART_linesCoding, 14
 1405              	USBUART_linesCoding:
 1406 0000 00       		.byte	0
ARM GAS  C:\Users\student\AppData\Local\Temp\cckxTosa.s 			page 46


 1407 0001 C2       		.byte	-62
 1408 0002 01       		.byte	1
 1409 0003 00       		.byte	0
 1410 0004 00       		.byte	0
 1411 0005 00       		.byte	0
 1412 0006 08       		.byte	8
 1413 0007 00       		.byte	0
 1414 0008 C2       		.byte	-62
 1415 0009 01       		.byte	1
 1416 000a 00       		.byte	0
 1417 000b 00       		.byte	0
 1418 000c 00       		.byte	0
 1419 000d 08       		.byte	8
 1420 000e 0000     		.space	2
 1421              		.type	USBUART_serialStateNotification, %object
 1422              		.size	USBUART_serialStateNotification, 10
 1423              	USBUART_serialStateNotification:
 1424 0010 A1       		.byte	-95
 1425 0011 20       		.byte	32
 1426 0012 00       		.byte	0
 1427 0013 00       		.byte	0
 1428 0014 00       		.byte	0
 1429 0015 00       		.byte	0
 1430 0016 02       		.byte	2
 1431 0017 00       		.byte	0
 1432 0018 00       		.byte	0
 1433 0019 00       		.byte	0
 1434 001a 0000     		.bss
 1435              		.set	.LANCHOR1,. + 0
 1436              		.type	USBUART_activeCom, %object
 1437              		.size	USBUART_activeCom, 1
 1438              	USBUART_activeCom:
 1439 0000 00       		.space	1
 1440              		.text
 1441              	.Letext0:
 1442              		.file 2 ".\\Generated_Source\\PSoC5\\cytypes.h"
 1443              		.file 3 ".\\Generated_Source\\PSoC5\\USBUART.h"
 1444              		.file 4 ".\\Generated_Source\\PSoC5\\USBUART_pvt.h"
 1445              		.file 5 ".\\Generated_Source\\PSoC5\\CyLib.h"
 1446              		.section	.debug_info,"",%progbits
 1447              	.Ldebug_info0:
 1448 0000 190B0000 		.4byte	0xb19
 1449 0004 0400     		.2byte	0x4
 1450 0006 00000000 		.4byte	.Ldebug_abbrev0
 1451 000a 04       		.byte	0x4
 1452 000b 01       		.uleb128 0x1
 1453 000c 57030000 		.4byte	.LASF119
 1454 0010 01       		.byte	0x1
 1455 0011 EC010000 		.4byte	.LASF120
 1456 0015 52020000 		.4byte	.LASF121
 1457 0019 00000000 		.4byte	.Ldebug_ranges0+0
 1458 001d 00000000 		.4byte	0
 1459 0021 00000000 		.4byte	.Ldebug_line0
 1460 0025 02       		.uleb128 0x2
 1461 0026 01       		.byte	0x1
 1462 0027 06       		.byte	0x6
 1463 0028 2D010000 		.4byte	.LASF0
ARM GAS  C:\Users\student\AppData\Local\Temp\cckxTosa.s 			page 47


 1464 002c 02       		.uleb128 0x2
 1465 002d 01       		.byte	0x1
 1466 002e 08       		.byte	0x8
 1467 002f 86050000 		.4byte	.LASF1
 1468 0033 02       		.uleb128 0x2
 1469 0034 02       		.byte	0x2
 1470 0035 05       		.byte	0x5
 1471 0036 AB050000 		.4byte	.LASF2
 1472 003a 02       		.uleb128 0x2
 1473 003b 02       		.byte	0x2
 1474 003c 07       		.byte	0x7
 1475 003d 06040000 		.4byte	.LASF3
 1476 0041 02       		.uleb128 0x2
 1477 0042 04       		.byte	0x4
 1478 0043 05       		.byte	0x5
 1479 0044 A6010000 		.4byte	.LASF4
 1480 0048 02       		.uleb128 0x2
 1481 0049 04       		.byte	0x4
 1482 004a 07       		.byte	0x7
 1483 004b 3C030000 		.4byte	.LASF5
 1484 004f 02       		.uleb128 0x2
 1485 0050 08       		.byte	0x8
 1486 0051 05       		.byte	0x5
 1487 0052 1F010000 		.4byte	.LASF6
 1488 0056 02       		.uleb128 0x2
 1489 0057 08       		.byte	0x8
 1490 0058 07       		.byte	0x7
 1491 0059 A5000000 		.4byte	.LASF7
 1492 005d 03       		.uleb128 0x3
 1493 005e 04       		.byte	0x4
 1494 005f 05       		.byte	0x5
 1495 0060 696E7400 		.ascii	"int\000"
 1496 0064 02       		.uleb128 0x2
 1497 0065 04       		.byte	0x4
 1498 0066 07       		.byte	0x7
 1499 0067 1B030000 		.4byte	.LASF8
 1500 006b 04       		.uleb128 0x4
 1501 006c CF010000 		.4byte	.LASF9
 1502 0070 02       		.byte	0x2
 1503 0071 9201     		.2byte	0x192
 1504 0073 2C000000 		.4byte	0x2c
 1505 0077 04       		.uleb128 0x4
 1506 0078 26000000 		.4byte	.LASF10
 1507 007c 02       		.byte	0x2
 1508 007d 9301     		.2byte	0x193
 1509 007f 3A000000 		.4byte	0x3a
 1510 0083 04       		.uleb128 0x4
 1511 0084 7E020000 		.4byte	.LASF11
 1512 0088 02       		.byte	0x2
 1513 0089 9401     		.2byte	0x194
 1514 008b 48000000 		.4byte	0x48
 1515 008f 02       		.uleb128 0x2
 1516 0090 04       		.byte	0x4
 1517 0091 04       		.byte	0x4
 1518 0092 4C050000 		.4byte	.LASF12
 1519 0096 02       		.uleb128 0x2
 1520 0097 08       		.byte	0x8
ARM GAS  C:\Users\student\AppData\Local\Temp\cckxTosa.s 			page 48


 1521 0098 04       		.byte	0x4
 1522 0099 E5010000 		.4byte	.LASF13
 1523 009d 04       		.uleb128 0x4
 1524 009e A1060000 		.4byte	.LASF14
 1525 00a2 02       		.byte	0x2
 1526 00a3 A301     		.2byte	0x1a3
 1527 00a5 A9000000 		.4byte	0xa9
 1528 00a9 02       		.uleb128 0x2
 1529 00aa 01       		.byte	0x1
 1530 00ab 08       		.byte	0x8
 1531 00ac 60060000 		.4byte	.LASF15
 1532 00b0 05       		.uleb128 0x5
 1533 00b1 6B000000 		.4byte	0x6b
 1534 00b5 02       		.uleb128 0x2
 1535 00b6 08       		.byte	0x8
 1536 00b7 04       		.byte	0x4
 1537 00b8 92040000 		.4byte	.LASF16
 1538 00bc 02       		.uleb128 0x2
 1539 00bd 04       		.byte	0x4
 1540 00be 07       		.byte	0x7
 1541 00bf 89040000 		.4byte	.LASF17
 1542 00c3 06       		.uleb128 0x6
 1543 00c4 0C       		.byte	0xc
 1544 00c5 03       		.byte	0x3
 1545 00c6 8D       		.byte	0x8d
 1546 00c7 38010000 		.4byte	0x138
 1547 00cb 07       		.uleb128 0x7
 1548 00cc B7040000 		.4byte	.LASF18
 1549 00d0 03       		.byte	0x3
 1550 00d1 8F       		.byte	0x8f
 1551 00d2 6B000000 		.4byte	0x6b
 1552 00d6 00       		.byte	0
 1553 00d7 07       		.uleb128 0x7
 1554 00d8 74050000 		.4byte	.LASF19
 1555 00dc 03       		.byte	0x3
 1556 00dd 90       		.byte	0x90
 1557 00de 6B000000 		.4byte	0x6b
 1558 00e2 01       		.byte	0x1
 1559 00e3 07       		.uleb128 0x7
 1560 00e4 7F040000 		.4byte	.LASF20
 1561 00e8 03       		.byte	0x3
 1562 00e9 91       		.byte	0x91
 1563 00ea 6B000000 		.4byte	0x6b
 1564 00ee 02       		.byte	0x2
 1565 00ef 07       		.uleb128 0x7
 1566 00f0 D5010000 		.4byte	.LASF21
 1567 00f4 03       		.byte	0x3
 1568 00f5 92       		.byte	0x92
 1569 00f6 6B000000 		.4byte	0x6b
 1570 00fa 03       		.byte	0x3
 1571 00fb 07       		.uleb128 0x7
 1572 00fc BC000000 		.4byte	.LASF22
 1573 0100 03       		.byte	0x3
 1574 0101 93       		.byte	0x93
 1575 0102 6B000000 		.4byte	0x6b
 1576 0106 04       		.byte	0x4
 1577 0107 07       		.uleb128 0x7
ARM GAS  C:\Users\student\AppData\Local\Temp\cckxTosa.s 			page 49


 1578 0108 C8020000 		.4byte	.LASF23
 1579 010c 03       		.byte	0x3
 1580 010d 94       		.byte	0x94
 1581 010e 6B000000 		.4byte	0x6b
 1582 0112 05       		.byte	0x5
 1583 0113 07       		.uleb128 0x7
 1584 0114 96060000 		.4byte	.LASF24
 1585 0118 03       		.byte	0x3
 1586 0119 95       		.byte	0x95
 1587 011a 77000000 		.4byte	0x77
 1588 011e 06       		.byte	0x6
 1589 011f 07       		.uleb128 0x7
 1590 0120 65060000 		.4byte	.LASF25
 1591 0124 03       		.byte	0x3
 1592 0125 96       		.byte	0x96
 1593 0126 77000000 		.4byte	0x77
 1594 012a 08       		.byte	0x8
 1595 012b 07       		.uleb128 0x7
 1596 012c 63040000 		.4byte	.LASF26
 1597 0130 03       		.byte	0x3
 1598 0131 97       		.byte	0x97
 1599 0132 6B000000 		.4byte	0x6b
 1600 0136 0A       		.byte	0xa
 1601 0137 00       		.byte	0
 1602 0138 08       		.uleb128 0x8
 1603 0139 7F060000 		.4byte	.LASF27
 1604 013d 03       		.byte	0x3
 1605 013e 98       		.byte	0x98
 1606 013f C3000000 		.4byte	0xc3
 1607 0143 06       		.uleb128 0x6
 1608 0144 08       		.byte	0x8
 1609 0145 03       		.byte	0x3
 1610 0146 9A       		.byte	0x9a
 1611 0147 94010000 		.4byte	0x194
 1612 014b 07       		.uleb128 0x7
 1613 014c 63040000 		.4byte	.LASF26
 1614 0150 03       		.byte	0x3
 1615 0151 9C       		.byte	0x9c
 1616 0152 6B000000 		.4byte	0x6b
 1617 0156 00       		.byte	0
 1618 0157 07       		.uleb128 0x7
 1619 0158 55060000 		.4byte	.LASF28
 1620 015c 03       		.byte	0x3
 1621 015d 9D       		.byte	0x9d
 1622 015e 6B000000 		.4byte	0x6b
 1623 0162 01       		.byte	0x1
 1624 0163 07       		.uleb128 0x7
 1625 0164 BC000000 		.4byte	.LASF22
 1626 0168 03       		.byte	0x3
 1627 0169 9E       		.byte	0x9e
 1628 016a 6B000000 		.4byte	0x6b
 1629 016e 02       		.byte	0x2
 1630 016f 07       		.uleb128 0x7
 1631 0170 15060000 		.4byte	.LASF29
 1632 0174 03       		.byte	0x3
 1633 0175 9F       		.byte	0x9f
 1634 0176 6B000000 		.4byte	0x6b
ARM GAS  C:\Users\student\AppData\Local\Temp\cckxTosa.s 			page 50


 1635 017a 03       		.byte	0x3
 1636 017b 07       		.uleb128 0x7
 1637 017c 65060000 		.4byte	.LASF25
 1638 0180 03       		.byte	0x3
 1639 0181 A0       		.byte	0xa0
 1640 0182 77000000 		.4byte	0x77
 1641 0186 04       		.byte	0x4
 1642 0187 07       		.uleb128 0x7
 1643 0188 23070000 		.4byte	.LASF30
 1644 018c 03       		.byte	0x3
 1645 018d A1       		.byte	0xa1
 1646 018e 6B000000 		.4byte	0x6b
 1647 0192 06       		.byte	0x6
 1648 0193 00       		.byte	0
 1649 0194 08       		.uleb128 0x8
 1650 0195 A7060000 		.4byte	.LASF31
 1651 0199 03       		.byte	0x3
 1652 019a A2       		.byte	0xa2
 1653 019b 43010000 		.4byte	0x143
 1654 019f 06       		.uleb128 0x6
 1655 01a0 04       		.byte	0x4
 1656 01a1 03       		.byte	0x3
 1657 01a2 A4       		.byte	0xa4
 1658 01a3 C0010000 		.4byte	0x1c0
 1659 01a7 07       		.uleb128 0x7
 1660 01a8 FC060000 		.4byte	.LASF32
 1661 01ac 03       		.byte	0x3
 1662 01ad A6       		.byte	0xa6
 1663 01ae 6B000000 		.4byte	0x6b
 1664 01b2 00       		.byte	0
 1665 01b3 07       		.uleb128 0x7
 1666 01b4 F5060000 		.4byte	.LASF33
 1667 01b8 03       		.byte	0x3
 1668 01b9 A7       		.byte	0xa7
 1669 01ba 77000000 		.4byte	0x77
 1670 01be 02       		.byte	0x2
 1671 01bf 00       		.byte	0
 1672 01c0 08       		.uleb128 0x8
 1673 01c1 EF000000 		.4byte	.LASF34
 1674 01c5 03       		.byte	0x3
 1675 01c6 A8       		.byte	0xa8
 1676 01c7 9F010000 		.4byte	0x19f
 1677 01cb 06       		.uleb128 0x6
 1678 01cc 0C       		.byte	0xc
 1679 01cd 03       		.byte	0x3
 1680 01ce AA       		.byte	0xaa
 1681 01cf F8010000 		.4byte	0x1f8
 1682 01d3 07       		.uleb128 0x7
 1683 01d4 0D000000 		.4byte	.LASF35
 1684 01d8 03       		.byte	0x3
 1685 01d9 AC       		.byte	0xac
 1686 01da 77000000 		.4byte	0x77
 1687 01de 00       		.byte	0
 1688 01df 07       		.uleb128 0x7
 1689 01e0 C2020000 		.4byte	.LASF36
 1690 01e4 03       		.byte	0x3
 1691 01e5 AD       		.byte	0xad
ARM GAS  C:\Users\student\AppData\Local\Temp\cckxTosa.s 			page 51


 1692 01e6 F8010000 		.4byte	0x1f8
 1693 01ea 04       		.byte	0x4
 1694 01eb 07       		.uleb128 0x7
 1695 01ec 00000000 		.4byte	.LASF37
 1696 01f0 03       		.byte	0x3
 1697 01f1 AE       		.byte	0xae
 1698 01f2 FE010000 		.4byte	0x1fe
 1699 01f6 08       		.byte	0x8
 1700 01f7 00       		.byte	0
 1701 01f8 09       		.uleb128 0x9
 1702 01f9 04       		.byte	0x4
 1703 01fa B0000000 		.4byte	0xb0
 1704 01fe 09       		.uleb128 0x9
 1705 01ff 04       		.byte	0x4
 1706 0200 C0010000 		.4byte	0x1c0
 1707 0204 08       		.uleb128 0x8
 1708 0205 D8050000 		.4byte	.LASF38
 1709 0209 03       		.byte	0x3
 1710 020a AF       		.byte	0xaf
 1711 020b CB010000 		.4byte	0x1cb
 1712 020f 06       		.uleb128 0x6
 1713 0210 08       		.byte	0x8
 1714 0211 03       		.byte	0x3
 1715 0212 C5       		.byte	0xc5
 1716 0213 24020000 		.4byte	0x224
 1717 0217 07       		.uleb128 0x7
 1718 0218 1C070000 		.4byte	.LASF39
 1719 021c 03       		.byte	0x3
 1720 021d C7       		.byte	0xc7
 1721 021e 24020000 		.4byte	0x224
 1722 0222 00       		.byte	0
 1723 0223 00       		.byte	0
 1724 0224 0A       		.uleb128 0xa
 1725 0225 6B000000 		.4byte	0x6b
 1726 0229 34020000 		.4byte	0x234
 1727 022d 0B       		.uleb128 0xb
 1728 022e BC000000 		.4byte	0xbc
 1729 0232 07       		.byte	0x7
 1730 0233 00       		.byte	0
 1731 0234 08       		.uleb128 0x8
 1732 0235 8E010000 		.4byte	.LASF40
 1733 0239 03       		.byte	0x3
 1734 023a C8       		.byte	0xc8
 1735 023b 0F020000 		.4byte	0x20f
 1736 023f 0C       		.uleb128 0xc
 1737 0240 0A       		.byte	0xa
 1738 0241 04       		.byte	0x4
 1739 0242 6C01     		.2byte	0x16c
 1740 0244 CB020000 		.4byte	0x2cb
 1741 0248 0D       		.uleb128 0xd
 1742 0249 C1000000 		.4byte	.LASF41
 1743 024d 04       		.byte	0x4
 1744 024e 6E01     		.2byte	0x16e
 1745 0250 6B000000 		.4byte	0x6b
 1746 0254 00       		.byte	0
 1747 0255 0D       		.uleb128 0xd
 1748 0256 0E070000 		.4byte	.LASF42
ARM GAS  C:\Users\student\AppData\Local\Temp\cckxTosa.s 			page 52


 1749 025a 04       		.byte	0x4
 1750 025b 6F01     		.2byte	0x16f
 1751 025d 6B000000 		.4byte	0x6b
 1752 0261 01       		.byte	0x1
 1753 0262 0D       		.uleb128 0xd
 1754 0263 DE010000 		.4byte	.LASF43
 1755 0267 04       		.byte	0x4
 1756 0268 7001     		.2byte	0x170
 1757 026a 6B000000 		.4byte	0x6b
 1758 026e 02       		.byte	0x2
 1759 026f 0D       		.uleb128 0xd
 1760 0270 CE050000 		.4byte	.LASF44
 1761 0274 04       		.byte	0x4
 1762 0275 7101     		.2byte	0x171
 1763 0277 6B000000 		.4byte	0x6b
 1764 027b 03       		.byte	0x3
 1765 027c 0D       		.uleb128 0xd
 1766 027d 9E050000 		.4byte	.LASF45
 1767 0281 04       		.byte	0x4
 1768 0282 7201     		.2byte	0x172
 1769 0284 6B000000 		.4byte	0x6b
 1770 0288 04       		.byte	0x4
 1771 0289 0D       		.uleb128 0xd
 1772 028a BE070000 		.4byte	.LASF46
 1773 028e 04       		.byte	0x4
 1774 028f 7301     		.2byte	0x173
 1775 0291 6B000000 		.4byte	0x6b
 1776 0295 05       		.byte	0x5
 1777 0296 0D       		.uleb128 0xd
 1778 0297 F5060000 		.4byte	.LASF33
 1779 029b 04       		.byte	0x4
 1780 029c 7401     		.2byte	0x174
 1781 029e 6B000000 		.4byte	0x6b
 1782 02a2 06       		.byte	0x6
 1783 02a3 0D       		.uleb128 0xd
 1784 02a4 03070000 		.4byte	.LASF47
 1785 02a8 04       		.byte	0x4
 1786 02a9 7501     		.2byte	0x175
 1787 02ab 6B000000 		.4byte	0x6b
 1788 02af 07       		.byte	0x7
 1789 02b0 0D       		.uleb128 0xd
 1790 02b1 85020000 		.4byte	.LASF48
 1791 02b5 04       		.byte	0x4
 1792 02b6 7601     		.2byte	0x176
 1793 02b8 6B000000 		.4byte	0x6b
 1794 02bc 08       		.byte	0x8
 1795 02bd 0D       		.uleb128 0xd
 1796 02be D4000000 		.4byte	.LASF49
 1797 02c2 04       		.byte	0x4
 1798 02c3 7701     		.2byte	0x177
 1799 02c5 6B000000 		.4byte	0x6b
 1800 02c9 09       		.byte	0x9
 1801 02ca 00       		.byte	0
 1802 02cb 04       		.uleb128 0x4
 1803 02cc 46070000 		.4byte	.LASF50
 1804 02d0 04       		.byte	0x4
 1805 02d1 7801     		.2byte	0x178
ARM GAS  C:\Users\student\AppData\Local\Temp\cckxTosa.s 			page 53


 1806 02d3 3F020000 		.4byte	0x23f
 1807 02d7 0E       		.uleb128 0xe
 1808 02d8 E6060000 		.4byte	.LASF122
 1809 02dc 01       		.byte	0x1
 1810 02dd 8401     		.2byte	0x184
 1811 02df 77000000 		.4byte	0x77
 1812 02e3 00000000 		.4byte	.LFB4
 1813 02e7 12000000 		.4byte	.LFE4-.LFB4
 1814 02eb 01       		.uleb128 0x1
 1815 02ec 9C       		.byte	0x9c
 1816 02ed 12030000 		.4byte	0x312
 1817 02f1 0F       		.uleb128 0xf
 1818 02f2 5D000000 		.4byte	.LASF51
 1819 02f6 01       		.byte	0x1
 1820 02f7 8401     		.2byte	0x184
 1821 02f9 12030000 		.4byte	0x312
 1822 02fd 00000000 		.4byte	.LLST0
 1823 0301 10       		.uleb128 0x10
 1824 0302 6C656E00 		.ascii	"len\000"
 1825 0306 01       		.byte	0x1
 1826 0307 8601     		.2byte	0x186
 1827 0309 77000000 		.4byte	0x77
 1828 030d 1E000000 		.4byte	.LLST1
 1829 0311 00       		.byte	0
 1830 0312 09       		.uleb128 0x9
 1831 0313 04       		.byte	0x4
 1832 0314 18030000 		.4byte	0x318
 1833 0318 11       		.uleb128 0x11
 1834 0319 9D000000 		.4byte	0x9d
 1835 031d 12       		.uleb128 0x12
 1836 031e 2D000000 		.4byte	.LASF54
 1837 0322 01       		.byte	0x1
 1838 0323 EF       		.byte	0xef
 1839 0324 6B000000 		.4byte	0x6b
 1840 0328 00000000 		.4byte	.LFB1
 1841 032c 3C000000 		.4byte	.LFE1-.LFB1
 1842 0330 01       		.uleb128 0x1
 1843 0331 9C       		.byte	0x9c
 1844 0332 73030000 		.4byte	0x373
 1845 0336 13       		.uleb128 0x13
 1846 0337 63040000 		.4byte	.LASF26
 1847 033b 01       		.byte	0x1
 1848 033c EF       		.byte	0xef
 1849 033d 6B000000 		.4byte	0x6b
 1850 0341 48000000 		.4byte	.LLST2
 1851 0345 14       		.uleb128 0x14
 1852 0346 09050000 		.4byte	.LASF52
 1853 034a 01       		.byte	0x1
 1854 034b F1       		.byte	0xf1
 1855 034c 6B000000 		.4byte	0x6b
 1856 0350 69000000 		.4byte	.LLST3
 1857 0354 15       		.uleb128 0x15
 1858 0355 72657300 		.ascii	"res\000"
 1859 0359 01       		.byte	0x1
 1860 035a F2       		.byte	0xf2
 1861 035b 6B000000 		.4byte	0x6b
 1862 035f 93000000 		.4byte	.LLST4
ARM GAS  C:\Users\student\AppData\Local\Temp\cckxTosa.s 			page 54


 1863 0363 14       		.uleb128 0x14
 1864 0364 C8050000 		.4byte	.LASF53
 1865 0368 01       		.byte	0x1
 1866 0369 F3       		.byte	0xf3
 1867 036a 6B000000 		.4byte	0x6b
 1868 036e BE000000 		.4byte	.LLST5
 1869 0372 00       		.byte	0
 1870 0373 12       		.uleb128 0x12
 1871 0374 29070000 		.4byte	.LASF55
 1872 0378 01       		.byte	0x1
 1873 0379 9B       		.byte	0x9b
 1874 037a 6B000000 		.4byte	0x6b
 1875 037e 00000000 		.4byte	.LFB0
 1876 0382 98000000 		.4byte	.LFE0-.LFB0
 1877 0386 01       		.uleb128 0x1
 1878 0387 9C       		.byte	0x9c
 1879 0388 CF030000 		.4byte	0x3cf
 1880 038c 14       		.uleb128 0x14
 1881 038d 70060000 		.4byte	.LASF56
 1882 0391 01       		.byte	0x1
 1883 0392 9D       		.byte	0x9d
 1884 0393 6B000000 		.4byte	0x6b
 1885 0397 D1000000 		.4byte	.LLST6
 1886 039b 14       		.uleb128 0x14
 1887 039c 09050000 		.4byte	.LASF52
 1888 03a0 01       		.byte	0x1
 1889 03a1 9E       		.byte	0x9e
 1890 03a2 6B000000 		.4byte	0x6b
 1891 03a6 35010000 		.4byte	.LLST7
 1892 03aa 16       		.uleb128 0x16
 1893 03ab 0A000000 		.4byte	.LVL18
 1894 03af 1D030000 		.4byte	0x31d
 1895 03b3 16       		.uleb128 0x16
 1896 03b4 2E000000 		.4byte	.LVL20
 1897 03b8 740A0000 		.4byte	0xa74
 1898 03bc 16       		.uleb128 0x16
 1899 03bd 5E000000 		.4byte	.LVL22
 1900 03c1 7F0A0000 		.4byte	0xa7f
 1901 03c5 16       		.uleb128 0x16
 1902 03c6 78000000 		.4byte	.LVL24
 1903 03ca 8A0A0000 		.4byte	0xa8a
 1904 03ce 00       		.byte	0
 1905 03cf 17       		.uleb128 0x17
 1906 03d0 31060000 		.4byte	.LASF57
 1907 03d4 01       		.byte	0x1
 1908 03d5 2501     		.2byte	0x125
 1909 03d7 6B000000 		.4byte	0x6b
 1910 03db 00000000 		.4byte	.LFB2
 1911 03df 98000000 		.4byte	.LFE2-.LFB2
 1912 03e3 01       		.uleb128 0x1
 1913 03e4 9C       		.byte	0x9c
 1914 03e5 23040000 		.4byte	0x423
 1915 03e9 18       		.uleb128 0x18
 1916 03ea 09050000 		.4byte	.LASF52
 1917 03ee 01       		.byte	0x1
 1918 03ef 2701     		.2byte	0x127
 1919 03f1 6B000000 		.4byte	0x6b
ARM GAS  C:\Users\student\AppData\Local\Temp\cckxTosa.s 			page 55


 1920 03f5 74010000 		.4byte	.LLST8
 1921 03f9 18       		.uleb128 0x18
 1922 03fa A5050000 		.4byte	.LASF58
 1923 03fe 01       		.byte	0x1
 1924 03ff 2801     		.2byte	0x128
 1925 0401 6B000000 		.4byte	0x6b
 1926 0405 9E010000 		.4byte	.LLST9
 1927 0409 10       		.uleb128 0x10
 1928 040a 72657400 		.ascii	"ret\000"
 1929 040e 01       		.byte	0x1
 1930 040f 2901     		.2byte	0x129
 1931 0411 6B000000 		.4byte	0x6b
 1932 0415 B1010000 		.4byte	.LLST10
 1933 0419 16       		.uleb128 0x16
 1934 041a 22000000 		.4byte	.LVL33
 1935 041e 950A0000 		.4byte	0xa95
 1936 0422 00       		.byte	0
 1937 0423 19       		.uleb128 0x19
 1938 0424 BF010000 		.4byte	.LASF60
 1939 0428 01       		.byte	0x1
 1940 0429 6601     		.2byte	0x166
 1941 042b 00000000 		.4byte	.LFB3
 1942 042f 4C000000 		.4byte	.LFE3-.LFB3
 1943 0433 01       		.uleb128 0x1
 1944 0434 9C       		.byte	0x9c
 1945 0435 99040000 		.4byte	0x499
 1946 0439 0F       		.uleb128 0xf
 1947 043a C2020000 		.4byte	.LASF36
 1948 043e 01       		.byte	0x1
 1949 043f 6601     		.2byte	0x166
 1950 0441 99040000 		.4byte	0x499
 1951 0445 D0010000 		.4byte	.LLST11
 1952 0449 0F       		.uleb128 0xf
 1953 044a F5060000 		.4byte	.LASF33
 1954 044e 01       		.byte	0x1
 1955 044f 6601     		.2byte	0x166
 1956 0451 77000000 		.4byte	0x77
 1957 0455 FC010000 		.4byte	.LLST12
 1958 0459 18       		.uleb128 0x18
 1959 045a 4E030000 		.4byte	.LASF59
 1960 045e 01       		.byte	0x1
 1961 045f 6801     		.2byte	0x168
 1962 0461 6B000000 		.4byte	0x6b
 1963 0465 1A020000 		.4byte	.LLST13
 1964 0469 1A       		.uleb128 0x1a
 1965 046a 34000000 		.4byte	.LVL48
 1966 046e A70A0000 		.4byte	0xaa7
 1967 0472 7C040000 		.4byte	0x47c
 1968 0476 1B       		.uleb128 0x1b
 1969 0477 01       		.uleb128 0x1
 1970 0478 50       		.byte	0x50
 1971 0479 01       		.uleb128 0x1
 1972 047a 30       		.byte	0x30
 1973 047b 00       		.byte	0
 1974 047c 1C       		.uleb128 0x1c
 1975 047d 3E000000 		.4byte	.LVL49
 1976 0481 B80A0000 		.4byte	0xab8
ARM GAS  C:\Users\student\AppData\Local\Temp\cckxTosa.s 			page 56


 1977 0485 1B       		.uleb128 0x1b
 1978 0486 01       		.uleb128 0x1
 1979 0487 52       		.byte	0x52
 1980 0488 02       		.uleb128 0x2
 1981 0489 75       		.byte	0x75
 1982 048a 00       		.sleb128 0
 1983 048b 1B       		.uleb128 0x1b
 1984 048c 01       		.uleb128 0x1
 1985 048d 51       		.byte	0x51
 1986 048e 02       		.uleb128 0x2
 1987 048f 76       		.byte	0x76
 1988 0490 00       		.sleb128 0
 1989 0491 1B       		.uleb128 0x1b
 1990 0492 01       		.uleb128 0x1
 1991 0493 50       		.byte	0x50
 1992 0494 02       		.uleb128 0x2
 1993 0495 74       		.byte	0x74
 1994 0496 00       		.sleb128 0
 1995 0497 00       		.byte	0
 1996 0498 00       		.byte	0
 1997 0499 09       		.uleb128 0x9
 1998 049a 04       		.byte	0x4
 1999 049b 9F040000 		.4byte	0x49f
 2000 049f 11       		.uleb128 0x11
 2001 04a0 6B000000 		.4byte	0x6b
 2002 04a4 19       		.uleb128 0x19
 2003 04a5 3A050000 		.4byte	.LASF61
 2004 04a9 01       		.byte	0x1
 2005 04aa A901     		.2byte	0x1a9
 2006 04ac 00000000 		.4byte	.LFB5
 2007 04b0 9C000000 		.4byte	.LFE5-.LFB5
 2008 04b4 01       		.uleb128 0x1
 2009 04b5 9C       		.byte	0x9c
 2010 04b6 5C050000 		.4byte	0x55c
 2011 04ba 0F       		.uleb128 0xf
 2012 04bb 5D000000 		.4byte	.LASF51
 2013 04bf 01       		.byte	0x1
 2014 04c0 A901     		.2byte	0x1a9
 2015 04c2 12030000 		.4byte	0x312
 2016 04c6 2D020000 		.4byte	.LLST14
 2017 04ca 18       		.uleb128 0x18
 2018 04cb 27060000 		.4byte	.LASF62
 2019 04cf 01       		.byte	0x1
 2020 04d0 AB01     		.2byte	0x1ab
 2021 04d2 77000000 		.4byte	0x77
 2022 04d6 59020000 		.4byte	.LLST15
 2023 04da 18       		.uleb128 0x18
 2024 04db 82070000 		.4byte	.LASF63
 2025 04df 01       		.byte	0x1
 2026 04e0 AC01     		.2byte	0x1ac
 2027 04e2 77000000 		.4byte	0x77
 2028 04e6 77020000 		.4byte	.LLST16
 2029 04ea 18       		.uleb128 0x18
 2030 04eb 25040000 		.4byte	.LASF64
 2031 04ef 01       		.byte	0x1
 2032 04f0 AD01     		.2byte	0x1ad
 2033 04f2 77000000 		.4byte	0x77
ARM GAS  C:\Users\student\AppData\Local\Temp\cckxTosa.s 			page 57


 2034 04f6 8A020000 		.4byte	.LLST17
 2035 04fa 18       		.uleb128 0x18
 2036 04fb 4E030000 		.4byte	.LASF59
 2037 04ff 01       		.byte	0x1
 2038 0500 AF01     		.2byte	0x1af
 2039 0502 6B000000 		.4byte	0x6b
 2040 0506 B4020000 		.4byte	.LLST18
 2041 050a 1A       		.uleb128 0x1a
 2042 050b 14000000 		.4byte	.LVL54
 2043 050f D7020000 		.4byte	0x2d7
 2044 0513 1E050000 		.4byte	0x51e
 2045 0517 1B       		.uleb128 0x1b
 2046 0518 01       		.uleb128 0x1
 2047 0519 50       		.byte	0x50
 2048 051a 02       		.uleb128 0x2
 2049 051b 78       		.byte	0x78
 2050 051c 00       		.sleb128 0
 2051 051d 00       		.byte	0
 2052 051e 1A       		.uleb128 0x1a
 2053 051f 4C000000 		.4byte	.LVL58
 2054 0523 B80A0000 		.4byte	0xab8
 2055 0527 41050000 		.4byte	0x541
 2056 052b 1B       		.uleb128 0x1b
 2057 052c 01       		.uleb128 0x1
 2058 052d 52       		.byte	0x52
 2059 052e 02       		.uleb128 0x2
 2060 052f 79       		.byte	0x79
 2061 0530 00       		.sleb128 0
 2062 0531 1B       		.uleb128 0x1b
 2063 0532 01       		.uleb128 0x1
 2064 0533 51       		.byte	0x51
 2065 0534 05       		.uleb128 0x5
 2066 0535 78       		.byte	0x78
 2067 0536 00       		.sleb128 0
 2068 0537 77       		.byte	0x77
 2069 0538 00       		.sleb128 0
 2070 0539 22       		.byte	0x22
 2071 053a 1B       		.uleb128 0x1b
 2072 053b 01       		.uleb128 0x1
 2073 053c 50       		.byte	0x50
 2074 053d 02       		.uleb128 0x2
 2075 053e 74       		.byte	0x74
 2076 053f 00       		.sleb128 0
 2077 0540 00       		.byte	0
 2078 0541 1C       		.uleb128 0x1c
 2079 0542 88000000 		.4byte	.LVL63
 2080 0546 B80A0000 		.4byte	0xab8
 2081 054a 1B       		.uleb128 0x1b
 2082 054b 01       		.uleb128 0x1
 2083 054c 52       		.byte	0x52
 2084 054d 01       		.uleb128 0x1
 2085 054e 30       		.byte	0x30
 2086 054f 1B       		.uleb128 0x1b
 2087 0550 01       		.uleb128 0x1
 2088 0551 51       		.byte	0x51
 2089 0552 01       		.uleb128 0x1
 2090 0553 30       		.byte	0x30
ARM GAS  C:\Users\student\AppData\Local\Temp\cckxTosa.s 			page 58


 2091 0554 1B       		.uleb128 0x1b
 2092 0555 01       		.uleb128 0x1
 2093 0556 50       		.byte	0x50
 2094 0557 02       		.uleb128 0x2
 2095 0558 74       		.byte	0x74
 2096 0559 00       		.sleb128 0
 2097 055a 00       		.byte	0
 2098 055b 00       		.byte	0
 2099 055c 19       		.uleb128 0x19
 2100 055d 52050000 		.4byte	.LASF65
 2101 0561 01       		.byte	0x1
 2102 0562 E801     		.2byte	0x1e8
 2103 0564 00000000 		.4byte	.LFB6
 2104 0568 28000000 		.4byte	.LFE6-.LFB6
 2105 056c 01       		.uleb128 0x1
 2106 056d 9C       		.byte	0x9c
 2107 056e A7050000 		.4byte	0x5a7
 2108 0572 0F       		.uleb128 0xf
 2109 0573 49000000 		.4byte	.LASF66
 2110 0577 01       		.byte	0x1
 2111 0578 E801     		.2byte	0x1e8
 2112 057a 9D000000 		.4byte	0x9d
 2113 057e C7020000 		.4byte	.LLST19
 2114 0582 1D       		.uleb128 0x1d
 2115 0583 54000000 		.4byte	.LASF67
 2116 0587 01       		.byte	0x1
 2117 0588 EA01     		.2byte	0x1ea
 2118 058a 6B000000 		.4byte	0x6b
 2119 058e 02       		.uleb128 0x2
 2120 058f 91       		.byte	0x91
 2121 0590 77       		.sleb128 -9
 2122 0591 1C       		.uleb128 0x1c
 2123 0592 18000000 		.4byte	.LVL67
 2124 0596 B80A0000 		.4byte	0xab8
 2125 059a 1B       		.uleb128 0x1b
 2126 059b 01       		.uleb128 0x1
 2127 059c 52       		.byte	0x52
 2128 059d 01       		.uleb128 0x1
 2129 059e 31       		.byte	0x31
 2130 059f 1B       		.uleb128 0x1b
 2131 05a0 01       		.uleb128 0x1
 2132 05a1 51       		.byte	0x51
 2133 05a2 02       		.uleb128 0x2
 2134 05a3 91       		.byte	0x91
 2135 05a4 77       		.sleb128 -9
 2136 05a5 00       		.byte	0
 2137 05a6 00       		.byte	0
 2138 05a7 19       		.uleb128 0x19
 2139 05a8 05060000 		.4byte	.LASF68
 2140 05ac 01       		.byte	0x1
 2141 05ad 0102     		.2byte	0x201
 2142 05af 00000000 		.4byte	.LFB7
 2143 05b3 30000000 		.4byte	.LFE7-.LFB7
 2144 05b7 01       		.uleb128 0x1
 2145 05b8 9C       		.byte	0x9c
 2146 05b9 E2050000 		.4byte	0x5e2
 2147 05bd 1D       		.uleb128 0x1d
ARM GAS  C:\Users\student\AppData\Local\Temp\cckxTosa.s 			page 59


 2148 05be A0070000 		.4byte	.LASF69
 2149 05c2 01       		.byte	0x1
 2150 05c3 0302     		.2byte	0x203
 2151 05c5 F2050000 		.4byte	0x5f2
 2152 05c9 02       		.uleb128 0x2
 2153 05ca 91       		.byte	0x91
 2154 05cb 74       		.sleb128 -12
 2155 05cc 1C       		.uleb128 0x1c
 2156 05cd 1C000000 		.4byte	.LVL68
 2157 05d1 B80A0000 		.4byte	0xab8
 2158 05d5 1B       		.uleb128 0x1b
 2159 05d6 01       		.uleb128 0x1
 2160 05d7 52       		.byte	0x52
 2161 05d8 01       		.uleb128 0x1
 2162 05d9 32       		.byte	0x32
 2163 05da 1B       		.uleb128 0x1b
 2164 05db 01       		.uleb128 0x1
 2165 05dc 51       		.byte	0x51
 2166 05dd 02       		.uleb128 0x2
 2167 05de 91       		.byte	0x91
 2168 05df 74       		.sleb128 -12
 2169 05e0 00       		.byte	0
 2170 05e1 00       		.byte	0
 2171 05e2 0A       		.uleb128 0xa
 2172 05e3 6B000000 		.4byte	0x6b
 2173 05e7 F2050000 		.4byte	0x5f2
 2174 05eb 0B       		.uleb128 0xb
 2175 05ec BC000000 		.4byte	0xbc
 2176 05f0 01       		.byte	0x1
 2177 05f1 00       		.byte	0
 2178 05f2 11       		.uleb128 0x11
 2179 05f3 E2050000 		.4byte	0x5e2
 2180 05f7 17       		.uleb128 0x17
 2181 05f8 BE040000 		.4byte	.LASF70
 2182 05fc 01       		.byte	0x1
 2183 05fd 1B02     		.2byte	0x21b
 2184 05ff 77000000 		.4byte	0x77
 2185 0603 00000000 		.4byte	.LFB8
 2186 0607 34000000 		.4byte	.LFE8-.LFB8
 2187 060b 01       		.uleb128 0x1
 2188 060c 9C       		.byte	0x9c
 2189 060d 3B060000 		.4byte	0x63b
 2190 0611 18       		.uleb128 0x18
 2191 0612 52010000 		.4byte	.LASF71
 2192 0616 01       		.byte	0x1
 2193 0617 1D02     		.2byte	0x21d
 2194 0619 77000000 		.4byte	0x77
 2195 061d F4020000 		.4byte	.LLST20
 2196 0621 18       		.uleb128 0x18
 2197 0622 4E030000 		.4byte	.LASF59
 2198 0626 01       		.byte	0x1
 2199 0627 1F02     		.2byte	0x21f
 2200 0629 6B000000 		.4byte	0x6b
 2201 062d 12030000 		.4byte	.LLST21
 2202 0631 16       		.uleb128 0x16
 2203 0632 22000000 		.4byte	.LVL70
 2204 0636 D40A0000 		.4byte	0xad4
ARM GAS  C:\Users\student\AppData\Local\Temp\cckxTosa.s 			page 60


 2205 063a 00       		.byte	0
 2206 063b 17       		.uleb128 0x17
 2207 063c 28030000 		.4byte	.LASF72
 2208 0640 01       		.byte	0x1
 2209 0641 4102     		.2byte	0x241
 2210 0643 6B000000 		.4byte	0x6b
 2211 0647 00000000 		.4byte	.LFB9
 2212 064b 18000000 		.4byte	.LFE9-.LFB9
 2213 064f 01       		.uleb128 0x1
 2214 0650 9C       		.byte	0x9c
 2215 0651 5F060000 		.4byte	0x65f
 2216 0655 16       		.uleb128 0x16
 2217 0656 0E000000 		.4byte	.LVL73
 2218 065a EA0A0000 		.4byte	0xaea
 2219 065e 00       		.byte	0
 2220 065f 17       		.uleb128 0x17
 2221 0660 75010000 		.4byte	.LASF73
 2222 0664 01       		.byte	0x1
 2223 0665 5A02     		.2byte	0x25a
 2224 0667 6B000000 		.4byte	0x6b
 2225 066b 00000000 		.4byte	.LFB10
 2226 066f 18000000 		.4byte	.LFE10-.LFB10
 2227 0673 01       		.uleb128 0x1
 2228 0674 9C       		.byte	0x9c
 2229 0675 83060000 		.4byte	0x683
 2230 0679 16       		.uleb128 0x16
 2231 067a 0E000000 		.4byte	.LVL74
 2232 067e EA0A0000 		.4byte	0xaea
 2233 0682 00       		.byte	0
 2234 0683 17       		.uleb128 0x17
 2235 0684 D6060000 		.4byte	.LASF74
 2236 0688 01       		.byte	0x1
 2237 0689 7D02     		.2byte	0x27d
 2238 068b 77000000 		.4byte	0x77
 2239 068f 00000000 		.4byte	.LFB11
 2240 0693 20000000 		.4byte	.LFE11-.LFB11
 2241 0697 01       		.uleb128 0x1
 2242 0698 9C       		.byte	0x9c
 2243 0699 DF060000 		.4byte	0x6df
 2244 069d 0F       		.uleb128 0xf
 2245 069e C2020000 		.4byte	.LASF36
 2246 06a2 01       		.byte	0x1
 2247 06a3 7D02     		.2byte	0x27d
 2248 06a5 DF060000 		.4byte	0x6df
 2249 06a9 30030000 		.4byte	.LLST22
 2250 06ad 0F       		.uleb128 0xf
 2251 06ae F5060000 		.4byte	.LASF33
 2252 06b2 01       		.byte	0x1
 2253 06b3 7D02     		.2byte	0x27d
 2254 06b5 77000000 		.4byte	0x77
 2255 06b9 5C030000 		.4byte	.LLST23
 2256 06bd 18       		.uleb128 0x18
 2257 06be 4E030000 		.4byte	.LASF59
 2258 06c2 01       		.byte	0x1
 2259 06c3 7F02     		.2byte	0x27f
 2260 06c5 6B000000 		.4byte	0x6b
 2261 06c9 88030000 		.4byte	.LLST24
ARM GAS  C:\Users\student\AppData\Local\Temp\cckxTosa.s 			page 61


 2262 06cd 1C       		.uleb128 0x1c
 2263 06ce 14000000 		.4byte	.LVL79
 2264 06d2 000B0000 		.4byte	0xb00
 2265 06d6 1B       		.uleb128 0x1b
 2266 06d7 01       		.uleb128 0x1
 2267 06d8 51       		.byte	0x51
 2268 06d9 03       		.uleb128 0x3
 2269 06da F3       		.byte	0xf3
 2270 06db 01       		.uleb128 0x1
 2271 06dc 50       		.byte	0x50
 2272 06dd 00       		.byte	0
 2273 06de 00       		.byte	0
 2274 06df 09       		.uleb128 0x9
 2275 06e0 04       		.byte	0x4
 2276 06e1 6B000000 		.4byte	0x6b
 2277 06e5 17       		.uleb128 0x17
 2278 06e6 2E040000 		.4byte	.LASF75
 2279 06ea 01       		.byte	0x1
 2280 06eb AA02     		.2byte	0x2aa
 2281 06ed 77000000 		.4byte	0x77
 2282 06f1 00000000 		.4byte	.LFB12
 2283 06f5 30000000 		.4byte	.LFE12-.LFB12
 2284 06f9 01       		.uleb128 0x1
 2285 06fa 9C       		.byte	0x9c
 2286 06fb 3F070000 		.4byte	0x73f
 2287 06ff 0F       		.uleb128 0xf
 2288 0700 C2020000 		.4byte	.LASF36
 2289 0704 01       		.byte	0x1
 2290 0705 AA02     		.2byte	0x2aa
 2291 0707 DF060000 		.4byte	0x6df
 2292 070b 9B030000 		.4byte	.LLST25
 2293 070f 18       		.uleb128 0x18
 2294 0710 4E030000 		.4byte	.LASF59
 2295 0714 01       		.byte	0x1
 2296 0715 AC02     		.2byte	0x2ac
 2297 0717 6B000000 		.4byte	0x6b
 2298 071b C7030000 		.4byte	.LLST26
 2299 071f 1D       		.uleb128 0x1d
 2300 0720 13020000 		.4byte	.LASF76
 2301 0724 01       		.byte	0x1
 2302 0725 AD02     		.2byte	0x2ad
 2303 0727 77000000 		.4byte	0x77
 2304 072b 01       		.uleb128 0x1
 2305 072c 50       		.byte	0x50
 2306 072d 1C       		.uleb128 0x1c
 2307 072e 20000000 		.4byte	.LVL83
 2308 0732 000B0000 		.4byte	0xb00
 2309 0736 1B       		.uleb128 0x1b
 2310 0737 01       		.uleb128 0x1
 2311 0738 51       		.byte	0x51
 2312 0739 03       		.uleb128 0x3
 2313 073a F3       		.byte	0xf3
 2314 073b 01       		.uleb128 0x1
 2315 073c 50       		.byte	0x50
 2316 073d 00       		.byte	0
 2317 073e 00       		.byte	0
 2318 073f 17       		.uleb128 0x17
ARM GAS  C:\Users\student\AppData\Local\Temp\cckxTosa.s 			page 62


 2319 0740 AF010000 		.4byte	.LASF77
 2320 0744 01       		.byte	0x1
 2321 0745 D102     		.2byte	0x2d1
 2322 0747 6B000000 		.4byte	0x6b
 2323 074b 00000000 		.4byte	.LFB13
 2324 074f 28000000 		.4byte	.LFE13-.LFB13
 2325 0753 01       		.uleb128 0x1
 2326 0754 9C       		.byte	0x9c
 2327 0755 8E070000 		.4byte	0x78e
 2328 0759 1D       		.uleb128 0x1d
 2329 075a 20060000 		.4byte	.LASF78
 2330 075e 01       		.byte	0x1
 2331 075f D302     		.2byte	0x2d3
 2332 0761 6B000000 		.4byte	0x6b
 2333 0765 02       		.uleb128 0x2
 2334 0766 91       		.byte	0x91
 2335 0767 77       		.sleb128 -9
 2336 0768 18       		.uleb128 0x18
 2337 0769 4E030000 		.4byte	.LASF59
 2338 076d 01       		.byte	0x1
 2339 076e D402     		.2byte	0x2d4
 2340 0770 6B000000 		.4byte	0x6b
 2341 0774 DA030000 		.4byte	.LLST27
 2342 0778 1C       		.uleb128 0x1c
 2343 0779 16000000 		.4byte	.LVL85
 2344 077d 000B0000 		.4byte	0xb00
 2345 0781 1B       		.uleb128 0x1b
 2346 0782 01       		.uleb128 0x1
 2347 0783 52       		.byte	0x52
 2348 0784 01       		.uleb128 0x1
 2349 0785 31       		.byte	0x31
 2350 0786 1B       		.uleb128 0x1b
 2351 0787 01       		.uleb128 0x1
 2352 0788 51       		.byte	0x51
 2353 0789 02       		.uleb128 0x2
 2354 078a 91       		.byte	0x91
 2355 078b 77       		.sleb128 -9
 2356 078c 00       		.byte	0
 2357 078d 00       		.byte	0
 2358 078e 17       		.uleb128 0x17
 2359 078f 05030000 		.4byte	.LASF79
 2360 0793 01       		.byte	0x1
 2361 0794 0203     		.2byte	0x302
 2362 0796 6B000000 		.4byte	0x6b
 2363 079a 00000000 		.4byte	.LFB14
 2364 079e 38000000 		.4byte	.LFE14-.LFB14
 2365 07a2 01       		.uleb128 0x1
 2366 07a3 9C       		.byte	0x9c
 2367 07a4 B9070000 		.4byte	0x7b9
 2368 07a8 18       		.uleb128 0x18
 2369 07a9 88010000 		.4byte	.LASF80
 2370 07ad 01       		.byte	0x1
 2371 07ae 0403     		.2byte	0x304
 2372 07b0 6B000000 		.4byte	0x6b
 2373 07b4 ED030000 		.4byte	.LLST28
 2374 07b8 00       		.byte	0
 2375 07b9 17       		.uleb128 0x17
ARM GAS  C:\Users\student\AppData\Local\Temp\cckxTosa.s 			page 63


 2376 07ba F2020000 		.4byte	.LASF81
 2377 07be 01       		.byte	0x1
 2378 07bf 2303     		.2byte	0x323
 2379 07c1 83000000 		.4byte	0x83
 2380 07c5 00000000 		.4byte	.LFB15
 2381 07c9 30000000 		.4byte	.LFE15-.LFB15
 2382 07cd 01       		.uleb128 0x1
 2383 07ce 9C       		.byte	0x9c
 2384 07cf E4070000 		.4byte	0x7e4
 2385 07d3 18       		.uleb128 0x18
 2386 07d4 39010000 		.4byte	.LASF82
 2387 07d8 01       		.byte	0x1
 2388 07d9 2503     		.2byte	0x325
 2389 07db 83000000 		.4byte	0x83
 2390 07df 23040000 		.4byte	.LLST29
 2391 07e3 00       		.byte	0
 2392 07e4 1E       		.uleb128 0x1e
 2393 07e5 8F000000 		.4byte	.LASF83
 2394 07e9 01       		.byte	0x1
 2395 07ea 4303     		.2byte	0x343
 2396 07ec 6B000000 		.4byte	0x6b
 2397 07f0 00000000 		.4byte	.LFB16
 2398 07f4 18000000 		.4byte	.LFE16-.LFB16
 2399 07f8 01       		.uleb128 0x1
 2400 07f9 9C       		.byte	0x9c
 2401 07fa 1E       		.uleb128 0x1e
 2402 07fb F0030000 		.4byte	.LASF84
 2403 07ff 01       		.byte	0x1
 2404 0800 5D03     		.2byte	0x35d
 2405 0802 6B000000 		.4byte	0x6b
 2406 0806 00000000 		.4byte	.LFB17
 2407 080a 18000000 		.4byte	.LFE17-.LFB17
 2408 080e 01       		.uleb128 0x1
 2409 080f 9C       		.byte	0x9c
 2410 0810 1E       		.uleb128 0x1e
 2411 0811 11050000 		.4byte	.LASF85
 2412 0815 01       		.byte	0x1
 2413 0816 7103     		.2byte	0x371
 2414 0818 6B000000 		.4byte	0x6b
 2415 081c 00000000 		.4byte	.LFB18
 2416 0820 18000000 		.4byte	.LFE18-.LFB18
 2417 0824 01       		.uleb128 0x1
 2418 0825 9C       		.byte	0x9c
 2419 0826 1E       		.uleb128 0x1e
 2420 0827 1E020000 		.4byte	.LASF86
 2421 082b 01       		.byte	0x1
 2422 082c 8E03     		.2byte	0x38e
 2423 082e 77000000 		.4byte	0x77
 2424 0832 00000000 		.4byte	.LFB19
 2425 0836 18000000 		.4byte	.LFE19-.LFB19
 2426 083a 01       		.uleb128 0x1
 2427 083b 9C       		.byte	0x9c
 2428 083c 19       		.uleb128 0x19
 2429 083d CF040000 		.4byte	.LASF87
 2430 0841 01       		.byte	0x1
 2431 0842 A603     		.2byte	0x3a6
 2432 0844 00000000 		.4byte	.LFB20
ARM GAS  C:\Users\student\AppData\Local\Temp\cckxTosa.s 			page 64


 2433 0848 64000000 		.4byte	.LFE20-.LFB20
 2434 084c 01       		.uleb128 0x1
 2435 084d 9C       		.byte	0x9c
 2436 084e 8B080000 		.4byte	0x88b
 2437 0852 0F       		.uleb128 0xf
 2438 0853 19040000 		.4byte	.LASF88
 2439 0857 01       		.byte	0x1
 2440 0858 A603     		.2byte	0x3a6
 2441 085a 77000000 		.4byte	0x77
 2442 085e 6E040000 		.4byte	.LLST30
 2443 0862 18       		.uleb128 0x18
 2444 0863 4E030000 		.4byte	.LASF59
 2445 0867 01       		.byte	0x1
 2446 0868 A803     		.2byte	0x3a8
 2447 086a 6B000000 		.4byte	0x6b
 2448 086e B4040000 		.4byte	.LLST31
 2449 0872 1C       		.uleb128 0x1c
 2450 0873 4E000000 		.4byte	.LVL99
 2451 0877 B80A0000 		.4byte	0xab8
 2452 087b 1B       		.uleb128 0x1b
 2453 087c 01       		.uleb128 0x1
 2454 087d 52       		.byte	0x52
 2455 087e 01       		.uleb128 0x1
 2456 087f 3A       		.byte	0x3a
 2457 0880 1B       		.uleb128 0x1b
 2458 0881 01       		.uleb128 0x1
 2459 0882 51       		.byte	0x51
 2460 0883 05       		.uleb128 0x5
 2461 0884 03       		.byte	0x3
 2462 0885 10000000 		.4byte	.LANCHOR0+16
 2463 0889 00       		.byte	0
 2464 088a 00       		.byte	0
 2465 088b 1E       		.uleb128 0x1e
 2466 088c A7070000 		.4byte	.LASF89
 2467 0890 01       		.byte	0x1
 2468 0891 C703     		.2byte	0x3c7
 2469 0893 77000000 		.4byte	0x77
 2470 0897 00000000 		.4byte	.LFB21
 2471 089b 18000000 		.4byte	.LFE21-.LFB21
 2472 089f 01       		.uleb128 0x1
 2473 08a0 9C       		.byte	0x9c
 2474 08a1 1E       		.uleb128 0x1e
 2475 08a2 D6020000 		.4byte	.LASF90
 2476 08a6 01       		.byte	0x1
 2477 08a7 DF03     		.2byte	0x3df
 2478 08a9 6B000000 		.4byte	0x6b
 2479 08ad 00000000 		.4byte	.LFB22
 2480 08b1 24000000 		.4byte	.LFE22-.LFB22
 2481 08b5 01       		.uleb128 0x1
 2482 08b6 9C       		.byte	0x9c
 2483 08b7 19       		.uleb128 0x19
 2484 08b8 42060000 		.4byte	.LASF91
 2485 08bc 01       		.byte	0x1
 2486 08bd F703     		.2byte	0x3f7
 2487 08bf 00000000 		.4byte	.LFB23
 2488 08c3 18000000 		.4byte	.LFE23-.LFB23
 2489 08c7 01       		.uleb128 0x1
ARM GAS  C:\Users\student\AppData\Local\Temp\cckxTosa.s 			page 65


 2490 08c8 9C       		.byte	0x9c
 2491 08c9 DC080000 		.4byte	0x8dc
 2492 08cd 1F       		.uleb128 0x1f
 2493 08ce 94050000 		.4byte	.LASF92
 2494 08d2 01       		.byte	0x1
 2495 08d3 F703     		.2byte	0x3f7
 2496 08d5 6B000000 		.4byte	0x6b
 2497 08d9 01       		.uleb128 0x1
 2498 08da 50       		.byte	0x50
 2499 08db 00       		.byte	0
 2500 08dc 1E       		.uleb128 0x1e
 2501 08dd 13000000 		.4byte	.LASF93
 2502 08e1 01       		.byte	0x1
 2503 08e2 1004     		.2byte	0x410
 2504 08e4 6B000000 		.4byte	0x6b
 2505 08e8 00000000 		.4byte	.LFB24
 2506 08ec 0C000000 		.4byte	.LFE24-.LFB24
 2507 08f0 01       		.uleb128 0x1
 2508 08f1 9C       		.byte	0x9c
 2509 08f2 17       		.uleb128 0x17
 2510 08f3 8D070000 		.4byte	.LASF94
 2511 08f7 01       		.byte	0x1
 2512 08f8 2F04     		.2byte	0x42f
 2513 08fa 6B000000 		.4byte	0x6b
 2514 08fe 00000000 		.4byte	.LFB25
 2515 0902 50000000 		.4byte	.LFE25-.LFB25
 2516 0906 01       		.uleb128 0x1
 2517 0907 9C       		.byte	0x9c
 2518 0908 4B090000 		.4byte	0x94b
 2519 090c 20       		.uleb128 0x20
 2520 090d 70455000 		.ascii	"pEP\000"
 2521 0911 01       		.byte	0x1
 2522 0912 2F04     		.2byte	0x42f
 2523 0914 4B090000 		.4byte	0x94b
 2524 0918 C7040000 		.4byte	.LLST32
 2525 091c 1F       		.uleb128 0x1f
 2526 091d CE000000 		.4byte	.LASF95
 2527 0921 01       		.byte	0x1
 2528 0922 2F04     		.2byte	0x42f
 2529 0924 6B000000 		.4byte	0x6b
 2530 0928 01       		.uleb128 0x1
 2531 0929 51       		.byte	0x51
 2532 092a 0F       		.uleb128 0xf
 2533 092b 61070000 		.4byte	.LASF96
 2534 092f 01       		.byte	0x1
 2535 0930 2F04     		.2byte	0x42f
 2536 0932 6B000000 		.4byte	0x6b
 2537 0936 E8040000 		.4byte	.LLST33
 2538 093a 18       		.uleb128 0x18
 2539 093b CF020000 		.4byte	.LASF97
 2540 093f 01       		.byte	0x1
 2541 0940 3104     		.2byte	0x431
 2542 0942 6B000000 		.4byte	0x6b
 2543 0946 06050000 		.4byte	.LLST34
 2544 094a 00       		.byte	0
 2545 094b 09       		.uleb128 0x9
 2546 094c 04       		.byte	0x4
ARM GAS  C:\Users\student\AppData\Local\Temp\cckxTosa.s 			page 66


 2547 094d 51090000 		.4byte	0x951
 2548 0951 11       		.uleb128 0x11
 2549 0952 94010000 		.4byte	0x194
 2550 0956 21       		.uleb128 0x21
 2551 0957 E5050000 		.4byte	.LASF98
 2552 095b 01       		.byte	0x1
 2553 095c 67       		.byte	0x67
 2554 095d CB020000 		.4byte	0x2cb
 2555 0961 05       		.uleb128 0x5
 2556 0962 03       		.byte	0x3
 2557 0963 10000000 		.4byte	USBUART_serialStateNotification
 2558 0967 21       		.uleb128 0x21
 2559 0968 6D040000 		.4byte	.LASF99
 2560 096c 01       		.byte	0x1
 2561 096d 75       		.byte	0x75
 2562 096e 6B000000 		.4byte	0x6b
 2563 0972 05       		.uleb128 0x5
 2564 0973 03       		.byte	0x3
 2565 0974 00000000 		.4byte	USBUART_activeCom
 2566 0978 22       		.uleb128 0x22
 2567 0979 6C070000 		.4byte	.LASF100
 2568 097d 03       		.byte	0x3
 2569 097e D302     		.2byte	0x2d3
 2570 0980 B0000000 		.4byte	0xb0
 2571 0984 0A       		.uleb128 0xa
 2572 0985 6B000000 		.4byte	0x6b
 2573 0989 9A090000 		.4byte	0x99a
 2574 098d 0B       		.uleb128 0xb
 2575 098e BC000000 		.4byte	0xbc
 2576 0992 01       		.byte	0x1
 2577 0993 0B       		.uleb128 0xb
 2578 0994 BC000000 		.4byte	0xbc
 2579 0998 06       		.byte	0x6
 2580 0999 00       		.byte	0
 2581 099a 23       		.uleb128 0x23
 2582 099b 0B010000 		.4byte	.LASF101
 2583 099f 01       		.byte	0x1
 2584 09a0 24       		.byte	0x24
 2585 09a1 AB090000 		.4byte	0x9ab
 2586 09a5 05       		.uleb128 0x5
 2587 09a6 03       		.byte	0x3
 2588 09a7 00000000 		.4byte	USBUART_linesCoding
 2589 09ab 05       		.uleb128 0x5
 2590 09ac 84090000 		.4byte	0x984
 2591 09b0 23       		.uleb128 0x23
 2592 09b1 25050000 		.4byte	.LASF102
 2593 09b5 01       		.byte	0x1
 2594 09b6 3A       		.byte	0x3a
 2595 09b7 C1090000 		.4byte	0x9c1
 2596 09bb 05       		.uleb128 0x5
 2597 09bc 03       		.byte	0x3
 2598 09bd 00000000 		.4byte	USBUART_linesChanged
 2599 09c1 05       		.uleb128 0x5
 2600 09c2 E2050000 		.4byte	0x5e2
 2601 09c6 0A       		.uleb128 0xa
 2602 09c7 77000000 		.4byte	0x77
 2603 09cb D6090000 		.4byte	0x9d6
ARM GAS  C:\Users\student\AppData\Local\Temp\cckxTosa.s 			page 67


 2604 09cf 0B       		.uleb128 0xb
 2605 09d0 BC000000 		.4byte	0xbc
 2606 09d4 01       		.byte	0x1
 2607 09d5 00       		.byte	0
 2608 09d6 23       		.uleb128 0x23
 2609 09d7 92020000 		.4byte	.LASF103
 2610 09db 01       		.byte	0x1
 2611 09dc 40       		.byte	0x40
 2612 09dd E7090000 		.4byte	0x9e7
 2613 09e1 05       		.uleb128 0x5
 2614 09e2 03       		.byte	0x3
 2615 09e3 00000000 		.4byte	USBUART_linesControlBitmap
 2616 09e7 05       		.uleb128 0x5
 2617 09e8 C6090000 		.4byte	0x9c6
 2618 09ec 23       		.uleb128 0x23
 2619 09ed 75000000 		.4byte	.LASF104
 2620 09f1 01       		.byte	0x1
 2621 09f2 45       		.byte	0x45
 2622 09f3 FD090000 		.4byte	0x9fd
 2623 09f7 05       		.uleb128 0x5
 2624 09f8 03       		.byte	0x3
 2625 09f9 00000000 		.4byte	USBUART_serialStateBitmap
 2626 09fd 05       		.uleb128 0x5
 2627 09fe C6090000 		.4byte	0x9c6
 2628 0a02 23       		.uleb128 0x23
 2629 0a03 4F040000 		.4byte	.LASF105
 2630 0a07 01       		.byte	0x1
 2631 0a08 4A       		.byte	0x4a
 2632 0a09 130A0000 		.4byte	0xa13
 2633 0a0d 05       		.uleb128 0x5
 2634 0a0e 03       		.byte	0x3
 2635 0a0f 00000000 		.4byte	USBUART_cdcDataInEp
 2636 0a13 05       		.uleb128 0x5
 2637 0a14 E2050000 		.4byte	0x5e2
 2638 0a18 23       		.uleb128 0x23
 2639 0a19 AD020000 		.4byte	.LASF106
 2640 0a1d 01       		.byte	0x1
 2641 0a1e 4F       		.byte	0x4f
 2642 0a1f 290A0000 		.4byte	0xa29
 2643 0a23 05       		.uleb128 0x5
 2644 0a24 03       		.byte	0x3
 2645 0a25 00000000 		.4byte	USBUART_cdcDataOutEp
 2646 0a29 05       		.uleb128 0x5
 2647 0a2a E2050000 		.4byte	0x5e2
 2648 0a2e 23       		.uleb128 0x23
 2649 0a2f 35020000 		.4byte	.LASF107
 2650 0a33 01       		.byte	0x1
 2651 0a34 55       		.byte	0x55
 2652 0a35 3F0A0000 		.4byte	0xa3f
 2653 0a39 05       		.uleb128 0x5
 2654 0a3a 03       		.byte	0x3
 2655 0a3b 00000000 		.4byte	USBUART_cdcCommInInterruptEp
 2656 0a3f 05       		.uleb128 0x5
 2657 0a40 E2050000 		.4byte	0x5e2
 2658 0a44 0A       		.uleb128 0xa
 2659 0a45 38010000 		.4byte	0x138
 2660 0a49 540A0000 		.4byte	0xa54
ARM GAS  C:\Users\student\AppData\Local\Temp\cckxTosa.s 			page 68


 2661 0a4d 0B       		.uleb128 0xb
 2662 0a4e BC000000 		.4byte	0xbc
 2663 0a52 08       		.byte	0x8
 2664 0a53 00       		.byte	0
 2665 0a54 24       		.uleb128 0x24
 2666 0a55 E4000000 		.4byte	.LASF108
 2667 0a59 04       		.byte	0x4
 2668 0a5a 79       		.byte	0x79
 2669 0a5b 5F0A0000 		.4byte	0xa5f
 2670 0a5f 05       		.uleb128 0x5
 2671 0a60 440A0000 		.4byte	0xa44
 2672 0a64 24       		.uleb128 0x24
 2673 0a65 3D040000 		.4byte	.LASF109
 2674 0a69 04       		.byte	0x4
 2675 0a6a 7A       		.byte	0x7a
 2676 0a6b 6F0A0000 		.4byte	0xa6f
 2677 0a6f 05       		.uleb128 0x5
 2678 0a70 04020000 		.4byte	0x204
 2679 0a74 25       		.uleb128 0x25
 2680 0a75 5D010000 		.4byte	.LASF110
 2681 0a79 04       		.byte	0x4
 2682 0a7a A9       		.byte	0xa9
 2683 0a7b 6B000000 		.4byte	0x6b
 2684 0a7f 25       		.uleb128 0x25
 2685 0a80 9E040000 		.4byte	.LASF111
 2686 0a84 04       		.byte	0x4
 2687 0a85 AE       		.byte	0xae
 2688 0a86 6B000000 		.4byte	0x6b
 2689 0a8a 25       		.uleb128 0x25
 2690 0a8b E7040000 		.4byte	.LASF112
 2691 0a8f 04       		.byte	0x4
 2692 0a90 B3       		.byte	0xb3
 2693 0a91 6B000000 		.4byte	0x6b
 2694 0a95 26       		.uleb128 0x26
 2695 0a96 3E010000 		.4byte	.LASF113
 2696 0a9a 03       		.byte	0x3
 2697 0a9b 3601     		.2byte	0x136
 2698 0a9d A70A0000 		.4byte	0xaa7
 2699 0aa1 27       		.uleb128 0x27
 2700 0aa2 6B000000 		.4byte	0x6b
 2701 0aa6 00       		.byte	0
 2702 0aa7 28       		.uleb128 0x28
 2703 0aa8 7F050000 		.4byte	.LASF114
 2704 0aac 05       		.byte	0x5
 2705 0aad 7F       		.byte	0x7f
 2706 0aae B80A0000 		.4byte	0xab8
 2707 0ab2 27       		.uleb128 0x27
 2708 0ab3 6B000000 		.4byte	0x6b
 2709 0ab7 00       		.byte	0
 2710 0ab8 26       		.uleb128 0x26
 2711 0ab9 64000000 		.4byte	.LASF115
 2712 0abd 03       		.byte	0x3
 2713 0abe 3201     		.2byte	0x132
 2714 0ac0 D40A0000 		.4byte	0xad4
 2715 0ac4 27       		.uleb128 0x27
 2716 0ac5 6B000000 		.4byte	0x6b
 2717 0ac9 27       		.uleb128 0x27
ARM GAS  C:\Users\student\AppData\Local\Temp\cckxTosa.s 			page 69


 2718 0aca 99040000 		.4byte	0x499
 2719 0ace 27       		.uleb128 0x27
 2720 0acf 77000000 		.4byte	0x77
 2721 0ad3 00       		.byte	0
 2722 0ad4 29       		.uleb128 0x29
 2723 0ad5 C3060000 		.4byte	.LASF116
 2724 0ad9 03       		.byte	0x3
 2725 0ada 3101     		.2byte	0x131
 2726 0adc 77000000 		.4byte	0x77
 2727 0ae0 EA0A0000 		.4byte	0xaea
 2728 0ae4 27       		.uleb128 0x27
 2729 0ae5 6B000000 		.4byte	0x6b
 2730 0ae9 00       		.byte	0
 2731 0aea 29       		.uleb128 0x29
 2732 0aeb B5050000 		.4byte	.LASF117
 2733 0aef 03       		.byte	0x3
 2734 0af0 3001     		.2byte	0x130
 2735 0af2 6B000000 		.4byte	0x6b
 2736 0af6 000B0000 		.4byte	0xb00
 2737 0afa 27       		.uleb128 0x27
 2738 0afb 6B000000 		.4byte	0x6b
 2739 0aff 00       		.byte	0
 2740 0b00 2A       		.uleb128 0x2a
 2741 0b01 62050000 		.4byte	.LASF118
 2742 0b05 03       		.byte	0x3
 2743 0b06 3401     		.2byte	0x134
 2744 0b08 77000000 		.4byte	0x77
 2745 0b0c 27       		.uleb128 0x27
 2746 0b0d 6B000000 		.4byte	0x6b
 2747 0b11 27       		.uleb128 0x27
 2748 0b12 DF060000 		.4byte	0x6df
 2749 0b16 27       		.uleb128 0x27
 2750 0b17 77000000 		.4byte	0x77
 2751 0b1b 00       		.byte	0
 2752 0b1c 00       		.byte	0
 2753              		.section	.debug_abbrev,"",%progbits
 2754              	.Ldebug_abbrev0:
 2755 0000 01       		.uleb128 0x1
 2756 0001 11       		.uleb128 0x11
 2757 0002 01       		.byte	0x1
 2758 0003 25       		.uleb128 0x25
 2759 0004 0E       		.uleb128 0xe
 2760 0005 13       		.uleb128 0x13
 2761 0006 0B       		.uleb128 0xb
 2762 0007 03       		.uleb128 0x3
 2763 0008 0E       		.uleb128 0xe
 2764 0009 1B       		.uleb128 0x1b
 2765 000a 0E       		.uleb128 0xe
 2766 000b 55       		.uleb128 0x55
 2767 000c 17       		.uleb128 0x17
 2768 000d 11       		.uleb128 0x11
 2769 000e 01       		.uleb128 0x1
 2770 000f 10       		.uleb128 0x10
 2771 0010 17       		.uleb128 0x17
 2772 0011 00       		.byte	0
 2773 0012 00       		.byte	0
 2774 0013 02       		.uleb128 0x2
ARM GAS  C:\Users\student\AppData\Local\Temp\cckxTosa.s 			page 70


 2775 0014 24       		.uleb128 0x24
 2776 0015 00       		.byte	0
 2777 0016 0B       		.uleb128 0xb
 2778 0017 0B       		.uleb128 0xb
 2779 0018 3E       		.uleb128 0x3e
 2780 0019 0B       		.uleb128 0xb
 2781 001a 03       		.uleb128 0x3
 2782 001b 0E       		.uleb128 0xe
 2783 001c 00       		.byte	0
 2784 001d 00       		.byte	0
 2785 001e 03       		.uleb128 0x3
 2786 001f 24       		.uleb128 0x24
 2787 0020 00       		.byte	0
 2788 0021 0B       		.uleb128 0xb
 2789 0022 0B       		.uleb128 0xb
 2790 0023 3E       		.uleb128 0x3e
 2791 0024 0B       		.uleb128 0xb
 2792 0025 03       		.uleb128 0x3
 2793 0026 08       		.uleb128 0x8
 2794 0027 00       		.byte	0
 2795 0028 00       		.byte	0
 2796 0029 04       		.uleb128 0x4
 2797 002a 16       		.uleb128 0x16
 2798 002b 00       		.byte	0
 2799 002c 03       		.uleb128 0x3
 2800 002d 0E       		.uleb128 0xe
 2801 002e 3A       		.uleb128 0x3a
 2802 002f 0B       		.uleb128 0xb
 2803 0030 3B       		.uleb128 0x3b
 2804 0031 05       		.uleb128 0x5
 2805 0032 49       		.uleb128 0x49
 2806 0033 13       		.uleb128 0x13
 2807 0034 00       		.byte	0
 2808 0035 00       		.byte	0
 2809 0036 05       		.uleb128 0x5
 2810 0037 35       		.uleb128 0x35
 2811 0038 00       		.byte	0
 2812 0039 49       		.uleb128 0x49
 2813 003a 13       		.uleb128 0x13
 2814 003b 00       		.byte	0
 2815 003c 00       		.byte	0
 2816 003d 06       		.uleb128 0x6
 2817 003e 13       		.uleb128 0x13
 2818 003f 01       		.byte	0x1
 2819 0040 0B       		.uleb128 0xb
 2820 0041 0B       		.uleb128 0xb
 2821 0042 3A       		.uleb128 0x3a
 2822 0043 0B       		.uleb128 0xb
 2823 0044 3B       		.uleb128 0x3b
 2824 0045 0B       		.uleb128 0xb
 2825 0046 01       		.uleb128 0x1
 2826 0047 13       		.uleb128 0x13
 2827 0048 00       		.byte	0
 2828 0049 00       		.byte	0
 2829 004a 07       		.uleb128 0x7
 2830 004b 0D       		.uleb128 0xd
 2831 004c 00       		.byte	0
ARM GAS  C:\Users\student\AppData\Local\Temp\cckxTosa.s 			page 71


 2832 004d 03       		.uleb128 0x3
 2833 004e 0E       		.uleb128 0xe
 2834 004f 3A       		.uleb128 0x3a
 2835 0050 0B       		.uleb128 0xb
 2836 0051 3B       		.uleb128 0x3b
 2837 0052 0B       		.uleb128 0xb
 2838 0053 49       		.uleb128 0x49
 2839 0054 13       		.uleb128 0x13
 2840 0055 38       		.uleb128 0x38
 2841 0056 0B       		.uleb128 0xb
 2842 0057 00       		.byte	0
 2843 0058 00       		.byte	0
 2844 0059 08       		.uleb128 0x8
 2845 005a 16       		.uleb128 0x16
 2846 005b 00       		.byte	0
 2847 005c 03       		.uleb128 0x3
 2848 005d 0E       		.uleb128 0xe
 2849 005e 3A       		.uleb128 0x3a
 2850 005f 0B       		.uleb128 0xb
 2851 0060 3B       		.uleb128 0x3b
 2852 0061 0B       		.uleb128 0xb
 2853 0062 49       		.uleb128 0x49
 2854 0063 13       		.uleb128 0x13
 2855 0064 00       		.byte	0
 2856 0065 00       		.byte	0
 2857 0066 09       		.uleb128 0x9
 2858 0067 0F       		.uleb128 0xf
 2859 0068 00       		.byte	0
 2860 0069 0B       		.uleb128 0xb
 2861 006a 0B       		.uleb128 0xb
 2862 006b 49       		.uleb128 0x49
 2863 006c 13       		.uleb128 0x13
 2864 006d 00       		.byte	0
 2865 006e 00       		.byte	0
 2866 006f 0A       		.uleb128 0xa
 2867 0070 01       		.uleb128 0x1
 2868 0071 01       		.byte	0x1
 2869 0072 49       		.uleb128 0x49
 2870 0073 13       		.uleb128 0x13
 2871 0074 01       		.uleb128 0x1
 2872 0075 13       		.uleb128 0x13
 2873 0076 00       		.byte	0
 2874 0077 00       		.byte	0
 2875 0078 0B       		.uleb128 0xb
 2876 0079 21       		.uleb128 0x21
 2877 007a 00       		.byte	0
 2878 007b 49       		.uleb128 0x49
 2879 007c 13       		.uleb128 0x13
 2880 007d 2F       		.uleb128 0x2f
 2881 007e 0B       		.uleb128 0xb
 2882 007f 00       		.byte	0
 2883 0080 00       		.byte	0
 2884 0081 0C       		.uleb128 0xc
 2885 0082 13       		.uleb128 0x13
 2886 0083 01       		.byte	0x1
 2887 0084 0B       		.uleb128 0xb
 2888 0085 0B       		.uleb128 0xb
ARM GAS  C:\Users\student\AppData\Local\Temp\cckxTosa.s 			page 72


 2889 0086 3A       		.uleb128 0x3a
 2890 0087 0B       		.uleb128 0xb
 2891 0088 3B       		.uleb128 0x3b
 2892 0089 05       		.uleb128 0x5
 2893 008a 01       		.uleb128 0x1
 2894 008b 13       		.uleb128 0x13
 2895 008c 00       		.byte	0
 2896 008d 00       		.byte	0
 2897 008e 0D       		.uleb128 0xd
 2898 008f 0D       		.uleb128 0xd
 2899 0090 00       		.byte	0
 2900 0091 03       		.uleb128 0x3
 2901 0092 0E       		.uleb128 0xe
 2902 0093 3A       		.uleb128 0x3a
 2903 0094 0B       		.uleb128 0xb
 2904 0095 3B       		.uleb128 0x3b
 2905 0096 05       		.uleb128 0x5
 2906 0097 49       		.uleb128 0x49
 2907 0098 13       		.uleb128 0x13
 2908 0099 38       		.uleb128 0x38
 2909 009a 0B       		.uleb128 0xb
 2910 009b 00       		.byte	0
 2911 009c 00       		.byte	0
 2912 009d 0E       		.uleb128 0xe
 2913 009e 2E       		.uleb128 0x2e
 2914 009f 01       		.byte	0x1
 2915 00a0 03       		.uleb128 0x3
 2916 00a1 0E       		.uleb128 0xe
 2917 00a2 3A       		.uleb128 0x3a
 2918 00a3 0B       		.uleb128 0xb
 2919 00a4 3B       		.uleb128 0x3b
 2920 00a5 05       		.uleb128 0x5
 2921 00a6 27       		.uleb128 0x27
 2922 00a7 19       		.uleb128 0x19
 2923 00a8 49       		.uleb128 0x49
 2924 00a9 13       		.uleb128 0x13
 2925 00aa 11       		.uleb128 0x11
 2926 00ab 01       		.uleb128 0x1
 2927 00ac 12       		.uleb128 0x12
 2928 00ad 06       		.uleb128 0x6
 2929 00ae 40       		.uleb128 0x40
 2930 00af 18       		.uleb128 0x18
 2931 00b0 9742     		.uleb128 0x2117
 2932 00b2 19       		.uleb128 0x19
 2933 00b3 01       		.uleb128 0x1
 2934 00b4 13       		.uleb128 0x13
 2935 00b5 00       		.byte	0
 2936 00b6 00       		.byte	0
 2937 00b7 0F       		.uleb128 0xf
 2938 00b8 05       		.uleb128 0x5
 2939 00b9 00       		.byte	0
 2940 00ba 03       		.uleb128 0x3
 2941 00bb 0E       		.uleb128 0xe
 2942 00bc 3A       		.uleb128 0x3a
 2943 00bd 0B       		.uleb128 0xb
 2944 00be 3B       		.uleb128 0x3b
 2945 00bf 05       		.uleb128 0x5
ARM GAS  C:\Users\student\AppData\Local\Temp\cckxTosa.s 			page 73


 2946 00c0 49       		.uleb128 0x49
 2947 00c1 13       		.uleb128 0x13
 2948 00c2 02       		.uleb128 0x2
 2949 00c3 17       		.uleb128 0x17
 2950 00c4 00       		.byte	0
 2951 00c5 00       		.byte	0
 2952 00c6 10       		.uleb128 0x10
 2953 00c7 34       		.uleb128 0x34
 2954 00c8 00       		.byte	0
 2955 00c9 03       		.uleb128 0x3
 2956 00ca 08       		.uleb128 0x8
 2957 00cb 3A       		.uleb128 0x3a
 2958 00cc 0B       		.uleb128 0xb
 2959 00cd 3B       		.uleb128 0x3b
 2960 00ce 05       		.uleb128 0x5
 2961 00cf 49       		.uleb128 0x49
 2962 00d0 13       		.uleb128 0x13
 2963 00d1 02       		.uleb128 0x2
 2964 00d2 17       		.uleb128 0x17
 2965 00d3 00       		.byte	0
 2966 00d4 00       		.byte	0
 2967 00d5 11       		.uleb128 0x11
 2968 00d6 26       		.uleb128 0x26
 2969 00d7 00       		.byte	0
 2970 00d8 49       		.uleb128 0x49
 2971 00d9 13       		.uleb128 0x13
 2972 00da 00       		.byte	0
 2973 00db 00       		.byte	0
 2974 00dc 12       		.uleb128 0x12
 2975 00dd 2E       		.uleb128 0x2e
 2976 00de 01       		.byte	0x1
 2977 00df 3F       		.uleb128 0x3f
 2978 00e0 19       		.uleb128 0x19
 2979 00e1 03       		.uleb128 0x3
 2980 00e2 0E       		.uleb128 0xe
 2981 00e3 3A       		.uleb128 0x3a
 2982 00e4 0B       		.uleb128 0xb
 2983 00e5 3B       		.uleb128 0x3b
 2984 00e6 0B       		.uleb128 0xb
 2985 00e7 27       		.uleb128 0x27
 2986 00e8 19       		.uleb128 0x19
 2987 00e9 49       		.uleb128 0x49
 2988 00ea 13       		.uleb128 0x13
 2989 00eb 11       		.uleb128 0x11
 2990 00ec 01       		.uleb128 0x1
 2991 00ed 12       		.uleb128 0x12
 2992 00ee 06       		.uleb128 0x6
 2993 00ef 40       		.uleb128 0x40
 2994 00f0 18       		.uleb128 0x18
 2995 00f1 9742     		.uleb128 0x2117
 2996 00f3 19       		.uleb128 0x19
 2997 00f4 01       		.uleb128 0x1
 2998 00f5 13       		.uleb128 0x13
 2999 00f6 00       		.byte	0
 3000 00f7 00       		.byte	0
 3001 00f8 13       		.uleb128 0x13
 3002 00f9 05       		.uleb128 0x5
ARM GAS  C:\Users\student\AppData\Local\Temp\cckxTosa.s 			page 74


 3003 00fa 00       		.byte	0
 3004 00fb 03       		.uleb128 0x3
 3005 00fc 0E       		.uleb128 0xe
 3006 00fd 3A       		.uleb128 0x3a
 3007 00fe 0B       		.uleb128 0xb
 3008 00ff 3B       		.uleb128 0x3b
 3009 0100 0B       		.uleb128 0xb
 3010 0101 49       		.uleb128 0x49
 3011 0102 13       		.uleb128 0x13
 3012 0103 02       		.uleb128 0x2
 3013 0104 17       		.uleb128 0x17
 3014 0105 00       		.byte	0
 3015 0106 00       		.byte	0
 3016 0107 14       		.uleb128 0x14
 3017 0108 34       		.uleb128 0x34
 3018 0109 00       		.byte	0
 3019 010a 03       		.uleb128 0x3
 3020 010b 0E       		.uleb128 0xe
 3021 010c 3A       		.uleb128 0x3a
 3022 010d 0B       		.uleb128 0xb
 3023 010e 3B       		.uleb128 0x3b
 3024 010f 0B       		.uleb128 0xb
 3025 0110 49       		.uleb128 0x49
 3026 0111 13       		.uleb128 0x13
 3027 0112 02       		.uleb128 0x2
 3028 0113 17       		.uleb128 0x17
 3029 0114 00       		.byte	0
 3030 0115 00       		.byte	0
 3031 0116 15       		.uleb128 0x15
 3032 0117 34       		.uleb128 0x34
 3033 0118 00       		.byte	0
 3034 0119 03       		.uleb128 0x3
 3035 011a 08       		.uleb128 0x8
 3036 011b 3A       		.uleb128 0x3a
 3037 011c 0B       		.uleb128 0xb
 3038 011d 3B       		.uleb128 0x3b
 3039 011e 0B       		.uleb128 0xb
 3040 011f 49       		.uleb128 0x49
 3041 0120 13       		.uleb128 0x13
 3042 0121 02       		.uleb128 0x2
 3043 0122 17       		.uleb128 0x17
 3044 0123 00       		.byte	0
 3045 0124 00       		.byte	0
 3046 0125 16       		.uleb128 0x16
 3047 0126 898201   		.uleb128 0x4109
 3048 0129 00       		.byte	0
 3049 012a 11       		.uleb128 0x11
 3050 012b 01       		.uleb128 0x1
 3051 012c 31       		.uleb128 0x31
 3052 012d 13       		.uleb128 0x13
 3053 012e 00       		.byte	0
 3054 012f 00       		.byte	0
 3055 0130 17       		.uleb128 0x17
 3056 0131 2E       		.uleb128 0x2e
 3057 0132 01       		.byte	0x1
 3058 0133 3F       		.uleb128 0x3f
 3059 0134 19       		.uleb128 0x19
ARM GAS  C:\Users\student\AppData\Local\Temp\cckxTosa.s 			page 75


 3060 0135 03       		.uleb128 0x3
 3061 0136 0E       		.uleb128 0xe
 3062 0137 3A       		.uleb128 0x3a
 3063 0138 0B       		.uleb128 0xb
 3064 0139 3B       		.uleb128 0x3b
 3065 013a 05       		.uleb128 0x5
 3066 013b 27       		.uleb128 0x27
 3067 013c 19       		.uleb128 0x19
 3068 013d 49       		.uleb128 0x49
 3069 013e 13       		.uleb128 0x13
 3070 013f 11       		.uleb128 0x11
 3071 0140 01       		.uleb128 0x1
 3072 0141 12       		.uleb128 0x12
 3073 0142 06       		.uleb128 0x6
 3074 0143 40       		.uleb128 0x40
 3075 0144 18       		.uleb128 0x18
 3076 0145 9742     		.uleb128 0x2117
 3077 0147 19       		.uleb128 0x19
 3078 0148 01       		.uleb128 0x1
 3079 0149 13       		.uleb128 0x13
 3080 014a 00       		.byte	0
 3081 014b 00       		.byte	0
 3082 014c 18       		.uleb128 0x18
 3083 014d 34       		.uleb128 0x34
 3084 014e 00       		.byte	0
 3085 014f 03       		.uleb128 0x3
 3086 0150 0E       		.uleb128 0xe
 3087 0151 3A       		.uleb128 0x3a
 3088 0152 0B       		.uleb128 0xb
 3089 0153 3B       		.uleb128 0x3b
 3090 0154 05       		.uleb128 0x5
 3091 0155 49       		.uleb128 0x49
 3092 0156 13       		.uleb128 0x13
 3093 0157 02       		.uleb128 0x2
 3094 0158 17       		.uleb128 0x17
 3095 0159 00       		.byte	0
 3096 015a 00       		.byte	0
 3097 015b 19       		.uleb128 0x19
 3098 015c 2E       		.uleb128 0x2e
 3099 015d 01       		.byte	0x1
 3100 015e 3F       		.uleb128 0x3f
 3101 015f 19       		.uleb128 0x19
 3102 0160 03       		.uleb128 0x3
 3103 0161 0E       		.uleb128 0xe
 3104 0162 3A       		.uleb128 0x3a
 3105 0163 0B       		.uleb128 0xb
 3106 0164 3B       		.uleb128 0x3b
 3107 0165 05       		.uleb128 0x5
 3108 0166 27       		.uleb128 0x27
 3109 0167 19       		.uleb128 0x19
 3110 0168 11       		.uleb128 0x11
 3111 0169 01       		.uleb128 0x1
 3112 016a 12       		.uleb128 0x12
 3113 016b 06       		.uleb128 0x6
 3114 016c 40       		.uleb128 0x40
 3115 016d 18       		.uleb128 0x18
 3116 016e 9742     		.uleb128 0x2117
ARM GAS  C:\Users\student\AppData\Local\Temp\cckxTosa.s 			page 76


 3117 0170 19       		.uleb128 0x19
 3118 0171 01       		.uleb128 0x1
 3119 0172 13       		.uleb128 0x13
 3120 0173 00       		.byte	0
 3121 0174 00       		.byte	0
 3122 0175 1A       		.uleb128 0x1a
 3123 0176 898201   		.uleb128 0x4109
 3124 0179 01       		.byte	0x1
 3125 017a 11       		.uleb128 0x11
 3126 017b 01       		.uleb128 0x1
 3127 017c 31       		.uleb128 0x31
 3128 017d 13       		.uleb128 0x13
 3129 017e 01       		.uleb128 0x1
 3130 017f 13       		.uleb128 0x13
 3131 0180 00       		.byte	0
 3132 0181 00       		.byte	0
 3133 0182 1B       		.uleb128 0x1b
 3134 0183 8A8201   		.uleb128 0x410a
 3135 0186 00       		.byte	0
 3136 0187 02       		.uleb128 0x2
 3137 0188 18       		.uleb128 0x18
 3138 0189 9142     		.uleb128 0x2111
 3139 018b 18       		.uleb128 0x18
 3140 018c 00       		.byte	0
 3141 018d 00       		.byte	0
 3142 018e 1C       		.uleb128 0x1c
 3143 018f 898201   		.uleb128 0x4109
 3144 0192 01       		.byte	0x1
 3145 0193 11       		.uleb128 0x11
 3146 0194 01       		.uleb128 0x1
 3147 0195 31       		.uleb128 0x31
 3148 0196 13       		.uleb128 0x13
 3149 0197 00       		.byte	0
 3150 0198 00       		.byte	0
 3151 0199 1D       		.uleb128 0x1d
 3152 019a 34       		.uleb128 0x34
 3153 019b 00       		.byte	0
 3154 019c 03       		.uleb128 0x3
 3155 019d 0E       		.uleb128 0xe
 3156 019e 3A       		.uleb128 0x3a
 3157 019f 0B       		.uleb128 0xb
 3158 01a0 3B       		.uleb128 0x3b
 3159 01a1 05       		.uleb128 0x5
 3160 01a2 49       		.uleb128 0x49
 3161 01a3 13       		.uleb128 0x13
 3162 01a4 02       		.uleb128 0x2
 3163 01a5 18       		.uleb128 0x18
 3164 01a6 00       		.byte	0
 3165 01a7 00       		.byte	0
 3166 01a8 1E       		.uleb128 0x1e
 3167 01a9 2E       		.uleb128 0x2e
 3168 01aa 00       		.byte	0
 3169 01ab 3F       		.uleb128 0x3f
 3170 01ac 19       		.uleb128 0x19
 3171 01ad 03       		.uleb128 0x3
 3172 01ae 0E       		.uleb128 0xe
 3173 01af 3A       		.uleb128 0x3a
ARM GAS  C:\Users\student\AppData\Local\Temp\cckxTosa.s 			page 77


 3174 01b0 0B       		.uleb128 0xb
 3175 01b1 3B       		.uleb128 0x3b
 3176 01b2 05       		.uleb128 0x5
 3177 01b3 27       		.uleb128 0x27
 3178 01b4 19       		.uleb128 0x19
 3179 01b5 49       		.uleb128 0x49
 3180 01b6 13       		.uleb128 0x13
 3181 01b7 11       		.uleb128 0x11
 3182 01b8 01       		.uleb128 0x1
 3183 01b9 12       		.uleb128 0x12
 3184 01ba 06       		.uleb128 0x6
 3185 01bb 40       		.uleb128 0x40
 3186 01bc 18       		.uleb128 0x18
 3187 01bd 9742     		.uleb128 0x2117
 3188 01bf 19       		.uleb128 0x19
 3189 01c0 00       		.byte	0
 3190 01c1 00       		.byte	0
 3191 01c2 1F       		.uleb128 0x1f
 3192 01c3 05       		.uleb128 0x5
 3193 01c4 00       		.byte	0
 3194 01c5 03       		.uleb128 0x3
 3195 01c6 0E       		.uleb128 0xe
 3196 01c7 3A       		.uleb128 0x3a
 3197 01c8 0B       		.uleb128 0xb
 3198 01c9 3B       		.uleb128 0x3b
 3199 01ca 05       		.uleb128 0x5
 3200 01cb 49       		.uleb128 0x49
 3201 01cc 13       		.uleb128 0x13
 3202 01cd 02       		.uleb128 0x2
 3203 01ce 18       		.uleb128 0x18
 3204 01cf 00       		.byte	0
 3205 01d0 00       		.byte	0
 3206 01d1 20       		.uleb128 0x20
 3207 01d2 05       		.uleb128 0x5
 3208 01d3 00       		.byte	0
 3209 01d4 03       		.uleb128 0x3
 3210 01d5 08       		.uleb128 0x8
 3211 01d6 3A       		.uleb128 0x3a
 3212 01d7 0B       		.uleb128 0xb
 3213 01d8 3B       		.uleb128 0x3b
 3214 01d9 05       		.uleb128 0x5
 3215 01da 49       		.uleb128 0x49
 3216 01db 13       		.uleb128 0x13
 3217 01dc 02       		.uleb128 0x2
 3218 01dd 17       		.uleb128 0x17
 3219 01de 00       		.byte	0
 3220 01df 00       		.byte	0
 3221 01e0 21       		.uleb128 0x21
 3222 01e1 34       		.uleb128 0x34
 3223 01e2 00       		.byte	0
 3224 01e3 03       		.uleb128 0x3
 3225 01e4 0E       		.uleb128 0xe
 3226 01e5 3A       		.uleb128 0x3a
 3227 01e6 0B       		.uleb128 0xb
 3228 01e7 3B       		.uleb128 0x3b
 3229 01e8 0B       		.uleb128 0xb
 3230 01e9 49       		.uleb128 0x49
ARM GAS  C:\Users\student\AppData\Local\Temp\cckxTosa.s 			page 78


 3231 01ea 13       		.uleb128 0x13
 3232 01eb 02       		.uleb128 0x2
 3233 01ec 18       		.uleb128 0x18
 3234 01ed 00       		.byte	0
 3235 01ee 00       		.byte	0
 3236 01ef 22       		.uleb128 0x22
 3237 01f0 34       		.uleb128 0x34
 3238 01f1 00       		.byte	0
 3239 01f2 03       		.uleb128 0x3
 3240 01f3 0E       		.uleb128 0xe
 3241 01f4 3A       		.uleb128 0x3a
 3242 01f5 0B       		.uleb128 0xb
 3243 01f6 3B       		.uleb128 0x3b
 3244 01f7 05       		.uleb128 0x5
 3245 01f8 49       		.uleb128 0x49
 3246 01f9 13       		.uleb128 0x13
 3247 01fa 3F       		.uleb128 0x3f
 3248 01fb 19       		.uleb128 0x19
 3249 01fc 3C       		.uleb128 0x3c
 3250 01fd 19       		.uleb128 0x19
 3251 01fe 00       		.byte	0
 3252 01ff 00       		.byte	0
 3253 0200 23       		.uleb128 0x23
 3254 0201 34       		.uleb128 0x34
 3255 0202 00       		.byte	0
 3256 0203 03       		.uleb128 0x3
 3257 0204 0E       		.uleb128 0xe
 3258 0205 3A       		.uleb128 0x3a
 3259 0206 0B       		.uleb128 0xb
 3260 0207 3B       		.uleb128 0x3b
 3261 0208 0B       		.uleb128 0xb
 3262 0209 49       		.uleb128 0x49
 3263 020a 13       		.uleb128 0x13
 3264 020b 3F       		.uleb128 0x3f
 3265 020c 19       		.uleb128 0x19
 3266 020d 02       		.uleb128 0x2
 3267 020e 18       		.uleb128 0x18
 3268 020f 00       		.byte	0
 3269 0210 00       		.byte	0
 3270 0211 24       		.uleb128 0x24
 3271 0212 34       		.uleb128 0x34
 3272 0213 00       		.byte	0
 3273 0214 03       		.uleb128 0x3
 3274 0215 0E       		.uleb128 0xe
 3275 0216 3A       		.uleb128 0x3a
 3276 0217 0B       		.uleb128 0xb
 3277 0218 3B       		.uleb128 0x3b
 3278 0219 0B       		.uleb128 0xb
 3279 021a 49       		.uleb128 0x49
 3280 021b 13       		.uleb128 0x13
 3281 021c 3F       		.uleb128 0x3f
 3282 021d 19       		.uleb128 0x19
 3283 021e 3C       		.uleb128 0x3c
 3284 021f 19       		.uleb128 0x19
 3285 0220 00       		.byte	0
 3286 0221 00       		.byte	0
 3287 0222 25       		.uleb128 0x25
ARM GAS  C:\Users\student\AppData\Local\Temp\cckxTosa.s 			page 79


 3288 0223 2E       		.uleb128 0x2e
 3289 0224 00       		.byte	0
 3290 0225 3F       		.uleb128 0x3f
 3291 0226 19       		.uleb128 0x19
 3292 0227 03       		.uleb128 0x3
 3293 0228 0E       		.uleb128 0xe
 3294 0229 3A       		.uleb128 0x3a
 3295 022a 0B       		.uleb128 0xb
 3296 022b 3B       		.uleb128 0x3b
 3297 022c 0B       		.uleb128 0xb
 3298 022d 27       		.uleb128 0x27
 3299 022e 19       		.uleb128 0x19
 3300 022f 49       		.uleb128 0x49
 3301 0230 13       		.uleb128 0x13
 3302 0231 3C       		.uleb128 0x3c
 3303 0232 19       		.uleb128 0x19
 3304 0233 00       		.byte	0
 3305 0234 00       		.byte	0
 3306 0235 26       		.uleb128 0x26
 3307 0236 2E       		.uleb128 0x2e
 3308 0237 01       		.byte	0x1
 3309 0238 3F       		.uleb128 0x3f
 3310 0239 19       		.uleb128 0x19
 3311 023a 03       		.uleb128 0x3
 3312 023b 0E       		.uleb128 0xe
 3313 023c 3A       		.uleb128 0x3a
 3314 023d 0B       		.uleb128 0xb
 3315 023e 3B       		.uleb128 0x3b
 3316 023f 05       		.uleb128 0x5
 3317 0240 27       		.uleb128 0x27
 3318 0241 19       		.uleb128 0x19
 3319 0242 3C       		.uleb128 0x3c
 3320 0243 19       		.uleb128 0x19
 3321 0244 01       		.uleb128 0x1
 3322 0245 13       		.uleb128 0x13
 3323 0246 00       		.byte	0
 3324 0247 00       		.byte	0
 3325 0248 27       		.uleb128 0x27
 3326 0249 05       		.uleb128 0x5
 3327 024a 00       		.byte	0
 3328 024b 49       		.uleb128 0x49
 3329 024c 13       		.uleb128 0x13
 3330 024d 00       		.byte	0
 3331 024e 00       		.byte	0
 3332 024f 28       		.uleb128 0x28
 3333 0250 2E       		.uleb128 0x2e
 3334 0251 01       		.byte	0x1
 3335 0252 3F       		.uleb128 0x3f
 3336 0253 19       		.uleb128 0x19
 3337 0254 03       		.uleb128 0x3
 3338 0255 0E       		.uleb128 0xe
 3339 0256 3A       		.uleb128 0x3a
 3340 0257 0B       		.uleb128 0xb
 3341 0258 3B       		.uleb128 0x3b
 3342 0259 0B       		.uleb128 0xb
 3343 025a 27       		.uleb128 0x27
 3344 025b 19       		.uleb128 0x19
ARM GAS  C:\Users\student\AppData\Local\Temp\cckxTosa.s 			page 80


 3345 025c 3C       		.uleb128 0x3c
 3346 025d 19       		.uleb128 0x19
 3347 025e 01       		.uleb128 0x1
 3348 025f 13       		.uleb128 0x13
 3349 0260 00       		.byte	0
 3350 0261 00       		.byte	0
 3351 0262 29       		.uleb128 0x29
 3352 0263 2E       		.uleb128 0x2e
 3353 0264 01       		.byte	0x1
 3354 0265 3F       		.uleb128 0x3f
 3355 0266 19       		.uleb128 0x19
 3356 0267 03       		.uleb128 0x3
 3357 0268 0E       		.uleb128 0xe
 3358 0269 3A       		.uleb128 0x3a
 3359 026a 0B       		.uleb128 0xb
 3360 026b 3B       		.uleb128 0x3b
 3361 026c 05       		.uleb128 0x5
 3362 026d 27       		.uleb128 0x27
 3363 026e 19       		.uleb128 0x19
 3364 026f 49       		.uleb128 0x49
 3365 0270 13       		.uleb128 0x13
 3366 0271 3C       		.uleb128 0x3c
 3367 0272 19       		.uleb128 0x19
 3368 0273 01       		.uleb128 0x1
 3369 0274 13       		.uleb128 0x13
 3370 0275 00       		.byte	0
 3371 0276 00       		.byte	0
 3372 0277 2A       		.uleb128 0x2a
 3373 0278 2E       		.uleb128 0x2e
 3374 0279 01       		.byte	0x1
 3375 027a 3F       		.uleb128 0x3f
 3376 027b 19       		.uleb128 0x19
 3377 027c 03       		.uleb128 0x3
 3378 027d 0E       		.uleb128 0xe
 3379 027e 3A       		.uleb128 0x3a
 3380 027f 0B       		.uleb128 0xb
 3381 0280 3B       		.uleb128 0x3b
 3382 0281 05       		.uleb128 0x5
 3383 0282 27       		.uleb128 0x27
 3384 0283 19       		.uleb128 0x19
 3385 0284 49       		.uleb128 0x49
 3386 0285 13       		.uleb128 0x13
 3387 0286 3C       		.uleb128 0x3c
 3388 0287 19       		.uleb128 0x19
 3389 0288 00       		.byte	0
 3390 0289 00       		.byte	0
 3391 028a 00       		.byte	0
 3392              		.section	.debug_loc,"",%progbits
 3393              	.Ldebug_loc0:
 3394              	.LLST0:
 3395 0000 00000000 		.4byte	.LVL0
 3396 0004 04000000 		.4byte	.LVL2
 3397 0008 0100     		.2byte	0x1
 3398 000a 50       		.byte	0x50
 3399 000b 04000000 		.4byte	.LVL2
 3400 000f 12000000 		.4byte	.LFE4
 3401 0013 0100     		.2byte	0x1
ARM GAS  C:\Users\student\AppData\Local\Temp\cckxTosa.s 			page 81


 3402 0015 52       		.byte	0x52
 3403 0016 00000000 		.4byte	0
 3404 001a 00000000 		.4byte	0
 3405              	.LLST1:
 3406 001e 02000000 		.4byte	.LVL1
 3407 0022 06000000 		.4byte	.LVL3
 3408 0026 0200     		.2byte	0x2
 3409 0028 30       		.byte	0x30
 3410 0029 9F       		.byte	0x9f
 3411 002a 06000000 		.4byte	.LVL3
 3412 002e 08000000 		.4byte	.LVL4
 3413 0032 0100     		.2byte	0x1
 3414 0034 50       		.byte	0x50
 3415 0035 0A000000 		.4byte	.LVL5
 3416 0039 12000000 		.4byte	.LFE4
 3417 003d 0100     		.2byte	0x1
 3418 003f 50       		.byte	0x50
 3419 0040 00000000 		.4byte	0
 3420 0044 00000000 		.4byte	0
 3421              	.LLST2:
 3422 0048 00000000 		.4byte	.LVL6
 3423 004c 2C000000 		.4byte	.LVL15
 3424 0050 0100     		.2byte	0x1
 3425 0052 50       		.byte	0x50
 3426 0053 2C000000 		.4byte	.LVL15
 3427 0057 3C000000 		.4byte	.LFE1
 3428 005b 0400     		.2byte	0x4
 3429 005d F3       		.byte	0xf3
 3430 005e 01       		.uleb128 0x1
 3431 005f 50       		.byte	0x50
 3432 0060 9F       		.byte	0x9f
 3433 0061 00000000 		.4byte	0
 3434 0065 00000000 		.4byte	0
 3435              	.LLST3:
 3436 0069 02000000 		.4byte	.LVL7
 3437 006d 08000000 		.4byte	.LVL8
 3438 0071 0200     		.2byte	0x2
 3439 0073 30       		.byte	0x30
 3440 0074 9F       		.byte	0x9f
 3441 0075 08000000 		.4byte	.LVL8
 3442 0079 24000000 		.4byte	.LVL13
 3443 007d 0100     		.2byte	0x1
 3444 007f 52       		.byte	0x52
 3445 0080 26000000 		.4byte	.LVL14
 3446 0084 3C000000 		.4byte	.LFE1
 3447 0088 0100     		.2byte	0x1
 3448 008a 52       		.byte	0x52
 3449 008b 00000000 		.4byte	0
 3450 008f 00000000 		.4byte	0
 3451              	.LLST4:
 3452 0093 02000000 		.4byte	.LVL7
 3453 0097 08000000 		.4byte	.LVL8
 3454 009b 0300     		.2byte	0x3
 3455 009d 09       		.byte	0x9
 3456 009e FF       		.byte	0xff
 3457 009f 9F       		.byte	0x9f
 3458 00a0 08000000 		.4byte	.LVL8
ARM GAS  C:\Users\student\AppData\Local\Temp\cckxTosa.s 			page 82


 3459 00a4 20000000 		.4byte	.LVL11
 3460 00a8 0100     		.2byte	0x1
 3461 00aa 54       		.byte	0x54
 3462 00ab 22000000 		.4byte	.LVL12
 3463 00af 30000000 		.4byte	.LVL16
 3464 00b3 0100     		.2byte	0x1
 3465 00b5 54       		.byte	0x54
 3466 00b6 00000000 		.4byte	0
 3467 00ba 00000000 		.4byte	0
 3468              	.LLST5:
 3469 00be 0C000000 		.4byte	.LVL9
 3470 00c2 10000000 		.4byte	.LVL10
 3471 00c6 0100     		.2byte	0x1
 3472 00c8 53       		.byte	0x53
 3473 00c9 00000000 		.4byte	0
 3474 00cd 00000000 		.4byte	0
 3475              	.LLST6:
 3476 00d1 02000000 		.4byte	.LVL17
 3477 00d5 2E000000 		.4byte	.LVL20
 3478 00d9 0200     		.2byte	0x2
 3479 00db 30       		.byte	0x30
 3480 00dc 9F       		.byte	0x9f
 3481 00dd 2E000000 		.4byte	.LVL20
 3482 00e1 30000000 		.4byte	.LVL21
 3483 00e5 0100     		.2byte	0x1
 3484 00e7 50       		.byte	0x50
 3485 00e8 30000000 		.4byte	.LVL21
 3486 00ec 5E000000 		.4byte	.LVL22
 3487 00f0 0200     		.2byte	0x2
 3488 00f2 30       		.byte	0x30
 3489 00f3 9F       		.byte	0x9f
 3490 00f4 5E000000 		.4byte	.LVL22
 3491 00f8 60000000 		.4byte	.LVL23
 3492 00fc 0100     		.2byte	0x1
 3493 00fe 50       		.byte	0x50
 3494 00ff 60000000 		.4byte	.LVL23
 3495 0103 78000000 		.4byte	.LVL24
 3496 0107 0200     		.2byte	0x2
 3497 0109 30       		.byte	0x30
 3498 010a 9F       		.byte	0x9f
 3499 010b 78000000 		.4byte	.LVL24
 3500 010f 7A000000 		.4byte	.LVL25
 3501 0113 0100     		.2byte	0x1
 3502 0115 50       		.byte	0x50
 3503 0116 7A000000 		.4byte	.LVL25
 3504 011a 80000000 		.4byte	.LVL28
 3505 011e 0200     		.2byte	0x2
 3506 0120 30       		.byte	0x30
 3507 0121 9F       		.byte	0x9f
 3508 0122 80000000 		.4byte	.LVL28
 3509 0126 98000000 		.4byte	.LFE0
 3510 012a 0100     		.2byte	0x1
 3511 012c 50       		.byte	0x50
 3512 012d 00000000 		.4byte	0
 3513 0131 00000000 		.4byte	0
 3514              	.LLST7:
 3515 0135 0A000000 		.4byte	.LVL18
ARM GAS  C:\Users\student\AppData\Local\Temp\cckxTosa.s 			page 83


 3516 0139 24000000 		.4byte	.LVL19
 3517 013d 0100     		.2byte	0x1
 3518 013f 50       		.byte	0x50
 3519 0140 30000000 		.4byte	.LVL21
 3520 0144 5D000000 		.4byte	.LVL22-1
 3521 0148 0100     		.2byte	0x1
 3522 014a 50       		.byte	0x50
 3523 014b 60000000 		.4byte	.LVL23
 3524 014f 77000000 		.4byte	.LVL24-1
 3525 0153 0100     		.2byte	0x1
 3526 0155 50       		.byte	0x50
 3527 0156 7A000000 		.4byte	.LVL25
 3528 015a 7C000000 		.4byte	.LVL26
 3529 015e 0100     		.2byte	0x1
 3530 0160 50       		.byte	0x50
 3531 0161 7E000000 		.4byte	.LVL27
 3532 0165 80000000 		.4byte	.LVL28
 3533 0169 0100     		.2byte	0x1
 3534 016b 50       		.byte	0x50
 3535 016c 00000000 		.4byte	0
 3536 0170 00000000 		.4byte	0
 3537              	.LLST8:
 3538 0174 0E000000 		.4byte	.LVL30
 3539 0178 10000000 		.4byte	.LVL31
 3540 017c 0200     		.2byte	0x2
 3541 017e 30       		.byte	0x30
 3542 017f 9F       		.byte	0x9f
 3543 0180 10000000 		.4byte	.LVL31
 3544 0184 24000000 		.4byte	.LVL34
 3545 0188 0100     		.2byte	0x1
 3546 018a 54       		.byte	0x54
 3547 018b 26000000 		.4byte	.LVL35
 3548 018f 82000000 		.4byte	.LVL43
 3549 0193 0100     		.2byte	0x1
 3550 0195 54       		.byte	0x54
 3551 0196 00000000 		.4byte	0
 3552 019a 00000000 		.4byte	0
 3553              	.LLST9:
 3554 019e 16000000 		.4byte	.LVL32
 3555 01a2 21000000 		.4byte	.LVL33-1
 3556 01a6 0100     		.2byte	0x1
 3557 01a8 50       		.byte	0x50
 3558 01a9 00000000 		.4byte	0
 3559 01ad 00000000 		.4byte	0
 3560              	.LLST10:
 3561 01b1 02000000 		.4byte	.LVL29
 3562 01b5 80000000 		.4byte	.LVL42
 3563 01b9 0200     		.2byte	0x2
 3564 01bb 30       		.byte	0x30
 3565 01bc 9F       		.byte	0x9f
 3566 01bd 80000000 		.4byte	.LVL42
 3567 01c1 98000000 		.4byte	.LFE2
 3568 01c5 0100     		.2byte	0x1
 3569 01c7 50       		.byte	0x50
 3570 01c8 00000000 		.4byte	0
 3571 01cc 00000000 		.4byte	0
 3572              	.LLST11:
ARM GAS  C:\Users\student\AppData\Local\Temp\cckxTosa.s 			page 84


 3573 01d0 00000000 		.4byte	.LVL44
 3574 01d4 30000000 		.4byte	.LVL47
 3575 01d8 0100     		.2byte	0x1
 3576 01da 50       		.byte	0x50
 3577 01db 30000000 		.4byte	.LVL47
 3578 01df 40000000 		.4byte	.LVL50
 3579 01e3 0100     		.2byte	0x1
 3580 01e5 56       		.byte	0x56
 3581 01e6 40000000 		.4byte	.LVL50
 3582 01ea 4C000000 		.4byte	.LFE3
 3583 01ee 0400     		.2byte	0x4
 3584 01f0 F3       		.byte	0xf3
 3585 01f1 01       		.uleb128 0x1
 3586 01f2 50       		.byte	0x50
 3587 01f3 9F       		.byte	0x9f
 3588 01f4 00000000 		.4byte	0
 3589 01f8 00000000 		.4byte	0
 3590              	.LLST12:
 3591 01fc 00000000 		.4byte	.LVL44
 3592 0200 2E000000 		.4byte	.LVL46
 3593 0204 0100     		.2byte	0x1
 3594 0206 51       		.byte	0x51
 3595 0207 2E000000 		.4byte	.LVL46
 3596 020b 40000000 		.4byte	.LVL50
 3597 020f 0100     		.2byte	0x1
 3598 0211 55       		.byte	0x55
 3599 0212 00000000 		.4byte	0
 3600 0216 00000000 		.4byte	0
 3601              	.LLST13:
 3602 021a 10000000 		.4byte	.LVL45
 3603 021e 40000000 		.4byte	.LVL50
 3604 0222 0100     		.2byte	0x1
 3605 0224 54       		.byte	0x54
 3606 0225 00000000 		.4byte	0
 3607 0229 00000000 		.4byte	0
 3608              	.LLST14:
 3609 022d 00000000 		.4byte	.LVL51
 3610 0231 13000000 		.4byte	.LVL54-1
 3611 0235 0100     		.2byte	0x1
 3612 0237 50       		.byte	0x50
 3613 0238 13000000 		.4byte	.LVL54-1
 3614 023c 90000000 		.4byte	.LVL64
 3615 0240 0100     		.2byte	0x1
 3616 0242 58       		.byte	0x58
 3617 0243 90000000 		.4byte	.LVL64
 3618 0247 9C000000 		.4byte	.LFE5
 3619 024b 0400     		.2byte	0x4
 3620 024d F3       		.byte	0xf3
 3621 024e 01       		.uleb128 0x1
 3622 024f 50       		.byte	0x50
 3623 0250 9F       		.byte	0x9f
 3624 0251 00000000 		.4byte	0
 3625 0255 00000000 		.4byte	0
 3626              	.LLST15:
 3627 0259 16000000 		.4byte	.LVL55
 3628 025d 50000000 		.4byte	.LVL59
 3629 0261 0100     		.2byte	0x1
ARM GAS  C:\Users\student\AppData\Local\Temp\cckxTosa.s 			page 85


 3630 0263 55       		.byte	0x55
 3631 0264 52000000 		.4byte	.LVL60
 3632 0268 90000000 		.4byte	.LVL64
 3633 026c 0100     		.2byte	0x1
 3634 026e 55       		.byte	0x55
 3635 026f 00000000 		.4byte	0
 3636 0273 00000000 		.4byte	0
 3637              	.LLST16:
 3638 0277 40000000 		.4byte	.LVL57
 3639 027b 90000000 		.4byte	.LVL64
 3640 027f 0100     		.2byte	0x1
 3641 0281 59       		.byte	0x59
 3642 0282 00000000 		.4byte	0
 3643 0286 00000000 		.4byte	0
 3644              	.LLST17:
 3645 028a 06000000 		.4byte	.LVL52
 3646 028e 18000000 		.4byte	.LVL56
 3647 0292 0200     		.2byte	0x2
 3648 0294 30       		.byte	0x30
 3649 0295 9F       		.byte	0x9f
 3650 0296 18000000 		.4byte	.LVL56
 3651 029a 68000000 		.4byte	.LVL61
 3652 029e 0100     		.2byte	0x1
 3653 02a0 57       		.byte	0x57
 3654 02a1 6A000000 		.4byte	.LVL62
 3655 02a5 90000000 		.4byte	.LVL64
 3656 02a9 0100     		.2byte	0x1
 3657 02ab 57       		.byte	0x57
 3658 02ac 00000000 		.4byte	0
 3659 02b0 00000000 		.4byte	0
 3660              	.LLST18:
 3661 02b4 10000000 		.4byte	.LVL53
 3662 02b8 90000000 		.4byte	.LVL64
 3663 02bc 0100     		.2byte	0x1
 3664 02be 56       		.byte	0x56
 3665 02bf 00000000 		.4byte	0
 3666 02c3 00000000 		.4byte	0
 3667              	.LLST19:
 3668 02c7 00000000 		.4byte	.LVL65
 3669 02cb 12000000 		.4byte	.LVL66
 3670 02cf 0100     		.2byte	0x1
 3671 02d1 50       		.byte	0x50
 3672 02d2 12000000 		.4byte	.LVL66
 3673 02d6 17000000 		.4byte	.LVL67-1
 3674 02da 0200     		.2byte	0x2
 3675 02dc 71       		.byte	0x71
 3676 02dd 00       		.sleb128 0
 3677 02de 17000000 		.4byte	.LVL67-1
 3678 02e2 28000000 		.4byte	.LFE6
 3679 02e6 0400     		.2byte	0x4
 3680 02e8 F3       		.byte	0xf3
 3681 02e9 01       		.uleb128 0x1
 3682 02ea 50       		.byte	0x50
 3683 02eb 9F       		.byte	0x9f
 3684 02ec 00000000 		.4byte	0
 3685 02f0 00000000 		.4byte	0
 3686              	.LLST20:
ARM GAS  C:\Users\student\AppData\Local\Temp\cckxTosa.s 			page 86


 3687 02f4 22000000 		.4byte	.LVL70
 3688 02f8 24000000 		.4byte	.LVL71
 3689 02fc 0100     		.2byte	0x1
 3690 02fe 50       		.byte	0x50
 3691 02ff 26000000 		.4byte	.LVL72
 3692 0303 34000000 		.4byte	.LFE8
 3693 0307 0100     		.2byte	0x1
 3694 0309 50       		.byte	0x50
 3695 030a 00000000 		.4byte	0
 3696 030e 00000000 		.4byte	0
 3697              	.LLST21:
 3698 0312 0C000000 		.4byte	.LVL69
 3699 0316 21000000 		.4byte	.LVL70-1
 3700 031a 0100     		.2byte	0x1
 3701 031c 50       		.byte	0x50
 3702 031d 24000000 		.4byte	.LVL71
 3703 0321 26000000 		.4byte	.LVL72
 3704 0325 0100     		.2byte	0x1
 3705 0327 50       		.byte	0x50
 3706 0328 00000000 		.4byte	0
 3707 032c 00000000 		.4byte	0
 3708              	.LLST22:
 3709 0330 00000000 		.4byte	.LVL75
 3710 0334 0C000000 		.4byte	.LVL77
 3711 0338 0100     		.2byte	0x1
 3712 033a 50       		.byte	0x50
 3713 033b 0C000000 		.4byte	.LVL77
 3714 033f 13000000 		.4byte	.LVL79-1
 3715 0343 0100     		.2byte	0x1
 3716 0345 53       		.byte	0x53
 3717 0346 13000000 		.4byte	.LVL79-1
 3718 034a 20000000 		.4byte	.LFE11
 3719 034e 0400     		.2byte	0x4
 3720 0350 F3       		.byte	0xf3
 3721 0351 01       		.uleb128 0x1
 3722 0352 50       		.byte	0x50
 3723 0353 9F       		.byte	0x9f
 3724 0354 00000000 		.4byte	0
 3725 0358 00000000 		.4byte	0
 3726              	.LLST23:
 3727 035c 00000000 		.4byte	.LVL75
 3728 0360 08000000 		.4byte	.LVL76
 3729 0364 0100     		.2byte	0x1
 3730 0366 51       		.byte	0x51
 3731 0367 08000000 		.4byte	.LVL76
 3732 036b 14000000 		.4byte	.LVL79
 3733 036f 0400     		.2byte	0x4
 3734 0371 F3       		.byte	0xf3
 3735 0372 01       		.uleb128 0x1
 3736 0373 51       		.byte	0x51
 3737 0374 9F       		.byte	0x9f
 3738 0375 14000000 		.4byte	.LVL79
 3739 0379 20000000 		.4byte	.LFE11
 3740 037d 0100     		.2byte	0x1
 3741 037f 50       		.byte	0x50
 3742 0380 00000000 		.4byte	0
 3743 0384 00000000 		.4byte	0
ARM GAS  C:\Users\student\AppData\Local\Temp\cckxTosa.s 			page 87


 3744              	.LLST24:
 3745 0388 0E000000 		.4byte	.LVL78
 3746 038c 13000000 		.4byte	.LVL79-1
 3747 0390 0100     		.2byte	0x1
 3748 0392 50       		.byte	0x50
 3749 0393 00000000 		.4byte	0
 3750 0397 00000000 		.4byte	0
 3751              	.LLST25:
 3752 039b 00000000 		.4byte	.LVL80
 3753 039f 0C000000 		.4byte	.LVL81
 3754 03a3 0100     		.2byte	0x1
 3755 03a5 50       		.byte	0x50
 3756 03a6 0C000000 		.4byte	.LVL81
 3757 03aa 1F000000 		.4byte	.LVL83-1
 3758 03ae 0100     		.2byte	0x1
 3759 03b0 51       		.byte	0x51
 3760 03b1 1F000000 		.4byte	.LVL83-1
 3761 03b5 30000000 		.4byte	.LFE12
 3762 03b9 0400     		.2byte	0x4
 3763 03bb F3       		.byte	0xf3
 3764 03bc 01       		.uleb128 0x1
 3765 03bd 50       		.byte	0x50
 3766 03be 9F       		.byte	0x9f
 3767 03bf 00000000 		.4byte	0
 3768 03c3 00000000 		.4byte	0
 3769              	.LLST26:
 3770 03c7 0E000000 		.4byte	.LVL82
 3771 03cb 1F000000 		.4byte	.LVL83-1
 3772 03cf 0100     		.2byte	0x1
 3773 03d1 50       		.byte	0x50
 3774 03d2 00000000 		.4byte	0
 3775 03d6 00000000 		.4byte	0
 3776              	.LLST27:
 3777 03da 0C000000 		.4byte	.LVL84
 3778 03de 15000000 		.4byte	.LVL85-1
 3779 03e2 0100     		.2byte	0x1
 3780 03e4 50       		.byte	0x50
 3781 03e5 00000000 		.4byte	0
 3782 03e9 00000000 		.4byte	0
 3783              	.LLST28:
 3784 03ed 00000000 		.4byte	.LVL86
 3785 03f1 1E000000 		.4byte	.LVL87
 3786 03f5 0200     		.2byte	0x2
 3787 03f7 30       		.byte	0x30
 3788 03f8 9F       		.byte	0x9f
 3789 03f9 1E000000 		.4byte	.LVL87
 3790 03fd 24000000 		.4byte	.LVL88
 3791 0401 0100     		.2byte	0x1
 3792 0403 50       		.byte	0x50
 3793 0404 24000000 		.4byte	.LVL88
 3794 0408 2A000000 		.4byte	.LVL89
 3795 040c 0200     		.2byte	0x2
 3796 040e 30       		.byte	0x30
 3797 040f 9F       		.byte	0x9f
 3798 0410 2A000000 		.4byte	.LVL89
 3799 0414 38000000 		.4byte	.LFE14
 3800 0418 0100     		.2byte	0x1
ARM GAS  C:\Users\student\AppData\Local\Temp\cckxTosa.s 			page 88


 3801 041a 50       		.byte	0x50
 3802 041b 00000000 		.4byte	0
 3803 041f 00000000 		.4byte	0
 3804              	.LLST29:
 3805 0423 10000000 		.4byte	.LVL90
 3806 0427 16000000 		.4byte	.LVL91
 3807 042b 0600     		.2byte	0x6
 3808 042d 70       		.byte	0x70
 3809 042e 00       		.sleb128 0
 3810 042f 08       		.byte	0x8
 3811 0430 FF       		.byte	0xff
 3812 0431 1A       		.byte	0x1a
 3813 0432 9F       		.byte	0x9f
 3814 0433 16000000 		.4byte	.LVL91
 3815 0437 1C000000 		.4byte	.LVL92
 3816 043b 0100     		.2byte	0x1
 3817 043d 50       		.byte	0x50
 3818 043e 1C000000 		.4byte	.LVL92
 3819 0442 1E000000 		.4byte	.LVL93
 3820 0446 0100     		.2byte	0x1
 3821 0448 52       		.byte	0x52
 3822 0449 1E000000 		.4byte	.LVL93
 3823 044d 22000000 		.4byte	.LVL94
 3824 0451 0800     		.2byte	0x8
 3825 0453 72       		.byte	0x72
 3826 0454 00       		.sleb128 0
 3827 0455 38       		.byte	0x38
 3828 0456 24       		.byte	0x24
 3829 0457 70       		.byte	0x70
 3830 0458 00       		.sleb128 0
 3831 0459 21       		.byte	0x21
 3832 045a 9F       		.byte	0x9f
 3833 045b 22000000 		.4byte	.LVL94
 3834 045f 30000000 		.4byte	.LFE15
 3835 0463 0100     		.2byte	0x1
 3836 0465 50       		.byte	0x50
 3837 0466 00000000 		.4byte	0
 3838 046a 00000000 		.4byte	0
 3839              	.LLST30:
 3840 046e 00000000 		.4byte	.LVL95
 3841 0472 28000000 		.4byte	.LVL97
 3842 0476 0100     		.2byte	0x1
 3843 0478 50       		.byte	0x50
 3844 0479 28000000 		.4byte	.LVL97
 3845 047d 3E000000 		.4byte	.LVL98
 3846 0481 0700     		.2byte	0x7
 3847 0483 74       		.byte	0x74
 3848 0484 00       		.sleb128 0
 3849 0485 31       		.byte	0x31
 3850 0486 24       		.byte	0x24
 3851 0487 72       		.byte	0x72
 3852 0488 00       		.sleb128 0
 3853 0489 22       		.byte	0x22
 3854 048a 3E000000 		.4byte	.LVL98
 3855 048e 4D000000 		.4byte	.LVL99-1
 3856 0492 0A00     		.2byte	0xa
 3857 0494 74       		.byte	0x74
ARM GAS  C:\Users\student\AppData\Local\Temp\cckxTosa.s 			page 89


 3858 0495 00       		.sleb128 0
 3859 0496 31       		.byte	0x31
 3860 0497 24       		.byte	0x24
 3861 0498 03       		.byte	0x3
 3862 0499 00000000 		.4byte	USBUART_serialStateBitmap
 3863 049d 22       		.byte	0x22
 3864 049e 4D000000 		.4byte	.LVL99-1
 3865 04a2 64000000 		.4byte	.LFE20
 3866 04a6 0400     		.2byte	0x4
 3867 04a8 F3       		.byte	0xf3
 3868 04a9 01       		.uleb128 0x1
 3869 04aa 50       		.byte	0x50
 3870 04ab 9F       		.byte	0x9f
 3871 04ac 00000000 		.4byte	0
 3872 04b0 00000000 		.4byte	0
 3873              	.LLST31:
 3874 04b4 0C000000 		.4byte	.LVL96
 3875 04b8 4D000000 		.4byte	.LVL99-1
 3876 04bc 0100     		.2byte	0x1
 3877 04be 53       		.byte	0x53
 3878 04bf 00000000 		.4byte	0
 3879 04c3 00000000 		.4byte	0
 3880              	.LLST32:
 3881 04c7 00000000 		.4byte	.LVL101
 3882 04cb 0A000000 		.4byte	.LVL103
 3883 04cf 0100     		.2byte	0x1
 3884 04d1 50       		.byte	0x50
 3885 04d2 0A000000 		.4byte	.LVL103
 3886 04d6 50000000 		.4byte	.LFE25
 3887 04da 0400     		.2byte	0x4
 3888 04dc F3       		.byte	0xf3
 3889 04dd 01       		.uleb128 0x1
 3890 04de 50       		.byte	0x50
 3891 04df 9F       		.byte	0x9f
 3892 04e0 00000000 		.4byte	0
 3893 04e4 00000000 		.4byte	0
 3894              	.LLST33:
 3895 04e8 00000000 		.4byte	.LVL101
 3896 04ec 1E000000 		.4byte	.LVL105
 3897 04f0 0100     		.2byte	0x1
 3898 04f2 52       		.byte	0x52
 3899 04f3 1E000000 		.4byte	.LVL105
 3900 04f7 50000000 		.4byte	.LFE25
 3901 04fb 0100     		.2byte	0x1
 3902 04fd 52       		.byte	0x52
 3903 04fe 00000000 		.4byte	0
 3904 0502 00000000 		.4byte	0
 3905              	.LLST34:
 3906 0506 06000000 		.4byte	.LVL102
 3907 050a 16000000 		.4byte	.LVL104
 3908 050e 0100     		.2byte	0x1
 3909 0510 53       		.byte	0x53
 3910 0511 16000000 		.4byte	.LVL104
 3911 0515 20000000 		.4byte	.LVL106
 3912 0519 0A00     		.2byte	0xa
 3913 051b F3       		.byte	0xf3
 3914 051c 01       		.uleb128 0x1
ARM GAS  C:\Users\student\AppData\Local\Temp\cckxTosa.s 			page 90


 3915 051d 50       		.byte	0x50
 3916 051e 23       		.byte	0x23
 3917 051f 03       		.uleb128 0x3
 3918 0520 94       		.byte	0x94
 3919 0521 01       		.byte	0x1
 3920 0522 33       		.byte	0x33
 3921 0523 1A       		.byte	0x1a
 3922 0524 9F       		.byte	0x9f
 3923 0525 20000000 		.4byte	.LVL106
 3924 0529 24000000 		.4byte	.LVL107
 3925 052d 0100     		.2byte	0x1
 3926 052f 53       		.byte	0x53
 3927 0530 24000000 		.4byte	.LVL107
 3928 0534 2E000000 		.4byte	.LVL109
 3929 0538 0A00     		.2byte	0xa
 3930 053a F3       		.byte	0xf3
 3931 053b 01       		.uleb128 0x1
 3932 053c 50       		.byte	0x50
 3933 053d 23       		.byte	0x23
 3934 053e 03       		.uleb128 0x3
 3935 053f 94       		.byte	0x94
 3936 0540 01       		.byte	0x1
 3937 0541 33       		.byte	0x33
 3938 0542 1A       		.byte	0x1a
 3939 0543 9F       		.byte	0x9f
 3940 0544 2E000000 		.4byte	.LVL109
 3941 0548 36000000 		.4byte	.LVL110
 3942 054c 0100     		.2byte	0x1
 3943 054e 53       		.byte	0x53
 3944 054f 36000000 		.4byte	.LVL110
 3945 0553 50000000 		.4byte	.LFE25
 3946 0557 0A00     		.2byte	0xa
 3947 0559 F3       		.byte	0xf3
 3948 055a 01       		.uleb128 0x1
 3949 055b 50       		.byte	0x50
 3950 055c 23       		.byte	0x23
 3951 055d 03       		.uleb128 0x3
 3952 055e 94       		.byte	0x94
 3953 055f 01       		.byte	0x1
 3954 0560 33       		.byte	0x33
 3955 0561 1A       		.byte	0x1a
 3956 0562 9F       		.byte	0x9f
 3957 0563 00000000 		.4byte	0
 3958 0567 00000000 		.4byte	0
 3959              		.section	.debug_aranges,"",%progbits
 3960 0000 E4000000 		.4byte	0xe4
 3961 0004 0200     		.2byte	0x2
 3962 0006 00000000 		.4byte	.Ldebug_info0
 3963 000a 04       		.byte	0x4
 3964 000b 00       		.byte	0
 3965 000c 0000     		.2byte	0
 3966 000e 0000     		.2byte	0
 3967 0010 00000000 		.4byte	.LFB4
 3968 0014 12000000 		.4byte	.LFE4-.LFB4
 3969 0018 00000000 		.4byte	.LFB1
 3970 001c 3C000000 		.4byte	.LFE1-.LFB1
 3971 0020 00000000 		.4byte	.LFB0
ARM GAS  C:\Users\student\AppData\Local\Temp\cckxTosa.s 			page 91


 3972 0024 98000000 		.4byte	.LFE0-.LFB0
 3973 0028 00000000 		.4byte	.LFB2
 3974 002c 98000000 		.4byte	.LFE2-.LFB2
 3975 0030 00000000 		.4byte	.LFB3
 3976 0034 4C000000 		.4byte	.LFE3-.LFB3
 3977 0038 00000000 		.4byte	.LFB5
 3978 003c 9C000000 		.4byte	.LFE5-.LFB5
 3979 0040 00000000 		.4byte	.LFB6
 3980 0044 28000000 		.4byte	.LFE6-.LFB6
 3981 0048 00000000 		.4byte	.LFB7
 3982 004c 30000000 		.4byte	.LFE7-.LFB7
 3983 0050 00000000 		.4byte	.LFB8
 3984 0054 34000000 		.4byte	.LFE8-.LFB8
 3985 0058 00000000 		.4byte	.LFB9
 3986 005c 18000000 		.4byte	.LFE9-.LFB9
 3987 0060 00000000 		.4byte	.LFB10
 3988 0064 18000000 		.4byte	.LFE10-.LFB10
 3989 0068 00000000 		.4byte	.LFB11
 3990 006c 20000000 		.4byte	.LFE11-.LFB11
 3991 0070 00000000 		.4byte	.LFB12
 3992 0074 30000000 		.4byte	.LFE12-.LFB12
 3993 0078 00000000 		.4byte	.LFB13
 3994 007c 28000000 		.4byte	.LFE13-.LFB13
 3995 0080 00000000 		.4byte	.LFB14
 3996 0084 38000000 		.4byte	.LFE14-.LFB14
 3997 0088 00000000 		.4byte	.LFB15
 3998 008c 30000000 		.4byte	.LFE15-.LFB15
 3999 0090 00000000 		.4byte	.LFB16
 4000 0094 18000000 		.4byte	.LFE16-.LFB16
 4001 0098 00000000 		.4byte	.LFB17
 4002 009c 18000000 		.4byte	.LFE17-.LFB17
 4003 00a0 00000000 		.4byte	.LFB18
 4004 00a4 18000000 		.4byte	.LFE18-.LFB18
 4005 00a8 00000000 		.4byte	.LFB19
 4006 00ac 18000000 		.4byte	.LFE19-.LFB19
 4007 00b0 00000000 		.4byte	.LFB20
 4008 00b4 64000000 		.4byte	.LFE20-.LFB20
 4009 00b8 00000000 		.4byte	.LFB21
 4010 00bc 18000000 		.4byte	.LFE21-.LFB21
 4011 00c0 00000000 		.4byte	.LFB22
 4012 00c4 24000000 		.4byte	.LFE22-.LFB22
 4013 00c8 00000000 		.4byte	.LFB23
 4014 00cc 18000000 		.4byte	.LFE23-.LFB23
 4015 00d0 00000000 		.4byte	.LFB24
 4016 00d4 0C000000 		.4byte	.LFE24-.LFB24
 4017 00d8 00000000 		.4byte	.LFB25
 4018 00dc 50000000 		.4byte	.LFE25-.LFB25
 4019 00e0 00000000 		.4byte	0
 4020 00e4 00000000 		.4byte	0
 4021              		.section	.debug_ranges,"",%progbits
 4022              	.Ldebug_ranges0:
 4023 0000 00000000 		.4byte	.LFB4
 4024 0004 12000000 		.4byte	.LFE4
 4025 0008 00000000 		.4byte	.LFB1
 4026 000c 3C000000 		.4byte	.LFE1
 4027 0010 00000000 		.4byte	.LFB0
 4028 0014 98000000 		.4byte	.LFE0
ARM GAS  C:\Users\student\AppData\Local\Temp\cckxTosa.s 			page 92


 4029 0018 00000000 		.4byte	.LFB2
 4030 001c 98000000 		.4byte	.LFE2
 4031 0020 00000000 		.4byte	.LFB3
 4032 0024 4C000000 		.4byte	.LFE3
 4033 0028 00000000 		.4byte	.LFB5
 4034 002c 9C000000 		.4byte	.LFE5
 4035 0030 00000000 		.4byte	.LFB6
 4036 0034 28000000 		.4byte	.LFE6
 4037 0038 00000000 		.4byte	.LFB7
 4038 003c 30000000 		.4byte	.LFE7
 4039 0040 00000000 		.4byte	.LFB8
 4040 0044 34000000 		.4byte	.LFE8
 4041 0048 00000000 		.4byte	.LFB9
 4042 004c 18000000 		.4byte	.LFE9
 4043 0050 00000000 		.4byte	.LFB10
 4044 0054 18000000 		.4byte	.LFE10
 4045 0058 00000000 		.4byte	.LFB11
 4046 005c 20000000 		.4byte	.LFE11
 4047 0060 00000000 		.4byte	.LFB12
 4048 0064 30000000 		.4byte	.LFE12
 4049 0068 00000000 		.4byte	.LFB13
 4050 006c 28000000 		.4byte	.LFE13
 4051 0070 00000000 		.4byte	.LFB14
 4052 0074 38000000 		.4byte	.LFE14
 4053 0078 00000000 		.4byte	.LFB15
 4054 007c 30000000 		.4byte	.LFE15
 4055 0080 00000000 		.4byte	.LFB16
 4056 0084 18000000 		.4byte	.LFE16
 4057 0088 00000000 		.4byte	.LFB17
 4058 008c 18000000 		.4byte	.LFE17
 4059 0090 00000000 		.4byte	.LFB18
 4060 0094 18000000 		.4byte	.LFE18
 4061 0098 00000000 		.4byte	.LFB19
 4062 009c 18000000 		.4byte	.LFE19
 4063 00a0 00000000 		.4byte	.LFB20
 4064 00a4 64000000 		.4byte	.LFE20
 4065 00a8 00000000 		.4byte	.LFB21
 4066 00ac 18000000 		.4byte	.LFE21
 4067 00b0 00000000 		.4byte	.LFB22
 4068 00b4 24000000 		.4byte	.LFE22
 4069 00b8 00000000 		.4byte	.LFB23
 4070 00bc 18000000 		.4byte	.LFE23
 4071 00c0 00000000 		.4byte	.LFB24
 4072 00c4 0C000000 		.4byte	.LFE24
 4073 00c8 00000000 		.4byte	.LFB25
 4074 00cc 50000000 		.4byte	.LFE25
 4075 00d0 00000000 		.4byte	0
 4076 00d4 00000000 		.4byte	0
 4077              		.section	.debug_line,"",%progbits
 4078              	.Ldebug_line0:
 4079 0000 F0020000 		.section	.debug_str,"MS",%progbits,1
 4079      02007300 
 4079      00000201 
 4079      FB0E0D00 
 4079      01010101 
 4080              	.LASF37:
 4081 0000 70537461 		.ascii	"pStatusBlock\000"
ARM GAS  C:\Users\student\AppData\Local\Temp\cckxTosa.s 			page 93


 4081      74757342 
 4081      6C6F636B 
 4081      00
 4082              	.LASF35:
 4083 000d 636F756E 		.ascii	"count\000"
 4083      7400
 4084              	.LASF93:
 4085 0013 55534255 		.ascii	"USBUART_GetComPort\000"
 4085      4152545F 
 4085      47657443 
 4085      6F6D506F 
 4085      727400
 4086              	.LASF10:
 4087 0026 75696E74 		.ascii	"uint16\000"
 4087      313600
 4088              	.LASF54:
 4089 002d 55534255 		.ascii	"USBUART_GetInterfaceComPort\000"
 4089      4152545F 
 4089      47657449 
 4089      6E746572 
 4089      66616365 
 4090              	.LASF66:
 4091 0049 74784461 		.ascii	"txDataByte\000"
 4091      74614279 
 4091      746500
 4092              	.LASF67:
 4093 0054 64617461 		.ascii	"dataByte\000"
 4093      42797465 
 4093      00
 4094              	.LASF51:
 4095 005d 73747269 		.ascii	"string\000"
 4095      6E6700
 4096              	.LASF115:
 4097 0064 55534255 		.ascii	"USBUART_LoadInEP\000"
 4097      4152545F 
 4097      4C6F6164 
 4097      496E4550 
 4097      00
 4098              	.LASF104:
 4099 0075 55534255 		.ascii	"USBUART_serialStateBitmap\000"
 4099      4152545F 
 4099      73657269 
 4099      616C5374 
 4099      61746542 
 4100              	.LASF83:
 4101 008f 55534255 		.ascii	"USBUART_GetCharFormat\000"
 4101      4152545F 
 4101      47657443 
 4101      68617246 
 4101      6F726D61 
 4102              	.LASF7:
 4103 00a5 6C6F6E67 		.ascii	"long long unsigned int\000"
 4103      206C6F6E 
 4103      6720756E 
 4103      7369676E 
 4103      65642069 
 4104              	.LASF22:
ARM GAS  C:\Users\student\AppData\Local\Temp\cckxTosa.s 			page 94


 4105 00bc 61646472 		.ascii	"addr\000"
 4105      00
 4106              	.LASF41:
 4107 00c1 62526571 		.ascii	"bRequestType\000"
 4107      75657374 
 4107      54797065 
 4107      00
 4108              	.LASF95:
 4109 00ce 65704E75 		.ascii	"epNum\000"
 4109      6D00
 4110              	.LASF49:
 4111 00d4 77536572 		.ascii	"wSerialStateMSB\000"
 4111      69616C53 
 4111      74617465 
 4111      4D534200 
 4112              	.LASF108:
 4113 00e4 55534255 		.ascii	"USBUART_EP\000"
 4113      4152545F 
 4113      455000
 4114              	.LASF34:
 4115 00ef 545F5553 		.ascii	"T_USBUART_XFER_STATUS_BLOCK\000"
 4115      42554152 
 4115      545F5846 
 4115      45525F53 
 4115      54415455 
 4116              	.LASF101:
 4117 010b 55534255 		.ascii	"USBUART_linesCoding\000"
 4117      4152545F 
 4117      6C696E65 
 4117      73436F64 
 4117      696E6700 
 4118              	.LASF6:
 4119 011f 6C6F6E67 		.ascii	"long long int\000"
 4119      206C6F6E 
 4119      6720696E 
 4119      7400
 4120              	.LASF0:
 4121 012d 7369676E 		.ascii	"signed char\000"
 4121      65642063 
 4121      68617200 
 4122              	.LASF82:
 4123 0139 72617465 		.ascii	"rate\000"
 4123      00
 4124              	.LASF113:
 4125 013e 55534255 		.ascii	"USBUART_EnableOutEP\000"
 4125      4152545F 
 4125      456E6162 
 4125      6C654F75 
 4125      74455000 
 4126              	.LASF71:
 4127 0152 62797465 		.ascii	"bytesCount\000"
 4127      73436F75 
 4127      6E7400
 4128              	.LASF110:
 4129 015d 55534255 		.ascii	"USBUART_InitControlRead\000"
 4129      4152545F 
 4129      496E6974 
ARM GAS  C:\Users\student\AppData\Local\Temp\cckxTosa.s 			page 95


 4129      436F6E74 
 4129      726F6C52 
 4130              	.LASF73:
 4131 0175 55534255 		.ascii	"USBUART_CDCIsReady\000"
 4131      4152545F 
 4131      43444349 
 4131      73526561 
 4131      647900
 4132              	.LASF80:
 4133 0188 73746174 		.ascii	"state\000"
 4133      6500
 4134              	.LASF40:
 4135 018e 55534255 		.ascii	"USBUART_ep0_data_struct\000"
 4135      4152545F 
 4135      6570305F 
 4135      64617461 
 4135      5F737472 
 4136              	.LASF4:
 4137 01a6 6C6F6E67 		.ascii	"long int\000"
 4137      20696E74 
 4137      00
 4138              	.LASF77:
 4139 01af 55534255 		.ascii	"USBUART_GetChar\000"
 4139      4152545F 
 4139      47657443 
 4139      68617200 
 4140              	.LASF60:
 4141 01bf 55534255 		.ascii	"USBUART_PutData\000"
 4141      4152545F 
 4141      50757444 
 4141      61746100 
 4142              	.LASF9:
 4143 01cf 75696E74 		.ascii	"uint8\000"
 4143      3800
 4144              	.LASF21:
 4145 01d5 6570546F 		.ascii	"epToggle\000"
 4145      67676C65 
 4145      00
 4146              	.LASF43:
 4147 01de 7756616C 		.ascii	"wValue\000"
 4147      756500
 4148              	.LASF13:
 4149 01e5 646F7562 		.ascii	"double\000"
 4149      6C6500
 4150              	.LASF120:
 4151 01ec 2E5C4765 		.ascii	".\\Generated_Source\\PSoC5\\USBUART_cdc.c\000"
 4151      6E657261 
 4151      7465645F 
 4151      536F7572 
 4151      63655C50 
 4152              	.LASF76:
 4153 0213 64617461 		.ascii	"dataLength\000"
 4153      4C656E67 
 4153      746800
 4154              	.LASF86:
 4155 021e 55534255 		.ascii	"USBUART_GetLineControl\000"
 4155      4152545F 
ARM GAS  C:\Users\student\AppData\Local\Temp\cckxTosa.s 			page 96


 4155      4765744C 
 4155      696E6543 
 4155      6F6E7472 
 4156              	.LASF107:
 4157 0235 55534255 		.ascii	"USBUART_cdcCommInInterruptEp\000"
 4157      4152545F 
 4157      63646343 
 4157      6F6D6D49 
 4157      6E496E74 
 4158              	.LASF121:
 4159 0252 443A5C72 		.ascii	"D:\\rbeattie_final_project\\ConnectFour.cydsn\000"
 4159      62656174 
 4159      7469655F 
 4159      66696E61 
 4159      6C5F7072 
 4160              	.LASF11:
 4161 027e 75696E74 		.ascii	"uint32\000"
 4161      333200
 4162              	.LASF48:
 4163 0285 77536572 		.ascii	"wSerialState\000"
 4163      69616C53 
 4163      74617465 
 4163      00
 4164              	.LASF103:
 4165 0292 55534255 		.ascii	"USBUART_linesControlBitmap\000"
 4165      4152545F 
 4165      6C696E65 
 4165      73436F6E 
 4165      74726F6C 
 4166              	.LASF106:
 4167 02ad 55534255 		.ascii	"USBUART_cdcDataOutEp\000"
 4167      4152545F 
 4167      63646344 
 4167      6174614F 
 4167      75744570 
 4168              	.LASF36:
 4169 02c2 70446174 		.ascii	"pData\000"
 4169      6100
 4170              	.LASF23:
 4171 02c8 65704D6F 		.ascii	"epMode\000"
 4171      646500
 4172              	.LASF97:
 4173 02cf 65705479 		.ascii	"epType\000"
 4173      706500
 4174              	.LASF90:
 4175 02d6 55534255 		.ascii	"USBUART_NotificationIsReady\000"
 4175      4152545F 
 4175      4E6F7469 
 4175      66696361 
 4175      74696F6E 
 4176              	.LASF81:
 4177 02f2 55534255 		.ascii	"USBUART_GetDTERate\000"
 4177      4152545F 
 4177      47657444 
 4177      54455261 
 4177      746500
 4178              	.LASF79:
ARM GAS  C:\Users\student\AppData\Local\Temp\cckxTosa.s 			page 97


 4179 0305 55534255 		.ascii	"USBUART_IsLineChanged\000"
 4179      4152545F 
 4179      49734C69 
 4179      6E654368 
 4179      616E6765 
 4180              	.LASF8:
 4181 031b 756E7369 		.ascii	"unsigned int\000"
 4181      676E6564 
 4181      20696E74 
 4181      00
 4182              	.LASF72:
 4183 0328 55534255 		.ascii	"USBUART_DataIsReady\000"
 4183      4152545F 
 4183      44617461 
 4183      49735265 
 4183      61647900 
 4184              	.LASF5:
 4185 033c 6C6F6E67 		.ascii	"long unsigned int\000"
 4185      20756E73 
 4185      69676E65 
 4185      6420696E 
 4185      7400
 4186              	.LASF59:
 4187 034e 65704E75 		.ascii	"epNumber\000"
 4187      6D626572 
 4187      00
 4188              	.LASF119:
 4189 0357 474E5520 		.ascii	"GNU C 4.9.3 20150303 (release) [ARM/embedded-4_9-br"
 4189      4320342E 
 4189      392E3320 
 4189      32303135 
 4189      30333033 
 4190 038a 616E6368 		.ascii	"anch revision 221220] -mcpu=cortex-m3 -mthumb -g -O"
 4190      20726576 
 4190      6973696F 
 4190      6E203232 
 4190      31323230 
 4191 03bd 67202D73 		.ascii	"g -std=gnu11 -ffunction-sections -ffat-lto-objects\000"
 4191      74643D67 
 4191      6E753131 
 4191      202D6666 
 4191      756E6374 
 4192              	.LASF84:
 4193 03f0 55534255 		.ascii	"USBUART_GetParityType\000"
 4193      4152545F 
 4193      47657450 
 4193      61726974 
 4193      79547970 
 4194              	.LASF3:
 4195 0406 73686F72 		.ascii	"short unsigned int\000"
 4195      7420756E 
 4195      7369676E 
 4195      65642069 
 4195      6E7400
 4196              	.LASF88:
 4197 0419 73657269 		.ascii	"serialState\000"
 4197      616C5374 
ARM GAS  C:\Users\student\AppData\Local\Temp\cckxTosa.s 			page 98


 4197      61746500 
 4198              	.LASF64:
 4199 0425 62756649 		.ascii	"bufIndex\000"
 4199      6E646578 
 4199      00
 4200              	.LASF75:
 4201 042e 55534255 		.ascii	"USBUART_GetAll\000"
 4201      4152545F 
 4201      47657441 
 4201      6C6C00
 4202              	.LASF109:
 4203 043d 55534255 		.ascii	"USBUART_currentTD\000"
 4203      4152545F 
 4203      63757272 
 4203      656E7454 
 4203      4400
 4204              	.LASF105:
 4205 044f 55534255 		.ascii	"USBUART_cdcDataInEp\000"
 4205      4152545F 
 4205      63646344 
 4205      61746149 
 4205      6E457000 
 4206              	.LASF26:
 4207 0463 696E7465 		.ascii	"interface\000"
 4207      72666163 
 4207      6500
 4208              	.LASF99:
 4209 046d 55534255 		.ascii	"USBUART_activeCom\000"
 4209      4152545F 
 4209      61637469 
 4209      7665436F 
 4209      6D00
 4210              	.LASF20:
 4211 047f 68774570 		.ascii	"hwEpState\000"
 4211      53746174 
 4211      6500
 4212              	.LASF17:
 4213 0489 73697A65 		.ascii	"sizetype\000"
 4213      74797065 
 4213      00
 4214              	.LASF16:
 4215 0492 6C6F6E67 		.ascii	"long double\000"
 4215      20646F75 
 4215      626C6500 
 4216              	.LASF111:
 4217 049e 55534255 		.ascii	"USBUART_InitControlWrite\000"
 4217      4152545F 
 4217      496E6974 
 4217      436F6E74 
 4217      726F6C57 
 4218              	.LASF18:
 4219 04b7 61747472 		.ascii	"attrib\000"
 4219      696200
 4220              	.LASF70:
 4221 04be 55534255 		.ascii	"USBUART_GetCount\000"
 4221      4152545F 
 4221      47657443 
ARM GAS  C:\Users\student\AppData\Local\Temp\cckxTosa.s 			page 99


 4221      6F756E74 
 4221      00
 4222              	.LASF87:
 4223 04cf 55534255 		.ascii	"USBUART_SendSerialState\000"
 4223      4152545F 
 4223      53656E64 
 4223      53657269 
 4223      616C5374 
 4224              	.LASF112:
 4225 04e7 55534255 		.ascii	"USBUART_InitNoDataControlTransfer\000"
 4225      4152545F 
 4225      496E6974 
 4225      4E6F4461 
 4225      7461436F 
 4226              	.LASF52:
 4227 0509 636F6D50 		.ascii	"comPort\000"
 4227      6F727400 
 4228              	.LASF85:
 4229 0511 55534255 		.ascii	"USBUART_GetDataBits\000"
 4229      4152545F 
 4229      47657444 
 4229      61746142 
 4229      69747300 
 4230              	.LASF102:
 4231 0525 55534255 		.ascii	"USBUART_linesChanged\000"
 4231      4152545F 
 4231      6C696E65 
 4231      73436861 
 4231      6E676564 
 4232              	.LASF61:
 4233 053a 55534255 		.ascii	"USBUART_PutString\000"
 4233      4152545F 
 4233      50757453 
 4233      7472696E 
 4233      6700
 4234              	.LASF12:
 4235 054c 666C6F61 		.ascii	"float\000"
 4235      7400
 4236              	.LASF65:
 4237 0552 55534255 		.ascii	"USBUART_PutChar\000"
 4237      4152545F 
 4237      50757443 
 4237      68617200 
 4238              	.LASF118:
 4239 0562 55534255 		.ascii	"USBUART_ReadOutEP\000"
 4239      4152545F 
 4239      52656164 
 4239      4F757445 
 4239      5000
 4240              	.LASF19:
 4241 0574 61706945 		.ascii	"apiEpState\000"
 4241      70537461 
 4241      746500
 4242              	.LASF114:
 4243 057f 43794861 		.ascii	"CyHalt\000"
 4243      6C7400
 4244              	.LASF1:
ARM GAS  C:\Users\student\AppData\Local\Temp\cckxTosa.s 			page 100


 4245 0586 756E7369 		.ascii	"unsigned char\000"
 4245      676E6564 
 4245      20636861 
 4245      7200
 4246              	.LASF92:
 4247 0594 636F6D4E 		.ascii	"comNumber\000"
 4247      756D6265 
 4247      7200
 4248              	.LASF45:
 4249 059e 77496E64 		.ascii	"wIndex\000"
 4249      657800
 4250              	.LASF58:
 4251 05a5 6F757445 		.ascii	"outEp\000"
 4251      7000
 4252              	.LASF2:
 4253 05ab 73686F72 		.ascii	"short int\000"
 4253      7420696E 
 4253      7400
 4254              	.LASF117:
 4255 05b5 55534255 		.ascii	"USBUART_GetEPState\000"
 4255      4152545F 
 4255      47657445 
 4255      50537461 
 4255      746500
 4256              	.LASF53:
 4257 05c8 6E6F7445 		.ascii	"notEp\000"
 4257      7000
 4258              	.LASF44:
 4259 05ce 7756616C 		.ascii	"wValueMSB\000"
 4259      75654D53 
 4259      4200
 4260              	.LASF38:
 4261 05d8 545F5553 		.ascii	"T_USBUART_TD\000"
 4261      42554152 
 4261      545F5444 
 4261      00
 4262              	.LASF98:
 4263 05e5 55534255 		.ascii	"USBUART_serialStateNotification\000"
 4263      4152545F 
 4263      73657269 
 4263      616C5374 
 4263      6174654E 
 4264              	.LASF68:
 4265 0605 55534255 		.ascii	"USBUART_PutCRLF\000"
 4265      4152545F 
 4265      50757443 
 4265      524C4600 
 4266              	.LASF29:
 4267 0615 61747472 		.ascii	"attributes\000"
 4267      69627574 
 4267      657300
 4268              	.LASF78:
 4269 0620 72784461 		.ascii	"rxData\000"
 4269      746100
 4270              	.LASF62:
 4271 0627 7374724C 		.ascii	"strLength\000"
 4271      656E6774 
ARM GAS  C:\Users\student\AppData\Local\Temp\cckxTosa.s 			page 101


 4271      6800
 4272              	.LASF57:
 4273 0631 55534255 		.ascii	"USBUART_CDC_Init\000"
 4273      4152545F 
 4273      4344435F 
 4273      496E6974 
 4273      00
 4274              	.LASF91:
 4275 0642 55534255 		.ascii	"USBUART_SetComPort\000"
 4275      4152545F 
 4275      53657443 
 4275      6F6D506F 
 4275      727400
 4276              	.LASF28:
 4277 0655 616C7453 		.ascii	"altSetting\000"
 4277      65747469 
 4277      6E6700
 4278              	.LASF15:
 4279 0660 63686172 		.ascii	"char\000"
 4279      00
 4280              	.LASF25:
 4281 0665 62756666 		.ascii	"bufferSize\000"
 4281      65725369 
 4281      7A6500
 4282              	.LASF56:
 4283 0670 72657175 		.ascii	"requestHandled\000"
 4283      65737448 
 4283      616E646C 
 4283      656400
 4284              	.LASF27:
 4285 067f 545F5553 		.ascii	"T_USBUART_EP_CTL_BLOCK\000"
 4285      42554152 
 4285      545F4550 
 4285      5F43544C 
 4285      5F424C4F 
 4286              	.LASF24:
 4287 0696 62756666 		.ascii	"buffOffset\000"
 4287      4F666673 
 4287      657400
 4288              	.LASF14:
 4289 06a1 63686172 		.ascii	"char8\000"
 4289      3800
 4290              	.LASF31:
 4291 06a7 545F5553 		.ascii	"T_USBUART_EP_SETTINGS_BLOCK\000"
 4291      42554152 
 4291      545F4550 
 4291      5F534554 
 4291      54494E47 
 4292              	.LASF116:
 4293 06c3 55534255 		.ascii	"USBUART_GetEPCount\000"
 4293      4152545F 
 4293      47657445 
 4293      50436F75 
 4293      6E7400
 4294              	.LASF74:
 4295 06d6 55534255 		.ascii	"USBUART_GetData\000"
 4295      4152545F 
ARM GAS  C:\Users\student\AppData\Local\Temp\cckxTosa.s 			page 102


 4295      47657444 
 4295      61746100 
 4296              	.LASF122:
 4297 06e6 55534255 		.ascii	"USBUART_StrLen\000"
 4297      4152545F 
 4297      5374724C 
 4297      656E00
 4298              	.LASF33:
 4299 06f5 6C656E67 		.ascii	"length\000"
 4299      746800
 4300              	.LASF32:
 4301 06fc 73746174 		.ascii	"status\000"
 4301      757300
 4302              	.LASF47:
 4303 0703 774C656E 		.ascii	"wLengthMSB\000"
 4303      6774684D 
 4303      534200
 4304              	.LASF42:
 4305 070e 624E6F74 		.ascii	"bNotification\000"
 4305      69666963 
 4305      6174696F 
 4305      6E00
 4306              	.LASF39:
 4307 071c 65704461 		.ascii	"epData\000"
 4307      746100
 4308              	.LASF30:
 4309 0723 624D6973 		.ascii	"bMisc\000"
 4309      6300
 4310              	.LASF55:
 4311 0729 55534255 		.ascii	"USBUART_DispatchCDCClassRqst\000"
 4311      4152545F 
 4311      44697370 
 4311      61746368 
 4311      43444343 
 4312              	.LASF50:
 4313 0746 745F5553 		.ascii	"t_USBUART_cdc_notification\000"
 4313      42554152 
 4313      545F6364 
 4313      635F6E6F 
 4313      74696669 
 4314              	.LASF96:
 4315 0761 63646343 		.ascii	"cdcComNums\000"
 4315      6F6D4E75 
 4315      6D7300
 4316              	.LASF100:
 4317 076c 55534255 		.ascii	"USBUART_transferState\000"
 4317      4152545F 
 4317      7472616E 
 4317      73666572 
 4317      53746174 
 4318              	.LASF63:
 4319 0782 73656E64 		.ascii	"sendLength\000"
 4319      4C656E67 
 4319      746800
 4320              	.LASF94:
 4321 078d 55534255 		.ascii	"USBUART_Cdc_EpInit\000"
 4321      4152545F 
ARM GAS  C:\Users\student\AppData\Local\Temp\cckxTosa.s 			page 103


 4321      4364635F 
 4321      4570496E 
 4321      697400
 4322              	.LASF69:
 4323 07a0 74784461 		.ascii	"txData\000"
 4323      746100
 4324              	.LASF89:
 4325 07a7 55534255 		.ascii	"USBUART_GetSerialState\000"
 4325      4152545F 
 4325      47657453 
 4325      65726961 
 4325      6C537461 
 4326              	.LASF46:
 4327 07be 77496E64 		.ascii	"wIndexMSB\000"
 4327      65784D53 
 4327      4200
 4328              		.ident	"GCC: (GNU Tools for ARM Embedded Processors) 4.9.3 20150303 (release) [ARM/embedded-4_9-br
