ARM GAS  C:\Users\student\AppData\Local\Temp\cc0M93RX.s 			page 1


   1              		.syntax unified
   2              		.cpu cortex-m3
   3              		.fpu softvfp
   4              		.eabi_attribute 20, 1
   5              		.eabi_attribute 21, 1
   6              		.eabi_attribute 23, 3
   7              		.eabi_attribute 24, 1
   8              		.eabi_attribute 25, 1
   9              		.eabi_attribute 26, 1
  10              		.eabi_attribute 30, 1
  11              		.eabi_attribute 34, 1
  12              		.eabi_attribute 18, 4
  13              		.thumb
  14              		.file	"USBUART_episr.c"
  15              		.text
  16              	.Ltext0:
  17              		.cfi_sections	.debug_frame
  18              		.section	.text.USBUART_EP_1_ISR,"ax",%progbits
  19              		.align	2
  20              		.global	USBUART_EP_1_ISR
  21              		.thumb
  22              		.thumb_func
  23              		.type	USBUART_EP_1_ISR, %function
  24              	USBUART_EP_1_ISR:
  25              	.LFB0:
  26              		.file 1 ".\\Generated_Source\\PSoC5\\USBUART_episr.c"
   1:.\Generated_Source\PSoC5/USBUART_episr.c **** /***************************************************************************//**
   2:.\Generated_Source\PSoC5/USBUART_episr.c **** * \file USBUART_episr.c
   3:.\Generated_Source\PSoC5/USBUART_episr.c **** * \version 3.0
   4:.\Generated_Source\PSoC5/USBUART_episr.c **** *
   5:.\Generated_Source\PSoC5/USBUART_episr.c **** * \brief
   6:.\Generated_Source\PSoC5/USBUART_episr.c **** *  This file contains the Data endpoint Interrupt Service Routines.
   7:.\Generated_Source\PSoC5/USBUART_episr.c **** *
   8:.\Generated_Source\PSoC5/USBUART_episr.c **** ********************************************************************************
   9:.\Generated_Source\PSoC5/USBUART_episr.c **** * \copyright
  10:.\Generated_Source\PSoC5/USBUART_episr.c **** * Copyright 2008-2015, Cypress Semiconductor Corporation.  All rights reserved.
  11:.\Generated_Source\PSoC5/USBUART_episr.c **** * You may use this file only in accordance with the license, terms, conditions,
  12:.\Generated_Source\PSoC5/USBUART_episr.c **** * disclaimers, and limitations in the end user license agreement accompanying
  13:.\Generated_Source\PSoC5/USBUART_episr.c **** * the software package with which this file was provided.
  14:.\Generated_Source\PSoC5/USBUART_episr.c **** *******************************************************************************/
  15:.\Generated_Source\PSoC5/USBUART_episr.c **** 
  16:.\Generated_Source\PSoC5/USBUART_episr.c **** #include "USBUART_pvt.h"
  17:.\Generated_Source\PSoC5/USBUART_episr.c **** #include "USBUART_cydmac.h"
  18:.\Generated_Source\PSoC5/USBUART_episr.c **** #include "cyapicallbacks.h"
  19:.\Generated_Source\PSoC5/USBUART_episr.c **** 
  20:.\Generated_Source\PSoC5/USBUART_episr.c **** 
  21:.\Generated_Source\PSoC5/USBUART_episr.c **** /***************************************
  22:.\Generated_Source\PSoC5/USBUART_episr.c **** * Custom Declarations
  23:.\Generated_Source\PSoC5/USBUART_episr.c **** ***************************************/
  24:.\Generated_Source\PSoC5/USBUART_episr.c **** /* `#START CUSTOM_DECLARATIONS` Place your declaration here */
  25:.\Generated_Source\PSoC5/USBUART_episr.c **** 
  26:.\Generated_Source\PSoC5/USBUART_episr.c **** /* `#END` */
  27:.\Generated_Source\PSoC5/USBUART_episr.c **** 
  28:.\Generated_Source\PSoC5/USBUART_episr.c **** 
  29:.\Generated_Source\PSoC5/USBUART_episr.c **** #if (USBUART_EP1_ISR_ACTIVE)
  30:.\Generated_Source\PSoC5/USBUART_episr.c ****     /******************************************************************************
  31:.\Generated_Source\PSoC5/USBUART_episr.c ****     * Function Name: USBUART_EP_1_ISR
ARM GAS  C:\Users\student\AppData\Local\Temp\cc0M93RX.s 			page 2


  32:.\Generated_Source\PSoC5/USBUART_episr.c ****     ***************************************************************************//**
  33:.\Generated_Source\PSoC5/USBUART_episr.c ****     *
  34:.\Generated_Source\PSoC5/USBUART_episr.c ****     *  Endpoint 1 Interrupt Service Routine
  35:.\Generated_Source\PSoC5/USBUART_episr.c ****     *
  36:.\Generated_Source\PSoC5/USBUART_episr.c ****     ******************************************************************************/
  37:.\Generated_Source\PSoC5/USBUART_episr.c ****     CY_ISR(USBUART_EP_1_ISR)
  38:.\Generated_Source\PSoC5/USBUART_episr.c ****     {
  27              		.loc 1 38 0
  28              		.cfi_startproc
  29              		@ args = 0, pretend = 0, frame = 0
  30              		@ frame_needed = 0, uses_anonymous_args = 0
  31              		@ link register save eliminated.
  39:.\Generated_Source\PSoC5/USBUART_episr.c **** 
  40:.\Generated_Source\PSoC5/USBUART_episr.c ****     #ifdef USBUART_EP_1_ISR_ENTRY_CALLBACK
  41:.\Generated_Source\PSoC5/USBUART_episr.c ****         USBUART_EP_1_ISR_EntryCallback();
  42:.\Generated_Source\PSoC5/USBUART_episr.c ****     #endif /* (USBUART_EP_1_ISR_ENTRY_CALLBACK) */
  43:.\Generated_Source\PSoC5/USBUART_episr.c **** 
  44:.\Generated_Source\PSoC5/USBUART_episr.c ****         /* `#START EP1_USER_CODE` Place your code here */
  45:.\Generated_Source\PSoC5/USBUART_episr.c **** 
  46:.\Generated_Source\PSoC5/USBUART_episr.c ****         /* `#END` */
  47:.\Generated_Source\PSoC5/USBUART_episr.c **** 
  48:.\Generated_Source\PSoC5/USBUART_episr.c ****     #if (CY_PSOC3 && defined(USBUART_ENABLE_MIDI_STREAMING) && \
  49:.\Generated_Source\PSoC5/USBUART_episr.c ****         !defined(USBUART_MAIN_SERVICE_MIDI_OUT) && USBUART_ISR_SERVICE_MIDI_OUT)
  50:.\Generated_Source\PSoC5/USBUART_episr.c ****         {
  51:.\Generated_Source\PSoC5/USBUART_episr.c ****             uint8 intEn = EA;
  52:.\Generated_Source\PSoC5/USBUART_episr.c ****             CyGlobalIntEnable;  /* Enable nested interrupts. */
  53:.\Generated_Source\PSoC5/USBUART_episr.c ****     #endif /* (CY_PSOC3 && USBUART_ISR_SERVICE_MIDI_OUT) */
  54:.\Generated_Source\PSoC5/USBUART_episr.c ****     
  55:.\Generated_Source\PSoC5/USBUART_episr.c ****         USBUART_ClearSieEpInterruptSource(USBUART_SIE_INT_EP1_INTR);
  32              		.loc 1 55 0
  33 0000 0A4A     		ldr	r2, .L3
  34 0002 1378     		ldrb	r3, [r2]	@ zero_extendqisi2
  35 0004 03F0FE03 		and	r3, r3, #254
  36 0008 1370     		strb	r3, [r2]
  56:.\Generated_Source\PSoC5/USBUART_episr.c ****             
  57:.\Generated_Source\PSoC5/USBUART_episr.c ****         /* Notifies user that transfer IN or OUT transfer is completed.
  58:.\Generated_Source\PSoC5/USBUART_episr.c ****         * IN endpoint: endpoint buffer can be reloaded, Host is read data.
  59:.\Generated_Source\PSoC5/USBUART_episr.c ****         * OUT endpoint: data is ready to be read from endpoint buffer. 
  60:.\Generated_Source\PSoC5/USBUART_episr.c ****         */
  61:.\Generated_Source\PSoC5/USBUART_episr.c ****     #if (CY_PSOC4 && USBUART_EP_MANAGEMENT_DMA_AUTO)
  62:.\Generated_Source\PSoC5/USBUART_episr.c ****         if (0u != (USBUART_EP[USBUART_EP1].addr & USBUART_DIR_IN))
  63:.\Generated_Source\PSoC5/USBUART_episr.c ****     #endif /* (CY_PSOC4 && USBUART_EP_MANAGEMENT_DMA_AUTO) */
  64:.\Generated_Source\PSoC5/USBUART_episr.c ****         {
  65:.\Generated_Source\PSoC5/USBUART_episr.c ****             /* Read CR0 register to clear SIE lock. */
  66:.\Generated_Source\PSoC5/USBUART_episr.c ****             (void) USBUART_SIE_EP_BASE.sieEp[USBUART_EP1].epCr0;
  37              		.loc 1 66 0
  38 000a 094B     		ldr	r3, .L3+4
  39 000c 9B7C     		ldrb	r3, [r3, #18]	@ zero_extendqisi2
  67:.\Generated_Source\PSoC5/USBUART_episr.c ****             
  68:.\Generated_Source\PSoC5/USBUART_episr.c ****             /* Toggle all endpoint types except ISOC. */
  69:.\Generated_Source\PSoC5/USBUART_episr.c ****             if (USBUART_GET_EP_TYPE(USBUART_EP1) != USBUART_EP_TYPE_ISOC)
  40              		.loc 1 69 0
  41 000e 094B     		ldr	r3, .L3+8
  42 0010 1B7B     		ldrb	r3, [r3, #12]	@ zero_extendqisi2
  43 0012 03F00303 		and	r3, r3, #3
  44 0016 012B     		cmp	r3, #1
  45 0018 04D0     		beq	.L2
ARM GAS  C:\Users\student\AppData\Local\Temp\cc0M93RX.s 			page 3


  70:.\Generated_Source\PSoC5/USBUART_episr.c ****             {
  71:.\Generated_Source\PSoC5/USBUART_episr.c ****                 USBUART_EP[USBUART_EP1].epToggle ^= USBUART_EPX_CNT_DATA_TOGGLE;
  46              		.loc 1 71 0
  47 001a 064A     		ldr	r2, .L3+8
  48 001c D37B     		ldrb	r3, [r2, #15]	@ zero_extendqisi2
  49 001e 83F08003 		eor	r3, r3, #128
  50 0022 D373     		strb	r3, [r2, #15]
  51              	.L2:
  72:.\Generated_Source\PSoC5/USBUART_episr.c ****             }
  73:.\Generated_Source\PSoC5/USBUART_episr.c **** 
  74:.\Generated_Source\PSoC5/USBUART_episr.c ****             /* EP_MANAGEMENT_DMA_AUTO (Ticket ID# 214187): For OUT endpoint this event is used to n
  75:.\Generated_Source\PSoC5/USBUART_episr.c ****             * user that DMA has completed copying data from OUT endpoint which is not completely tr
  76:.\Generated_Source\PSoC5/USBUART_episr.c ****             * Because last chunk of data is being copied.
  77:.\Generated_Source\PSoC5/USBUART_episr.c ****             * For CY_PSOC 3/5LP: it is acceptable as DMA is really fast.
  78:.\Generated_Source\PSoC5/USBUART_episr.c ****             * For CY_PSOC4: this event is set in Arbiter interrupt (source is DMA_TERMIN).
  79:.\Generated_Source\PSoC5/USBUART_episr.c ****             */
  80:.\Generated_Source\PSoC5/USBUART_episr.c ****             USBUART_EP[USBUART_EP1].apiEpState = USBUART_EVENT_PENDING;
  52              		.loc 1 80 0
  53 0024 0122     		movs	r2, #1
  54 0026 034B     		ldr	r3, .L3+8
  55 0028 5A73     		strb	r2, [r3, #13]
  56 002a 7047     		bx	lr
  57              	.L4:
  58              		.align	2
  59              	.L3:
  60 002c 0B600040 		.word	1073766411
  61 0030 FC5F0040 		.word	1073766396
  62 0034 00000000 		.word	USBUART_EP
  63              		.cfi_endproc
  64              	.LFE0:
  65              		.size	USBUART_EP_1_ISR, .-USBUART_EP_1_ISR
  66              		.section	.text.USBUART_EP_2_ISR,"ax",%progbits
  67              		.align	2
  68              		.global	USBUART_EP_2_ISR
  69              		.thumb
  70              		.thumb_func
  71              		.type	USBUART_EP_2_ISR, %function
  72              	USBUART_EP_2_ISR:
  73              	.LFB1:
  81:.\Generated_Source\PSoC5/USBUART_episr.c ****         }
  82:.\Generated_Source\PSoC5/USBUART_episr.c **** 
  83:.\Generated_Source\PSoC5/USBUART_episr.c ****     #if (!(CY_PSOC4 && USBUART_EP_MANAGEMENT_DMA_AUTO))
  84:.\Generated_Source\PSoC5/USBUART_episr.c ****         #if (defined(USBUART_ENABLE_MIDI_STREAMING) && \
  85:.\Generated_Source\PSoC5/USBUART_episr.c ****             !defined(USBUART_MAIN_SERVICE_MIDI_OUT) && USBUART_ISR_SERVICE_MIDI_OUT)
  86:.\Generated_Source\PSoC5/USBUART_episr.c ****             if (USBUART_midi_out_ep == USBUART_EP1)
  87:.\Generated_Source\PSoC5/USBUART_episr.c ****             {
  88:.\Generated_Source\PSoC5/USBUART_episr.c ****                 USBUART_MIDI_OUT_Service();
  89:.\Generated_Source\PSoC5/USBUART_episr.c ****             }
  90:.\Generated_Source\PSoC5/USBUART_episr.c ****         #endif /* (USBUART_ISR_SERVICE_MIDI_OUT) */
  91:.\Generated_Source\PSoC5/USBUART_episr.c ****     #endif /* (!(CY_PSOC4 && USBUART_EP_MANAGEMENT_DMA_AUTO)) */
  92:.\Generated_Source\PSoC5/USBUART_episr.c ****     
  93:.\Generated_Source\PSoC5/USBUART_episr.c ****         /* `#START EP1_END_USER_CODE` Place your code here */
  94:.\Generated_Source\PSoC5/USBUART_episr.c **** 
  95:.\Generated_Source\PSoC5/USBUART_episr.c ****         /* `#END` */
  96:.\Generated_Source\PSoC5/USBUART_episr.c **** 
  97:.\Generated_Source\PSoC5/USBUART_episr.c ****     #ifdef USBUART_EP_1_ISR_EXIT_CALLBACK
  98:.\Generated_Source\PSoC5/USBUART_episr.c ****         USBUART_EP_1_ISR_ExitCallback();
ARM GAS  C:\Users\student\AppData\Local\Temp\cc0M93RX.s 			page 4


  99:.\Generated_Source\PSoC5/USBUART_episr.c ****     #endif /* (USBUART_EP_1_ISR_EXIT_CALLBACK) */
 100:.\Generated_Source\PSoC5/USBUART_episr.c **** 
 101:.\Generated_Source\PSoC5/USBUART_episr.c ****     #if (CY_PSOC3 && defined(USBUART_ENABLE_MIDI_STREAMING) && \
 102:.\Generated_Source\PSoC5/USBUART_episr.c ****         !defined(USBUART_MAIN_SERVICE_MIDI_OUT) && USBUART_ISR_SERVICE_MIDI_OUT)
 103:.\Generated_Source\PSoC5/USBUART_episr.c ****         
 104:.\Generated_Source\PSoC5/USBUART_episr.c ****             EA = intEn; /* Restore nested interrupt configuration. */
 105:.\Generated_Source\PSoC5/USBUART_episr.c ****         }
 106:.\Generated_Source\PSoC5/USBUART_episr.c ****     #endif /* (CY_PSOC3 && USBUART_ISR_SERVICE_MIDI_OUT) */
 107:.\Generated_Source\PSoC5/USBUART_episr.c ****     }
 108:.\Generated_Source\PSoC5/USBUART_episr.c **** 
 109:.\Generated_Source\PSoC5/USBUART_episr.c **** #endif /* (USBUART_EP1_ISR_ACTIVE) */
 110:.\Generated_Source\PSoC5/USBUART_episr.c **** 
 111:.\Generated_Source\PSoC5/USBUART_episr.c **** 
 112:.\Generated_Source\PSoC5/USBUART_episr.c **** #if (USBUART_EP2_ISR_ACTIVE)
 113:.\Generated_Source\PSoC5/USBUART_episr.c ****     /*******************************************************************************
 114:.\Generated_Source\PSoC5/USBUART_episr.c ****     * Function Name: USBUART_EP_2_ISR
 115:.\Generated_Source\PSoC5/USBUART_episr.c ****     ****************************************************************************//**
 116:.\Generated_Source\PSoC5/USBUART_episr.c ****     *
 117:.\Generated_Source\PSoC5/USBUART_episr.c ****     *  Endpoint 2 Interrupt Service Routine.
 118:.\Generated_Source\PSoC5/USBUART_episr.c ****     *
 119:.\Generated_Source\PSoC5/USBUART_episr.c ****     *******************************************************************************/
 120:.\Generated_Source\PSoC5/USBUART_episr.c ****     CY_ISR(USBUART_EP_2_ISR)
 121:.\Generated_Source\PSoC5/USBUART_episr.c ****     {
  74              		.loc 1 121 0
  75              		.cfi_startproc
  76              		@ args = 0, pretend = 0, frame = 0
  77              		@ frame_needed = 0, uses_anonymous_args = 0
  78              		@ link register save eliminated.
 122:.\Generated_Source\PSoC5/USBUART_episr.c ****     #ifdef USBUART_EP_2_ISR_ENTRY_CALLBACK
 123:.\Generated_Source\PSoC5/USBUART_episr.c ****         USBUART_EP_2_ISR_EntryCallback();
 124:.\Generated_Source\PSoC5/USBUART_episr.c ****     #endif /* (USBUART_EP_2_ISR_ENTRY_CALLBACK) */
 125:.\Generated_Source\PSoC5/USBUART_episr.c **** 
 126:.\Generated_Source\PSoC5/USBUART_episr.c ****         /* `#START EP2_USER_CODE` Place your code here */
 127:.\Generated_Source\PSoC5/USBUART_episr.c **** 
 128:.\Generated_Source\PSoC5/USBUART_episr.c ****         /* `#END` */
 129:.\Generated_Source\PSoC5/USBUART_episr.c **** 
 130:.\Generated_Source\PSoC5/USBUART_episr.c ****     #if (CY_PSOC3 && defined(USBUART_ENABLE_MIDI_STREAMING) && \
 131:.\Generated_Source\PSoC5/USBUART_episr.c ****         !defined(USBUART_MAIN_SERVICE_MIDI_OUT) && USBUART_ISR_SERVICE_MIDI_OUT)
 132:.\Generated_Source\PSoC5/USBUART_episr.c ****         {
 133:.\Generated_Source\PSoC5/USBUART_episr.c ****             uint8 intEn = EA;
 134:.\Generated_Source\PSoC5/USBUART_episr.c ****             CyGlobalIntEnable;  /* Enable nested interrupts. */
 135:.\Generated_Source\PSoC5/USBUART_episr.c ****     #endif /* (CY_PSOC3 && USBUART_ISR_SERVICE_MIDI_OUT) */
 136:.\Generated_Source\PSoC5/USBUART_episr.c **** 
 137:.\Generated_Source\PSoC5/USBUART_episr.c ****         USBUART_ClearSieEpInterruptSource(USBUART_SIE_INT_EP2_INTR);
  79              		.loc 1 137 0
  80 0000 0B4A     		ldr	r2, .L7
  81 0002 1378     		ldrb	r3, [r2]	@ zero_extendqisi2
  82 0004 03F0FD03 		and	r3, r3, #253
  83 0008 1370     		strb	r3, [r2]
 138:.\Generated_Source\PSoC5/USBUART_episr.c **** 
 139:.\Generated_Source\PSoC5/USBUART_episr.c ****         /* Notifies user that transfer IN or OUT transfer is completed.
 140:.\Generated_Source\PSoC5/USBUART_episr.c ****         * IN endpoint: endpoint buffer can be reloaded, Host is read data.
 141:.\Generated_Source\PSoC5/USBUART_episr.c ****         * OUT endpoint: data is ready to be read from endpoint buffer. 
 142:.\Generated_Source\PSoC5/USBUART_episr.c ****         */
 143:.\Generated_Source\PSoC5/USBUART_episr.c ****     #if (CY_PSOC4 && USBUART_EP_MANAGEMENT_DMA_AUTO)
 144:.\Generated_Source\PSoC5/USBUART_episr.c ****         if (0u != (USBUART_EP[USBUART_EP2].addr & USBUART_DIR_IN))
 145:.\Generated_Source\PSoC5/USBUART_episr.c ****     #endif /* (CY_PSOC4 && USBUART_EP_MANAGEMENT_DMA_AUTO) */
ARM GAS  C:\Users\student\AppData\Local\Temp\cc0M93RX.s 			page 5


 146:.\Generated_Source\PSoC5/USBUART_episr.c ****         {            
 147:.\Generated_Source\PSoC5/USBUART_episr.c ****             /* Read CR0 register to clear SIE lock. */
 148:.\Generated_Source\PSoC5/USBUART_episr.c ****             (void) USBUART_SIE_EP_BASE.sieEp[USBUART_EP2].epCr0;
  84              		.loc 1 148 0
  85 000a 0A4B     		ldr	r3, .L7+4
  86 000c 93F82230 		ldrb	r3, [r3, #34]	@ zero_extendqisi2
 149:.\Generated_Source\PSoC5/USBUART_episr.c ****             
 150:.\Generated_Source\PSoC5/USBUART_episr.c ****             /* Toggle all endpoint types except ISOC. */
 151:.\Generated_Source\PSoC5/USBUART_episr.c ****             if (USBUART_GET_EP_TYPE(USBUART_EP2) != USBUART_EP_TYPE_ISOC)
  87              		.loc 1 151 0
  88 0010 094B     		ldr	r3, .L7+8
  89 0012 1B7E     		ldrb	r3, [r3, #24]	@ zero_extendqisi2
  90 0014 03F00303 		and	r3, r3, #3
  91 0018 012B     		cmp	r3, #1
  92 001a 04D0     		beq	.L6
 152:.\Generated_Source\PSoC5/USBUART_episr.c ****             {
 153:.\Generated_Source\PSoC5/USBUART_episr.c ****                 USBUART_EP[USBUART_EP2].epToggle ^= USBUART_EPX_CNT_DATA_TOGGLE;
  93              		.loc 1 153 0
  94 001c 064A     		ldr	r2, .L7+8
  95 001e D37E     		ldrb	r3, [r2, #27]	@ zero_extendqisi2
  96 0020 83F08003 		eor	r3, r3, #128
  97 0024 D376     		strb	r3, [r2, #27]
  98              	.L6:
 154:.\Generated_Source\PSoC5/USBUART_episr.c ****             }
 155:.\Generated_Source\PSoC5/USBUART_episr.c **** 
 156:.\Generated_Source\PSoC5/USBUART_episr.c ****             /* EP_MANAGEMENT_DMA_AUTO (Ticket ID# 214187): For OUT endpoint this event is used to n
 157:.\Generated_Source\PSoC5/USBUART_episr.c ****             * user that DMA has completed copying data from OUT endpoint which is not completely tr
 158:.\Generated_Source\PSoC5/USBUART_episr.c ****             * Because last chunk of data is being copied.
 159:.\Generated_Source\PSoC5/USBUART_episr.c ****             * For CY_PSOC 3/5LP: it is acceptable as DMA is really fast.
 160:.\Generated_Source\PSoC5/USBUART_episr.c ****             * For CY_PSOC4: this event is set in Arbiter interrupt (source is DMA_TERMIN).
 161:.\Generated_Source\PSoC5/USBUART_episr.c ****             */
 162:.\Generated_Source\PSoC5/USBUART_episr.c ****             USBUART_EP[USBUART_EP2].apiEpState = USBUART_EVENT_PENDING;
  99              		.loc 1 162 0
 100 0026 0122     		movs	r2, #1
 101 0028 034B     		ldr	r3, .L7+8
 102 002a 5A76     		strb	r2, [r3, #25]
 103 002c 7047     		bx	lr
 104              	.L8:
 105 002e 00BF     		.align	2
 106              	.L7:
 107 0030 0B600040 		.word	1073766411
 108 0034 FC5F0040 		.word	1073766396
 109 0038 00000000 		.word	USBUART_EP
 110              		.cfi_endproc
 111              	.LFE1:
 112              		.size	USBUART_EP_2_ISR, .-USBUART_EP_2_ISR
 113              		.section	.text.USBUART_EP_3_ISR,"ax",%progbits
 114              		.align	2
 115              		.global	USBUART_EP_3_ISR
 116              		.thumb
 117              		.thumb_func
 118              		.type	USBUART_EP_3_ISR, %function
 119              	USBUART_EP_3_ISR:
 120              	.LFB2:
 163:.\Generated_Source\PSoC5/USBUART_episr.c ****         }
 164:.\Generated_Source\PSoC5/USBUART_episr.c **** 
 165:.\Generated_Source\PSoC5/USBUART_episr.c ****     #if (!(CY_PSOC4 && USBUART_EP_MANAGEMENT_DMA_AUTO))
ARM GAS  C:\Users\student\AppData\Local\Temp\cc0M93RX.s 			page 6


 166:.\Generated_Source\PSoC5/USBUART_episr.c ****         #if (defined(USBUART_ENABLE_MIDI_STREAMING) && \
 167:.\Generated_Source\PSoC5/USBUART_episr.c ****             !defined(USBUART_MAIN_SERVICE_MIDI_OUT) && USBUART_ISR_SERVICE_MIDI_OUT)
 168:.\Generated_Source\PSoC5/USBUART_episr.c ****             if (USBUART_midi_out_ep == USBUART_EP2)
 169:.\Generated_Source\PSoC5/USBUART_episr.c ****             {
 170:.\Generated_Source\PSoC5/USBUART_episr.c ****                 USBUART_MIDI_OUT_Service();
 171:.\Generated_Source\PSoC5/USBUART_episr.c ****             }
 172:.\Generated_Source\PSoC5/USBUART_episr.c ****         #endif /* (USBUART_ISR_SERVICE_MIDI_OUT) */
 173:.\Generated_Source\PSoC5/USBUART_episr.c ****     #endif /* (!(CY_PSOC4 && USBUART_EP_MANAGEMENT_DMA_AUTO)) */        
 174:.\Generated_Source\PSoC5/USBUART_episr.c ****     
 175:.\Generated_Source\PSoC5/USBUART_episr.c ****         /* `#START EP2_END_USER_CODE` Place your code here */
 176:.\Generated_Source\PSoC5/USBUART_episr.c **** 
 177:.\Generated_Source\PSoC5/USBUART_episr.c ****         /* `#END` */
 178:.\Generated_Source\PSoC5/USBUART_episr.c **** 
 179:.\Generated_Source\PSoC5/USBUART_episr.c ****     #ifdef USBUART_EP_2_ISR_EXIT_CALLBACK
 180:.\Generated_Source\PSoC5/USBUART_episr.c ****         USBUART_EP_2_ISR_ExitCallback();
 181:.\Generated_Source\PSoC5/USBUART_episr.c ****     #endif /* (USBUART_EP_2_ISR_EXIT_CALLBACK) */
 182:.\Generated_Source\PSoC5/USBUART_episr.c **** 
 183:.\Generated_Source\PSoC5/USBUART_episr.c ****     #if (CY_PSOC3 && defined(USBUART_ENABLE_MIDI_STREAMING) && \
 184:.\Generated_Source\PSoC5/USBUART_episr.c ****         !defined(USBUART_MAIN_SERVICE_MIDI_OUT) && USBUART_ISR_SERVICE_MIDI_OUT)
 185:.\Generated_Source\PSoC5/USBUART_episr.c ****         
 186:.\Generated_Source\PSoC5/USBUART_episr.c ****             EA = intEn; /* Restore nested interrupt configuration. */
 187:.\Generated_Source\PSoC5/USBUART_episr.c ****         }
 188:.\Generated_Source\PSoC5/USBUART_episr.c ****     #endif /* (CY_PSOC3 && USBUART_ISR_SERVICE_MIDI_OUT) */
 189:.\Generated_Source\PSoC5/USBUART_episr.c ****     }
 190:.\Generated_Source\PSoC5/USBUART_episr.c **** #endif /* (USBUART_EP2_ISR_ACTIVE) */
 191:.\Generated_Source\PSoC5/USBUART_episr.c **** 
 192:.\Generated_Source\PSoC5/USBUART_episr.c **** 
 193:.\Generated_Source\PSoC5/USBUART_episr.c **** #if (USBUART_EP3_ISR_ACTIVE)
 194:.\Generated_Source\PSoC5/USBUART_episr.c ****     /*******************************************************************************
 195:.\Generated_Source\PSoC5/USBUART_episr.c ****     * Function Name: USBUART_EP_3_ISR
 196:.\Generated_Source\PSoC5/USBUART_episr.c ****     ****************************************************************************//**
 197:.\Generated_Source\PSoC5/USBUART_episr.c ****     *
 198:.\Generated_Source\PSoC5/USBUART_episr.c ****     *  Endpoint 3 Interrupt Service Routine.
 199:.\Generated_Source\PSoC5/USBUART_episr.c ****     *
 200:.\Generated_Source\PSoC5/USBUART_episr.c ****     *******************************************************************************/
 201:.\Generated_Source\PSoC5/USBUART_episr.c ****     CY_ISR(USBUART_EP_3_ISR)
 202:.\Generated_Source\PSoC5/USBUART_episr.c ****     {
 121              		.loc 1 202 0
 122              		.cfi_startproc
 123              		@ args = 0, pretend = 0, frame = 0
 124              		@ frame_needed = 0, uses_anonymous_args = 0
 125              		@ link register save eliminated.
 203:.\Generated_Source\PSoC5/USBUART_episr.c ****     #ifdef USBUART_EP_3_ISR_ENTRY_CALLBACK
 204:.\Generated_Source\PSoC5/USBUART_episr.c ****         USBUART_EP_3_ISR_EntryCallback();
 205:.\Generated_Source\PSoC5/USBUART_episr.c ****     #endif /* (USBUART_EP_3_ISR_ENTRY_CALLBACK) */
 206:.\Generated_Source\PSoC5/USBUART_episr.c **** 
 207:.\Generated_Source\PSoC5/USBUART_episr.c ****         /* `#START EP3_USER_CODE` Place your code here */
 208:.\Generated_Source\PSoC5/USBUART_episr.c **** 
 209:.\Generated_Source\PSoC5/USBUART_episr.c ****         /* `#END` */
 210:.\Generated_Source\PSoC5/USBUART_episr.c **** 
 211:.\Generated_Source\PSoC5/USBUART_episr.c ****     #if (CY_PSOC3 && defined(USBUART_ENABLE_MIDI_STREAMING) && \
 212:.\Generated_Source\PSoC5/USBUART_episr.c ****         !defined(USBUART_MAIN_SERVICE_MIDI_OUT) && USBUART_ISR_SERVICE_MIDI_OUT)
 213:.\Generated_Source\PSoC5/USBUART_episr.c ****         {
 214:.\Generated_Source\PSoC5/USBUART_episr.c ****             uint8 intEn = EA;
 215:.\Generated_Source\PSoC5/USBUART_episr.c ****             CyGlobalIntEnable;  /* Enable nested interrupts. */
 216:.\Generated_Source\PSoC5/USBUART_episr.c ****     #endif /* (CY_PSOC3 && USBUART_ISR_SERVICE_MIDI_OUT) */
 217:.\Generated_Source\PSoC5/USBUART_episr.c **** 
ARM GAS  C:\Users\student\AppData\Local\Temp\cc0M93RX.s 			page 7


 218:.\Generated_Source\PSoC5/USBUART_episr.c ****         USBUART_ClearSieEpInterruptSource(USBUART_SIE_INT_EP3_INTR);    
 126              		.loc 1 218 0
 127 0000 0D4A     		ldr	r2, .L11
 128 0002 1378     		ldrb	r3, [r2]	@ zero_extendqisi2
 129 0004 03F0FB03 		and	r3, r3, #251
 130 0008 1370     		strb	r3, [r2]
 219:.\Generated_Source\PSoC5/USBUART_episr.c **** 
 220:.\Generated_Source\PSoC5/USBUART_episr.c ****         /* Notifies user that transfer IN or OUT transfer is completed.
 221:.\Generated_Source\PSoC5/USBUART_episr.c ****         * IN endpoint: endpoint buffer can be reloaded, Host is read data.
 222:.\Generated_Source\PSoC5/USBUART_episr.c ****         * OUT endpoint: data is ready to be read from endpoint buffer. 
 223:.\Generated_Source\PSoC5/USBUART_episr.c ****         */
 224:.\Generated_Source\PSoC5/USBUART_episr.c ****     #if (CY_PSOC4 && USBUART_EP_MANAGEMENT_DMA_AUTO)
 225:.\Generated_Source\PSoC5/USBUART_episr.c ****         if (0u != (USBUART_EP[USBUART_EP3].addr & USBUART_DIR_IN))
 226:.\Generated_Source\PSoC5/USBUART_episr.c ****     #endif /* (USBUART_EP_MANAGEMENT_DMA_AUTO) */
 227:.\Generated_Source\PSoC5/USBUART_episr.c ****         {            
 228:.\Generated_Source\PSoC5/USBUART_episr.c ****             /* Read CR0 register to clear SIE lock. */
 229:.\Generated_Source\PSoC5/USBUART_episr.c ****             (void) USBUART_SIE_EP_BASE.sieEp[USBUART_EP3].epCr0;
 131              		.loc 1 229 0
 132 000a 0C4B     		ldr	r3, .L11+4
 133 000c 93F83230 		ldrb	r3, [r3, #50]	@ zero_extendqisi2
 230:.\Generated_Source\PSoC5/USBUART_episr.c **** 
 231:.\Generated_Source\PSoC5/USBUART_episr.c ****             /* Toggle all endpoint types except ISOC. */
 232:.\Generated_Source\PSoC5/USBUART_episr.c ****             if (USBUART_GET_EP_TYPE(USBUART_EP3) != USBUART_EP_TYPE_ISOC)
 134              		.loc 1 232 0
 135 0010 0B4B     		ldr	r3, .L11+8
 136 0012 93F82430 		ldrb	r3, [r3, #36]	@ zero_extendqisi2
 137 0016 03F00303 		and	r3, r3, #3
 138 001a 012B     		cmp	r3, #1
 139 001c 06D0     		beq	.L10
 233:.\Generated_Source\PSoC5/USBUART_episr.c ****             {
 234:.\Generated_Source\PSoC5/USBUART_episr.c ****                 USBUART_EP[USBUART_EP3].epToggle ^= USBUART_EPX_CNT_DATA_TOGGLE;
 140              		.loc 1 234 0
 141 001e 084A     		ldr	r2, .L11+8
 142 0020 92F82730 		ldrb	r3, [r2, #39]	@ zero_extendqisi2
 143 0024 83F08003 		eor	r3, r3, #128
 144 0028 82F82730 		strb	r3, [r2, #39]
 145              	.L10:
 235:.\Generated_Source\PSoC5/USBUART_episr.c ****             }
 236:.\Generated_Source\PSoC5/USBUART_episr.c **** 
 237:.\Generated_Source\PSoC5/USBUART_episr.c ****             /* EP_MANAGEMENT_DMA_AUTO (Ticket ID# 214187): For OUT endpoint this event is used to n
 238:.\Generated_Source\PSoC5/USBUART_episr.c ****             * user that DMA has completed copying data from OUT endpoint which is not completely tr
 239:.\Generated_Source\PSoC5/USBUART_episr.c ****             * Because last chunk of data is being copied.
 240:.\Generated_Source\PSoC5/USBUART_episr.c ****             * For CY_PSOC 3/5LP: it is acceptable as DMA is really fast.
 241:.\Generated_Source\PSoC5/USBUART_episr.c ****             * For CY_PSOC4: this event is set in Arbiter interrupt (source is DMA_TERMIN).
 242:.\Generated_Source\PSoC5/USBUART_episr.c ****             */
 243:.\Generated_Source\PSoC5/USBUART_episr.c ****             USBUART_EP[USBUART_EP3].apiEpState = USBUART_EVENT_PENDING;
 146              		.loc 1 243 0
 147 002c 0122     		movs	r2, #1
 148 002e 044B     		ldr	r3, .L11+8
 149 0030 83F82520 		strb	r2, [r3, #37]
 150 0034 7047     		bx	lr
 151              	.L12:
 152 0036 00BF     		.align	2
 153              	.L11:
 154 0038 0B600040 		.word	1073766411
 155 003c FC5F0040 		.word	1073766396
 156 0040 00000000 		.word	USBUART_EP
ARM GAS  C:\Users\student\AppData\Local\Temp\cc0M93RX.s 			page 8


 157              		.cfi_endproc
 158              	.LFE2:
 159              		.size	USBUART_EP_3_ISR, .-USBUART_EP_3_ISR
 160              		.section	.text.USBUART_SOF_ISR,"ax",%progbits
 161              		.align	2
 162              		.global	USBUART_SOF_ISR
 163              		.thumb
 164              		.thumb_func
 165              		.type	USBUART_SOF_ISR, %function
 166              	USBUART_SOF_ISR:
 167              	.LFB3:
 244:.\Generated_Source\PSoC5/USBUART_episr.c ****         }
 245:.\Generated_Source\PSoC5/USBUART_episr.c **** 
 246:.\Generated_Source\PSoC5/USBUART_episr.c ****     #if (!(CY_PSOC4 && USBUART_EP_MANAGEMENT_DMA_AUTO))
 247:.\Generated_Source\PSoC5/USBUART_episr.c ****         #if (defined(USBUART_ENABLE_MIDI_STREAMING) && \
 248:.\Generated_Source\PSoC5/USBUART_episr.c ****             !defined(USBUART_MAIN_SERVICE_MIDI_OUT) && USBUART_ISR_SERVICE_MIDI_OUT)
 249:.\Generated_Source\PSoC5/USBUART_episr.c ****             if (USBUART_midi_out_ep == USBUART_EP3)
 250:.\Generated_Source\PSoC5/USBUART_episr.c ****             {
 251:.\Generated_Source\PSoC5/USBUART_episr.c ****                 USBUART_MIDI_OUT_Service();
 252:.\Generated_Source\PSoC5/USBUART_episr.c ****             }
 253:.\Generated_Source\PSoC5/USBUART_episr.c ****         #endif /* (USBUART_ISR_SERVICE_MIDI_OUT) */
 254:.\Generated_Source\PSoC5/USBUART_episr.c ****     #endif /* (!(CY_PSOC4 && USBUART_EP_MANAGEMENT_DMA_AUTO)) */        
 255:.\Generated_Source\PSoC5/USBUART_episr.c **** 
 256:.\Generated_Source\PSoC5/USBUART_episr.c ****         /* `#START EP3_END_USER_CODE` Place your code here */
 257:.\Generated_Source\PSoC5/USBUART_episr.c **** 
 258:.\Generated_Source\PSoC5/USBUART_episr.c ****         /* `#END` */
 259:.\Generated_Source\PSoC5/USBUART_episr.c **** 
 260:.\Generated_Source\PSoC5/USBUART_episr.c ****     #ifdef USBUART_EP_3_ISR_EXIT_CALLBACK
 261:.\Generated_Source\PSoC5/USBUART_episr.c ****         USBUART_EP_3_ISR_ExitCallback();
 262:.\Generated_Source\PSoC5/USBUART_episr.c ****     #endif /* (USBUART_EP_3_ISR_EXIT_CALLBACK) */
 263:.\Generated_Source\PSoC5/USBUART_episr.c **** 
 264:.\Generated_Source\PSoC5/USBUART_episr.c ****     #if (CY_PSOC3 && defined(USBUART_ENABLE_MIDI_STREAMING) && \
 265:.\Generated_Source\PSoC5/USBUART_episr.c ****         !defined(USBUART_MAIN_SERVICE_MIDI_OUT) && USBUART_ISR_SERVICE_MIDI_OUT)
 266:.\Generated_Source\PSoC5/USBUART_episr.c ****         
 267:.\Generated_Source\PSoC5/USBUART_episr.c ****             EA = intEn; /* Restore nested interrupt configuration. */
 268:.\Generated_Source\PSoC5/USBUART_episr.c ****         }
 269:.\Generated_Source\PSoC5/USBUART_episr.c ****     #endif /* (CY_PSOC3 && USBUART_ISR_SERVICE_MIDI_OUT) */
 270:.\Generated_Source\PSoC5/USBUART_episr.c ****     }
 271:.\Generated_Source\PSoC5/USBUART_episr.c **** #endif /* (USBUART_EP3_ISR_ACTIVE) */
 272:.\Generated_Source\PSoC5/USBUART_episr.c **** 
 273:.\Generated_Source\PSoC5/USBUART_episr.c **** 
 274:.\Generated_Source\PSoC5/USBUART_episr.c **** #if (USBUART_EP4_ISR_ACTIVE)
 275:.\Generated_Source\PSoC5/USBUART_episr.c ****     /*******************************************************************************
 276:.\Generated_Source\PSoC5/USBUART_episr.c ****     * Function Name: USBUART_EP_4_ISR
 277:.\Generated_Source\PSoC5/USBUART_episr.c ****     ****************************************************************************//**
 278:.\Generated_Source\PSoC5/USBUART_episr.c ****     *
 279:.\Generated_Source\PSoC5/USBUART_episr.c ****     *  Endpoint 4 Interrupt Service Routine.
 280:.\Generated_Source\PSoC5/USBUART_episr.c ****     *
 281:.\Generated_Source\PSoC5/USBUART_episr.c ****     *******************************************************************************/
 282:.\Generated_Source\PSoC5/USBUART_episr.c ****     CY_ISR(USBUART_EP_4_ISR)
 283:.\Generated_Source\PSoC5/USBUART_episr.c ****     {
 284:.\Generated_Source\PSoC5/USBUART_episr.c ****     #ifdef USBUART_EP_4_ISR_ENTRY_CALLBACK
 285:.\Generated_Source\PSoC5/USBUART_episr.c ****         USBUART_EP_4_ISR_EntryCallback();
 286:.\Generated_Source\PSoC5/USBUART_episr.c ****     #endif /* (USBUART_EP_4_ISR_ENTRY_CALLBACK) */
 287:.\Generated_Source\PSoC5/USBUART_episr.c **** 
 288:.\Generated_Source\PSoC5/USBUART_episr.c ****         /* `#START EP4_USER_CODE` Place your code here */
 289:.\Generated_Source\PSoC5/USBUART_episr.c **** 
ARM GAS  C:\Users\student\AppData\Local\Temp\cc0M93RX.s 			page 9


 290:.\Generated_Source\PSoC5/USBUART_episr.c ****         /* `#END` */
 291:.\Generated_Source\PSoC5/USBUART_episr.c **** 
 292:.\Generated_Source\PSoC5/USBUART_episr.c ****     #if (CY_PSOC3 && defined(USBUART_ENABLE_MIDI_STREAMING) && \
 293:.\Generated_Source\PSoC5/USBUART_episr.c ****         !defined(USBUART_MAIN_SERVICE_MIDI_OUT) && USBUART_ISR_SERVICE_MIDI_OUT)
 294:.\Generated_Source\PSoC5/USBUART_episr.c ****         {
 295:.\Generated_Source\PSoC5/USBUART_episr.c ****             uint8 intEn = EA;
 296:.\Generated_Source\PSoC5/USBUART_episr.c ****             CyGlobalIntEnable;  /* Enable nested interrupts. */
 297:.\Generated_Source\PSoC5/USBUART_episr.c ****     #endif /* (CY_PSOC3 && USBUART_ISR_SERVICE_MIDI_OUT) */
 298:.\Generated_Source\PSoC5/USBUART_episr.c **** 
 299:.\Generated_Source\PSoC5/USBUART_episr.c ****         USBUART_ClearSieEpInterruptSource(USBUART_SIE_INT_EP4_INTR);
 300:.\Generated_Source\PSoC5/USBUART_episr.c ****         
 301:.\Generated_Source\PSoC5/USBUART_episr.c ****         /* Notifies user that transfer IN or OUT transfer is completed.
 302:.\Generated_Source\PSoC5/USBUART_episr.c ****         * IN endpoint: endpoint buffer can be reloaded, Host is read data.
 303:.\Generated_Source\PSoC5/USBUART_episr.c ****         * OUT endpoint: data is ready to read from endpoint buffer. 
 304:.\Generated_Source\PSoC5/USBUART_episr.c ****         */
 305:.\Generated_Source\PSoC5/USBUART_episr.c ****     #if (CY_PSOC4 && USBUART_EP_MANAGEMENT_DMA_AUTO)
 306:.\Generated_Source\PSoC5/USBUART_episr.c ****         if (0u != (USBUART_EP[USBUART_EP4].addr & USBUART_DIR_IN))
 307:.\Generated_Source\PSoC5/USBUART_episr.c ****     #endif /* (USBUART_EP_MANAGEMENT_DMA_AUTO) */
 308:.\Generated_Source\PSoC5/USBUART_episr.c ****         {
 309:.\Generated_Source\PSoC5/USBUART_episr.c ****             /* Read CR0 register to clear SIE lock. */
 310:.\Generated_Source\PSoC5/USBUART_episr.c ****             (void) USBUART_SIE_EP_BASE.sieEp[USBUART_EP4].epCr0;
 311:.\Generated_Source\PSoC5/USBUART_episr.c **** 
 312:.\Generated_Source\PSoC5/USBUART_episr.c ****             /* Toggle all endpoint types except ISOC. */
 313:.\Generated_Source\PSoC5/USBUART_episr.c ****             if (USBUART_GET_EP_TYPE(USBUART_EP4) != USBUART_EP_TYPE_ISOC)
 314:.\Generated_Source\PSoC5/USBUART_episr.c ****             {
 315:.\Generated_Source\PSoC5/USBUART_episr.c ****                 USBUART_EP[USBUART_EP4].epToggle ^= USBUART_EPX_CNT_DATA_TOGGLE;
 316:.\Generated_Source\PSoC5/USBUART_episr.c ****             }
 317:.\Generated_Source\PSoC5/USBUART_episr.c **** 
 318:.\Generated_Source\PSoC5/USBUART_episr.c ****             /* EP_MANAGEMENT_DMA_AUTO (Ticket ID# 214187): For OUT endpoint this event is used to n
 319:.\Generated_Source\PSoC5/USBUART_episr.c ****             * user that DMA has completed copying data from OUT endpoint which is not completely tr
 320:.\Generated_Source\PSoC5/USBUART_episr.c ****             * Because last chunk of data is being copied.
 321:.\Generated_Source\PSoC5/USBUART_episr.c ****             * For CY_PSOC 3/5LP: it is acceptable as DMA is really fast.
 322:.\Generated_Source\PSoC5/USBUART_episr.c ****             * For CY_PSOC4: this event is set in Arbiter interrupt (source is DMA_TERMIN).
 323:.\Generated_Source\PSoC5/USBUART_episr.c ****             */
 324:.\Generated_Source\PSoC5/USBUART_episr.c ****             USBUART_EP[USBUART_EP4].apiEpState = USBUART_EVENT_PENDING;
 325:.\Generated_Source\PSoC5/USBUART_episr.c ****         }
 326:.\Generated_Source\PSoC5/USBUART_episr.c **** 
 327:.\Generated_Source\PSoC5/USBUART_episr.c ****     #if (!(CY_PSOC4 && USBUART_EP_MANAGEMENT_DMA_AUTO))
 328:.\Generated_Source\PSoC5/USBUART_episr.c ****         #if (defined(USBUART_ENABLE_MIDI_STREAMING) && \
 329:.\Generated_Source\PSoC5/USBUART_episr.c ****             !defined(USBUART_MAIN_SERVICE_MIDI_OUT) && USBUART_ISR_SERVICE_MIDI_OUT)
 330:.\Generated_Source\PSoC5/USBUART_episr.c ****             if(USBUART_midi_out_ep == USBUART_EP4)
 331:.\Generated_Source\PSoC5/USBUART_episr.c ****             {
 332:.\Generated_Source\PSoC5/USBUART_episr.c ****                 USBUART_MIDI_OUT_Service();
 333:.\Generated_Source\PSoC5/USBUART_episr.c ****             }
 334:.\Generated_Source\PSoC5/USBUART_episr.c ****         #endif /* (USBUART_ISR_SERVICE_MIDI_OUT) */
 335:.\Generated_Source\PSoC5/USBUART_episr.c ****     #endif /* (!(CY_PSOC4 && USBUART_EP_MANAGEMENT_DMA_AUTO)) */        
 336:.\Generated_Source\PSoC5/USBUART_episr.c **** 
 337:.\Generated_Source\PSoC5/USBUART_episr.c ****         /* `#START EP4_END_USER_CODE` Place your code here */
 338:.\Generated_Source\PSoC5/USBUART_episr.c **** 
 339:.\Generated_Source\PSoC5/USBUART_episr.c ****         /* `#END` */
 340:.\Generated_Source\PSoC5/USBUART_episr.c **** 
 341:.\Generated_Source\PSoC5/USBUART_episr.c ****     #ifdef USBUART_EP_4_ISR_EXIT_CALLBACK
 342:.\Generated_Source\PSoC5/USBUART_episr.c ****         USBUART_EP_4_ISR_ExitCallback();
 343:.\Generated_Source\PSoC5/USBUART_episr.c ****     #endif /* (USBUART_EP_4_ISR_EXIT_CALLBACK) */
 344:.\Generated_Source\PSoC5/USBUART_episr.c **** 
 345:.\Generated_Source\PSoC5/USBUART_episr.c ****     #if (CY_PSOC3 && defined(USBUART_ENABLE_MIDI_STREAMING) && \
 346:.\Generated_Source\PSoC5/USBUART_episr.c ****         !defined(USBUART_MAIN_SERVICE_MIDI_OUT) && USBUART_ISR_SERVICE_MIDI_OUT)
ARM GAS  C:\Users\student\AppData\Local\Temp\cc0M93RX.s 			page 10


 347:.\Generated_Source\PSoC5/USBUART_episr.c ****         
 348:.\Generated_Source\PSoC5/USBUART_episr.c ****             EA = intEn; /* Restore nested interrupt configuration. */
 349:.\Generated_Source\PSoC5/USBUART_episr.c ****         }
 350:.\Generated_Source\PSoC5/USBUART_episr.c ****     #endif /* (CY_PSOC3 && USBUART_ISR_SERVICE_MIDI_OUT) */
 351:.\Generated_Source\PSoC5/USBUART_episr.c ****     }
 352:.\Generated_Source\PSoC5/USBUART_episr.c **** #endif /* (USBUART_EP4_ISR_ACTIVE) */
 353:.\Generated_Source\PSoC5/USBUART_episr.c **** 
 354:.\Generated_Source\PSoC5/USBUART_episr.c **** 
 355:.\Generated_Source\PSoC5/USBUART_episr.c **** #if (USBUART_EP5_ISR_ACTIVE)
 356:.\Generated_Source\PSoC5/USBUART_episr.c ****     /*******************************************************************************
 357:.\Generated_Source\PSoC5/USBUART_episr.c ****     * Function Name: USBUART_EP_5_ISR
 358:.\Generated_Source\PSoC5/USBUART_episr.c ****     ****************************************************************************//**
 359:.\Generated_Source\PSoC5/USBUART_episr.c ****     *
 360:.\Generated_Source\PSoC5/USBUART_episr.c ****     *  Endpoint 5 Interrupt Service Routine
 361:.\Generated_Source\PSoC5/USBUART_episr.c ****     *
 362:.\Generated_Source\PSoC5/USBUART_episr.c ****     *
 363:.\Generated_Source\PSoC5/USBUART_episr.c ****     *******************************************************************************/
 364:.\Generated_Source\PSoC5/USBUART_episr.c ****     CY_ISR(USBUART_EP_5_ISR)
 365:.\Generated_Source\PSoC5/USBUART_episr.c ****     {
 366:.\Generated_Source\PSoC5/USBUART_episr.c ****     #ifdef USBUART_EP_5_ISR_ENTRY_CALLBACK
 367:.\Generated_Source\PSoC5/USBUART_episr.c ****         USBUART_EP_5_ISR_EntryCallback();
 368:.\Generated_Source\PSoC5/USBUART_episr.c ****     #endif /* (USBUART_EP_5_ISR_ENTRY_CALLBACK) */
 369:.\Generated_Source\PSoC5/USBUART_episr.c **** 
 370:.\Generated_Source\PSoC5/USBUART_episr.c ****         /* `#START EP5_USER_CODE` Place your code here */
 371:.\Generated_Source\PSoC5/USBUART_episr.c **** 
 372:.\Generated_Source\PSoC5/USBUART_episr.c ****         /* `#END` */
 373:.\Generated_Source\PSoC5/USBUART_episr.c **** 
 374:.\Generated_Source\PSoC5/USBUART_episr.c ****     #if (defined(USBUART_ENABLE_MIDI_STREAMING) && !defined(USBUART_MAIN_SERVICE_MIDI_OUT) && \
 375:.\Generated_Source\PSoC5/USBUART_episr.c ****                  USBUART_ISR_SERVICE_MIDI_OUT && CY_PSOC3)
 376:.\Generated_Source\PSoC5/USBUART_episr.c ****         {
 377:.\Generated_Source\PSoC5/USBUART_episr.c ****             uint8 intEn = EA;
 378:.\Generated_Source\PSoC5/USBUART_episr.c ****             CyGlobalIntEnable;  /* Enable nested interrupts. */
 379:.\Generated_Source\PSoC5/USBUART_episr.c ****     #endif /* (CY_PSOC3 && USBUART_ISR_SERVICE_MIDI_OUT) */
 380:.\Generated_Source\PSoC5/USBUART_episr.c **** 
 381:.\Generated_Source\PSoC5/USBUART_episr.c ****         USBUART_ClearSieEpInterruptSource(USBUART_SIE_INT_EP5_INTR);
 382:.\Generated_Source\PSoC5/USBUART_episr.c ****     
 383:.\Generated_Source\PSoC5/USBUART_episr.c ****         /* Notifies user that transfer IN or OUT transfer is completed.
 384:.\Generated_Source\PSoC5/USBUART_episr.c ****         * IN endpoint: endpoint buffer can be reloaded, Host is read data.
 385:.\Generated_Source\PSoC5/USBUART_episr.c ****         * OUT endpoint: data is ready to read from endpoint buffer. 
 386:.\Generated_Source\PSoC5/USBUART_episr.c ****         */
 387:.\Generated_Source\PSoC5/USBUART_episr.c ****     #if (CY_PSOC4 && USBUART_EP_MANAGEMENT_DMA_AUTO)
 388:.\Generated_Source\PSoC5/USBUART_episr.c ****         if (0u != (USBUART_EP[USBUART_EP5].addr & USBUART_DIR_IN))
 389:.\Generated_Source\PSoC5/USBUART_episr.c ****     #endif /* (USBUART_EP_MANAGEMENT_DMA_AUTO) */
 390:.\Generated_Source\PSoC5/USBUART_episr.c ****         {            
 391:.\Generated_Source\PSoC5/USBUART_episr.c ****             /* Read CR0 register to clear SIE lock. */
 392:.\Generated_Source\PSoC5/USBUART_episr.c ****             (void) USBUART_SIE_EP_BASE.sieEp[USBUART_EP5].epCr0;
 393:.\Generated_Source\PSoC5/USBUART_episr.c **** 
 394:.\Generated_Source\PSoC5/USBUART_episr.c ****             /* Toggle all endpoint types except ISOC. */
 395:.\Generated_Source\PSoC5/USBUART_episr.c ****             if (USBUART_GET_EP_TYPE(USBUART_EP5) != USBUART_EP_TYPE_ISOC)
 396:.\Generated_Source\PSoC5/USBUART_episr.c ****             {
 397:.\Generated_Source\PSoC5/USBUART_episr.c ****                 USBUART_EP[USBUART_EP5].epToggle ^= USBUART_EPX_CNT_DATA_TOGGLE;
 398:.\Generated_Source\PSoC5/USBUART_episr.c ****             }
 399:.\Generated_Source\PSoC5/USBUART_episr.c **** 
 400:.\Generated_Source\PSoC5/USBUART_episr.c ****             /* EP_MANAGEMENT_DMA_AUTO (Ticket ID# 214187): For OUT endpoint this event is used to n
 401:.\Generated_Source\PSoC5/USBUART_episr.c ****             * user that DMA has completed copying data from OUT endpoint which is not completely tr
 402:.\Generated_Source\PSoC5/USBUART_episr.c ****             * Because last chunk of data is being copied.
 403:.\Generated_Source\PSoC5/USBUART_episr.c ****             * For CY_PSOC 3/5LP: it is acceptable as DMA is really fast.
ARM GAS  C:\Users\student\AppData\Local\Temp\cc0M93RX.s 			page 11


 404:.\Generated_Source\PSoC5/USBUART_episr.c ****             * For CY_PSOC4: this event is set in Arbiter interrupt (source is DMA_TERMIN).
 405:.\Generated_Source\PSoC5/USBUART_episr.c ****             */
 406:.\Generated_Source\PSoC5/USBUART_episr.c ****             USBUART_EP[USBUART_EP5].apiEpState = USBUART_EVENT_PENDING;
 407:.\Generated_Source\PSoC5/USBUART_episr.c ****         }
 408:.\Generated_Source\PSoC5/USBUART_episr.c **** 
 409:.\Generated_Source\PSoC5/USBUART_episr.c ****     #if (!(CY_PSOC4 && USBUART_EP_MANAGEMENT_DMA_AUTO))        
 410:.\Generated_Source\PSoC5/USBUART_episr.c ****         #if (defined(USBUART_ENABLE_MIDI_STREAMING) && \
 411:.\Generated_Source\PSoC5/USBUART_episr.c ****             !defined(USBUART_MAIN_SERVICE_MIDI_OUT) && USBUART_ISR_SERVICE_MIDI_OUT)
 412:.\Generated_Source\PSoC5/USBUART_episr.c ****             if (USBUART_midi_out_ep == USBUART_EP5)
 413:.\Generated_Source\PSoC5/USBUART_episr.c ****             {
 414:.\Generated_Source\PSoC5/USBUART_episr.c ****                 USBUART_MIDI_OUT_Service();
 415:.\Generated_Source\PSoC5/USBUART_episr.c ****             }
 416:.\Generated_Source\PSoC5/USBUART_episr.c ****         #endif /* (USBUART_ISR_SERVICE_MIDI_OUT) */
 417:.\Generated_Source\PSoC5/USBUART_episr.c ****     #endif /* (!(CY_PSOC4 && USBUART_EP_MANAGEMENT_DMA_AUTO)) */
 418:.\Generated_Source\PSoC5/USBUART_episr.c **** 
 419:.\Generated_Source\PSoC5/USBUART_episr.c ****         /* `#START EP5_END_USER_CODE` Place your code here */
 420:.\Generated_Source\PSoC5/USBUART_episr.c **** 
 421:.\Generated_Source\PSoC5/USBUART_episr.c ****         /* `#END` */
 422:.\Generated_Source\PSoC5/USBUART_episr.c **** 
 423:.\Generated_Source\PSoC5/USBUART_episr.c ****     #ifdef USBUART_EP_5_ISR_EXIT_CALLBACK
 424:.\Generated_Source\PSoC5/USBUART_episr.c ****         USBUART_EP_5_ISR_ExitCallback();
 425:.\Generated_Source\PSoC5/USBUART_episr.c ****     #endif /* (USBUART_EP_5_ISR_EXIT_CALLBACK) */
 426:.\Generated_Source\PSoC5/USBUART_episr.c **** 
 427:.\Generated_Source\PSoC5/USBUART_episr.c ****     #if (CY_PSOC3 && defined(USBUART_ENABLE_MIDI_STREAMING) && \
 428:.\Generated_Source\PSoC5/USBUART_episr.c ****         !defined(USBUART_MAIN_SERVICE_MIDI_OUT) && USBUART_ISR_SERVICE_MIDI_OUT)
 429:.\Generated_Source\PSoC5/USBUART_episr.c ****         
 430:.\Generated_Source\PSoC5/USBUART_episr.c ****             EA = intEn; /* Restore nested interrupt configuration. */
 431:.\Generated_Source\PSoC5/USBUART_episr.c ****         }
 432:.\Generated_Source\PSoC5/USBUART_episr.c ****     #endif /* (CY_PSOC3 && USBUART_ISR_SERVICE_MIDI_OUT) */
 433:.\Generated_Source\PSoC5/USBUART_episr.c ****     }
 434:.\Generated_Source\PSoC5/USBUART_episr.c **** #endif /* (USBUART_EP5_ISR_ACTIVE) */
 435:.\Generated_Source\PSoC5/USBUART_episr.c **** 
 436:.\Generated_Source\PSoC5/USBUART_episr.c **** 
 437:.\Generated_Source\PSoC5/USBUART_episr.c **** #if (USBUART_EP6_ISR_ACTIVE)
 438:.\Generated_Source\PSoC5/USBUART_episr.c ****     /*******************************************************************************
 439:.\Generated_Source\PSoC5/USBUART_episr.c ****     * Function Name: USBUART_EP_6_ISR
 440:.\Generated_Source\PSoC5/USBUART_episr.c ****     ****************************************************************************//**
 441:.\Generated_Source\PSoC5/USBUART_episr.c ****     *
 442:.\Generated_Source\PSoC5/USBUART_episr.c ****     *  Endpoint 6 Interrupt Service Routine.
 443:.\Generated_Source\PSoC5/USBUART_episr.c ****     *
 444:.\Generated_Source\PSoC5/USBUART_episr.c ****     *
 445:.\Generated_Source\PSoC5/USBUART_episr.c ****     *******************************************************************************/
 446:.\Generated_Source\PSoC5/USBUART_episr.c ****     CY_ISR(USBUART_EP_6_ISR)
 447:.\Generated_Source\PSoC5/USBUART_episr.c ****     {
 448:.\Generated_Source\PSoC5/USBUART_episr.c ****     #ifdef USBUART_EP_6_ISR_ENTRY_CALLBACK
 449:.\Generated_Source\PSoC5/USBUART_episr.c ****         USBUART_EP_6_ISR_EntryCallback();
 450:.\Generated_Source\PSoC5/USBUART_episr.c ****     #endif /* (USBUART_EP_6_ISR_ENTRY_CALLBACK) */
 451:.\Generated_Source\PSoC5/USBUART_episr.c **** 
 452:.\Generated_Source\PSoC5/USBUART_episr.c ****         /* `#START EP6_USER_CODE` Place your code here */
 453:.\Generated_Source\PSoC5/USBUART_episr.c **** 
 454:.\Generated_Source\PSoC5/USBUART_episr.c ****         /* `#END` */
 455:.\Generated_Source\PSoC5/USBUART_episr.c **** 
 456:.\Generated_Source\PSoC5/USBUART_episr.c ****     #if (CY_PSOC3 && defined(USBUART_ENABLE_MIDI_STREAMING) && \
 457:.\Generated_Source\PSoC5/USBUART_episr.c ****         !defined(USBUART_MAIN_SERVICE_MIDI_OUT) && USBUART_ISR_SERVICE_MIDI_OUT)
 458:.\Generated_Source\PSoC5/USBUART_episr.c ****         {
 459:.\Generated_Source\PSoC5/USBUART_episr.c ****             uint8 intEn = EA;
 460:.\Generated_Source\PSoC5/USBUART_episr.c ****             CyGlobalIntEnable;  /* Enable nested interrupts. */
ARM GAS  C:\Users\student\AppData\Local\Temp\cc0M93RX.s 			page 12


 461:.\Generated_Source\PSoC5/USBUART_episr.c ****     #endif /* (CY_PSOC3 && USBUART_ISR_SERVICE_MIDI_OUT) */
 462:.\Generated_Source\PSoC5/USBUART_episr.c **** 
 463:.\Generated_Source\PSoC5/USBUART_episr.c ****         USBUART_ClearSieEpInterruptSource(USBUART_SIE_INT_EP6_INTR);
 464:.\Generated_Source\PSoC5/USBUART_episr.c ****         
 465:.\Generated_Source\PSoC5/USBUART_episr.c ****         /* Notifies user that transfer IN or OUT transfer is completed.
 466:.\Generated_Source\PSoC5/USBUART_episr.c ****         * IN endpoint: endpoint buffer can be reloaded, Host is read data.
 467:.\Generated_Source\PSoC5/USBUART_episr.c ****         * OUT endpoint: data is ready to read from endpoint buffer. 
 468:.\Generated_Source\PSoC5/USBUART_episr.c ****         */
 469:.\Generated_Source\PSoC5/USBUART_episr.c ****     #if (CY_PSOC4 && USBUART_EP_MANAGEMENT_DMA_AUTO)
 470:.\Generated_Source\PSoC5/USBUART_episr.c ****         if (0u != (USBUART_EP[USBUART_EP6].addr & USBUART_DIR_IN))
 471:.\Generated_Source\PSoC5/USBUART_episr.c ****     #endif /* (USBUART_EP_MANAGEMENT_DMA_AUTO) */
 472:.\Generated_Source\PSoC5/USBUART_episr.c ****         {
 473:.\Generated_Source\PSoC5/USBUART_episr.c ****             /* Read CR0 register to clear SIE lock. */
 474:.\Generated_Source\PSoC5/USBUART_episr.c ****             (void) USBUART_SIE_EP_BASE.sieEp[USBUART_EP6].epCr0;
 475:.\Generated_Source\PSoC5/USBUART_episr.c **** 
 476:.\Generated_Source\PSoC5/USBUART_episr.c ****             /* Toggle all endpoint types except ISOC. */
 477:.\Generated_Source\PSoC5/USBUART_episr.c ****             if (USBUART_GET_EP_TYPE(USBUART_EP6) != USBUART_EP_TYPE_ISOC)
 478:.\Generated_Source\PSoC5/USBUART_episr.c ****             {
 479:.\Generated_Source\PSoC5/USBUART_episr.c ****                 USBUART_EP[USBUART_EP6].epToggle ^= USBUART_EPX_CNT_DATA_TOGGLE;
 480:.\Generated_Source\PSoC5/USBUART_episr.c ****             }
 481:.\Generated_Source\PSoC5/USBUART_episr.c ****             
 482:.\Generated_Source\PSoC5/USBUART_episr.c ****             /* EP_MANAGEMENT_DMA_AUTO (Ticket ID# 214187): For OUT endpoint this event is used to n
 483:.\Generated_Source\PSoC5/USBUART_episr.c ****             * user that DMA has completed copying data from OUT endpoint which is not completely tr
 484:.\Generated_Source\PSoC5/USBUART_episr.c ****             * Because last chunk of data is being copied.
 485:.\Generated_Source\PSoC5/USBUART_episr.c ****             * For CY_PSOC 3/5LP: it is acceptable as DMA is really fast.
 486:.\Generated_Source\PSoC5/USBUART_episr.c ****             * For CY_PSOC4: this event is set in Arbiter interrupt (source is DMA_TERMIN).
 487:.\Generated_Source\PSoC5/USBUART_episr.c ****             */
 488:.\Generated_Source\PSoC5/USBUART_episr.c ****             USBUART_EP[USBUART_EP6].apiEpState = USBUART_EVENT_PENDING;
 489:.\Generated_Source\PSoC5/USBUART_episr.c ****         }
 490:.\Generated_Source\PSoC5/USBUART_episr.c **** 
 491:.\Generated_Source\PSoC5/USBUART_episr.c ****     #if (!(CY_PSOC4 && USBUART_EP_MANAGEMENT_DMA_AUTO))
 492:.\Generated_Source\PSoC5/USBUART_episr.c ****         #if (defined(USBUART_ENABLE_MIDI_STREAMING) && \
 493:.\Generated_Source\PSoC5/USBUART_episr.c ****             !defined(USBUART_MAIN_SERVICE_MIDI_OUT) && USBUART_ISR_SERVICE_MIDI_OUT)
 494:.\Generated_Source\PSoC5/USBUART_episr.c ****             if (USBUART_midi_out_ep == USBUART_EP6)
 495:.\Generated_Source\PSoC5/USBUART_episr.c ****             {
 496:.\Generated_Source\PSoC5/USBUART_episr.c ****                 USBUART_MIDI_OUT_Service();
 497:.\Generated_Source\PSoC5/USBUART_episr.c ****             }
 498:.\Generated_Source\PSoC5/USBUART_episr.c ****         #endif /* (USBUART_ISR_SERVICE_MIDI_OUT) */
 499:.\Generated_Source\PSoC5/USBUART_episr.c ****     #endif /* (!(CY_PSOC4 && USBUART_EP_MANAGEMENT_DMA_AUTO)) */
 500:.\Generated_Source\PSoC5/USBUART_episr.c **** 
 501:.\Generated_Source\PSoC5/USBUART_episr.c ****         /* `#START EP6_END_USER_CODE` Place your code here */
 502:.\Generated_Source\PSoC5/USBUART_episr.c **** 
 503:.\Generated_Source\PSoC5/USBUART_episr.c ****         /* `#END` */
 504:.\Generated_Source\PSoC5/USBUART_episr.c **** 
 505:.\Generated_Source\PSoC5/USBUART_episr.c ****     #ifdef USBUART_EP_6_ISR_EXIT_CALLBACK
 506:.\Generated_Source\PSoC5/USBUART_episr.c ****         USBUART_EP_6_ISR_ExitCallback();
 507:.\Generated_Source\PSoC5/USBUART_episr.c ****     #endif /* (USBUART_EP_6_ISR_EXIT_CALLBACK) */
 508:.\Generated_Source\PSoC5/USBUART_episr.c **** 
 509:.\Generated_Source\PSoC5/USBUART_episr.c ****     #if (CY_PSOC3 && defined(USBUART_ENABLE_MIDI_STREAMING) && \
 510:.\Generated_Source\PSoC5/USBUART_episr.c ****         !defined(USBUART_MAIN_SERVICE_MIDI_OUT) && USBUART_ISR_SERVICE_MIDI_OUT)
 511:.\Generated_Source\PSoC5/USBUART_episr.c ****         
 512:.\Generated_Source\PSoC5/USBUART_episr.c ****             EA = intEn; /* Restore nested interrupt configuration. */
 513:.\Generated_Source\PSoC5/USBUART_episr.c ****         }
 514:.\Generated_Source\PSoC5/USBUART_episr.c ****     #endif /* (CY_PSOC3 && USBUART_ISR_SERVICE_MIDI_OUT) */
 515:.\Generated_Source\PSoC5/USBUART_episr.c ****     }
 516:.\Generated_Source\PSoC5/USBUART_episr.c **** #endif /* (USBUART_EP6_ISR_ACTIVE) */
 517:.\Generated_Source\PSoC5/USBUART_episr.c **** 
ARM GAS  C:\Users\student\AppData\Local\Temp\cc0M93RX.s 			page 13


 518:.\Generated_Source\PSoC5/USBUART_episr.c **** 
 519:.\Generated_Source\PSoC5/USBUART_episr.c **** #if (USBUART_EP7_ISR_ACTIVE)
 520:.\Generated_Source\PSoC5/USBUART_episr.c ****     /*******************************************************************************
 521:.\Generated_Source\PSoC5/USBUART_episr.c ****     * Function Name: USBUART_EP_7_ISR
 522:.\Generated_Source\PSoC5/USBUART_episr.c ****     ****************************************************************************//**
 523:.\Generated_Source\PSoC5/USBUART_episr.c ****     *
 524:.\Generated_Source\PSoC5/USBUART_episr.c ****     *  Endpoint 7 Interrupt Service Routine.
 525:.\Generated_Source\PSoC5/USBUART_episr.c ****     *
 526:.\Generated_Source\PSoC5/USBUART_episr.c ****     *
 527:.\Generated_Source\PSoC5/USBUART_episr.c ****     *******************************************************************************/
 528:.\Generated_Source\PSoC5/USBUART_episr.c ****     CY_ISR(USBUART_EP_7_ISR)
 529:.\Generated_Source\PSoC5/USBUART_episr.c ****     {
 530:.\Generated_Source\PSoC5/USBUART_episr.c ****     #ifdef USBUART_EP_7_ISR_ENTRY_CALLBACK
 531:.\Generated_Source\PSoC5/USBUART_episr.c ****         USBUART_EP_7_ISR_EntryCallback();
 532:.\Generated_Source\PSoC5/USBUART_episr.c ****     #endif /* (USBUART_EP_7_ISR_ENTRY_CALLBACK) */
 533:.\Generated_Source\PSoC5/USBUART_episr.c **** 
 534:.\Generated_Source\PSoC5/USBUART_episr.c ****         /* `#START EP7_USER_CODE` Place your code here */
 535:.\Generated_Source\PSoC5/USBUART_episr.c **** 
 536:.\Generated_Source\PSoC5/USBUART_episr.c ****         /* `#END` */
 537:.\Generated_Source\PSoC5/USBUART_episr.c **** 
 538:.\Generated_Source\PSoC5/USBUART_episr.c ****     #if (CY_PSOC3 && defined(USBUART_ENABLE_MIDI_STREAMING) && \
 539:.\Generated_Source\PSoC5/USBUART_episr.c ****         !defined(USBUART_MAIN_SERVICE_MIDI_OUT) && USBUART_ISR_SERVICE_MIDI_OUT)
 540:.\Generated_Source\PSoC5/USBUART_episr.c ****         {
 541:.\Generated_Source\PSoC5/USBUART_episr.c ****             uint8 intEn = EA;
 542:.\Generated_Source\PSoC5/USBUART_episr.c ****             CyGlobalIntEnable;  /* Enable nested interrupts. */
 543:.\Generated_Source\PSoC5/USBUART_episr.c ****     #endif /* (CY_PSOC3 && USBUART_ISR_SERVICE_MIDI_OUT) */
 544:.\Generated_Source\PSoC5/USBUART_episr.c ****     
 545:.\Generated_Source\PSoC5/USBUART_episr.c ****         USBUART_ClearSieEpInterruptSource(USBUART_SIE_INT_EP7_INTR);
 546:.\Generated_Source\PSoC5/USBUART_episr.c ****         
 547:.\Generated_Source\PSoC5/USBUART_episr.c ****         /* Notifies user that transfer IN or OUT transfer is completed.
 548:.\Generated_Source\PSoC5/USBUART_episr.c ****         * IN endpoint: endpoint buffer can be reloaded, Host is read data.
 549:.\Generated_Source\PSoC5/USBUART_episr.c ****         * OUT endpoint: data is ready to read from endpoint buffer. 
 550:.\Generated_Source\PSoC5/USBUART_episr.c ****         */
 551:.\Generated_Source\PSoC5/USBUART_episr.c ****     #if (CY_PSOC4 && USBUART_EP_MANAGEMENT_DMA_AUTO)
 552:.\Generated_Source\PSoC5/USBUART_episr.c ****         if (0u != (USBUART_EP[USBUART_EP7].addr & USBUART_DIR_IN))
 553:.\Generated_Source\PSoC5/USBUART_episr.c ****     #endif /* (USBUART_EP_MANAGEMENT_DMA_AUTO) */
 554:.\Generated_Source\PSoC5/USBUART_episr.c ****         {           
 555:.\Generated_Source\PSoC5/USBUART_episr.c ****             /* Read CR0 register to clear SIE lock. */
 556:.\Generated_Source\PSoC5/USBUART_episr.c ****             (void) USBUART_SIE_EP_BASE.sieEp[USBUART_EP7].epCr0;
 557:.\Generated_Source\PSoC5/USBUART_episr.c **** 
 558:.\Generated_Source\PSoC5/USBUART_episr.c ****             /* Toggle all endpoint types except ISOC. */
 559:.\Generated_Source\PSoC5/USBUART_episr.c ****             if (USBUART_GET_EP_TYPE(USBUART_EP7) != USBUART_EP_TYPE_ISOC)
 560:.\Generated_Source\PSoC5/USBUART_episr.c ****             {
 561:.\Generated_Source\PSoC5/USBUART_episr.c ****                 USBUART_EP[USBUART_EP7].epToggle ^= USBUART_EPX_CNT_DATA_TOGGLE;
 562:.\Generated_Source\PSoC5/USBUART_episr.c ****             }
 563:.\Generated_Source\PSoC5/USBUART_episr.c ****             
 564:.\Generated_Source\PSoC5/USBUART_episr.c ****             /* EP_MANAGEMENT_DMA_AUTO (Ticket ID# 214187): For OUT endpoint this event is used to n
 565:.\Generated_Source\PSoC5/USBUART_episr.c ****             * user that DMA has completed copying data from OUT endpoint which is not completely tr
 566:.\Generated_Source\PSoC5/USBUART_episr.c ****             * Because last chunk of data is being copied.
 567:.\Generated_Source\PSoC5/USBUART_episr.c ****             * For CY_PSOC 3/5LP: it is acceptable as DMA is really fast.
 568:.\Generated_Source\PSoC5/USBUART_episr.c ****             * For CY_PSOC4: this event is set in Arbiter interrupt (source is DMA_TERMIN).
 569:.\Generated_Source\PSoC5/USBUART_episr.c ****             */
 570:.\Generated_Source\PSoC5/USBUART_episr.c ****             USBUART_EP[USBUART_EP7].apiEpState = USBUART_EVENT_PENDING;
 571:.\Generated_Source\PSoC5/USBUART_episr.c ****         }
 572:.\Generated_Source\PSoC5/USBUART_episr.c **** 
 573:.\Generated_Source\PSoC5/USBUART_episr.c **** 
 574:.\Generated_Source\PSoC5/USBUART_episr.c ****     #if (!(CY_PSOC4 && USBUART_EP_MANAGEMENT_DMA_AUTO))
ARM GAS  C:\Users\student\AppData\Local\Temp\cc0M93RX.s 			page 14


 575:.\Generated_Source\PSoC5/USBUART_episr.c ****         #if (defined(USBUART_ENABLE_MIDI_STREAMING) && \
 576:.\Generated_Source\PSoC5/USBUART_episr.c ****             !defined(USBUART_MAIN_SERVICE_MIDI_OUT) && USBUART_ISR_SERVICE_MIDI_OUT)
 577:.\Generated_Source\PSoC5/USBUART_episr.c ****             if(USBUART_midi_out_ep == USBUART_EP7)
 578:.\Generated_Source\PSoC5/USBUART_episr.c ****             {
 579:.\Generated_Source\PSoC5/USBUART_episr.c ****                 USBUART_MIDI_OUT_Service();
 580:.\Generated_Source\PSoC5/USBUART_episr.c ****             }
 581:.\Generated_Source\PSoC5/USBUART_episr.c ****         #endif /* (USBUART_ISR_SERVICE_MIDI_OUT) */
 582:.\Generated_Source\PSoC5/USBUART_episr.c ****     #endif /* (!(CY_PSOC4 && USBUART_EP_MANAGEMENT_DMA_AUTO)) */
 583:.\Generated_Source\PSoC5/USBUART_episr.c **** 
 584:.\Generated_Source\PSoC5/USBUART_episr.c ****         /* `#START EP7_END_USER_CODE` Place your code here */
 585:.\Generated_Source\PSoC5/USBUART_episr.c **** 
 586:.\Generated_Source\PSoC5/USBUART_episr.c ****         /* `#END` */
 587:.\Generated_Source\PSoC5/USBUART_episr.c **** 
 588:.\Generated_Source\PSoC5/USBUART_episr.c ****     #ifdef USBUART_EP_7_ISR_EXIT_CALLBACK
 589:.\Generated_Source\PSoC5/USBUART_episr.c ****         USBUART_EP_7_ISR_ExitCallback();
 590:.\Generated_Source\PSoC5/USBUART_episr.c ****     #endif /* (USBUART_EP_7_ISR_EXIT_CALLBACK) */
 591:.\Generated_Source\PSoC5/USBUART_episr.c **** 
 592:.\Generated_Source\PSoC5/USBUART_episr.c ****     #if (CY_PSOC3 && defined(USBUART_ENABLE_MIDI_STREAMING) && \
 593:.\Generated_Source\PSoC5/USBUART_episr.c ****         !defined(USBUART_MAIN_SERVICE_MIDI_OUT) && USBUART_ISR_SERVICE_MIDI_OUT)
 594:.\Generated_Source\PSoC5/USBUART_episr.c ****         
 595:.\Generated_Source\PSoC5/USBUART_episr.c ****             EA = intEn; /* Restore nested interrupt configuration. */
 596:.\Generated_Source\PSoC5/USBUART_episr.c ****         }
 597:.\Generated_Source\PSoC5/USBUART_episr.c ****     #endif /* (CY_PSOC3 && USBUART_ISR_SERVICE_MIDI_OUT) */
 598:.\Generated_Source\PSoC5/USBUART_episr.c ****     }
 599:.\Generated_Source\PSoC5/USBUART_episr.c **** #endif /* (USBUART_EP7_ISR_ACTIVE) */
 600:.\Generated_Source\PSoC5/USBUART_episr.c **** 
 601:.\Generated_Source\PSoC5/USBUART_episr.c **** 
 602:.\Generated_Source\PSoC5/USBUART_episr.c **** #if (USBUART_EP8_ISR_ACTIVE)
 603:.\Generated_Source\PSoC5/USBUART_episr.c ****     /*******************************************************************************
 604:.\Generated_Source\PSoC5/USBUART_episr.c ****     * Function Name: USBUART_EP_8_ISR
 605:.\Generated_Source\PSoC5/USBUART_episr.c ****     ****************************************************************************//**
 606:.\Generated_Source\PSoC5/USBUART_episr.c ****     *
 607:.\Generated_Source\PSoC5/USBUART_episr.c ****     *  Endpoint 8 Interrupt Service Routine
 608:.\Generated_Source\PSoC5/USBUART_episr.c ****     *
 609:.\Generated_Source\PSoC5/USBUART_episr.c ****     *
 610:.\Generated_Source\PSoC5/USBUART_episr.c ****     *******************************************************************************/
 611:.\Generated_Source\PSoC5/USBUART_episr.c ****     CY_ISR(USBUART_EP_8_ISR)
 612:.\Generated_Source\PSoC5/USBUART_episr.c ****     {
 613:.\Generated_Source\PSoC5/USBUART_episr.c ****     #ifdef USBUART_EP_8_ISR_ENTRY_CALLBACK
 614:.\Generated_Source\PSoC5/USBUART_episr.c ****         USBUART_EP_8_ISR_EntryCallback();
 615:.\Generated_Source\PSoC5/USBUART_episr.c ****     #endif /* (USBUART_EP_8_ISR_ENTRY_CALLBACK) */
 616:.\Generated_Source\PSoC5/USBUART_episr.c **** 
 617:.\Generated_Source\PSoC5/USBUART_episr.c ****         /* `#START EP8_USER_CODE` Place your code here */
 618:.\Generated_Source\PSoC5/USBUART_episr.c **** 
 619:.\Generated_Source\PSoC5/USBUART_episr.c ****         /* `#END` */
 620:.\Generated_Source\PSoC5/USBUART_episr.c **** 
 621:.\Generated_Source\PSoC5/USBUART_episr.c ****     #if (CY_PSOC3 && defined(USBUART_ENABLE_MIDI_STREAMING) && \
 622:.\Generated_Source\PSoC5/USBUART_episr.c ****         !defined(USBUART_MAIN_SERVICE_MIDI_OUT) && USBUART_ISR_SERVICE_MIDI_OUT)
 623:.\Generated_Source\PSoC5/USBUART_episr.c ****         {
 624:.\Generated_Source\PSoC5/USBUART_episr.c ****             uint8 intEn = EA;
 625:.\Generated_Source\PSoC5/USBUART_episr.c ****             CyGlobalIntEnable;  /* Enable nested interrupts. */
 626:.\Generated_Source\PSoC5/USBUART_episr.c ****     #endif /* (CY_PSOC3 && USBUART_ISR_SERVICE_MIDI_OUT) */
 627:.\Generated_Source\PSoC5/USBUART_episr.c **** 
 628:.\Generated_Source\PSoC5/USBUART_episr.c ****         USBUART_ClearSieEpInterruptSource(USBUART_SIE_INT_EP8_INTR);
 629:.\Generated_Source\PSoC5/USBUART_episr.c ****         
 630:.\Generated_Source\PSoC5/USBUART_episr.c ****         /* Notifies user that transfer IN or OUT transfer is completed.
 631:.\Generated_Source\PSoC5/USBUART_episr.c ****         * IN endpoint: endpoint buffer can be reloaded, Host is read data.
ARM GAS  C:\Users\student\AppData\Local\Temp\cc0M93RX.s 			page 15


 632:.\Generated_Source\PSoC5/USBUART_episr.c ****         * OUT endpoint: data is ready to read from endpoint buffer. 
 633:.\Generated_Source\PSoC5/USBUART_episr.c ****         */
 634:.\Generated_Source\PSoC5/USBUART_episr.c ****     #if (CY_PSOC4 && USBUART_EP_MANAGEMENT_DMA_AUTO)
 635:.\Generated_Source\PSoC5/USBUART_episr.c ****         if (0u != (USBUART_EP[USBUART_EP8].addr & USBUART_DIR_IN))
 636:.\Generated_Source\PSoC5/USBUART_episr.c ****     #endif /* (USBUART_EP_MANAGEMENT_DMA_AUTO) */
 637:.\Generated_Source\PSoC5/USBUART_episr.c ****         {
 638:.\Generated_Source\PSoC5/USBUART_episr.c ****             /* Read CR0 register to clear SIE lock. */
 639:.\Generated_Source\PSoC5/USBUART_episr.c ****             (void) USBUART_SIE_EP_BASE.sieEp[USBUART_EP8].epCr0;
 640:.\Generated_Source\PSoC5/USBUART_episr.c **** 
 641:.\Generated_Source\PSoC5/USBUART_episr.c ****             /* Toggle all endpoint types except ISOC. */
 642:.\Generated_Source\PSoC5/USBUART_episr.c ****             if (USBUART_GET_EP_TYPE(USBUART_EP8) != USBUART_EP_TYPE_ISOC)
 643:.\Generated_Source\PSoC5/USBUART_episr.c ****             {
 644:.\Generated_Source\PSoC5/USBUART_episr.c ****                 USBUART_EP[USBUART_EP8].epToggle ^= USBUART_EPX_CNT_DATA_TOGGLE;
 645:.\Generated_Source\PSoC5/USBUART_episr.c ****             }
 646:.\Generated_Source\PSoC5/USBUART_episr.c **** 
 647:.\Generated_Source\PSoC5/USBUART_episr.c ****             /* EP_MANAGEMENT_DMA_AUTO (Ticket ID# 214187): For OUT endpoint this event is used to n
 648:.\Generated_Source\PSoC5/USBUART_episr.c ****             * user that DMA has completed copying data from OUT endpoint which is not completely tr
 649:.\Generated_Source\PSoC5/USBUART_episr.c ****             * Because last chunk of data is being copied.
 650:.\Generated_Source\PSoC5/USBUART_episr.c ****             * For CY_PSOC 3/5LP: it is acceptable as DMA is really fast.
 651:.\Generated_Source\PSoC5/USBUART_episr.c ****             * For CY_PSOC4: this event is set in Arbiter interrupt (source is DMA_TERMIN).
 652:.\Generated_Source\PSoC5/USBUART_episr.c ****             */
 653:.\Generated_Source\PSoC5/USBUART_episr.c ****             USBUART_EP[USBUART_EP8].apiEpState = USBUART_EVENT_PENDING;
 654:.\Generated_Source\PSoC5/USBUART_episr.c ****         }
 655:.\Generated_Source\PSoC5/USBUART_episr.c **** 
 656:.\Generated_Source\PSoC5/USBUART_episr.c ****     #if (!(CY_PSOC4 && USBUART_EP_MANAGEMENT_DMA_AUTO))
 657:.\Generated_Source\PSoC5/USBUART_episr.c ****         #if (defined(USBUART_ENABLE_MIDI_STREAMING) && \
 658:.\Generated_Source\PSoC5/USBUART_episr.c ****             !defined(USBUART_MAIN_SERVICE_MIDI_OUT) && USBUART_ISR_SERVICE_MIDI_OUT)
 659:.\Generated_Source\PSoC5/USBUART_episr.c ****             if (USBUART_midi_out_ep == USBUART_EP8)
 660:.\Generated_Source\PSoC5/USBUART_episr.c ****             {
 661:.\Generated_Source\PSoC5/USBUART_episr.c ****                 USBUART_MIDI_OUT_Service();
 662:.\Generated_Source\PSoC5/USBUART_episr.c ****             }
 663:.\Generated_Source\PSoC5/USBUART_episr.c ****         #endif /* (USBUART_ISR_SERVICE_MIDI_OUT) */
 664:.\Generated_Source\PSoC5/USBUART_episr.c ****     #endif /* (!(CY_PSOC4 && USBUART_EP_MANAGEMENT_DMA_AUTO)) */
 665:.\Generated_Source\PSoC5/USBUART_episr.c **** 
 666:.\Generated_Source\PSoC5/USBUART_episr.c ****         /* `#START EP8_END_USER_CODE` Place your code here */
 667:.\Generated_Source\PSoC5/USBUART_episr.c **** 
 668:.\Generated_Source\PSoC5/USBUART_episr.c ****         /* `#END` */
 669:.\Generated_Source\PSoC5/USBUART_episr.c **** 
 670:.\Generated_Source\PSoC5/USBUART_episr.c ****     #ifdef USBUART_EP_8_ISR_EXIT_CALLBACK
 671:.\Generated_Source\PSoC5/USBUART_episr.c ****         USBUART_EP_8_ISR_ExitCallback();
 672:.\Generated_Source\PSoC5/USBUART_episr.c ****     #endif /* (USBUART_EP_8_ISR_EXIT_CALLBACK) */
 673:.\Generated_Source\PSoC5/USBUART_episr.c **** 
 674:.\Generated_Source\PSoC5/USBUART_episr.c ****     #if (CY_PSOC3 && defined(USBUART_ENABLE_MIDI_STREAMING) && \
 675:.\Generated_Source\PSoC5/USBUART_episr.c ****         !defined(USBUART_MAIN_SERVICE_MIDI_OUT) && USBUART_ISR_SERVICE_MIDI_OUT)
 676:.\Generated_Source\PSoC5/USBUART_episr.c ****         
 677:.\Generated_Source\PSoC5/USBUART_episr.c ****             EA = intEn; /* Restore nested interrupt configuration. */
 678:.\Generated_Source\PSoC5/USBUART_episr.c ****         }
 679:.\Generated_Source\PSoC5/USBUART_episr.c ****     #endif /* (CY_PSOC3 && USBUART_ISR_SERVICE_MIDI_OUT) */
 680:.\Generated_Source\PSoC5/USBUART_episr.c ****     }
 681:.\Generated_Source\PSoC5/USBUART_episr.c **** #endif /* (USBUART_EP8_ISR_ACTIVE) */
 682:.\Generated_Source\PSoC5/USBUART_episr.c **** 
 683:.\Generated_Source\PSoC5/USBUART_episr.c **** 
 684:.\Generated_Source\PSoC5/USBUART_episr.c **** #if (USBUART_SOF_ISR_ACTIVE)
 685:.\Generated_Source\PSoC5/USBUART_episr.c ****     /*******************************************************************************
 686:.\Generated_Source\PSoC5/USBUART_episr.c ****     * Function Name: USBUART_SOF_ISR
 687:.\Generated_Source\PSoC5/USBUART_episr.c ****     ****************************************************************************//**
 688:.\Generated_Source\PSoC5/USBUART_episr.c ****     *
ARM GAS  C:\Users\student\AppData\Local\Temp\cc0M93RX.s 			page 16


 689:.\Generated_Source\PSoC5/USBUART_episr.c ****     *  Start of Frame Interrupt Service Routine.
 690:.\Generated_Source\PSoC5/USBUART_episr.c ****     *
 691:.\Generated_Source\PSoC5/USBUART_episr.c ****     *
 692:.\Generated_Source\PSoC5/USBUART_episr.c ****     *******************************************************************************/
 693:.\Generated_Source\PSoC5/USBUART_episr.c ****     CY_ISR(USBUART_SOF_ISR)
 694:.\Generated_Source\PSoC5/USBUART_episr.c ****     {
 168              		.loc 1 694 0
 169              		.cfi_startproc
 170              		@ args = 0, pretend = 0, frame = 0
 171              		@ frame_needed = 0, uses_anonymous_args = 0
 172              		@ link register save eliminated.
 173 0000 7047     		bx	lr
 174              		.cfi_endproc
 175              	.LFE3:
 176              		.size	USBUART_SOF_ISR, .-USBUART_SOF_ISR
 177 0002 00BF     		.section	.text.USBUART_BUS_RESET_ISR,"ax",%progbits
 178              		.align	2
 179              		.global	USBUART_BUS_RESET_ISR
 180              		.thumb
 181              		.thumb_func
 182              		.type	USBUART_BUS_RESET_ISR, %function
 183              	USBUART_BUS_RESET_ISR:
 184              	.LFB4:
 695:.\Generated_Source\PSoC5/USBUART_episr.c ****     #ifdef USBUART_SOF_ISR_ENTRY_CALLBACK
 696:.\Generated_Source\PSoC5/USBUART_episr.c ****         USBUART_SOF_ISR_EntryCallback();
 697:.\Generated_Source\PSoC5/USBUART_episr.c ****     #endif /* (USBUART_SOF_ISR_ENTRY_CALLBACK) */
 698:.\Generated_Source\PSoC5/USBUART_episr.c **** 
 699:.\Generated_Source\PSoC5/USBUART_episr.c ****         /* `#START SOF_USER_CODE` Place your code here */
 700:.\Generated_Source\PSoC5/USBUART_episr.c **** 
 701:.\Generated_Source\PSoC5/USBUART_episr.c ****         /* `#END` */
 702:.\Generated_Source\PSoC5/USBUART_episr.c **** 
 703:.\Generated_Source\PSoC5/USBUART_episr.c ****         USBUART_ClearSieInterruptSource(USBUART_INTR_SIE_SOF_INTR);
 704:.\Generated_Source\PSoC5/USBUART_episr.c **** 
 705:.\Generated_Source\PSoC5/USBUART_episr.c ****     #ifdef USBUART_SOF_ISR_EXIT_CALLBACK
 706:.\Generated_Source\PSoC5/USBUART_episr.c ****         USBUART_SOF_ISR_ExitCallback();
 707:.\Generated_Source\PSoC5/USBUART_episr.c ****     #endif /* (USBUART_SOF_ISR_EXIT_CALLBACK) */
 708:.\Generated_Source\PSoC5/USBUART_episr.c ****     }
 709:.\Generated_Source\PSoC5/USBUART_episr.c **** #endif /* (USBUART_SOF_ISR_ACTIVE) */
 710:.\Generated_Source\PSoC5/USBUART_episr.c **** 
 711:.\Generated_Source\PSoC5/USBUART_episr.c **** 
 712:.\Generated_Source\PSoC5/USBUART_episr.c **** #if (USBUART_BUS_RESET_ISR_ACTIVE)
 713:.\Generated_Source\PSoC5/USBUART_episr.c **** /*******************************************************************************
 714:.\Generated_Source\PSoC5/USBUART_episr.c **** * Function Name: USBUART_BUS_RESET_ISR
 715:.\Generated_Source\PSoC5/USBUART_episr.c **** ****************************************************************************//**
 716:.\Generated_Source\PSoC5/USBUART_episr.c **** *
 717:.\Generated_Source\PSoC5/USBUART_episr.c **** *  USB Bus Reset Interrupt Service Routine.  Calls _Start with the same
 718:.\Generated_Source\PSoC5/USBUART_episr.c **** *  parameters as the last USER call to _Start
 719:.\Generated_Source\PSoC5/USBUART_episr.c **** *
 720:.\Generated_Source\PSoC5/USBUART_episr.c **** *
 721:.\Generated_Source\PSoC5/USBUART_episr.c **** *******************************************************************************/
 722:.\Generated_Source\PSoC5/USBUART_episr.c **** CY_ISR(USBUART_BUS_RESET_ISR)
 723:.\Generated_Source\PSoC5/USBUART_episr.c **** {
 185              		.loc 1 723 0
 186              		.cfi_startproc
 187              		@ args = 0, pretend = 0, frame = 0
 188              		@ frame_needed = 0, uses_anonymous_args = 0
 189              		.loc 1 723 0
ARM GAS  C:\Users\student\AppData\Local\Temp\cc0M93RX.s 			page 17


 190 0000 08B5     		push	{r3, lr}
 191              		.cfi_def_cfa_offset 8
 192              		.cfi_offset 3, -8
 193              		.cfi_offset 14, -4
 724:.\Generated_Source\PSoC5/USBUART_episr.c **** #ifdef USBUART_BUS_RESET_ISR_ENTRY_CALLBACK
 725:.\Generated_Source\PSoC5/USBUART_episr.c ****     USBUART_BUS_RESET_ISR_EntryCallback();
 726:.\Generated_Source\PSoC5/USBUART_episr.c **** #endif /* (USBUART_BUS_RESET_ISR_ENTRY_CALLBACK) */
 727:.\Generated_Source\PSoC5/USBUART_episr.c **** 
 728:.\Generated_Source\PSoC5/USBUART_episr.c ****     /* `#START BUS_RESET_USER_CODE` Place your code here */
 729:.\Generated_Source\PSoC5/USBUART_episr.c **** 
 730:.\Generated_Source\PSoC5/USBUART_episr.c ****     /* `#END` */
 731:.\Generated_Source\PSoC5/USBUART_episr.c **** 
 732:.\Generated_Source\PSoC5/USBUART_episr.c ****     USBUART_ClearSieInterruptSource(USBUART_INTR_SIE_BUS_RESET_INTR);
 733:.\Generated_Source\PSoC5/USBUART_episr.c **** 
 734:.\Generated_Source\PSoC5/USBUART_episr.c ****     USBUART_ReInitComponent();
 194              		.loc 1 734 0
 195 0002 FFF7FEFF 		bl	USBUART_ReInitComponent
 196              	.LVL0:
 197 0006 08BD     		pop	{r3, pc}
 198              		.cfi_endproc
 199              	.LFE4:
 200              		.size	USBUART_BUS_RESET_ISR, .-USBUART_BUS_RESET_ISR
 201              		.text
 202              	.Letext0:
 203              		.file 2 ".\\Generated_Source\\PSoC5\\cytypes.h"
 204              		.file 3 ".\\Generated_Source\\PSoC5\\USBUART.h"
 205              		.file 4 ".\\Generated_Source\\PSoC5\\USBUART_pvt.h"