ARM GAS  C:\Users\student\AppData\Local\Temp\ccKONqO6.s 			page 1


   1              		.syntax unified
   2              		.cpu cortex-m3
   3              		.fpu softvfp
   4              		.eabi_attribute 20, 1
   5              		.eabi_attribute 21, 1
   6              		.eabi_attribute 23, 3
   7              		.eabi_attribute 24, 1
   8              		.eabi_attribute 25, 1
   9              		.eabi_attribute 26, 1
  10              		.eabi_attribute 30, 1
  11              		.eabi_attribute 34, 1
  12              		.eabi_attribute 18, 4
  13              		.thumb
  14              		.file	"XPT2046.c"
  15              		.text
  16              	.Ltext0:
  17              		.cfi_sections	.debug_frame
  18              		.section	.text.XPT2046_ReadPos,"ax",%progbits
  19              		.align	2
  20              		.global	XPT2046_ReadPos
  21              		.thumb
  22              		.thumb_func
  23              		.type	XPT2046_ReadPos, %function
  24              	XPT2046_ReadPos:
  25              	.LFB65:
  26              		.file 1 ".\\XPT2046.c"
   1:.\XPT2046.c   **** /*******************************************************************************
   2:.\XPT2046.c   **** * File Name: XPT2046.c
   3:.\XPT2046.c   **** *
   4:.\XPT2046.c   **** * Description:
   5:.\XPT2046.c   **** *  This is a driver for the Touch Screen Controller  XPT2046 
   6:.\XPT2046.c   **** *
   7:.\XPT2046.c   **** *  Data send and get by SPI
   8:.\XPT2046.c   **** *  Read Pos Coordinates X & Y with Basic Calibration
   9:.\XPT2046.c   **** *  Read Z Coordinate in Data Raw for Touch Pressure
  10:.\XPT2046.c   **** ********************************************************************************
  11:.\XPT2046.c   **** * Copyright (c) 2018 Andres F. Navas
  12:.\XPT2046.c   **** *******************************************************************************/
  13:.\XPT2046.c   **** 
  14:.\XPT2046.c   **** #include <project.h>
  15:.\XPT2046.c   **** #include <stdlib.h>
  16:.\XPT2046.c   **** #include "XPT2046.h"
  17:.\XPT2046.c   **** #include "defs.h"
  18:.\XPT2046.c   **** 
  19:.\XPT2046.c   **** #define DelayCycles         10      // About 400ns period for 63MHz BUS Clock
  20:.\XPT2046.c   **** #define XPT2046_MAX_ADC     0x0fff  // Max ADC Value of 12bits
  21:.\XPT2046.c   **** #define X_Min               400     // Min and Max coordinates in raw values for calibration
  22:.\XPT2046.c   **** #define X_Max               3500
  23:.\XPT2046.c   **** #define Y_Min               400
  24:.\XPT2046.c   **** #define Y_Max               3700
  25:.\XPT2046.c   **** 
  26:.\XPT2046.c   **** //**********************************************************
  27:.\XPT2046.c   **** //******** Send data to XPT2046   Touch Controller *********
  28:.\XPT2046.c   **** //********            SPI Transaction              *********
  29:.\XPT2046.c   **** //**********************************************************
  30:.\XPT2046.c   **** inline void Write_2046(unsigned char Num)          
  31:.\XPT2046.c   **** {
ARM GAS  C:\Users\student\AppData\Local\Temp\ccKONqO6.s 			page 2


  32:.\XPT2046.c   ****     unsigned char count = 0;
  33:.\XPT2046.c   ****     T_CLK_Write(0);
  34:.\XPT2046.c   ****     for(count = 0; count < 8; count++)  // Command control 8 bits
  35:.\XPT2046.c   ****     {
  36:.\XPT2046.c   ****         if(Num & 0x80) T_DIN_Write(1);   // Write command from MSB  to LSB        
  37:.\XPT2046.c   ****         else T_DIN_Write(0);
  38:.\XPT2046.c   ****         T_CLK_Write(0);                 // Rising Edge to write
  39:.\XPT2046.c   ****         CyDelayCycles(DelayCycles);
  40:.\XPT2046.c   ****         T_CLK_Write(1);
  41:.\XPT2046.c   ****         CyDelayCycles(DelayCycles);
  42:.\XPT2046.c   ****         Num <<= 1;                      // Shift the register
  43:.\XPT2046.c   ****     }
  44:.\XPT2046.c   **** }
  45:.\XPT2046.c   **** 
  46:.\XPT2046.c   **** //**********************************************************
  47:.\XPT2046.c   **** //******** Get data from XPT2046  Touch Controller *********
  48:.\XPT2046.c   **** //********            SPI Transaction              *********
  49:.\XPT2046.c   **** //**********************************************************
  50:.\XPT2046.c   **** inline uint16 Read_2046()             
  51:.\XPT2046.c   **** {
  52:.\XPT2046.c   **** 	uint8 count = 0;
  53:.\XPT2046.c   **** 	uint16 Num = 0;
  54:.\XPT2046.c   **** 	for(count = 0; count < 12; count++)     // ADC Data read 12 bits
  55:.\XPT2046.c   **** 	{
  56:.\XPT2046.c   **** 		Num <<= 1;		                    // Shift the register
  57:.\XPT2046.c   **** 		T_CLK_Write(1);                     // Falling Edge to read
  58:.\XPT2046.c   ****         CyDelayCycles(DelayCycles);           
  59:.\XPT2046.c   **** 		T_CLK_Write(0);
  60:.\XPT2046.c   ****         CyDelayCycles(DelayCycles);
  61:.\XPT2046.c   **** 		Num |= T_DO_Read();	            // Read the data from MSB to LSB
  62:.\XPT2046.c   **** 	}
  63:.\XPT2046.c   **** 
  64:.\XPT2046.c   **** return(Num);
  65:.\XPT2046.c   **** }	
  66:.\XPT2046.c   **** 
  67:.\XPT2046.c   **** //**********************************************************
  68:.\XPT2046.c   **** //******    Reading the position of the coordinate    ******
  69:.\XPT2046.c   **** //******            Data RAW / 12Bits ADC             ******
  70:.\XPT2046.c   **** //**********************************************************
  71:.\XPT2046.c   **** uint16 XPT2046_ReadPos(uint16 coord)
  72:.\XPT2046.c   **** {
  27              		.loc 1 72 0
  28              		.cfi_startproc
  29              		@ args = 0, pretend = 0, frame = 0
  30              		@ frame_needed = 0, uses_anonymous_args = 0
  31              	.LVL0:
  32 0000 38B5     		push	{r3, r4, r5, lr}
  33              		.cfi_def_cfa_offset 16
  34              		.cfi_offset 3, -16
  35              		.cfi_offset 4, -12
  36              		.cfi_offset 5, -8
  37              		.cfi_offset 14, -4
  38 0002 0446     		mov	r4, r0
  73:.\XPT2046.c   ****     uint16 pos;
  74:.\XPT2046.c   ****     T_CS_Write(0);
  39              		.loc 1 74 0
  40 0004 0020     		movs	r0, #0
ARM GAS  C:\Users\student\AppData\Local\Temp\ccKONqO6.s 			page 3


  41              	.LVL1:
  42 0006 FFF7FEFF 		bl	T_CS_Write
  43              	.LVL2:
  75:.\XPT2046.c   ****     Write_2046(coord);                    // Send Command     
  44              		.loc 1 75 0
  45 000a E4B2     		uxtb	r4, r4
  46              	.LVL3:
  47              	.LBB6:
  48              	.LBB7:
  33:.\XPT2046.c   ****     for(count = 0; count < 8; count++)  // Command control 8 bits
  49              		.loc 1 33 0
  50 000c 0020     		movs	r0, #0
  51 000e FFF7FEFF 		bl	T_CLK_Write
  52              	.LVL4:
  34:.\XPT2046.c   ****     {
  53              		.loc 1 34 0
  54 0012 0025     		movs	r5, #0
  55 0014 19E0     		b	.L2
  56              	.LVL5:
  57              	.L5:
  36:.\XPT2046.c   ****         else T_DIN_Write(0);
  58              		.loc 1 36 0
  59 0016 14F0800F 		tst	r4, #128
  60 001a 03D0     		beq	.L3
  61 001c 0120     		movs	r0, #1
  62 001e FFF7FEFF 		bl	T_DIN_Write
  63              	.LVL6:
  64 0022 02E0     		b	.L4
  65              	.L3:
  37:.\XPT2046.c   ****         T_CLK_Write(0);                 // Rising Edge to write
  66              		.loc 1 37 0
  67 0024 0020     		movs	r0, #0
  68 0026 FFF7FEFF 		bl	T_DIN_Write
  69              	.LVL7:
  70              	.L4:
  38:.\XPT2046.c   ****         CyDelayCycles(DelayCycles);
  71              		.loc 1 38 0
  72 002a 0020     		movs	r0, #0
  73 002c FFF7FEFF 		bl	T_CLK_Write
  74              	.LVL8:
  39:.\XPT2046.c   ****         T_CLK_Write(1);
  75              		.loc 1 39 0
  76 0030 0A20     		movs	r0, #10
  77 0032 FFF7FEFF 		bl	CyDelayCycles
  78              	.LVL9:
  40:.\XPT2046.c   ****         CyDelayCycles(DelayCycles);
  79              		.loc 1 40 0
  80 0036 0120     		movs	r0, #1
  81 0038 FFF7FEFF 		bl	T_CLK_Write
  82              	.LVL10:
  41:.\XPT2046.c   ****         Num <<= 1;                      // Shift the register
  83              		.loc 1 41 0
  84 003c 0A20     		movs	r0, #10
  85 003e FFF7FEFF 		bl	CyDelayCycles
  86              	.LVL11:
  42:.\XPT2046.c   ****     }
  87              		.loc 1 42 0
ARM GAS  C:\Users\student\AppData\Local\Temp\ccKONqO6.s 			page 4


  88 0042 6400     		lsls	r4, r4, #1
  89              	.LVL12:
  90 0044 E4B2     		uxtb	r4, r4
  91              	.LVL13:
  34:.\XPT2046.c   ****     {
  92              		.loc 1 34 0
  93 0046 0135     		adds	r5, r5, #1
  94              	.LVL14:
  95 0048 EDB2     		uxtb	r5, r5
  96              	.LVL15:
  97              	.L2:
  98 004a 072D     		cmp	r5, #7
  99 004c E3D9     		bls	.L5
 100              	.LBE7:
 101              	.LBE6:
  76:.\XPT2046.c   ****     T_CLK_Write(1);
 102              		.loc 1 76 0
 103 004e 0120     		movs	r0, #1
 104 0050 FFF7FEFF 		bl	T_CLK_Write
 105              	.LVL16:
  77:.\XPT2046.c   ****     CyDelayCycles(DelayCycles);           //Falling Edge to continue
 106              		.loc 1 77 0
 107 0054 0A20     		movs	r0, #10
 108 0056 FFF7FEFF 		bl	CyDelayCycles
 109              	.LVL17:
  78:.\XPT2046.c   ****     T_CLK_Write(0);
 110              		.loc 1 78 0
 111 005a 0020     		movs	r0, #0
 112 005c FFF7FEFF 		bl	T_CLK_Write
 113              	.LVL18:
  79:.\XPT2046.c   ****     CyDelayCycles(DelayCycles);
 114              		.loc 1 79 0
 115 0060 0A20     		movs	r0, #10
 116 0062 FFF7FEFF 		bl	CyDelayCycles
 117              	.LVL19:
 118              	.LBB8:
 119              	.LBB9:
  53:.\XPT2046.c   **** 	for(count = 0; count < 12; count++)     // ADC Data read 12 bits
 120              		.loc 1 53 0
 121 0066 0024     		movs	r4, #0
 122              	.LVL20:
  54:.\XPT2046.c   **** 	{
 123              		.loc 1 54 0
 124 0068 2546     		mov	r5, r4
 125              	.LVL21:
 126 006a 13E0     		b	.L6
 127              	.LVL22:
 128              	.L7:
  56:.\XPT2046.c   **** 		T_CLK_Write(1);                     // Falling Edge to read
 129              		.loc 1 56 0
 130 006c 6400     		lsls	r4, r4, #1
 131              	.LVL23:
 132 006e A4B2     		uxth	r4, r4
 133              	.LVL24:
  57:.\XPT2046.c   ****         CyDelayCycles(DelayCycles);           
 134              		.loc 1 57 0
 135 0070 0120     		movs	r0, #1
ARM GAS  C:\Users\student\AppData\Local\Temp\ccKONqO6.s 			page 5


 136 0072 FFF7FEFF 		bl	T_CLK_Write
 137              	.LVL25:
  58:.\XPT2046.c   **** 		T_CLK_Write(0);
 138              		.loc 1 58 0
 139 0076 0A20     		movs	r0, #10
 140 0078 FFF7FEFF 		bl	CyDelayCycles
 141              	.LVL26:
  59:.\XPT2046.c   ****         CyDelayCycles(DelayCycles);
 142              		.loc 1 59 0
 143 007c 0020     		movs	r0, #0
 144 007e FFF7FEFF 		bl	T_CLK_Write
 145              	.LVL27:
  60:.\XPT2046.c   **** 		Num |= T_DO_Read();	            // Read the data from MSB to LSB
 146              		.loc 1 60 0
 147 0082 0A20     		movs	r0, #10
 148 0084 FFF7FEFF 		bl	CyDelayCycles
 149              	.LVL28:
  61:.\XPT2046.c   **** 	}
 150              		.loc 1 61 0
 151 0088 FFF7FEFF 		bl	T_DO_Read
 152              	.LVL29:
 153 008c 2043     		orrs	r0, r0, r4
 154 008e 84B2     		uxth	r4, r0
 155              	.LVL30:
  54:.\XPT2046.c   **** 	{
 156              		.loc 1 54 0
 157 0090 0135     		adds	r5, r5, #1
 158              	.LVL31:
 159 0092 EDB2     		uxtb	r5, r5
 160              	.LVL32:
 161              	.L6:
 162 0094 0B2D     		cmp	r5, #11
 163 0096 E9D9     		bls	.L7
 164              	.LBE9:
 165              	.LBE8:
  80:.\XPT2046.c   ****     pos = Read_2046();                    // Read ADC data
  81:.\XPT2046.c   ****     T_CS_Write(1);
 166              		.loc 1 81 0
 167 0098 0120     		movs	r0, #1
 168 009a FFF7FEFF 		bl	T_CS_Write
 169              	.LVL33:
  82:.\XPT2046.c   ****     return pos;
  83:.\XPT2046.c   **** }
 170              		.loc 1 83 0
 171 009e 2046     		mov	r0, r4
 172 00a0 38BD     		pop	{r3, r4, r5, pc}
 173              		.cfi_endproc
 174              	.LFE65:
 175              		.size	XPT2046_ReadPos, .-XPT2046_ReadPos
 176 00a2 00BF     		.section	.text.XPT2046_Start,"ax",%progbits
 177              		.align	2
 178              		.global	XPT2046_Start
 179              		.thumb
 180              		.thumb_func
 181              		.type	XPT2046_Start, %function
 182              	XPT2046_Start:
 183              	.LFB66:
ARM GAS  C:\Users\student\AppData\Local\Temp\ccKONqO6.s 			page 6


  84:.\XPT2046.c   **** 
  85:.\XPT2046.c   **** //**********************************************************
  86:.\XPT2046.c   **** //*****************    Start controller   ******************
  87:.\XPT2046.c   **** //*****************  Enable the Touch IRQ ******************
  88:.\XPT2046.c   **** //**********************************************************
  89:.\XPT2046.c   **** void XPT2046_Start(void)
  90:.\XPT2046.c   **** {
 184              		.loc 1 90 0
 185              		.cfi_startproc
 186              		@ args = 0, pretend = 0, frame = 0
 187              		@ frame_needed = 0, uses_anonymous_args = 0
 188 0000 08B5     		push	{r3, lr}
 189              		.cfi_def_cfa_offset 8
 190              		.cfi_offset 3, -8
 191              		.cfi_offset 14, -4
  91:.\XPT2046.c   ****     XPT2046_ReadPos(0x80);
 192              		.loc 1 91 0
 193 0002 8020     		movs	r0, #128
 194 0004 FFF7FEFF 		bl	XPT2046_ReadPos
 195              	.LVL34:
  92:.\XPT2046.c   ****     CyDelay(5);
 196              		.loc 1 92 0
 197 0008 0520     		movs	r0, #5
 198 000a FFF7FEFF 		bl	CyDelay
 199              	.LVL35:
 200 000e 08BD     		pop	{r3, pc}
 201              		.cfi_endproc
 202              	.LFE66:
 203              		.size	XPT2046_Start, .-XPT2046_Start
 204              		.section	.text.XPT2046_ReadXY,"ax",%progbits
 205              		.align	2
 206              		.global	XPT2046_ReadXY
 207              		.thumb
 208              		.thumb_func
 209              		.type	XPT2046_ReadXY, %function
 210              	XPT2046_ReadXY:
 211              	.LFB67:
  93:.\XPT2046.c   **** }
  94:.\XPT2046.c   **** 
  95:.\XPT2046.c   **** //**********************************************************
  96:.\XPT2046.c   **** //*****************   Obtain X and Y Pos  ******************
  97:.\XPT2046.c   **** //*****************   Basic  Calibration  ******************
  98:.\XPT2046.c   **** //**********************************************************
  99:.\XPT2046.c   **** uint8 XPT2046_ReadXY(uint16 *X,  uint16 *Y)  // Return 1 if data is valid
 100:.\XPT2046.c   **** {
 212              		.loc 1 100 0
 213              		.cfi_startproc
 214              		@ args = 0, pretend = 0, frame = 0
 215              		@ frame_needed = 0, uses_anonymous_args = 0
 216              	.LVL36:
 217 0000 2DE9F843 		push	{r3, r4, r5, r6, r7, r8, r9, lr}
 218              		.cfi_def_cfa_offset 32
 219              		.cfi_offset 3, -32
 220              		.cfi_offset 4, -28
 221              		.cfi_offset 5, -24
 222              		.cfi_offset 6, -20
 223              		.cfi_offset 7, -16
ARM GAS  C:\Users\student\AppData\Local\Temp\ccKONqO6.s 			page 7


 224              		.cfi_offset 8, -12
 225              		.cfi_offset 9, -8
 226              		.cfi_offset 14, -4
 227 0004 8146     		mov	r9, r0
 228 0006 8846     		mov	r8, r1
 229              	.LVL37:
 101:.\XPT2046.c   ****     uint16 x0, y0, x1, y1, xav, yav, px, py;
 102:.\XPT2046.c   ****     uint16 timeout = 0;
 230              		.loc 1 102 0
 231 0008 0025     		movs	r5, #0
 232              	.LVL38:
 233              	.L13:
 103:.\XPT2046.c   ****     
 104:.\XPT2046.c   ****     do{         
 105:.\XPT2046.c   ****         XPT2046_ReadPos(0x90);                         
 234              		.loc 1 105 0 discriminator 5
 235 000a 9020     		movs	r0, #144
 236 000c FFF7FEFF 		bl	XPT2046_ReadPos
 237              	.LVL39:
 106:.\XPT2046.c   ****         y0 = XPT2046_ReadPos(0x90);     // read coordinate Y
 238              		.loc 1 106 0 discriminator 5
 239 0010 9020     		movs	r0, #144
 240 0012 FFF7FEFF 		bl	XPT2046_ReadPos
 241              	.LVL40:
 242 0016 0746     		mov	r7, r0
 243              	.LVL41:
 107:.\XPT2046.c   ****         y1 = XPT2046_ReadPos(0x90);     // again...
 244              		.loc 1 107 0 discriminator 5
 245 0018 9020     		movs	r0, #144
 246 001a FFF7FEFF 		bl	XPT2046_ReadPos
 247              	.LVL42:
 248 001e 0646     		mov	r6, r0
 249              	.LVL43:
 108:.\XPT2046.c   ****                               
 109:.\XPT2046.c   ****         XPT2046_ReadPos(0xd0);
 250              		.loc 1 109 0 discriminator 5
 251 0020 D020     		movs	r0, #208
 252 0022 FFF7FEFF 		bl	XPT2046_ReadPos
 253              	.LVL44:
 110:.\XPT2046.c   ****         x0 = XPT2046_ReadPos(0xd0);     // read coordinate X
 254              		.loc 1 110 0 discriminator 5
 255 0026 D020     		movs	r0, #208
 256 0028 FFF7FEFF 		bl	XPT2046_ReadPos
 257              	.LVL45:
 258 002c 0446     		mov	r4, r0
 259              	.LVL46:
 111:.\XPT2046.c   ****         x1 = XPT2046_ReadPos(0xd0);	    // again...                     
 260              		.loc 1 111 0 discriminator 5
 261 002e D020     		movs	r0, #208
 262 0030 FFF7FEFF 		bl	XPT2046_ReadPos
 263              	.LVL47:
 112:.\XPT2046.c   ****         
 113:.\XPT2046.c   ****         timeout++;                      // Incr. Time Out
 264              		.loc 1 113 0 discriminator 5
 265 0034 0135     		adds	r5, r5, #1
 266              	.LVL48:
 267 0036 ADB2     		uxth	r5, r5
ARM GAS  C:\Users\student\AppData\Local\Temp\ccKONqO6.s 			page 8


 268              	.LVL49:
 114:.\XPT2046.c   ****    }while(((abs(x0 - x1) > 50) && (abs(y0 - y1) > 50)) || timeout >= 255);     // Cycle if the erro
 269              		.loc 1 114 0 discriminator 5
 270 0038 2146     		mov	r1, r4
 271 003a 0346     		mov	r3, r0
 272 003c 241A     		subs	r4, r4, r0
 273              	.LVL50:
 274 003e 002C     		cmp	r4, #0
 275 0040 B8BF     		it	lt
 276 0042 6442     		rsblt	r4, r4, #0
 277 0044 322C     		cmp	r4, #50
 278 0046 05DD     		ble	.L12
 279              		.loc 1 114 0 is_stmt 0 discriminator 1
 280 0048 BA1B     		subs	r2, r7, r6
 281 004a 002A     		cmp	r2, #0
 282 004c B8BF     		it	lt
 283 004e 5242     		rsblt	r2, r2, #0
 284 0050 322A     		cmp	r2, #50
 285 0052 DADC     		bgt	.L13
 286              	.L12:
 287              		.loc 1 114 0 discriminator 4
 288 0054 FE2D     		cmp	r5, #254
 289 0056 D8D8     		bhi	.L13
 115:.\XPT2046.c   **** 
 116:.\XPT2046.c   ****     if(timeout < 255)       // Cycle ends with good data
 290              		.loc 1 116 0 is_stmt 1
 291 0058 35D8     		bhi	.L17
 117:.\XPT2046.c   ****     { 
 118:.\XPT2046.c   ****         // Update the current coordinate values
 119:.\XPT2046.c   ****         xav  = (x0 + x1)/2;                                     // Data raw Average for X and Y
 292              		.loc 1 119 0
 293 005a 0B44     		add	r3, r3, r1
 294 005c 03EBD373 		add	r3, r3, r3, lsr #31
 295              	.LVL51:
 120:.\XPT2046.c   ****         yav  = XPT2046_MAX_ADC - ((y0 + y1)/2);                 // Normalization of touchpad to ach
 296              		.loc 1 120 0
 297 0060 3E44     		add	r6, r6, r7
 298              	.LVL52:
 299 0062 06EBD676 		add	r6, r6, r6, lsr #31
 300 0066 40F6FF72 		movw	r2, #4095
 301 006a A2EB6602 		sub	r2, r2, r6, asr #1
 302 006e 92B2     		uxth	r2, r2
 303              	.LVL53:
 121:.\XPT2046.c   ****         px = ((xav - X_Min) * XSIZE_PHYS) / (X_Max - X_Min); // Calibration for LCD Panel Size; nee
 304              		.loc 1 121 0
 305 0070 C3F34F03 		ubfx	r3, r3, #1, #16
 306              	.LVL54:
 307 0074 A3F5C873 		sub	r3, r3, #400
 308 0078 C3EB0313 		rsb	r3, r3, r3, lsl #4
 309 007c 1B01     		lsls	r3, r3, #4
 310 007e 1349     		ldr	r1, .L21
 311              	.LVL55:
 312 0080 81FB0301 		smull	r0, r1, r1, r3
 313              	.LVL56:
 314 0084 1944     		add	r1, r1, r3
 315 0086 DB17     		asrs	r3, r3, #31
 316 0088 C3EBE123 		rsb	r3, r3, r1, asr #11
ARM GAS  C:\Users\student\AppData\Local\Temp\ccKONqO6.s 			page 9


 317 008c 9BB2     		uxth	r3, r3
 318              	.LVL57:
 122:.\XPT2046.c   ****         if(px <= 0) px = 0;
 123:.\XPT2046.c   ****         if(px >= XSIZE_PHYS) px = XSIZE_PHYS;
 319              		.loc 1 123 0
 320 008e EF2B     		cmp	r3, #239
 321 0090 00D9     		bls	.L15
 322 0092 F023     		movs	r3, #240
 323              	.LVL58:
 324              	.L15:
 124:.\XPT2046.c   ****         py = ((yav - Y_Min) * YSIZE_PHYS) / (Y_Max - Y_Min);
 325              		.loc 1 124 0
 326 0094 A2F5C872 		sub	r2, r2, #400
 327              	.LVL59:
 328 0098 02EB8202 		add	r2, r2, r2, lsl #2
 329              	.LVL60:
 330 009c 9201     		lsls	r2, r2, #6
 331 009e 0C49     		ldr	r1, .L21+4
 332 00a0 81FB0201 		smull	r0, r1, r1, r2
 333 00a4 1144     		add	r1, r1, r2
 334 00a6 D217     		asrs	r2, r2, #31
 335 00a8 C2EBE122 		rsb	r2, r2, r1, asr #11
 336 00ac 92B2     		uxth	r2, r2
 337              	.LVL61:
 125:.\XPT2046.c   ****         if(py <= 0) py = 0;
 126:.\XPT2046.c   ****         if(py >= YSIZE_PHYS) py = YSIZE_PHYS;
 338              		.loc 1 126 0
 339 00ae B2F5A07F 		cmp	r2, #320
 340 00b2 01D3     		bcc	.L16
 341 00b4 4FF4A072 		mov	r2, #320
 342              	.LVL62:
 343              	.L16:
 127:.\XPT2046.c   ****         *X = py; // Based on the orientation of my screen I flip here
 344              		.loc 1 127 0
 345 00b8 A9F80020 		strh	r2, [r9]	@ movhi
 128:.\XPT2046.c   ****         *Y = px;
 346              		.loc 1 128 0
 347 00bc A8F80030 		strh	r3, [r8]	@ movhi
 129:.\XPT2046.c   ****         return(1);      // Data Valid
 348              		.loc 1 129 0
 349 00c0 0120     		movs	r0, #1
 350 00c2 BDE8F883 		pop	{r3, r4, r5, r6, r7, r8, r9, pc}
 351              	.LVL63:
 352              	.L17:
 130:.\XPT2046.c   ****     }
 131:.\XPT2046.c   ****     else
 132:.\XPT2046.c   ****     {
 133:.\XPT2046.c   ****         return(0);      // Data not valid
 353              		.loc 1 133 0
 354 00c6 0020     		movs	r0, #0
 355              	.LVL64:
 134:.\XPT2046.c   ****     }
 135:.\XPT2046.c   **** }
 356              		.loc 1 135 0
 357 00c8 BDE8F883 		pop	{r3, r4, r5, r6, r7, r8, r9, pc}
 358              	.LVL65:
 359              	.L22:
ARM GAS  C:\Users\student\AppData\Local\Temp\ccKONqO6.s 			page 10


 360              		.align	2
 361              	.L21:
 362 00cc 930A20A9 		.word	-1457517933
 363 00d0 EF09E09E 		.word	-1629484561
 364              		.cfi_endproc
 365              	.LFE67:
 366              		.size	XPT2046_ReadXY, .-XPT2046_ReadXY
 367              		.section	.text.XPT2046_ReadZ,"ax",%progbits
 368              		.align	2
 369              		.global	XPT2046_ReadZ
 370              		.thumb
 371              		.thumb_func
 372              		.type	XPT2046_ReadZ, %function
 373              	XPT2046_ReadZ:
 374              	.LFB68:
 136:.\XPT2046.c   **** 
 137:.\XPT2046.c   **** //**********************************************************
 138:.\XPT2046.c   **** //**************    Obtain Z Coordinate    *****************
 139:.\XPT2046.c   **** //**************  Touch Pressure RAW Data  *****************
 140:.\XPT2046.c   **** //**********************************************************
 141:.\XPT2046.c   **** uint16 XPT2046_ReadZ(void)
 142:.\XPT2046.c   **** {
 375              		.loc 1 142 0
 376              		.cfi_startproc
 377              		@ args = 0, pretend = 0, frame = 0
 378              		@ frame_needed = 0, uses_anonymous_args = 0
 379 0000 10B5     		push	{r4, lr}
 380              		.cfi_def_cfa_offset 8
 381              		.cfi_offset 4, -8
 382              		.cfi_offset 14, -4
 143:.\XPT2046.c   ****     return(XPT2046_ReadPos(0xc0) - XPT2046_ReadPos(0xb0));      // Z Data Raw is inverse, so 4095 i
 383              		.loc 1 143 0
 384 0002 C020     		movs	r0, #192
 385 0004 FFF7FEFF 		bl	XPT2046_ReadPos
 386              	.LVL66:
 387 0008 0446     		mov	r4, r0
 388 000a B020     		movs	r0, #176
 389 000c FFF7FEFF 		bl	XPT2046_ReadPos
 390              	.LVL67:
 391 0010 201A     		subs	r0, r4, r0
 144:.\XPT2046.c   **** }
 392              		.loc 1 144 0
 393 0012 80B2     		uxth	r0, r0
 394 0014 10BD     		pop	{r4, pc}
 395              		.cfi_endproc
 396              	.LFE68:
 397              		.size	XPT2046_ReadZ, .-XPT2046_ReadZ
 398              		.comm	PosY,2,2
 399              		.comm	PosX,2,2
 400 0016 00BF     		.text
 401              	.Letext0:
 402              		.file 2 "c:\\program files (x86)\\cypress\\psoc creator\\3.3\\psoc creator\\import\\gnu\\arm\\4.9.
 403              		.file 3 "c:\\program files (x86)\\cypress\\psoc creator\\3.3\\psoc creator\\import\\gnu\\arm\\4.9.
 404              		.file 4 "Generated_Source\\PSoC5/cytypes.h"
 405              		.file 5 "Generated_Source\\PSoC5/core_cm3.h"
 406              		.file 6 ".\\XPT2046.h"
 407              		.file 7 "Generated_Source\\PSoC5/T_CLK.h"
ARM GAS  C:\Users\student\AppData\Local\Temp\ccKONqO6.s 			page 11


 408              		.file 8 "Generated_Source\\PSoC5/T_DIN.h"
 409              		.file 9 "Generated_Source\\PSoC5/CyLib.h"
 410              		.file 10 "Generated_Source\\PSoC5/T_CS.h"
 411              		.file 11 "Generated_Source\\PSoC5/T_DO.h"